(dp1
S'output'
p2
S"<type 'exceptions.UnboundLocalError'> local variable 'c' referenced before assignment"
p3
sS'layer'
p4
S'/home/arpita/courses/sem3/ssad/web2py/applications/project/controllers/default.py'
p5
sS'code'
p6
S'# -*- coding: utf-8 -*-\n# this file is released under public domain and you can use without limitations\n\n#########################################################################\n## This is a samples controller\n## - index is the default action of any application\n## - user is required for authentication and authorization\n## - download is for downloading files uploaded in the db (does streaming)\n## - call exposes all registered services (none by default)\n#########################################################################\n@auth.requires_membership(\'Administrator\')\ndef index():\n    emp=db().select(db.Employee.ALL, orderby=db.Employee.Importance_val)\n    \n    """\n    example action using the internationalization operator T and flash\n    rendered by views/default/index.html or views/generic.html\n    """\n    form=crud.create(db.Employee)\n    response.flash = "Employee Details"\n    return dict(form=form,emp=emp)\n\ndef user():\n    """\n    exposes:\n    http://..../[app]/default/user/login\n    http://..../[app]/default/user/logout\n    http://..../[app]/default/user/register\n    http://..../[app]/default/user/profile\n    http://..../[app]/default/user/retrieve_password\n    http://..../[app]/default/user/change_password\n    use @auth.requires_login()\n        @auth.requires_membership(\'group name\')\n        @auth.requires_permission(\'read\',\'table name\',record_id)\n    to decorate functions that need access control\n    """\n    return dict(form=auth())\n\n\n\n\n\n@auth.requires_signature()\ndef data():\n    """\n    http://..../[app]/default/data/tables\n    http://..../[app]/default/data/create/[table]\n    http://..../[app]/default/data/read/[table]/[id]\n    http://..../[app]/default/data/update/[table]/[id]\n    http://..../[app]/default/data/delete/[table]/[id]\n    http://..../[app]/default/data/select/[table]\n    http://..../[app]/default/data/search/[table]\n    but URLs must be signed, i.e. linked with\n      A(\'table\',_href=URL(\'data/tables\',user_signature=True))\n    or with the signed load operator\n      LOAD(\'default\',\'data.load\',args=\'tables\',ajax=True,user_signature=True)\n    """\n    return dict(form=crud())\n\ndef graph():\n    empl=db.Employee(request.args(0))\n    return dict(empl=empl)  \n \n\n\ndef relate():\n   response.flash= "Define Relation"\n   form=crud.create(db.Relation)\n   return dict(form=form)\n\n\nc=[]\nrep=[]\nvis=[]\ned=[]\np={}\nq={}\ndef kruskal():\n    \n    lis = db().select(db.Relation.ALL)\n    emp=db().select(db.Employee.ALL, orderby=db.Employee.Name)\n    counts=len(emp)\n    for i in xrange(counts+1):\n       c.append([])\n       vis.append([])\n       rep.append(i)\n       ed.append([])\n       for j in xrange(counts+1):\n          c[i].append(0)\n          vis[i].append(0)\n          ed[i].append(0)\n    for li in lis:\n       a=li.Emp1_id\n       b=li.Emp2_id\n       c[a][b]=1\n       \n    cou=0   \n    while cou !=counts:\n        min=100\n        for i in xrange(counts+1):\n            for j in xrange(counts+1):\n                if c[i][j]!=0 and vis[i][j]==0:\n                    if rep[i]!=rep[j]:\n                               vis[i][j]=1\n                               ed[i][j]=1\n                               count1=0\n                               count2=0\n                               for k in xrange(counts+1):\n                                        if rep[k]==rep[i]:\n                                            count1=count1+1\n                                        if rep[k]==rep[j]:\n                                            count2=count2+1\n                               if count1<count2:\n                                           for k in xrange(counts+1):\n                                                if rep[k]==rep[i] and k!=i:\n                                                    rep[k]=rep[j]\n                                           rep[i]=rep[j]\n                               else:\n                                        for k in xrange(counts+1):\n                                                   if rep[k]==rep[j] and k!=j:\n                                                        rep[k]=rep[i]\n                                        rep[j]=rep[i]\n\n                    else:\n                        vis[i][j]=1\n        cou=0\n        for k in xrange(counts+1):\n            if rep[k]==rep[1]:\n                    cou=cou+1\n        k=0            \n        for i in xrange(counts+1):\n                for j in xrange(counts+1):\n                      if ed[i][j]==1:\n                           p[k]=i\n                           q[k]=j\n                           k=k+1 \n    file = open(\'applications/project/controllers/myfile.txt\',\'w\')\n    for i in xrange(counts+1):\n        c=0  \n    \n    #    file = open(\'applications/project/controllers/myfile.txt\',\'a\')\n        for j in xrange(k):\n            file = open(\'applications/project/controllers/myfile.txt\',\'a\')\n            if p[j]==i:\n              c=c+1\n              if c==1:\n                file.write("\\"name\\":\\"%d\\", " %p[j])\n                file.write("\\"children\\":[\\n" %q[j])\n                #file.write(\'children=q[j]\')\n               # file.close()                                             \n    return dict(p=p,q=q)\n\nresponse._vars=response._caller(kruskal)\n'
p7
sS'snapshot'
p8
(dp9
S'exception'
p10
(dp11
S'__hash__'
p12
S"<method-wrapper '__hash__' of exceptions.UnboundLocalError object>"
p13
sS'__setattr__'
p14
S"<method-wrapper '__setattr__' of exceptions.UnboundLocalError object>"
p15
sS'__reduce_ex__'
p16
S'<built-in method __reduce_ex__ of exceptions.UnboundLocalError object>'
p17
sS'__getslice__'
p18
S"<method-wrapper '__getslice__' of exceptions.UnboundLocalError object>"
p19
sS'__getitem__'
p20
S"<method-wrapper '__getitem__' of exceptions.UnboundLocalError object>"
p21
sS'__setstate__'
p22
S'<built-in method __setstate__ of exceptions.UnboundLocalError object>'
p23
sS'__reduce__'
p24
S'<built-in method __reduce__ of exceptions.UnboundLocalError object>'
p25
sS'__str__'
p26
S"<method-wrapper '__str__' of exceptions.UnboundLocalError object>"
p27
sS'__format__'
p28
S'<built-in method __format__ of exceptions.UnboundLocalError object>'
p29
sS'__getattribute__'
p30
S"<method-wrapper '__getattribute__' of exceptions.UnboundLocalError object>"
p31
sS'__class__'
p32
S"<type 'exceptions.UnboundLocalError'>"
p33
sS'__unicode__'
p34
S'<built-in method __unicode__ of exceptions.UnboundLocalError object>'
p35
sS'__delattr__'
p36
S"<method-wrapper '__delattr__' of exceptions.UnboundLocalError object>"
p37
sS'__subclasshook__'
p38
S'<built-in method __subclasshook__ of type object>'
p39
sS'__repr__'
p40
S"<method-wrapper '__repr__' of exceptions.UnboundLocalError object>"
p41
sS'args'
p42
S'("local variable \'c\' referenced before assignment",)'
p43
sS'__dict__'
p44
S'{}'
p45
sS'__sizeof__'
p46
S'<built-in method __sizeof__ of exceptions.UnboundLocalError object>'
p47
sS'__doc__'
p48
S"'Local name referenced but not bound to a value.'"
p49
sS'__init__'
p50
S"<method-wrapper '__init__' of exceptions.UnboundLocalError object>"
p51
sS'__new__'
p52
S'<built-in method __new__ of type object>'
p53
ssS'evalue'
p54
S"local variable 'c' referenced before assignment"
p55
sS'request'
p56
ccopy_reg
_reconstructor
p57
(cgluon.html
BEAUTIFY
p58
c__builtin__
object
p59
NtRp60
(dp61
S'attributes'
p62
(dp63
sS'components'
p64
(lp65
g57
(cgluon.html
TABLE
p66
g59
NtRp67
(dp68
g62
(dp69
S'level'
p70
I5
ssS'parent'
p71
Nsg64
(lp72
g57
(cgluon.html
TR
p73
g59
NtRp74
(dp75
g62
(dp76
sg71
g67
sg64
(lp77
g57
(cgluon.html
TD
p78
g59
NtRp79
(dp80
g62
(dp81
S'_style'
p82
S'font-weight:bold;vertical-align:top'
p83
ssg71
g74
sg64
(lp84
S'ajax'
p85
asbag57
(g78
g59
NtRp86
(dp87
g62
(dp88
S'_valign'
p89
S'top'
p90
ssg71
g74
sg64
(lp91
S':'
asbag57
(g78
g59
NtRp92
(dp93
g62
(dp94
sg71
g74
sg64
(lp95
g57
(g58
g59
NtRp96
(dp97
g62
(dp98
g70
I5
ssg71
g92
sg64
(lp99
S'False'
p100
asbasbasbag57
(g73
g59
NtRp101
(dp102
g62
(dp103
sg71
g67
sg64
(lp104
g57
(g78
g59
NtRp105
(dp106
g62
(dp107
g82
g83
ssg71
g101
sg64
(lp108
S'application'
p109
asbag57
(g78
g59
NtRp110
(dp111
g62
(dp112
g89
g90
ssg71
g101
sg64
(lp113
S':'
asbag57
(g78
g59
NtRp114
(dp115
g62
(dp116
sg71
g101
sg64
(lp117
g57
(g58
g59
NtRp118
(dp119
g62
(dp120
g70
I5
ssg71
g114
sg64
(lp121
S'project'
p122
asbasbasbag57
(g73
g59
NtRp123
(dp124
g62
(dp125
sg71
g67
sg64
(lp126
g57
(g78
g59
NtRp127
(dp128
g62
(dp129
g82
g83
ssg71
g123
sg64
(lp130
g42
asbag57
(g78
g59
NtRp131
(dp132
g62
(dp133
g89
g90
ssg71
g123
sg64
(lp134
S':'
asbag57
(g78
g59
NtRp135
(dp136
g62
(dp137
sg71
g123
sg64
(lp138
g57
(g58
g59
NtRp139
(dp140
g62
(dp141
g70
I5
ssg71
g135
sg64
(lp142
g57
(g66
g59
NtRp143
(dp144
g62
(dp145
g70
I4
ssg71
Nsg64
(lp146
sbasbasbasbag57
(g73
g59
NtRp147
(dp148
g62
(dp149
sg71
g67
sg64
(lp150
g57
(g78
g59
NtRp151
(dp152
g62
(dp153
g82
g83
ssg71
g147
sg64
(lp154
S'body'
p155
asbag57
(g78
g59
NtRp156
(dp157
g62
(dp158
g89
g90
ssg71
g147
sg64
(lp159
S':'
asbag57
(g78
g59
NtRp160
(dp161
g62
(dp162
sg71
g147
sg64
(lp163
g57
(g58
g59
NtRp164
(dp165
g62
(dp166
g70
I5
ssg71
g160
sg64
(lp167
S'<cStringIO.StringO object at 0x9a9a580>'
p168
asbasbasbag57
(g73
g59
NtRp169
(dp170
g62
(dp171
sg71
g67
sg64
(lp172
g57
(g78
g59
NtRp173
(dp174
g62
(dp175
g82
g83
ssg71
g169
sg64
(lp176
S'client'
p177
asbag57
(g78
g59
NtRp178
(dp179
g62
(dp180
g89
g90
ssg71
g169
sg64
(lp181
S':'
asbag57
(g78
g59
NtRp182
(dp183
g62
(dp184
sg71
g169
sg64
(lp185
g57
(g58
g59
NtRp186
(dp187
g62
(dp188
g70
I5
ssg71
g182
sg64
(lp189
S'127.0.0.1'
p190
asbasbasbag57
(g73
g59
NtRp191
(dp192
g62
(dp193
sg71
g67
sg64
(lp194
g57
(g78
g59
NtRp195
(dp196
g62
(dp197
g82
g83
ssg71
g191
sg64
(lp198
S'controller'
p199
asbag57
(g78
g59
NtRp200
(dp201
g62
(dp202
g89
g90
ssg71
g191
sg64
(lp203
S':'
asbag57
(g78
g59
NtRp204
(dp205
g62
(dp206
sg71
g191
sg64
(lp207
g57
(g58
g59
NtRp208
(dp209
g62
(dp210
g70
I5
ssg71
g204
sg64
(lp211
S'default'
p212
asbasbasbag57
(g73
g59
NtRp213
(dp214
g62
(dp215
sg71
g67
sg64
(lp216
g57
(g78
g59
NtRp217
(dp218
g62
(dp219
g82
g83
ssg71
g213
sg64
(lp220
S'cookies'
p221
asbag57
(g78
g59
NtRp222
(dp223
g62
(dp224
g89
g90
ssg71
g213
sg64
(lp225
S':'
asbag57
(g78
g59
NtRp226
(dp227
g62
(dp228
sg71
g213
sg64
(lp229
g57
(g58
g59
NtRp230
(dp231
g62
(dp232
g70
I5
ssg71
g226
sg64
(lp233
g57
(g66
g59
NtRp234
(dp235
g62
(dp236
g70
I4
ssg71
Nsg64
(lp237
g57
(g73
g59
NtRp238
(dp239
g62
(dp240
sg71
g234
sg64
(lp241
g57
(g78
g59
NtRp242
(dp243
g62
(dp244
g82
g83
ssg71
g238
sg64
(lp245
S'session_id_admin'
p246
asbag57
(g78
g59
NtRp247
(dp248
g62
(dp249
g89
g90
ssg71
g238
sg64
(lp250
S':'
asbag57
(g78
g59
NtRp251
(dp252
g62
(dp253
sg71
g238
sg64
(lp254
g57
(g58
g59
NtRp255
(dp256
g62
(dp257
g70
I4
ssg71
g251
sg64
(lp258
g57
(g66
g59
NtRp259
(dp260
g62
(dp261
g70
I3
ssg71
Nsg64
(lp262
g57
(g73
g59
NtRp263
(dp264
g62
(dp265
sg71
g259
sg64
(lp266
g57
(g78
g59
NtRp267
(dp268
g62
(dp269
g82
g83
ssg71
g263
sg64
(lp270
S'comment'
p271
asbag57
(g78
g59
NtRp272
(dp273
g62
(dp274
g89
g90
ssg71
g263
sg64
(lp275
S':'
asbag57
(g78
g59
NtRp276
(dp277
g62
(dp278
sg71
g263
sg64
(lp279
g57
(g58
g59
NtRp280
(dp281
g62
(dp282
g70
I3
ssg71
g276
sg64
(lp283
S''
asbasbasbag57
(g73
g59
NtRp284
(dp285
g62
(dp286
sg71
g259
sg64
(lp287
g57
(g78
g59
NtRp288
(dp289
g62
(dp290
g82
g83
ssg71
g284
sg64
(lp291
S'domain'
p292
asbag57
(g78
g59
NtRp293
(dp294
g62
(dp295
g89
g90
ssg71
g284
sg64
(lp296
S':'
asbag57
(g78
g59
NtRp297
(dp298
g62
(dp299
sg71
g284
sg64
(lp300
g57
(g58
g59
NtRp301
(dp302
g62
(dp303
g70
I3
ssg71
g297
sg64
(lp304
S''
asbasbasbag57
(g73
g59
NtRp305
(dp306
g62
(dp307
sg71
g259
sg64
(lp308
g57
(g78
g59
NtRp309
(dp310
g62
(dp311
g82
g83
ssg71
g305
sg64
(lp312
S'expires'
p313
asbag57
(g78
g59
NtRp314
(dp315
g62
(dp316
g89
g90
ssg71
g305
sg64
(lp317
S':'
asbag57
(g78
g59
NtRp318
(dp319
g62
(dp320
sg71
g305
sg64
(lp321
g57
(g58
g59
NtRp322
(dp323
g62
(dp324
g70
I3
ssg71
g318
sg64
(lp325
S''
asbasbasbag57
(g73
g59
NtRp326
(dp327
g62
(dp328
sg71
g259
sg64
(lp329
g57
(g78
g59
NtRp330
(dp331
g62
(dp332
g82
g83
ssg71
g326
sg64
(lp333
S'httponly'
p334
asbag57
(g78
g59
NtRp335
(dp336
g62
(dp337
g89
g90
ssg71
g326
sg64
(lp338
S':'
asbag57
(g78
g59
NtRp339
(dp340
g62
(dp341
sg71
g326
sg64
(lp342
g57
(g58
g59
NtRp343
(dp344
g62
(dp345
g70
I3
ssg71
g339
sg64
(lp346
S''
asbasbasbag57
(g73
g59
NtRp347
(dp348
g62
(dp349
sg71
g259
sg64
(lp350
g57
(g78
g59
NtRp351
(dp352
g62
(dp353
g82
g83
ssg71
g347
sg64
(lp354
S'max-age'
p355
asbag57
(g78
g59
NtRp356
(dp357
g62
(dp358
g89
g90
ssg71
g347
sg64
(lp359
S':'
asbag57
(g78
g59
NtRp360
(dp361
g62
(dp362
sg71
g347
sg64
(lp363
g57
(g58
g59
NtRp364
(dp365
g62
(dp366
g70
I3
ssg71
g360
sg64
(lp367
S''
asbasbasbag57
(g73
g59
NtRp368
(dp369
g62
(dp370
sg71
g259
sg64
(lp371
g57
(g78
g59
NtRp372
(dp373
g62
(dp374
g82
g83
ssg71
g368
sg64
(lp375
S'path'
p376
asbag57
(g78
g59
NtRp377
(dp378
g62
(dp379
g89
g90
ssg71
g368
sg64
(lp380
S':'
asbag57
(g78
g59
NtRp381
(dp382
g62
(dp383
sg71
g368
sg64
(lp384
g57
(g58
g59
NtRp385
(dp386
g62
(dp387
g70
I3
ssg71
g381
sg64
(lp388
S''
asbasbasbag57
(g73
g59
NtRp389
(dp390
g62
(dp391
sg71
g259
sg64
(lp392
g57
(g78
g59
NtRp393
(dp394
g62
(dp395
g82
g83
ssg71
g389
sg64
(lp396
S'secure'
p397
asbag57
(g78
g59
NtRp398
(dp399
g62
(dp400
g89
g90
ssg71
g389
sg64
(lp401
S':'
asbag57
(g78
g59
NtRp402
(dp403
g62
(dp404
sg71
g389
sg64
(lp405
g57
(g58
g59
NtRp406
(dp407
g62
(dp408
g70
I3
ssg71
g402
sg64
(lp409
S''
asbasbasbag57
(g73
g59
NtRp410
(dp411
g62
(dp412
sg71
g259
sg64
(lp413
g57
(g78
g59
NtRp414
(dp415
g62
(dp416
g82
g83
ssg71
g410
sg64
(lp417
S'version'
p418
asbag57
(g78
g59
NtRp419
(dp420
g62
(dp421
g89
g90
ssg71
g410
sg64
(lp422
S':'
asbag57
(g78
g59
NtRp423
(dp424
g62
(dp425
sg71
g410
sg64
(lp426
g57
(g58
g59
NtRp427
(dp428
g62
(dp429
g70
I3
ssg71
g423
sg64
(lp430
S''
asbasbasbasbasbasbasbag57
(g73
g59
NtRp431
(dp432
g62
(dp433
sg71
g234
sg64
(lp434
g57
(g78
g59
NtRp435
(dp436
g62
(dp437
g82
g83
ssg71
g431
sg64
(lp438
S'session_id_project'
p439
asbag57
(g78
g59
NtRp440
(dp441
g62
(dp442
g89
g90
ssg71
g431
sg64
(lp443
S':'
asbag57
(g78
g59
NtRp444
(dp445
g62
(dp446
sg71
g431
sg64
(lp447
g57
(g58
g59
NtRp448
(dp449
g62
(dp450
g70
I4
ssg71
g444
sg64
(lp451
g57
(g66
g59
NtRp452
(dp453
g62
(dp454
g70
I3
ssg71
Nsg64
(lp455
g57
(g73
g59
NtRp456
(dp457
g62
(dp458
sg71
g452
sg64
(lp459
g57
(g78
g59
NtRp460
(dp461
g62
(dp462
g82
g83
ssg71
g456
sg64
(lp463
g271
asbag57
(g78
g59
NtRp464
(dp465
g62
(dp466
g89
g90
ssg71
g456
sg64
(lp467
S':'
asbag57
(g78
g59
NtRp468
(dp469
g62
(dp470
sg71
g456
sg64
(lp471
g57
(g58
g59
NtRp472
(dp473
g62
(dp474
g70
I3
ssg71
g468
sg64
(lp475
S''
asbasbasbag57
(g73
g59
NtRp476
(dp477
g62
(dp478
sg71
g452
sg64
(lp479
g57
(g78
g59
NtRp480
(dp481
g62
(dp482
g82
g83
ssg71
g476
sg64
(lp483
g292
asbag57
(g78
g59
NtRp484
(dp485
g62
(dp486
g89
g90
ssg71
g476
sg64
(lp487
S':'
asbag57
(g78
g59
NtRp488
(dp489
g62
(dp490
sg71
g476
sg64
(lp491
g57
(g58
g59
NtRp492
(dp493
g62
(dp494
g70
I3
ssg71
g488
sg64
(lp495
S''
asbasbasbag57
(g73
g59
NtRp496
(dp497
g62
(dp498
sg71
g452
sg64
(lp499
g57
(g78
g59
NtRp500
(dp501
g62
(dp502
g82
g83
ssg71
g496
sg64
(lp503
g313
asbag57
(g78
g59
NtRp504
(dp505
g62
(dp506
g89
g90
ssg71
g496
sg64
(lp507
S':'
asbag57
(g78
g59
NtRp508
(dp509
g62
(dp510
sg71
g496
sg64
(lp511
g57
(g58
g59
NtRp512
(dp513
g62
(dp514
g70
I3
ssg71
g508
sg64
(lp515
S''
asbasbasbag57
(g73
g59
NtRp516
(dp517
g62
(dp518
sg71
g452
sg64
(lp519
g57
(g78
g59
NtRp520
(dp521
g62
(dp522
g82
g83
ssg71
g516
sg64
(lp523
g334
asbag57
(g78
g59
NtRp524
(dp525
g62
(dp526
g89
g90
ssg71
g516
sg64
(lp527
S':'
asbag57
(g78
g59
NtRp528
(dp529
g62
(dp530
sg71
g516
sg64
(lp531
g57
(g58
g59
NtRp532
(dp533
g62
(dp534
g70
I3
ssg71
g528
sg64
(lp535
S''
asbasbasbag57
(g73
g59
NtRp536
(dp537
g62
(dp538
sg71
g452
sg64
(lp539
g57
(g78
g59
NtRp540
(dp541
g62
(dp542
g82
g83
ssg71
g536
sg64
(lp543
g355
asbag57
(g78
g59
NtRp544
(dp545
g62
(dp546
g89
g90
ssg71
g536
sg64
(lp547
S':'
asbag57
(g78
g59
NtRp548
(dp549
g62
(dp550
sg71
g536
sg64
(lp551
g57
(g58
g59
NtRp552
(dp553
g62
(dp554
g70
I3
ssg71
g548
sg64
(lp555
S''
asbasbasbag57
(g73
g59
NtRp556
(dp557
g62
(dp558
sg71
g452
sg64
(lp559
g57
(g78
g59
NtRp560
(dp561
g62
(dp562
g82
g83
ssg71
g556
sg64
(lp563
g376
asbag57
(g78
g59
NtRp564
(dp565
g62
(dp566
g89
g90
ssg71
g556
sg64
(lp567
S':'
asbag57
(g78
g59
NtRp568
(dp569
g62
(dp570
sg71
g556
sg64
(lp571
g57
(g58
g59
NtRp572
(dp573
g62
(dp574
g70
I3
ssg71
g568
sg64
(lp575
S''
asbasbasbag57
(g73
g59
NtRp576
(dp577
g62
(dp578
sg71
g452
sg64
(lp579
g57
(g78
g59
NtRp580
(dp581
g62
(dp582
g82
g83
ssg71
g576
sg64
(lp583
g397
asbag57
(g78
g59
NtRp584
(dp585
g62
(dp586
g89
g90
ssg71
g576
sg64
(lp587
S':'
asbag57
(g78
g59
NtRp588
(dp589
g62
(dp590
sg71
g576
sg64
(lp591
g57
(g58
g59
NtRp592
(dp593
g62
(dp594
g70
I3
ssg71
g588
sg64
(lp595
S''
asbasbasbag57
(g73
g59
NtRp596
(dp597
g62
(dp598
sg71
g452
sg64
(lp599
g57
(g78
g59
NtRp600
(dp601
g62
(dp602
g82
g83
ssg71
g596
sg64
(lp603
g418
asbag57
(g78
g59
NtRp604
(dp605
g62
(dp606
g89
g90
ssg71
g596
sg64
(lp607
S':'
asbag57
(g78
g59
NtRp608
(dp609
g62
(dp610
sg71
g596
sg64
(lp611
g57
(g58
g59
NtRp612
(dp613
g62
(dp614
g70
I3
ssg71
g608
sg64
(lp615
S''
asbasbasbasbasbasbasbag57
(g73
g59
NtRp616
(dp617
g62
(dp618
sg71
g234
sg64
(lp619
g57
(g78
g59
NtRp620
(dp621
g62
(dp622
g82
g83
ssg71
g616
sg64
(lp623
S'session_id_welcome'
p624
asbag57
(g78
g59
NtRp625
(dp626
g62
(dp627
g89
g90
ssg71
g616
sg64
(lp628
S':'
asbag57
(g78
g59
NtRp629
(dp630
g62
(dp631
sg71
g616
sg64
(lp632
g57
(g58
g59
NtRp633
(dp634
g62
(dp635
g70
I4
ssg71
g629
sg64
(lp636
g57
(g66
g59
NtRp637
(dp638
g62
(dp639
g70
I3
ssg71
Nsg64
(lp640
g57
(g73
g59
NtRp641
(dp642
g62
(dp643
sg71
g637
sg64
(lp644
g57
(g78
g59
NtRp645
(dp646
g62
(dp647
g82
g83
ssg71
g641
sg64
(lp648
g271
asbag57
(g78
g59
NtRp649
(dp650
g62
(dp651
g89
g90
ssg71
g641
sg64
(lp652
S':'
asbag57
(g78
g59
NtRp653
(dp654
g62
(dp655
sg71
g641
sg64
(lp656
g57
(g58
g59
NtRp657
(dp658
g62
(dp659
g70
I3
ssg71
g653
sg64
(lp660
S''
asbasbasbag57
(g73
g59
NtRp661
(dp662
g62
(dp663
sg71
g637
sg64
(lp664
g57
(g78
g59
NtRp665
(dp666
g62
(dp667
g82
g83
ssg71
g661
sg64
(lp668
g292
asbag57
(g78
g59
NtRp669
(dp670
g62
(dp671
g89
g90
ssg71
g661
sg64
(lp672
S':'
asbag57
(g78
g59
NtRp673
(dp674
g62
(dp675
sg71
g661
sg64
(lp676
g57
(g58
g59
NtRp677
(dp678
g62
(dp679
g70
I3
ssg71
g673
sg64
(lp680
S''
asbasbasbag57
(g73
g59
NtRp681
(dp682
g62
(dp683
sg71
g637
sg64
(lp684
g57
(g78
g59
NtRp685
(dp686
g62
(dp687
g82
g83
ssg71
g681
sg64
(lp688
g313
asbag57
(g78
g59
NtRp689
(dp690
g62
(dp691
g89
g90
ssg71
g681
sg64
(lp692
S':'
asbag57
(g78
g59
NtRp693
(dp694
g62
(dp695
sg71
g681
sg64
(lp696
g57
(g58
g59
NtRp697
(dp698
g62
(dp699
g70
I3
ssg71
g693
sg64
(lp700
S''
asbasbasbag57
(g73
g59
NtRp701
(dp702
g62
(dp703
sg71
g637
sg64
(lp704
g57
(g78
g59
NtRp705
(dp706
g62
(dp707
g82
g83
ssg71
g701
sg64
(lp708
g334
asbag57
(g78
g59
NtRp709
(dp710
g62
(dp711
g89
g90
ssg71
g701
sg64
(lp712
S':'
asbag57
(g78
g59
NtRp713
(dp714
g62
(dp715
sg71
g701
sg64
(lp716
g57
(g58
g59
NtRp717
(dp718
g62
(dp719
g70
I3
ssg71
g713
sg64
(lp720
S''
asbasbasbag57
(g73
g59
NtRp721
(dp722
g62
(dp723
sg71
g637
sg64
(lp724
g57
(g78
g59
NtRp725
(dp726
g62
(dp727
g82
g83
ssg71
g721
sg64
(lp728
g355
asbag57
(g78
g59
NtRp729
(dp730
g62
(dp731
g89
g90
ssg71
g721
sg64
(lp732
S':'
asbag57
(g78
g59
NtRp733
(dp734
g62
(dp735
sg71
g721
sg64
(lp736
g57
(g58
g59
NtRp737
(dp738
g62
(dp739
g70
I3
ssg71
g733
sg64
(lp740
S''
asbasbasbag57
(g73
g59
NtRp741
(dp742
g62
(dp743
sg71
g637
sg64
(lp744
g57
(g78
g59
NtRp745
(dp746
g62
(dp747
g82
g83
ssg71
g741
sg64
(lp748
g376
asbag57
(g78
g59
NtRp749
(dp750
g62
(dp751
g89
g90
ssg71
g741
sg64
(lp752
S':'
asbag57
(g78
g59
NtRp753
(dp754
g62
(dp755
sg71
g741
sg64
(lp756
g57
(g58
g59
NtRp757
(dp758
g62
(dp759
g70
I3
ssg71
g753
sg64
(lp760
S''
asbasbasbag57
(g73
g59
NtRp761
(dp762
g62
(dp763
sg71
g637
sg64
(lp764
g57
(g78
g59
NtRp765
(dp766
g62
(dp767
g82
g83
ssg71
g761
sg64
(lp768
g397
asbag57
(g78
g59
NtRp769
(dp770
g62
(dp771
g89
g90
ssg71
g761
sg64
(lp772
S':'
asbag57
(g78
g59
NtRp773
(dp774
g62
(dp775
sg71
g761
sg64
(lp776
g57
(g58
g59
NtRp777
(dp778
g62
(dp779
g70
I3
ssg71
g773
sg64
(lp780
S''
asbasbasbag57
(g73
g59
NtRp781
(dp782
g62
(dp783
sg71
g637
sg64
(lp784
g57
(g78
g59
NtRp785
(dp786
g62
(dp787
g82
g83
ssg71
g781
sg64
(lp788
g418
asbag57
(g78
g59
NtRp789
(dp790
g62
(dp791
g89
g90
ssg71
g781
sg64
(lp792
S':'
asbag57
(g78
g59
NtRp793
(dp794
g62
(dp795
sg71
g781
sg64
(lp796
g57
(g58
g59
NtRp797
(dp798
g62
(dp799
g70
I3
ssg71
g793
sg64
(lp800
S''
asbasbasbasbasbasbasbasbasbasbasbag57
(g73
g59
NtRp801
(dp802
g62
(dp803
sg71
g67
sg64
(lp804
g57
(g78
g59
NtRp805
(dp806
g62
(dp807
g82
g83
ssg71
g801
sg64
(lp808
S'env'
p809
asbag57
(g78
g59
NtRp810
(dp811
g62
(dp812
g89
g90
ssg71
g801
sg64
(lp813
S':'
asbag57
(g78
g59
NtRp814
(dp815
g62
(dp816
sg71
g801
sg64
(lp817
g57
(g58
g59
NtRp818
(dp819
g62
(dp820
g70
I5
ssg71
g814
sg64
(lp821
g57
(g66
g59
NtRp822
(dp823
g62
(dp824
g70
I4
ssg71
Nsg64
(lp825
g57
(g73
g59
NtRp826
(dp827
g62
(dp828
sg71
g822
sg64
(lp829
g57
(g78
g59
NtRp830
(dp831
g62
(dp832
g82
g83
ssg71
g826
sg64
(lp833
S'app_folders'
p834
asbag57
(g78
g59
NtRp835
(dp836
g62
(dp837
g89
g90
ssg71
g826
sg64
(lp838
S':'
asbag57
(g78
g59
NtRp839
(dp840
g62
(dp841
sg71
g826
sg64
(lp842
g57
(g58
g59
NtRp843
(dp844
g62
(dp845
g70
I4
ssg71
g839
sg64
(lp846
S"set(['/home/arpita/courses/sem3/ssad/web2py/applications/admin/', '/home/arpita/courses/sem3/ssad/web2py/applications/project/', '/home/arpita/courses/sem3/ssad/web2py/applications/welcome/'])"
p847
asbasbasbag57
(g73
g59
NtRp848
(dp849
g62
(dp850
sg71
g822
sg64
(lp851
g57
(g78
g59
NtRp852
(dp853
g62
(dp854
g82
g83
ssg71
g848
sg64
(lp855
S'applications_parent'
p856
asbag57
(g78
g59
NtRp857
(dp858
g62
(dp859
g89
g90
ssg71
g848
sg64
(lp860
S':'
asbag57
(g78
g59
NtRp861
(dp862
g62
(dp863
sg71
g848
sg64
(lp864
g57
(g58
g59
NtRp865
(dp866
g62
(dp867
g70
I4
ssg71
g861
sg64
(lp868
S'/home/arpita/courses/sem3/ssad/web2py'
p869
asbasbasbag57
(g73
g59
NtRp870
(dp871
g62
(dp872
sg71
g822
sg64
(lp873
g57
(g78
g59
NtRp874
(dp875
g62
(dp876
g82
g83
ssg71
g870
sg64
(lp877
S'cmd_args'
p878
asbag57
(g78
g59
NtRp879
(dp880
g62
(dp881
g89
g90
ssg71
g870
sg64
(lp882
S':'
asbag57
(g78
g59
NtRp883
(dp884
g62
(dp885
sg71
g870
sg64
(lp886
g57
(g58
g59
NtRp887
(dp888
g62
(dp889
g70
I4
ssg71
g883
sg64
(lp890
g57
(g66
g59
NtRp891
(dp892
g62
(dp893
g70
I3
ssg71
Nsg64
(lp894
sbasbasbasbag57
(g73
g59
NtRp895
(dp896
g62
(dp897
sg71
g822
sg64
(lp898
g57
(g78
g59
NtRp899
(dp900
g62
(dp901
g82
g83
ssg71
g895
sg64
(lp902
S'cmd_options'
p903
asbag57
(g78
g59
NtRp904
(dp905
g62
(dp906
g89
g90
ssg71
g895
sg64
(lp907
S':'
asbag57
(g78
g59
NtRp908
(dp909
g62
(dp910
sg71
g895
sg64
(lp911
g57
(g58
g59
NtRp912
(dp913
g62
(dp914
g70
I4
ssg71
g908
sg64
(lp915
S"<Values at 0x93503cc: {'verbose': False, 'ip': '127.0.0.1', 'shutdown_timeout': 5, 'taskbar': False, 'nocron': False, 'pid_filename': 'httpserver.pid', 'maxthreads': None, 'softcron': False, 'server_name': 'arpita-HP-630-Notebook-PC', 'bpython': False, 'nogui': False, 'port': 8000, 'extcron': False, 'debuglevel': 30, 'test': None, 'folder': '/home/arpita/courses/sem3/ssad/web2py', 'config': '', 'import_models': False, 'winservice': '', 'shell': None, 'run': '', 'log_filename': 'httpserver.log', 'args': [''], 'socket_timeout': 5, 'ssl_ca_certificate': None, 'scheduler': None, 'profiler_filename': None, 'ssl_private_key': '', 'password': 'arpita', 'request_queue_size': 5, 'ssl_certificate': '', 'cronjob': False, 'numthreads': None, 'quiet': False, 'interfaces': None, 'minthreads': None, 'timeout': 10, 'plain': False, 'nobanner': False}>"
p916
asbasbasbag57
(g73
g59
NtRp917
(dp918
g62
(dp919
sg71
g822
sg64
(lp920
g57
(g78
g59
NtRp921
(dp922
g62
(dp923
g82
g83
ssg71
g917
sg64
(lp924
S'db_sessions'
p925
asbag57
(g78
g59
NtRp926
(dp927
g62
(dp928
g89
g90
ssg71
g917
sg64
(lp929
S':'
asbag57
(g78
g59
NtRp930
(dp931
g62
(dp932
sg71
g917
sg64
(lp933
g57
(g58
g59
NtRp934
(dp935
g62
(dp936
g70
I4
ssg71
g930
sg64
(lp937
S'set([])'
p938
asbasbasbag57
(g73
g59
NtRp939
(dp940
g62
(dp941
sg71
g822
sg64
(lp942
g57
(g78
g59
NtRp943
(dp944
g62
(dp945
g82
g83
ssg71
g939
sg64
(lp946
S'debugging'
p947
asbag57
(g78
g59
NtRp948
(dp949
g62
(dp950
g89
g90
ssg71
g939
sg64
(lp951
S':'
asbag57
(g78
g59
NtRp952
(dp953
g62
(dp954
sg71
g939
sg64
(lp955
g57
(g58
g59
NtRp956
(dp957
g62
(dp958
g70
I4
ssg71
g952
sg64
(lp959
g100
asbasbasbag57
(g73
g59
NtRp960
(dp961
g62
(dp962
sg71
g822
sg64
(lp963
g57
(g78
g59
NtRp964
(dp965
g62
(dp966
g82
g83
ssg71
g960
sg64
(lp967
S'gluon_parent'
p968
asbag57
(g78
g59
NtRp969
(dp970
g62
(dp971
g89
g90
ssg71
g960
sg64
(lp972
S':'
asbag57
(g78
g59
NtRp973
(dp974
g62
(dp975
sg71
g960
sg64
(lp976
g57
(g58
g59
NtRp977
(dp978
g62
(dp979
g70
I4
ssg71
g973
sg64
(lp980
S'/home/arpita/courses/sem3/ssad/web2py'
p981
asbasbasbag57
(g73
g59
NtRp982
(dp983
g62
(dp984
sg71
g822
sg64
(lp985
g57
(g78
g59
NtRp986
(dp987
g62
(dp988
g82
g83
ssg71
g982
sg64
(lp989
S'http_accept'
p990
asbag57
(g78
g59
NtRp991
(dp992
g62
(dp993
g89
g90
ssg71
g982
sg64
(lp994
S':'
asbag57
(g78
g59
NtRp995
(dp996
g62
(dp997
sg71
g982
sg64
(lp998
g57
(g58
g59
NtRp999
(dp1000
g62
(dp1001
g70
I4
ssg71
g995
sg64
(lp1002
S'text/html,application/xhtml+xml,application/xml;q=0.9,*/*;q=0.8'
p1003
asbasbasbag57
(g73
g59
NtRp1004
(dp1005
g62
(dp1006
sg71
g822
sg64
(lp1007
g57
(g78
g59
NtRp1008
(dp1009
g62
(dp1010
g82
g83
ssg71
g1004
sg64
(lp1011
S'http_accept_charset'
p1012
asbag57
(g78
g59
NtRp1013
(dp1014
g62
(dp1015
g89
g90
ssg71
g1004
sg64
(lp1016
S':'
asbag57
(g78
g59
NtRp1017
(dp1018
g62
(dp1019
sg71
g1004
sg64
(lp1020
g57
(g58
g59
NtRp1021
(dp1022
g62
(dp1023
g70
I4
ssg71
g1017
sg64
(lp1024
S'ISO-8859-1,utf-8;q=0.7,*;q=0.7'
p1025
asbasbasbag57
(g73
g59
NtRp1026
(dp1027
g62
(dp1028
sg71
g822
sg64
(lp1029
g57
(g78
g59
NtRp1030
(dp1031
g62
(dp1032
g82
g83
ssg71
g1026
sg64
(lp1033
S'http_accept_encoding'
p1034
asbag57
(g78
g59
NtRp1035
(dp1036
g62
(dp1037
g89
g90
ssg71
g1026
sg64
(lp1038
S':'
asbag57
(g78
g59
NtRp1039
(dp1040
g62
(dp1041
sg71
g1026
sg64
(lp1042
g57
(g58
g59
NtRp1043
(dp1044
g62
(dp1045
g70
I4
ssg71
g1039
sg64
(lp1046
S'gzip, deflate'
p1047
asbasbasbag57
(g73
g59
NtRp1048
(dp1049
g62
(dp1050
sg71
g822
sg64
(lp1051
g57
(g78
g59
NtRp1052
(dp1053
g62
(dp1054
g82
g83
ssg71
g1048
sg64
(lp1055
S'http_accept_language'
p1056
asbag57
(g78
g59
NtRp1057
(dp1058
g62
(dp1059
g89
g90
ssg71
g1048
sg64
(lp1060
S':'
asbag57
(g78
g59
NtRp1061
(dp1062
g62
(dp1063
sg71
g1048
sg64
(lp1064
g57
(g58
g59
NtRp1065
(dp1066
g62
(dp1067
g70
I4
ssg71
g1061
sg64
(lp1068
S'en-us,en;q=0.5'
p1069
asbasbasbag57
(g73
g59
NtRp1070
(dp1071
g62
(dp1072
sg71
g822
sg64
(lp1073
g57
(g78
g59
NtRp1074
(dp1075
g62
(dp1076
g82
g83
ssg71
g1070
sg64
(lp1077
S'http_connection'
p1078
asbag57
(g78
g59
NtRp1079
(dp1080
g62
(dp1081
g89
g90
ssg71
g1070
sg64
(lp1082
S':'
asbag57
(g78
g59
NtRp1083
(dp1084
g62
(dp1085
sg71
g1070
sg64
(lp1086
g57
(g58
g59
NtRp1087
(dp1088
g62
(dp1089
g70
I4
ssg71
g1083
sg64
(lp1090
S'keep-alive'
p1091
asbasbasbag57
(g73
g59
NtRp1092
(dp1093
g62
(dp1094
sg71
g822
sg64
(lp1095
g57
(g78
g59
NtRp1096
(dp1097
g62
(dp1098
g82
g83
ssg71
g1092
sg64
(lp1099
S'http_cookie'
p1100
asbag57
(g78
g59
NtRp1101
(dp1102
g62
(dp1103
g89
g90
ssg71
g1092
sg64
(lp1104
S':'
asbag57
(g78
g59
NtRp1105
(dp1106
g62
(dp1107
sg71
g1092
sg64
(lp1108
g57
(g58
g59
NtRp1109
(dp1110
g62
(dp1111
g70
I4
ssg71
g1105
sg64
(lp1112
S'session_id_welcome=127.0.0.1-9c82fec1-ee68-4ab5-a952-2bb51b97a7a5; session_id_admin=127.0.0.1-97c00625-00cf-4b63-8d3c-e2711983e0bb; session_id_project=127.0.0.1-d9e81940-7277-4247-97d4-d386c713cd25'
p1113
asbasbasbag57
(g73
g59
NtRp1114
(dp1115
g62
(dp1116
sg71
g822
sg64
(lp1117
g57
(g78
g59
NtRp1118
(dp1119
g62
(dp1120
g82
g83
ssg71
g1114
sg64
(lp1121
S'http_host'
p1122
asbag57
(g78
g59
NtRp1123
(dp1124
g62
(dp1125
g89
g90
ssg71
g1114
sg64
(lp1126
S':'
asbag57
(g78
g59
NtRp1127
(dp1128
g62
(dp1129
sg71
g1114
sg64
(lp1130
g57
(g58
g59
NtRp1131
(dp1132
g62
(dp1133
g70
I4
ssg71
g1127
sg64
(lp1134
S'127.0.0.1:8000'
p1135
asbasbasbag57
(g73
g59
NtRp1136
(dp1137
g62
(dp1138
sg71
g822
sg64
(lp1139
g57
(g78
g59
NtRp1140
(dp1141
g62
(dp1142
g82
g83
ssg71
g1136
sg64
(lp1143
S'http_referer'
p1144
asbag57
(g78
g59
NtRp1145
(dp1146
g62
(dp1147
g89
g90
ssg71
g1136
sg64
(lp1148
S':'
asbag57
(g78
g59
NtRp1149
(dp1150
g62
(dp1151
sg71
g1136
sg64
(lp1152
g57
(g58
g59
NtRp1153
(dp1154
g62
(dp1155
g70
I4
ssg71
g1149
sg64
(lp1156
S'http://127.0.0.1:8000/project/default/relate'
p1157
asbasbasbag57
(g73
g59
NtRp1158
(dp1159
g62
(dp1160
sg71
g822
sg64
(lp1161
g57
(g78
g59
NtRp1162
(dp1163
g62
(dp1164
g82
g83
ssg71
g1158
sg64
(lp1165
S'http_user_agent'
p1166
asbag57
(g78
g59
NtRp1167
(dp1168
g62
(dp1169
g89
g90
ssg71
g1158
sg64
(lp1170
S':'
asbag57
(g78
g59
NtRp1171
(dp1172
g62
(dp1173
sg71
g1158
sg64
(lp1174
g57
(g58
g59
NtRp1175
(dp1176
g62
(dp1177
g70
I4
ssg71
g1171
sg64
(lp1178
S'Mozilla/5.0 (X11; Linux i686; rv:7.0.1) Gecko/20100101 Firefox/7.0.1'
p1179
asbasbasbag57
(g73
g59
NtRp1180
(dp1181
g62
(dp1182
sg71
g822
sg64
(lp1183
g57
(g78
g59
NtRp1184
(dp1185
g62
(dp1186
g82
g83
ssg71
g1180
sg64
(lp1187
S'is_jython'
p1188
asbag57
(g78
g59
NtRp1189
(dp1190
g62
(dp1191
g89
g90
ssg71
g1180
sg64
(lp1192
S':'
asbag57
(g78
g59
NtRp1193
(dp1194
g62
(dp1195
sg71
g1180
sg64
(lp1196
g57
(g58
g59
NtRp1197
(dp1198
g62
(dp1199
g70
I4
ssg71
g1193
sg64
(lp1200
g100
asbasbasbag57
(g73
g59
NtRp1201
(dp1202
g62
(dp1203
sg71
g822
sg64
(lp1204
g57
(g78
g59
NtRp1205
(dp1206
g62
(dp1207
g82
g83
ssg71
g1201
sg64
(lp1208
S'is_pypy'
p1209
asbag57
(g78
g59
NtRp1210
(dp1211
g62
(dp1212
g89
g90
ssg71
g1201
sg64
(lp1213
S':'
asbag57
(g78
g59
NtRp1214
(dp1215
g62
(dp1216
sg71
g1201
sg64
(lp1217
g57
(g58
g59
NtRp1218
(dp1219
g62
(dp1220
g70
I4
ssg71
g1214
sg64
(lp1221
g100
asbasbasbag57
(g73
g59
NtRp1222
(dp1223
g62
(dp1224
sg71
g822
sg64
(lp1225
g57
(g78
g59
NtRp1226
(dp1227
g62
(dp1228
g82
g83
ssg71
g1222
sg64
(lp1229
S'path_info'
p1230
asbag57
(g78
g59
NtRp1231
(dp1232
g62
(dp1233
g89
g90
ssg71
g1222
sg64
(lp1234
S':'
asbag57
(g78
g59
NtRp1235
(dp1236
g62
(dp1237
sg71
g1222
sg64
(lp1238
g57
(g58
g59
NtRp1239
(dp1240
g62
(dp1241
g70
I4
ssg71
g1235
sg64
(lp1242
S'/project/default/kruskal'
p1243
asbasbasbag57
(g73
g59
NtRp1244
(dp1245
g62
(dp1246
sg71
g822
sg64
(lp1247
g57
(g78
g59
NtRp1248
(dp1249
g62
(dp1250
g82
g83
ssg71
g1244
sg64
(lp1251
S'query_string'
p1252
asbag57
(g78
g59
NtRp1253
(dp1254
g62
(dp1255
g89
g90
ssg71
g1244
sg64
(lp1256
S':'
asbag57
(g78
g59
NtRp1257
(dp1258
g62
(dp1259
sg71
g1244
sg64
(lp1260
g57
(g58
g59
NtRp1261
(dp1262
g62
(dp1263
g70
I4
ssg71
g1257
sg64
(lp1264
S''
asbasbasbag57
(g73
g59
NtRp1265
(dp1266
g62
(dp1267
sg71
g822
sg64
(lp1268
g57
(g78
g59
NtRp1269
(dp1270
g62
(dp1271
g82
g83
ssg71
g1265
sg64
(lp1272
S'remote_addr'
p1273
asbag57
(g78
g59
NtRp1274
(dp1275
g62
(dp1276
g89
g90
ssg71
g1265
sg64
(lp1277
S':'
asbag57
(g78
g59
NtRp1278
(dp1279
g62
(dp1280
sg71
g1265
sg64
(lp1281
g57
(g58
g59
NtRp1282
(dp1283
g62
(dp1284
g70
I4
ssg71
g1278
sg64
(lp1285
g190
asbasbasbag57
(g73
g59
NtRp1286
(dp1287
g62
(dp1288
sg71
g822
sg64
(lp1289
g57
(g78
g59
NtRp1290
(dp1291
g62
(dp1292
g82
g83
ssg71
g1286
sg64
(lp1293
S'remote_port'
p1294
asbag57
(g78
g59
NtRp1295
(dp1296
g62
(dp1297
g89
g90
ssg71
g1286
sg64
(lp1298
S':'
asbag57
(g78
g59
NtRp1299
(dp1300
g62
(dp1301
sg71
g1286
sg64
(lp1302
g57
(g58
g59
NtRp1303
(dp1304
g62
(dp1305
g70
I4
ssg71
g1299
sg64
(lp1306
S'38363'
p1307
asbasbasbag57
(g73
g59
NtRp1308
(dp1309
g62
(dp1310
sg71
g822
sg64
(lp1311
g57
(g78
g59
NtRp1312
(dp1313
g62
(dp1314
g82
g83
ssg71
g1308
sg64
(lp1315
S'request_method'
p1316
asbag57
(g78
g59
NtRp1317
(dp1318
g62
(dp1319
g89
g90
ssg71
g1308
sg64
(lp1320
S':'
asbag57
(g78
g59
NtRp1321
(dp1322
g62
(dp1323
sg71
g1308
sg64
(lp1324
g57
(g58
g59
NtRp1325
(dp1326
g62
(dp1327
g70
I4
ssg71
g1321
sg64
(lp1328
S'GET'
p1329
asbasbasbag57
(g73
g59
NtRp1330
(dp1331
g62
(dp1332
sg71
g822
sg64
(lp1333
g57
(g78
g59
NtRp1334
(dp1335
g62
(dp1336
g82
g83
ssg71
g1330
sg64
(lp1337
S'script_name'
p1338
asbag57
(g78
g59
NtRp1339
(dp1340
g62
(dp1341
g89
g90
ssg71
g1330
sg64
(lp1342
S':'
asbag57
(g78
g59
NtRp1343
(dp1344
g62
(dp1345
sg71
g1330
sg64
(lp1346
g57
(g58
g59
NtRp1347
(dp1348
g62
(dp1349
g70
I4
ssg71
g1343
sg64
(lp1350
S''
asbasbasbag57
(g73
g59
NtRp1351
(dp1352
g62
(dp1353
sg71
g822
sg64
(lp1354
g57
(g78
g59
NtRp1355
(dp1356
g62
(dp1357
g82
g83
ssg71
g1351
sg64
(lp1358
S'server_name'
p1359
asbag57
(g78
g59
NtRp1360
(dp1361
g62
(dp1362
g89
g90
ssg71
g1351
sg64
(lp1363
S':'
asbag57
(g78
g59
NtRp1364
(dp1365
g62
(dp1366
sg71
g1351
sg64
(lp1367
g57
(g58
g59
NtRp1368
(dp1369
g62
(dp1370
g70
I4
ssg71
g1364
sg64
(lp1371
S'arpita-HP-630-Notebook-PC'
p1372
asbasbasbag57
(g73
g59
NtRp1373
(dp1374
g62
(dp1375
sg71
g822
sg64
(lp1376
g57
(g78
g59
NtRp1377
(dp1378
g62
(dp1379
g82
g83
ssg71
g1373
sg64
(lp1380
S'server_port'
p1381
asbag57
(g78
g59
NtRp1382
(dp1383
g62
(dp1384
g89
g90
ssg71
g1373
sg64
(lp1385
S':'
asbag57
(g78
g59
NtRp1386
(dp1387
g62
(dp1388
sg71
g1373
sg64
(lp1389
g57
(g58
g59
NtRp1390
(dp1391
g62
(dp1392
g70
I4
ssg71
g1386
sg64
(lp1393
S'8000'
p1394
asbasbasbag57
(g73
g59
NtRp1395
(dp1396
g62
(dp1397
sg71
g822
sg64
(lp1398
g57
(g78
g59
NtRp1399
(dp1400
g62
(dp1401
g82
g83
ssg71
g1395
sg64
(lp1402
S'server_protocol'
p1403
asbag57
(g78
g59
NtRp1404
(dp1405
g62
(dp1406
g89
g90
ssg71
g1395
sg64
(lp1407
S':'
asbag57
(g78
g59
NtRp1408
(dp1409
g62
(dp1410
sg71
g1395
sg64
(lp1411
g57
(g58
g59
NtRp1412
(dp1413
g62
(dp1414
g70
I4
ssg71
g1408
sg64
(lp1415
S'HTTP/1.1'
p1416
asbasbasbag57
(g73
g59
NtRp1417
(dp1418
g62
(dp1419
sg71
g822
sg64
(lp1420
g57
(g78
g59
NtRp1421
(dp1422
g62
(dp1423
g82
g83
ssg71
g1417
sg64
(lp1424
S'server_software'
p1425
asbag57
(g78
g59
NtRp1426
(dp1427
g62
(dp1428
g89
g90
ssg71
g1417
sg64
(lp1429
S':'
asbag57
(g78
g59
NtRp1430
(dp1431
g62
(dp1432
sg71
g1417
sg64
(lp1433
g57
(g58
g59
NtRp1434
(dp1435
g62
(dp1436
g70
I4
ssg71
g1430
sg64
(lp1437
S'Rocket 1.2.4'
p1438
asbasbasbag57
(g73
g59
NtRp1439
(dp1440
g62
(dp1441
sg71
g822
sg64
(lp1442
g57
(g78
g59
NtRp1443
(dp1444
g62
(dp1445
g82
g83
ssg71
g1439
sg64
(lp1446
S'web2py_crontype'
p1447
asbag57
(g78
g59
NtRp1448
(dp1449
g62
(dp1450
g89
g90
ssg71
g1439
sg64
(lp1451
S':'
asbag57
(g78
g59
NtRp1452
(dp1453
g62
(dp1454
sg71
g1439
sg64
(lp1455
g57
(g58
g59
NtRp1456
(dp1457
g62
(dp1458
g70
I4
ssg71
g1452
sg64
(lp1459
S'hard'
p1460
asbasbasbag57
(g73
g59
NtRp1461
(dp1462
g62
(dp1463
sg71
g822
sg64
(lp1464
g57
(g78
g59
NtRp1465
(dp1466
g62
(dp1467
g82
g83
ssg71
g1461
sg64
(lp1468
S'web2py_path'
p1469
asbag57
(g78
g59
NtRp1470
(dp1471
g62
(dp1472
g89
g90
ssg71
g1461
sg64
(lp1473
S':'
asbag57
(g78
g59
NtRp1474
(dp1475
g62
(dp1476
sg71
g1461
sg64
(lp1477
g57
(g58
g59
NtRp1478
(dp1479
g62
(dp1480
g70
I4
ssg71
g1474
sg64
(lp1481
g869
asbasbasbag57
(g73
g59
NtRp1482
(dp1483
g62
(dp1484
sg71
g822
sg64
(lp1485
g57
(g78
g59
NtRp1486
(dp1487
g62
(dp1488
g82
g83
ssg71
g1482
sg64
(lp1489
S'web2py_version'
p1490
asbag57
(g78
g59
NtRp1491
(dp1492
g62
(dp1493
g89
g90
ssg71
g1482
sg64
(lp1494
S':'
asbag57
(g78
g59
NtRp1495
(dp1496
g62
(dp1497
sg71
g1482
sg64
(lp1498
g57
(g58
g59
NtRp1499
(dp1500
g62
(dp1501
g70
I4
ssg71
g1495
sg64
(lp1502
g57
(g66
g59
NtRp1503
(dp1504
g62
(dp1505
g70
I3
ssg71
Nsg64
(lp1506
g57
(g73
g59
NtRp1507
(dp1508
g62
(dp1509
sg71
g1503
sg64
(lp1510
g57
(g78
g59
NtRp1511
(dp1512
g62
(dp1513
sg71
g1507
sg64
(lp1514
g57
(g58
g59
NtRp1515
(dp1516
g62
(dp1517
g70
I3
ssg71
g1511
sg64
(lp1518
S'1'
asbasbasbag57
(g73
g59
NtRp1519
(dp1520
g62
(dp1521
sg71
g1503
sg64
(lp1522
g57
(g78
g59
NtRp1523
(dp1524
g62
(dp1525
sg71
g1519
sg64
(lp1526
g57
(g58
g59
NtRp1527
(dp1528
g62
(dp1529
g70
I3
ssg71
g1523
sg64
(lp1530
S'99'
p1531
asbasbasbag57
(g73
g59
NtRp1532
(dp1533
g62
(dp1534
sg71
g1503
sg64
(lp1535
g57
(g78
g59
NtRp1536
(dp1537
g62
(dp1538
sg71
g1532
sg64
(lp1539
g57
(g58
g59
NtRp1540
(dp1541
g62
(dp1542
g70
I3
ssg71
g1536
sg64
(lp1543
S'7'
asbasbasbag57
(g73
g59
NtRp1544
(dp1545
g62
(dp1546
sg71
g1503
sg64
(lp1547
g57
(g78
g59
NtRp1548
(dp1549
g62
(dp1550
sg71
g1544
sg64
(lp1551
g57
(g58
g59
NtRp1552
(dp1553
g62
(dp1554
g70
I3
ssg71
g1548
sg64
(lp1555
S'datetime.datetime(2012, 3, 4, 22, 12, 8)'
p1556
asbasbasbag57
(g73
g59
NtRp1557
(dp1558
g62
(dp1559
sg71
g1503
sg64
(lp1560
g57
(g78
g59
NtRp1561
(dp1562
g62
(dp1563
sg71
g1557
sg64
(lp1564
g57
(g58
g59
NtRp1565
(dp1566
g62
(dp1567
g70
I3
ssg71
g1561
sg64
(lp1568
S'stable'
p1569
asbasbasbasbasbasbasbag57
(g73
g59
NtRp1570
(dp1571
g62
(dp1572
sg71
g822
sg64
(lp1573
g57
(g78
g59
NtRp1574
(dp1575
g62
(dp1576
g82
g83
ssg71
g1570
sg64
(lp1577
S'wsgi_errors'
p1578
asbag57
(g78
g59
NtRp1579
(dp1580
g62
(dp1581
g89
g90
ssg71
g1570
sg64
(lp1582
S':'
asbag57
(g78
g59
NtRp1583
(dp1584
g62
(dp1585
sg71
g1570
sg64
(lp1586
g57
(g58
g59
NtRp1587
(dp1588
g62
(dp1589
g70
I4
ssg71
g1583
sg64
(lp1590
S"<open file '<stderr>', mode 'w' at 0xb73ce0d0>"
p1591
asbasbasbag57
(g73
g59
NtRp1592
(dp1593
g62
(dp1594
sg71
g822
sg64
(lp1595
g57
(g78
g59
NtRp1596
(dp1597
g62
(dp1598
g82
g83
ssg71
g1592
sg64
(lp1599
S'wsgi_file_wrapper'
p1600
asbag57
(g78
g59
NtRp1601
(dp1602
g62
(dp1603
g89
g90
ssg71
g1592
sg64
(lp1604
S':'
asbag57
(g78
g59
NtRp1605
(dp1606
g62
(dp1607
sg71
g1592
sg64
(lp1608
g57
(g58
g59
NtRp1609
(dp1610
g62
(dp1611
g70
I4
ssg71
g1605
sg64
(lp1612
S'<class wsgiref.util.FileWrapper at 0x92f3f5c>'
p1613
asbasbasbag57
(g73
g59
NtRp1614
(dp1615
g62
(dp1616
sg71
g822
sg64
(lp1617
g57
(g78
g59
NtRp1618
(dp1619
g62
(dp1620
g82
g83
ssg71
g1614
sg64
(lp1621
S'wsgi_input'
p1622
asbag57
(g78
g59
NtRp1623
(dp1624
g62
(dp1625
g89
g90
ssg71
g1614
sg64
(lp1626
S':'
asbag57
(g78
g59
NtRp1627
(dp1628
g62
(dp1629
sg71
g1614
sg64
(lp1630
g57
(g58
g59
NtRp1631
(dp1632
g62
(dp1633
g70
I4
ssg71
g1627
sg64
(lp1634
S'<socket._fileobject object at 0x994c86c>'
p1635
asbasbasbag57
(g73
g59
NtRp1636
(dp1637
g62
(dp1638
sg71
g822
sg64
(lp1639
g57
(g78
g59
NtRp1640
(dp1641
g62
(dp1642
g82
g83
ssg71
g1636
sg64
(lp1643
S'wsgi_multiprocess'
p1644
asbag57
(g78
g59
NtRp1645
(dp1646
g62
(dp1647
g89
g90
ssg71
g1636
sg64
(lp1648
S':'
asbag57
(g78
g59
NtRp1649
(dp1650
g62
(dp1651
sg71
g1636
sg64
(lp1652
g57
(g58
g59
NtRp1653
(dp1654
g62
(dp1655
g70
I4
ssg71
g1649
sg64
(lp1656
g100
asbasbasbag57
(g73
g59
NtRp1657
(dp1658
g62
(dp1659
sg71
g822
sg64
(lp1660
g57
(g78
g59
NtRp1661
(dp1662
g62
(dp1663
g82
g83
ssg71
g1657
sg64
(lp1664
S'wsgi_multithread'
p1665
asbag57
(g78
g59
NtRp1666
(dp1667
g62
(dp1668
g89
g90
ssg71
g1657
sg64
(lp1669
S':'
asbag57
(g78
g59
NtRp1670
(dp1671
g62
(dp1672
sg71
g1657
sg64
(lp1673
g57
(g58
g59
NtRp1674
(dp1675
g62
(dp1676
g70
I4
ssg71
g1670
sg64
(lp1677
S'True'
p1678
asbasbasbag57
(g73
g59
NtRp1679
(dp1680
g62
(dp1681
sg71
g822
sg64
(lp1682
g57
(g78
g59
NtRp1683
(dp1684
g62
(dp1685
g82
g83
ssg71
g1679
sg64
(lp1686
S'wsgi_run_once'
p1687
asbag57
(g78
g59
NtRp1688
(dp1689
g62
(dp1690
g89
g90
ssg71
g1679
sg64
(lp1691
S':'
asbag57
(g78
g59
NtRp1692
(dp1693
g62
(dp1694
sg71
g1679
sg64
(lp1695
g57
(g58
g59
NtRp1696
(dp1697
g62
(dp1698
g70
I4
ssg71
g1692
sg64
(lp1699
g100
asbasbasbag57
(g73
g59
NtRp1700
(dp1701
g62
(dp1702
sg71
g822
sg64
(lp1703
g57
(g78
g59
NtRp1704
(dp1705
g62
(dp1706
g82
g83
ssg71
g1700
sg64
(lp1707
S'wsgi_url_scheme'
p1708
asbag57
(g78
g59
NtRp1709
(dp1710
g62
(dp1711
g89
g90
ssg71
g1700
sg64
(lp1712
S':'
asbag57
(g78
g59
NtRp1713
(dp1714
g62
(dp1715
sg71
g1700
sg64
(lp1716
g57
(g58
g59
NtRp1717
(dp1718
g62
(dp1719
g70
I4
ssg71
g1713
sg64
(lp1720
S'http'
p1721
asbasbasbag57
(g73
g59
NtRp1722
(dp1723
g62
(dp1724
sg71
g822
sg64
(lp1725
g57
(g78
g59
NtRp1726
(dp1727
g62
(dp1728
g82
g83
ssg71
g1722
sg64
(lp1729
S'wsgi_version'
p1730
asbag57
(g78
g59
NtRp1731
(dp1732
g62
(dp1733
g89
g90
ssg71
g1722
sg64
(lp1734
S':'
asbag57
(g78
g59
NtRp1735
(dp1736
g62
(dp1737
sg71
g1722
sg64
(lp1738
g57
(g58
g59
NtRp1739
(dp1740
g62
(dp1741
g70
I4
ssg71
g1735
sg64
(lp1742
g57
(g66
g59
NtRp1743
(dp1744
g62
(dp1745
g70
I3
ssg71
Nsg64
(lp1746
g57
(g73
g59
NtRp1747
(dp1748
g62
(dp1749
sg71
g1743
sg64
(lp1750
g57
(g78
g59
NtRp1751
(dp1752
g62
(dp1753
sg71
g1747
sg64
(lp1754
g57
(g58
g59
NtRp1755
(dp1756
g62
(dp1757
g70
I3
ssg71
g1751
sg64
(lp1758
S'1'
asbasbasbag57
(g73
g59
NtRp1759
(dp1760
g62
(dp1761
sg71
g1743
sg64
(lp1762
g57
(g78
g59
NtRp1763
(dp1764
g62
(dp1765
sg71
g1759
sg64
(lp1766
g57
(g58
g59
NtRp1767
(dp1768
g62
(dp1769
g70
I3
ssg71
g1763
sg64
(lp1770
S'0'
asbasbasbasbasbasbasbasbasbasbasbag57
(g73
g59
NtRp1771
(dp1772
g62
(dp1773
sg71
g67
sg64
(lp1774
g57
(g78
g59
NtRp1775
(dp1776
g62
(dp1777
g82
g83
ssg71
g1771
sg64
(lp1778
S'extension'
p1779
asbag57
(g78
g59
NtRp1780
(dp1781
g62
(dp1782
g89
g90
ssg71
g1771
sg64
(lp1783
S':'
asbag57
(g78
g59
NtRp1784
(dp1785
g62
(dp1786
sg71
g1771
sg64
(lp1787
g57
(g58
g59
NtRp1788
(dp1789
g62
(dp1790
g70
I5
ssg71
g1784
sg64
(lp1791
S'html'
p1792
asbasbasbag57
(g73
g59
NtRp1793
(dp1794
g62
(dp1795
sg71
g67
sg64
(lp1796
g57
(g78
g59
NtRp1797
(dp1798
g62
(dp1799
g82
g83
ssg71
g1793
sg64
(lp1800
S'folder'
p1801
asbag57
(g78
g59
NtRp1802
(dp1803
g62
(dp1804
g89
g90
ssg71
g1793
sg64
(lp1805
S':'
asbag57
(g78
g59
NtRp1806
(dp1807
g62
(dp1808
sg71
g1793
sg64
(lp1809
g57
(g58
g59
NtRp1810
(dp1811
g62
(dp1812
g70
I5
ssg71
g1806
sg64
(lp1813
S'/home/arpita/courses/sem3/ssad/web2py/applications/project/'
p1814
asbasbasbag57
(g73
g59
NtRp1815
(dp1816
g62
(dp1817
sg71
g67
sg64
(lp1818
g57
(g78
g59
NtRp1819
(dp1820
g62
(dp1821
g82
g83
ssg71
g1815
sg64
(lp1822
S'function'
p1823
asbag57
(g78
g59
NtRp1824
(dp1825
g62
(dp1826
g89
g90
ssg71
g1815
sg64
(lp1827
S':'
asbag57
(g78
g59
NtRp1828
(dp1829
g62
(dp1830
sg71
g1815
sg64
(lp1831
g57
(g58
g59
NtRp1832
(dp1833
g62
(dp1834
g70
I5
ssg71
g1828
sg64
(lp1835
S'kruskal'
p1836
asbasbasbag57
(g73
g59
NtRp1837
(dp1838
g62
(dp1839
sg71
g67
sg64
(lp1840
g57
(g78
g59
NtRp1841
(dp1842
g62
(dp1843
g82
g83
ssg71
g1837
sg64
(lp1844
S'get_vars'
p1845
asbag57
(g78
g59
NtRp1846
(dp1847
g62
(dp1848
g89
g90
ssg71
g1837
sg64
(lp1849
S':'
asbag57
(g78
g59
NtRp1850
(dp1851
g62
(dp1852
sg71
g1837
sg64
(lp1853
g57
(g58
g59
NtRp1854
(dp1855
g62
(dp1856
g70
I5
ssg71
g1850
sg64
(lp1857
g57
(g66
g59
NtRp1858
(dp1859
g62
(dp1860
g70
I4
ssg71
Nsg64
(lp1861
sbasbasbasbag57
(g73
g59
NtRp1862
(dp1863
g62
(dp1864
sg71
g67
sg64
(lp1865
g57
(g78
g59
NtRp1866
(dp1867
g62
(dp1868
g82
g83
ssg71
g1862
sg64
(lp1869
S'global_settings'
p1870
asbag57
(g78
g59
NtRp1871
(dp1872
g62
(dp1873
g89
g90
ssg71
g1862
sg64
(lp1874
S':'
asbag57
(g78
g59
NtRp1875
(dp1876
g62
(dp1877
sg71
g1862
sg64
(lp1878
g57
(g58
g59
NtRp1879
(dp1880
g62
(dp1881
g70
I5
ssg71
g1875
sg64
(lp1882
g57
(g66
g59
NtRp1883
(dp1884
g62
(dp1885
g70
I4
ssg71
Nsg64
(lp1886
g57
(g73
g59
NtRp1887
(dp1888
g62
(dp1889
sg71
g1883
sg64
(lp1890
g57
(g78
g59
NtRp1891
(dp1892
g62
(dp1893
g82
g83
ssg71
g1887
sg64
(lp1894
g834
asbag57
(g78
g59
NtRp1895
(dp1896
g62
(dp1897
g89
g90
ssg71
g1887
sg64
(lp1898
S':'
asbag57
(g78
g59
NtRp1899
(dp1900
g62
(dp1901
sg71
g1887
sg64
(lp1902
g57
(g58
g59
NtRp1903
(dp1904
g62
(dp1905
g70
I4
ssg71
g1899
sg64
(lp1906
S"set(['/home/arpita/courses/sem3/ssad/web2py/applications/admin/', '/home/arpita/courses/sem3/ssad/web2py/applications/project/', '/home/arpita/courses/sem3/ssad/web2py/applications/welcome/'])"
p1907
asbasbasbag57
(g73
g59
NtRp1908
(dp1909
g62
(dp1910
sg71
g1883
sg64
(lp1911
g57
(g78
g59
NtRp1912
(dp1913
g62
(dp1914
g82
g83
ssg71
g1908
sg64
(lp1915
g856
asbag57
(g78
g59
NtRp1916
(dp1917
g62
(dp1918
g89
g90
ssg71
g1908
sg64
(lp1919
S':'
asbag57
(g78
g59
NtRp1920
(dp1921
g62
(dp1922
sg71
g1908
sg64
(lp1923
g57
(g58
g59
NtRp1924
(dp1925
g62
(dp1926
g70
I4
ssg71
g1920
sg64
(lp1927
g869
asbasbasbag57
(g73
g59
NtRp1928
(dp1929
g62
(dp1930
sg71
g1883
sg64
(lp1931
g57
(g78
g59
NtRp1932
(dp1933
g62
(dp1934
g82
g83
ssg71
g1928
sg64
(lp1935
g878
asbag57
(g78
g59
NtRp1936
(dp1937
g62
(dp1938
g89
g90
ssg71
g1928
sg64
(lp1939
S':'
asbag57
(g78
g59
NtRp1940
(dp1941
g62
(dp1942
sg71
g1928
sg64
(lp1943
g57
(g58
g59
NtRp1944
(dp1945
g62
(dp1946
g70
I4
ssg71
g1940
sg64
(lp1947
g57
(g66
g59
NtRp1948
(dp1949
g62
(dp1950
g70
I3
ssg71
Nsg64
(lp1951
sbasbasbasbag57
(g73
g59
NtRp1952
(dp1953
g62
(dp1954
sg71
g1883
sg64
(lp1955
g57
(g78
g59
NtRp1956
(dp1957
g62
(dp1958
g82
g83
ssg71
g1952
sg64
(lp1959
g903
asbag57
(g78
g59
NtRp1960
(dp1961
g62
(dp1962
g89
g90
ssg71
g1952
sg64
(lp1963
S':'
asbag57
(g78
g59
NtRp1964
(dp1965
g62
(dp1966
sg71
g1952
sg64
(lp1967
g57
(g58
g59
NtRp1968
(dp1969
g62
(dp1970
g70
I4
ssg71
g1964
sg64
(lp1971
S"<Values at 0x93503cc: {'verbose': False, 'ip': '127.0.0.1', 'shutdown_timeout': 5, 'taskbar': False, 'nocron': False, 'pid_filename': 'httpserver.pid', 'maxthreads': None, 'softcron': False, 'server_name': 'arpita-HP-630-Notebook-PC', 'bpython': False, 'nogui': False, 'port': 8000, 'extcron': False, 'debuglevel': 30, 'test': None, 'folder': '/home/arpita/courses/sem3/ssad/web2py', 'config': '', 'import_models': False, 'winservice': '', 'shell': None, 'run': '', 'log_filename': 'httpserver.log', 'args': [''], 'socket_timeout': 5, 'ssl_ca_certificate': None, 'scheduler': None, 'profiler_filename': None, 'ssl_private_key': '', 'password': 'arpita', 'request_queue_size': 5, 'ssl_certificate': '', 'cronjob': False, 'numthreads': None, 'quiet': False, 'interfaces': None, 'minthreads': None, 'timeout': 10, 'plain': False, 'nobanner': False}>"
p1972
asbasbasbag57
(g73
g59
NtRp1973
(dp1974
g62
(dp1975
sg71
g1883
sg64
(lp1976
g57
(g78
g59
NtRp1977
(dp1978
g62
(dp1979
g82
g83
ssg71
g1973
sg64
(lp1980
g925
asbag57
(g78
g59
NtRp1981
(dp1982
g62
(dp1983
g89
g90
ssg71
g1973
sg64
(lp1984
S':'
asbag57
(g78
g59
NtRp1985
(dp1986
g62
(dp1987
sg71
g1973
sg64
(lp1988
g57
(g58
g59
NtRp1989
(dp1990
g62
(dp1991
g70
I4
ssg71
g1985
sg64
(lp1992
S'set([])'
p1993
asbasbasbag57
(g73
g59
NtRp1994
(dp1995
g62
(dp1996
sg71
g1883
sg64
(lp1997
g57
(g78
g59
NtRp1998
(dp1999
g62
(dp2000
g82
g83
ssg71
g1994
sg64
(lp2001
g947
asbag57
(g78
g59
NtRp2002
(dp2003
g62
(dp2004
g89
g90
ssg71
g1994
sg64
(lp2005
S':'
asbag57
(g78
g59
NtRp2006
(dp2007
g62
(dp2008
sg71
g1994
sg64
(lp2009
g57
(g58
g59
NtRp2010
(dp2011
g62
(dp2012
g70
I4
ssg71
g2006
sg64
(lp2013
g100
asbasbasbag57
(g73
g59
NtRp2014
(dp2015
g62
(dp2016
sg71
g1883
sg64
(lp2017
g57
(g78
g59
NtRp2018
(dp2019
g62
(dp2020
g82
g83
ssg71
g2014
sg64
(lp2021
g968
asbag57
(g78
g59
NtRp2022
(dp2023
g62
(dp2024
g89
g90
ssg71
g2014
sg64
(lp2025
S':'
asbag57
(g78
g59
NtRp2026
(dp2027
g62
(dp2028
sg71
g2014
sg64
(lp2029
g57
(g58
g59
NtRp2030
(dp2031
g62
(dp2032
g70
I4
ssg71
g2026
sg64
(lp2033
g981
asbasbasbag57
(g73
g59
NtRp2034
(dp2035
g62
(dp2036
sg71
g1883
sg64
(lp2037
g57
(g78
g59
NtRp2038
(dp2039
g62
(dp2040
g82
g83
ssg71
g2034
sg64
(lp2041
g1188
asbag57
(g78
g59
NtRp2042
(dp2043
g62
(dp2044
g89
g90
ssg71
g2034
sg64
(lp2045
S':'
asbag57
(g78
g59
NtRp2046
(dp2047
g62
(dp2048
sg71
g2034
sg64
(lp2049
g57
(g58
g59
NtRp2050
(dp2051
g62
(dp2052
g70
I4
ssg71
g2046
sg64
(lp2053
g100
asbasbasbag57
(g73
g59
NtRp2054
(dp2055
g62
(dp2056
sg71
g1883
sg64
(lp2057
g57
(g78
g59
NtRp2058
(dp2059
g62
(dp2060
g82
g83
ssg71
g2054
sg64
(lp2061
g1209
asbag57
(g78
g59
NtRp2062
(dp2063
g62
(dp2064
g89
g90
ssg71
g2054
sg64
(lp2065
S':'
asbag57
(g78
g59
NtRp2066
(dp2067
g62
(dp2068
sg71
g2054
sg64
(lp2069
g57
(g58
g59
NtRp2070
(dp2071
g62
(dp2072
g70
I4
ssg71
g2066
sg64
(lp2073
g100
asbasbasbag57
(g73
g59
NtRp2074
(dp2075
g62
(dp2076
sg71
g1883
sg64
(lp2077
g57
(g78
g59
NtRp2078
(dp2079
g62
(dp2080
g82
g83
ssg71
g2074
sg64
(lp2081
g1447
asbag57
(g78
g59
NtRp2082
(dp2083
g62
(dp2084
g89
g90
ssg71
g2074
sg64
(lp2085
S':'
asbag57
(g78
g59
NtRp2086
(dp2087
g62
(dp2088
sg71
g2074
sg64
(lp2089
g57
(g58
g59
NtRp2090
(dp2091
g62
(dp2092
g70
I4
ssg71
g2086
sg64
(lp2093
g1460
asbasbasbag57
(g73
g59
NtRp2094
(dp2095
g62
(dp2096
sg71
g1883
sg64
(lp2097
g57
(g78
g59
NtRp2098
(dp2099
g62
(dp2100
g82
g83
ssg71
g2094
sg64
(lp2101
g1490
asbag57
(g78
g59
NtRp2102
(dp2103
g62
(dp2104
g89
g90
ssg71
g2094
sg64
(lp2105
S':'
asbag57
(g78
g59
NtRp2106
(dp2107
g62
(dp2108
sg71
g2094
sg64
(lp2109
g57
(g58
g59
NtRp2110
(dp2111
g62
(dp2112
g70
I4
ssg71
g2106
sg64
(lp2113
g57
(g66
g59
NtRp2114
(dp2115
g62
(dp2116
g70
I3
ssg71
Nsg64
(lp2117
g57
(g73
g59
NtRp2118
(dp2119
g62
(dp2120
sg71
g2114
sg64
(lp2121
g57
(g78
g59
NtRp2122
(dp2123
g62
(dp2124
sg71
g2118
sg64
(lp2125
g57
(g58
g59
NtRp2126
(dp2127
g62
(dp2128
g70
I3
ssg71
g2122
sg64
(lp2129
S'1'
asbasbasbag57
(g73
g59
NtRp2130
(dp2131
g62
(dp2132
sg71
g2114
sg64
(lp2133
g57
(g78
g59
NtRp2134
(dp2135
g62
(dp2136
sg71
g2130
sg64
(lp2137
g57
(g58
g59
NtRp2138
(dp2139
g62
(dp2140
g70
I3
ssg71
g2134
sg64
(lp2141
S'99'
p2142
asbasbasbag57
(g73
g59
NtRp2143
(dp2144
g62
(dp2145
sg71
g2114
sg64
(lp2146
g57
(g78
g59
NtRp2147
(dp2148
g62
(dp2149
sg71
g2143
sg64
(lp2150
g57
(g58
g59
NtRp2151
(dp2152
g62
(dp2153
g70
I3
ssg71
g2147
sg64
(lp2154
S'7'
asbasbasbag57
(g73
g59
NtRp2155
(dp2156
g62
(dp2157
sg71
g2114
sg64
(lp2158
g57
(g78
g59
NtRp2159
(dp2160
g62
(dp2161
sg71
g2155
sg64
(lp2162
g57
(g58
g59
NtRp2163
(dp2164
g62
(dp2165
g70
I3
ssg71
g2159
sg64
(lp2166
S'datetime.datetime(2012, 3, 4, 22, 12, 8)'
p2167
asbasbasbag57
(g73
g59
NtRp2168
(dp2169
g62
(dp2170
sg71
g2114
sg64
(lp2171
g57
(g78
g59
NtRp2172
(dp2173
g62
(dp2174
sg71
g2168
sg64
(lp2175
g57
(g58
g59
NtRp2176
(dp2177
g62
(dp2178
g70
I3
ssg71
g2172
sg64
(lp2179
g1569
asbasbasbasbasbasbasbasbasbasbasbag57
(g73
g59
NtRp2180
(dp2181
g62
(dp2182
sg71
g67
sg64
(lp2183
g57
(g78
g59
NtRp2184
(dp2185
g62
(dp2186
g82
g83
ssg71
g2180
sg64
(lp2187
S'is_https'
p2188
asbag57
(g78
g59
NtRp2189
(dp2190
g62
(dp2191
g89
g90
ssg71
g2180
sg64
(lp2192
S':'
asbag57
(g78
g59
NtRp2193
(dp2194
g62
(dp2195
sg71
g2180
sg64
(lp2196
g57
(g58
g59
NtRp2197
(dp2198
g62
(dp2199
g70
I5
ssg71
g2193
sg64
(lp2200
g100
asbasbasbag57
(g73
g59
NtRp2201
(dp2202
g62
(dp2203
sg71
g67
sg64
(lp2204
g57
(g78
g59
NtRp2205
(dp2206
g62
(dp2207
g82
g83
ssg71
g2201
sg64
(lp2208
S'is_local'
p2209
asbag57
(g78
g59
NtRp2210
(dp2211
g62
(dp2212
g89
g90
ssg71
g2201
sg64
(lp2213
S':'
asbag57
(g78
g59
NtRp2214
(dp2215
g62
(dp2216
sg71
g2201
sg64
(lp2217
g57
(g58
g59
NtRp2218
(dp2219
g62
(dp2220
g70
I5
ssg71
g2214
sg64
(lp2221
g1678
asbasbasbag57
(g73
g59
NtRp2222
(dp2223
g62
(dp2224
sg71
g67
sg64
(lp2225
g57
(g78
g59
NtRp2226
(dp2227
g62
(dp2228
g82
g83
ssg71
g2222
sg64
(lp2229
S'is_restful'
p2230
asbag57
(g78
g59
NtRp2231
(dp2232
g62
(dp2233
g89
g90
ssg71
g2222
sg64
(lp2234
S':'
asbag57
(g78
g59
NtRp2235
(dp2236
g62
(dp2237
sg71
g2222
sg64
(lp2238
g57
(g58
g59
NtRp2239
(dp2240
g62
(dp2241
g70
I5
ssg71
g2235
sg64
(lp2242
g100
asbasbasbag57
(g73
g59
NtRp2243
(dp2244
g62
(dp2245
sg71
g67
sg64
(lp2246
g57
(g78
g59
NtRp2247
(dp2248
g62
(dp2249
g82
g83
ssg71
g2243
sg64
(lp2250
S'now'
p2251
asbag57
(g78
g59
NtRp2252
(dp2253
g62
(dp2254
g89
g90
ssg71
g2243
sg64
(lp2255
S':'
asbag57
(g78
g59
NtRp2256
(dp2257
g62
(dp2258
sg71
g2243
sg64
(lp2259
g57
(g58
g59
NtRp2260
(dp2261
g62
(dp2262
g70
I5
ssg71
g2256
sg64
(lp2263
S'datetime.datetime(2012, 11, 7, 2, 0, 31, 192522)'
p2264
asbasbasbag57
(g73
g59
NtRp2265
(dp2266
g62
(dp2267
sg71
g67
sg64
(lp2268
g57
(g78
g59
NtRp2269
(dp2270
g62
(dp2271
g82
g83
ssg71
g2265
sg64
(lp2272
S'post_vars'
p2273
asbag57
(g78
g59
NtRp2274
(dp2275
g62
(dp2276
g89
g90
ssg71
g2265
sg64
(lp2277
S':'
asbag57
(g78
g59
NtRp2278
(dp2279
g62
(dp2280
sg71
g2265
sg64
(lp2281
g57
(g58
g59
NtRp2282
(dp2283
g62
(dp2284
g70
I5
ssg71
g2278
sg64
(lp2285
g57
(g66
g59
NtRp2286
(dp2287
g62
(dp2288
g70
I4
ssg71
Nsg64
(lp2289
sbasbasbasbag57
(g73
g59
NtRp2290
(dp2291
g62
(dp2292
sg71
g67
sg64
(lp2293
g57
(g78
g59
NtRp2294
(dp2295
g62
(dp2296
g82
g83
ssg71
g2290
sg64
(lp2297
S'url'
p2298
asbag57
(g78
g59
NtRp2299
(dp2300
g62
(dp2301
g89
g90
ssg71
g2290
sg64
(lp2302
S':'
asbag57
(g78
g59
NtRp2303
(dp2304
g62
(dp2305
sg71
g2290
sg64
(lp2306
g57
(g58
g59
NtRp2307
(dp2308
g62
(dp2309
g70
I5
ssg71
g2303
sg64
(lp2310
S'/project/default/kruskal'
p2311
asbasbasbag57
(g73
g59
NtRp2312
(dp2313
g62
(dp2314
sg71
g67
sg64
(lp2315
g57
(g78
g59
NtRp2316
(dp2317
g62
(dp2318
g82
g83
ssg71
g2312
sg64
(lp2319
S'utcnow'
p2320
asbag57
(g78
g59
NtRp2321
(dp2322
g62
(dp2323
g89
g90
ssg71
g2312
sg64
(lp2324
S':'
asbag57
(g78
g59
NtRp2325
(dp2326
g62
(dp2327
sg71
g2312
sg64
(lp2328
g57
(g58
g59
NtRp2329
(dp2330
g62
(dp2331
g70
I5
ssg71
g2325
sg64
(lp2332
S'datetime.datetime(2012, 11, 6, 20, 30, 31, 192576)'
p2333
asbasbasbag57
(g73
g59
NtRp2334
(dp2335
g62
(dp2336
sg71
g67
sg64
(lp2337
g57
(g78
g59
NtRp2338
(dp2339
g62
(dp2340
g82
g83
ssg71
g2334
sg64
(lp2341
S'uuid'
p2342
asbag57
(g78
g59
NtRp2343
(dp2344
g62
(dp2345
g89
g90
ssg71
g2334
sg64
(lp2346
S':'
asbag57
(g78
g59
NtRp2347
(dp2348
g62
(dp2349
sg71
g2334
sg64
(lp2350
g57
(g58
g59
NtRp2351
(dp2352
g62
(dp2353
g70
I5
ssg71
g2347
sg64
(lp2354
S'project/127.0.0.1.2012-11-07.02-00-31.95391201-bb17-4ff1-981a-775b4d8f28e2'
p2355
asbasbasbag57
(g73
g59
NtRp2356
(dp2357
g62
(dp2358
sg71
g67
sg64
(lp2359
g57
(g78
g59
NtRp2360
(dp2361
g62
(dp2362
g82
g83
ssg71
g2356
sg64
(lp2363
S'vars'
p2364
asbag57
(g78
g59
NtRp2365
(dp2366
g62
(dp2367
g89
g90
ssg71
g2356
sg64
(lp2368
S':'
asbag57
(g78
g59
NtRp2369
(dp2370
g62
(dp2371
sg71
g2356
sg64
(lp2372
g57
(g58
g59
NtRp2373
(dp2374
g62
(dp2375
g70
I5
ssg71
g2369
sg64
(lp2376
g57
(g66
g59
NtRp2377
(dp2378
g62
(dp2379
g70
I4
ssg71
Nsg64
(lp2380
sbasbasbasbag57
(g73
g59
NtRp2381
(dp2382
g62
(dp2383
sg71
g67
sg64
(lp2384
g57
(g78
g59
NtRp2385
(dp2386
g62
(dp2387
g82
g83
ssg71
g2381
sg64
(lp2388
S'wsgi'
p2389
asbag57
(g78
g59
NtRp2390
(dp2391
g62
(dp2392
g89
g90
ssg71
g2381
sg64
(lp2393
S':'
asbag57
(g78
g59
NtRp2394
(dp2395
g62
(dp2396
sg71
g2381
sg64
(lp2397
g57
(g58
g59
NtRp2398
(dp2399
g62
(dp2400
g70
I5
ssg71
g2394
sg64
(lp2401
g57
(g66
g59
NtRp2402
(dp2403
g62
(dp2404
g70
I4
ssg71
Nsg64
(lp2405
g57
(g73
g59
NtRp2406
(dp2407
g62
(dp2408
sg71
g2402
sg64
(lp2409
g57
(g78
g59
NtRp2410
(dp2411
g62
(dp2412
g82
g83
ssg71
g2406
sg64
(lp2413
S'environ'
p2414
asbag57
(g78
g59
NtRp2415
(dp2416
g62
(dp2417
g89
g90
ssg71
g2406
sg64
(lp2418
S':'
asbag57
(g78
g59
NtRp2419
(dp2420
g62
(dp2421
sg71
g2406
sg64
(lp2422
g57
(g58
g59
NtRp2423
(dp2424
g62
(dp2425
g70
I4
ssg71
g2419
sg64
(lp2426
g57
(g66
g59
NtRp2427
(dp2428
g62
(dp2429
g70
I3
ssg71
Nsg64
(lp2430
g57
(g73
g59
NtRp2431
(dp2432
g62
(dp2433
sg71
g2427
sg64
(lp2434
g57
(g78
g59
NtRp2435
(dp2436
g62
(dp2437
g82
g83
ssg71
g2431
sg64
(lp2438
S'HTTP_ACCEPT'
p2439
asbag57
(g78
g59
NtRp2440
(dp2441
g62
(dp2442
g89
g90
ssg71
g2431
sg64
(lp2443
S':'
asbag57
(g78
g59
NtRp2444
(dp2445
g62
(dp2446
sg71
g2431
sg64
(lp2447
g57
(g58
g59
NtRp2448
(dp2449
g62
(dp2450
g70
I3
ssg71
g2444
sg64
(lp2451
g1003
asbasbasbag57
(g73
g59
NtRp2452
(dp2453
g62
(dp2454
sg71
g2427
sg64
(lp2455
g57
(g78
g59
NtRp2456
(dp2457
g62
(dp2458
g82
g83
ssg71
g2452
sg64
(lp2459
S'HTTP_ACCEPT_CHARSET'
p2460
asbag57
(g78
g59
NtRp2461
(dp2462
g62
(dp2463
g89
g90
ssg71
g2452
sg64
(lp2464
S':'
asbag57
(g78
g59
NtRp2465
(dp2466
g62
(dp2467
sg71
g2452
sg64
(lp2468
g57
(g58
g59
NtRp2469
(dp2470
g62
(dp2471
g70
I3
ssg71
g2465
sg64
(lp2472
g1025
asbasbasbag57
(g73
g59
NtRp2473
(dp2474
g62
(dp2475
sg71
g2427
sg64
(lp2476
g57
(g78
g59
NtRp2477
(dp2478
g62
(dp2479
g82
g83
ssg71
g2473
sg64
(lp2480
S'HTTP_ACCEPT_ENCODING'
p2481
asbag57
(g78
g59
NtRp2482
(dp2483
g62
(dp2484
g89
g90
ssg71
g2473
sg64
(lp2485
S':'
asbag57
(g78
g59
NtRp2486
(dp2487
g62
(dp2488
sg71
g2473
sg64
(lp2489
g57
(g58
g59
NtRp2490
(dp2491
g62
(dp2492
g70
I3
ssg71
g2486
sg64
(lp2493
g1047
asbasbasbag57
(g73
g59
NtRp2494
(dp2495
g62
(dp2496
sg71
g2427
sg64
(lp2497
g57
(g78
g59
NtRp2498
(dp2499
g62
(dp2500
g82
g83
ssg71
g2494
sg64
(lp2501
S'HTTP_ACCEPT_LANGUAGE'
p2502
asbag57
(g78
g59
NtRp2503
(dp2504
g62
(dp2505
g89
g90
ssg71
g2494
sg64
(lp2506
S':'
asbag57
(g78
g59
NtRp2507
(dp2508
g62
(dp2509
sg71
g2494
sg64
(lp2510
g57
(g58
g59
NtRp2511
(dp2512
g62
(dp2513
g70
I3
ssg71
g2507
sg64
(lp2514
g1069
asbasbasbag57
(g73
g59
NtRp2515
(dp2516
g62
(dp2517
sg71
g2427
sg64
(lp2518
g57
(g78
g59
NtRp2519
(dp2520
g62
(dp2521
g82
g83
ssg71
g2515
sg64
(lp2522
S'HTTP_CONNECTION'
p2523
asbag57
(g78
g59
NtRp2524
(dp2525
g62
(dp2526
g89
g90
ssg71
g2515
sg64
(lp2527
S':'
asbag57
(g78
g59
NtRp2528
(dp2529
g62
(dp2530
sg71
g2515
sg64
(lp2531
g57
(g58
g59
NtRp2532
(dp2533
g62
(dp2534
g70
I3
ssg71
g2528
sg64
(lp2535
g1091
asbasbasbag57
(g73
g59
NtRp2536
(dp2537
g62
(dp2538
sg71
g2427
sg64
(lp2539
g57
(g78
g59
NtRp2540
(dp2541
g62
(dp2542
g82
g83
ssg71
g2536
sg64
(lp2543
S'HTTP_COOKIE'
p2544
asbag57
(g78
g59
NtRp2545
(dp2546
g62
(dp2547
g89
g90
ssg71
g2536
sg64
(lp2548
S':'
asbag57
(g78
g59
NtRp2549
(dp2550
g62
(dp2551
sg71
g2536
sg64
(lp2552
g57
(g58
g59
NtRp2553
(dp2554
g62
(dp2555
g70
I3
ssg71
g2549
sg64
(lp2556
g1113
asbasbasbag57
(g73
g59
NtRp2557
(dp2558
g62
(dp2559
sg71
g2427
sg64
(lp2560
g57
(g78
g59
NtRp2561
(dp2562
g62
(dp2563
g82
g83
ssg71
g2557
sg64
(lp2564
S'HTTP_HOST'
p2565
asbag57
(g78
g59
NtRp2566
(dp2567
g62
(dp2568
g89
g90
ssg71
g2557
sg64
(lp2569
S':'
asbag57
(g78
g59
NtRp2570
(dp2571
g62
(dp2572
sg71
g2557
sg64
(lp2573
g57
(g58
g59
NtRp2574
(dp2575
g62
(dp2576
g70
I3
ssg71
g2570
sg64
(lp2577
g1135
asbasbasbag57
(g73
g59
NtRp2578
(dp2579
g62
(dp2580
sg71
g2427
sg64
(lp2581
g57
(g78
g59
NtRp2582
(dp2583
g62
(dp2584
g82
g83
ssg71
g2578
sg64
(lp2585
S'HTTP_REFERER'
p2586
asbag57
(g78
g59
NtRp2587
(dp2588
g62
(dp2589
g89
g90
ssg71
g2578
sg64
(lp2590
S':'
asbag57
(g78
g59
NtRp2591
(dp2592
g62
(dp2593
sg71
g2578
sg64
(lp2594
g57
(g58
g59
NtRp2595
(dp2596
g62
(dp2597
g70
I3
ssg71
g2591
sg64
(lp2598
g1157
asbasbasbag57
(g73
g59
NtRp2599
(dp2600
g62
(dp2601
sg71
g2427
sg64
(lp2602
g57
(g78
g59
NtRp2603
(dp2604
g62
(dp2605
g82
g83
ssg71
g2599
sg64
(lp2606
S'HTTP_USER_AGENT'
p2607
asbag57
(g78
g59
NtRp2608
(dp2609
g62
(dp2610
g89
g90
ssg71
g2599
sg64
(lp2611
S':'
asbag57
(g78
g59
NtRp2612
(dp2613
g62
(dp2614
sg71
g2599
sg64
(lp2615
g57
(g58
g59
NtRp2616
(dp2617
g62
(dp2618
g70
I3
ssg71
g2612
sg64
(lp2619
g1179
asbasbasbag57
(g73
g59
NtRp2620
(dp2621
g62
(dp2622
sg71
g2427
sg64
(lp2623
g57
(g78
g59
NtRp2624
(dp2625
g62
(dp2626
g82
g83
ssg71
g2620
sg64
(lp2627
S'PATH_INFO'
p2628
asbag57
(g78
g59
NtRp2629
(dp2630
g62
(dp2631
g89
g90
ssg71
g2620
sg64
(lp2632
S':'
asbag57
(g78
g59
NtRp2633
(dp2634
g62
(dp2635
sg71
g2620
sg64
(lp2636
g57
(g58
g59
NtRp2637
(dp2638
g62
(dp2639
g70
I3
ssg71
g2633
sg64
(lp2640
g1243
asbasbasbag57
(g73
g59
NtRp2641
(dp2642
g62
(dp2643
sg71
g2427
sg64
(lp2644
g57
(g78
g59
NtRp2645
(dp2646
g62
(dp2647
g82
g83
ssg71
g2641
sg64
(lp2648
S'QUERY_STRING'
p2649
asbag57
(g78
g59
NtRp2650
(dp2651
g62
(dp2652
g89
g90
ssg71
g2641
sg64
(lp2653
S':'
asbag57
(g78
g59
NtRp2654
(dp2655
g62
(dp2656
sg71
g2641
sg64
(lp2657
g57
(g58
g59
NtRp2658
(dp2659
g62
(dp2660
g70
I3
ssg71
g2654
sg64
(lp2661
S''
asbasbasbag57
(g73
g59
NtRp2662
(dp2663
g62
(dp2664
sg71
g2427
sg64
(lp2665
g57
(g78
g59
NtRp2666
(dp2667
g62
(dp2668
g82
g83
ssg71
g2662
sg64
(lp2669
S'REMOTE_ADDR'
p2670
asbag57
(g78
g59
NtRp2671
(dp2672
g62
(dp2673
g89
g90
ssg71
g2662
sg64
(lp2674
S':'
asbag57
(g78
g59
NtRp2675
(dp2676
g62
(dp2677
sg71
g2662
sg64
(lp2678
g57
(g58
g59
NtRp2679
(dp2680
g62
(dp2681
g70
I3
ssg71
g2675
sg64
(lp2682
g190
asbasbasbag57
(g73
g59
NtRp2683
(dp2684
g62
(dp2685
sg71
g2427
sg64
(lp2686
g57
(g78
g59
NtRp2687
(dp2688
g62
(dp2689
g82
g83
ssg71
g2683
sg64
(lp2690
S'REMOTE_PORT'
p2691
asbag57
(g78
g59
NtRp2692
(dp2693
g62
(dp2694
g89
g90
ssg71
g2683
sg64
(lp2695
S':'
asbag57
(g78
g59
NtRp2696
(dp2697
g62
(dp2698
sg71
g2683
sg64
(lp2699
g57
(g58
g59
NtRp2700
(dp2701
g62
(dp2702
g70
I3
ssg71
g2696
sg64
(lp2703
g1307
asbasbasbag57
(g73
g59
NtRp2704
(dp2705
g62
(dp2706
sg71
g2427
sg64
(lp2707
g57
(g78
g59
NtRp2708
(dp2709
g62
(dp2710
g82
g83
ssg71
g2704
sg64
(lp2711
S'REQUEST_METHOD'
p2712
asbag57
(g78
g59
NtRp2713
(dp2714
g62
(dp2715
g89
g90
ssg71
g2704
sg64
(lp2716
S':'
asbag57
(g78
g59
NtRp2717
(dp2718
g62
(dp2719
sg71
g2704
sg64
(lp2720
g57
(g58
g59
NtRp2721
(dp2722
g62
(dp2723
g70
I3
ssg71
g2717
sg64
(lp2724
g1329
asbasbasbag57
(g73
g59
NtRp2725
(dp2726
g62
(dp2727
sg71
g2427
sg64
(lp2728
g57
(g78
g59
NtRp2729
(dp2730
g62
(dp2731
g82
g83
ssg71
g2725
sg64
(lp2732
S'SCRIPT_NAME'
p2733
asbag57
(g78
g59
NtRp2734
(dp2735
g62
(dp2736
g89
g90
ssg71
g2725
sg64
(lp2737
S':'
asbag57
(g78
g59
NtRp2738
(dp2739
g62
(dp2740
sg71
g2725
sg64
(lp2741
g57
(g58
g59
NtRp2742
(dp2743
g62
(dp2744
g70
I3
ssg71
g2738
sg64
(lp2745
S''
asbasbasbag57
(g73
g59
NtRp2746
(dp2747
g62
(dp2748
sg71
g2427
sg64
(lp2749
g57
(g78
g59
NtRp2750
(dp2751
g62
(dp2752
g82
g83
ssg71
g2746
sg64
(lp2753
S'SERVER_NAME'
p2754
asbag57
(g78
g59
NtRp2755
(dp2756
g62
(dp2757
g89
g90
ssg71
g2746
sg64
(lp2758
S':'
asbag57
(g78
g59
NtRp2759
(dp2760
g62
(dp2761
sg71
g2746
sg64
(lp2762
g57
(g58
g59
NtRp2763
(dp2764
g62
(dp2765
g70
I3
ssg71
g2759
sg64
(lp2766
g1372
asbasbasbag57
(g73
g59
NtRp2767
(dp2768
g62
(dp2769
sg71
g2427
sg64
(lp2770
g57
(g78
g59
NtRp2771
(dp2772
g62
(dp2773
g82
g83
ssg71
g2767
sg64
(lp2774
S'SERVER_PORT'
p2775
asbag57
(g78
g59
NtRp2776
(dp2777
g62
(dp2778
g89
g90
ssg71
g2767
sg64
(lp2779
S':'
asbag57
(g78
g59
NtRp2780
(dp2781
g62
(dp2782
sg71
g2767
sg64
(lp2783
g57
(g58
g59
NtRp2784
(dp2785
g62
(dp2786
g70
I3
ssg71
g2780
sg64
(lp2787
g1394
asbasbasbag57
(g73
g59
NtRp2788
(dp2789
g62
(dp2790
sg71
g2427
sg64
(lp2791
g57
(g78
g59
NtRp2792
(dp2793
g62
(dp2794
g82
g83
ssg71
g2788
sg64
(lp2795
S'SERVER_PROTOCOL'
p2796
asbag57
(g78
g59
NtRp2797
(dp2798
g62
(dp2799
g89
g90
ssg71
g2788
sg64
(lp2800
S':'
asbag57
(g78
g59
NtRp2801
(dp2802
g62
(dp2803
sg71
g2788
sg64
(lp2804
g57
(g58
g59
NtRp2805
(dp2806
g62
(dp2807
g70
I3
ssg71
g2801
sg64
(lp2808
g1416
asbasbasbag57
(g73
g59
NtRp2809
(dp2810
g62
(dp2811
sg71
g2427
sg64
(lp2812
g57
(g78
g59
NtRp2813
(dp2814
g62
(dp2815
g82
g83
ssg71
g2809
sg64
(lp2816
S'SERVER_SOFTWARE'
p2817
asbag57
(g78
g59
NtRp2818
(dp2819
g62
(dp2820
g89
g90
ssg71
g2809
sg64
(lp2821
S':'
asbag57
(g78
g59
NtRp2822
(dp2823
g62
(dp2824
sg71
g2809
sg64
(lp2825
g57
(g58
g59
NtRp2826
(dp2827
g62
(dp2828
g70
I3
ssg71
g2822
sg64
(lp2829
g1438
asbasbasbag57
(g73
g59
NtRp2830
(dp2831
g62
(dp2832
sg71
g2427
sg64
(lp2833
g57
(g78
g59
NtRp2834
(dp2835
g62
(dp2836
g82
g83
ssg71
g2830
sg64
(lp2837
S'wsgi.errors'
p2838
asbag57
(g78
g59
NtRp2839
(dp2840
g62
(dp2841
g89
g90
ssg71
g2830
sg64
(lp2842
S':'
asbag57
(g78
g59
NtRp2843
(dp2844
g62
(dp2845
sg71
g2830
sg64
(lp2846
g57
(g58
g59
NtRp2847
(dp2848
g62
(dp2849
g70
I3
ssg71
g2843
sg64
(lp2850
S"<open file '<stderr>', mode 'w' at 0xb73ce0d0>"
p2851
asbasbasbag57
(g73
g59
NtRp2852
(dp2853
g62
(dp2854
sg71
g2427
sg64
(lp2855
g57
(g78
g59
NtRp2856
(dp2857
g62
(dp2858
g82
g83
ssg71
g2852
sg64
(lp2859
S'wsgi.file_wrapper'
p2860
asbag57
(g78
g59
NtRp2861
(dp2862
g62
(dp2863
g89
g90
ssg71
g2852
sg64
(lp2864
S':'
asbag57
(g78
g59
NtRp2865
(dp2866
g62
(dp2867
sg71
g2852
sg64
(lp2868
g57
(g58
g59
NtRp2869
(dp2870
g62
(dp2871
g70
I3
ssg71
g2865
sg64
(lp2872
S'<class wsgiref.util.FileWrapper at 0x92f3f5c>'
p2873
asbasbasbag57
(g73
g59
NtRp2874
(dp2875
g62
(dp2876
sg71
g2427
sg64
(lp2877
g57
(g78
g59
NtRp2878
(dp2879
g62
(dp2880
g82
g83
ssg71
g2874
sg64
(lp2881
S'wsgi.input'
p2882
asbag57
(g78
g59
NtRp2883
(dp2884
g62
(dp2885
g89
g90
ssg71
g2874
sg64
(lp2886
S':'
asbag57
(g78
g59
NtRp2887
(dp2888
g62
(dp2889
sg71
g2874
sg64
(lp2890
g57
(g58
g59
NtRp2891
(dp2892
g62
(dp2893
g70
I3
ssg71
g2887
sg64
(lp2894
S'<cStringIO.StringO object at 0x9a9a580>'
p2895
asbasbasbag57
(g73
g59
NtRp2896
(dp2897
g62
(dp2898
sg71
g2427
sg64
(lp2899
g57
(g78
g59
NtRp2900
(dp2901
g62
(dp2902
g82
g83
ssg71
g2896
sg64
(lp2903
S'wsgi.multiprocess'
p2904
asbag57
(g78
g59
NtRp2905
(dp2906
g62
(dp2907
g89
g90
ssg71
g2896
sg64
(lp2908
S':'
asbag57
(g78
g59
NtRp2909
(dp2910
g62
(dp2911
sg71
g2896
sg64
(lp2912
g57
(g58
g59
NtRp2913
(dp2914
g62
(dp2915
g70
I3
ssg71
g2909
sg64
(lp2916
g100
asbasbasbag57
(g73
g59
NtRp2917
(dp2918
g62
(dp2919
sg71
g2427
sg64
(lp2920
g57
(g78
g59
NtRp2921
(dp2922
g62
(dp2923
g82
g83
ssg71
g2917
sg64
(lp2924
S'wsgi.multithread'
p2925
asbag57
(g78
g59
NtRp2926
(dp2927
g62
(dp2928
g89
g90
ssg71
g2917
sg64
(lp2929
S':'
asbag57
(g78
g59
NtRp2930
(dp2931
g62
(dp2932
sg71
g2917
sg64
(lp2933
g57
(g58
g59
NtRp2934
(dp2935
g62
(dp2936
g70
I3
ssg71
g2930
sg64
(lp2937
g1678
asbasbasbag57
(g73
g59
NtRp2938
(dp2939
g62
(dp2940
sg71
g2427
sg64
(lp2941
g57
(g78
g59
NtRp2942
(dp2943
g62
(dp2944
g82
g83
ssg71
g2938
sg64
(lp2945
S'wsgi.run_once'
p2946
asbag57
(g78
g59
NtRp2947
(dp2948
g62
(dp2949
g89
g90
ssg71
g2938
sg64
(lp2950
S':'
asbag57
(g78
g59
NtRp2951
(dp2952
g62
(dp2953
sg71
g2938
sg64
(lp2954
g57
(g58
g59
NtRp2955
(dp2956
g62
(dp2957
g70
I3
ssg71
g2951
sg64
(lp2958
g100
asbasbasbag57
(g73
g59
NtRp2959
(dp2960
g62
(dp2961
sg71
g2427
sg64
(lp2962
g57
(g78
g59
NtRp2963
(dp2964
g62
(dp2965
g82
g83
ssg71
g2959
sg64
(lp2966
S'wsgi.url_scheme'
p2967
asbag57
(g78
g59
NtRp2968
(dp2969
g62
(dp2970
g89
g90
ssg71
g2959
sg64
(lp2971
S':'
asbag57
(g78
g59
NtRp2972
(dp2973
g62
(dp2974
sg71
g2959
sg64
(lp2975
g57
(g58
g59
NtRp2976
(dp2977
g62
(dp2978
g70
I3
ssg71
g2972
sg64
(lp2979
g1721
asbasbasbag57
(g73
g59
NtRp2980
(dp2981
g62
(dp2982
sg71
g2427
sg64
(lp2983
g57
(g78
g59
NtRp2984
(dp2985
g62
(dp2986
g82
g83
ssg71
g2980
sg64
(lp2987
S'wsgi.version'
p2988
asbag57
(g78
g59
NtRp2989
(dp2990
g62
(dp2991
g89
g90
ssg71
g2980
sg64
(lp2992
S':'
asbag57
(g78
g59
NtRp2993
(dp2994
g62
(dp2995
sg71
g2980
sg64
(lp2996
g57
(g58
g59
NtRp2997
(dp2998
g62
(dp2999
g70
I3
ssg71
g2993
sg64
(lp3000
S'1'
asbasbasbasbasbasbasbasbasbasbasbasbasbsS'frames'
p3001
(lp3002
(dp3003
S'file'
p3004
S'/home/arpita/courses/sem3/ssad/web2py/gluon/restricted.py'
p3005
sS'dump'
p3006
(dp3007
S'environment'
p3008
S"{'A': <class 'gluon.html.A'>, 'Auth': <class 'gluon.tools.Auth'>, 'B': <class 'gluon.html.B'>, 'BEAUTIFY': <class 'gluon.html.BEAUTIFY'>, 'BODY': <class 'gluon.html.BODY'>, 'BR': <class 'gluon.html.BR'>, 'BUTTON': <class 'gluon.html.BUTTON'>, 'CAT': <class 'gluon.html.CAT'>, 'CENTER': <class 'gluon.html.CENTER'>, 'CLEANUP': <class 'gluon.validators.CLEANUP'>, ...}"
p3009
sS'ccode'
p3010
S'<code object <module> at 0x9aaf920, file "/home/...cations/project/controllers/default.py", line 11>'
p3011
ssS'lnum'
p3012
I205
sS'lines'
p3013
(dp3014
I200
S'    try:'
p3015
sI201
S'        if type(code) == types.CodeType:'
p3016
sI202
S'            ccode = code'
p3017
sI203
S'        else:'
p3018
sI204
S'            ccode = compile2(code,layer)'
p3019
sI205
S'        exec ccode in environment'
p3020
sI206
S'    except HTTP:'
p3021
sI207
S'        raise'
p3022
sI208
S'    except RestrictedError:'
p3023
sI209
S'        # do not encapsulate (obfuscate) the original RestrictedError'
p3024
ssS'call'
p3025
S"(code='# -*- coding: utf-8 -*-\\n# this file is released ...p,q=q)\\n\\nresponse._vars=response._caller(kruskal)\\n', environment={'A': <class 'gluon.html.A'>, 'Auth': <class 'gluon.tools.Auth'>, 'B': <class 'gluon.html.B'>, 'BEAUTIFY': <class 'gluon.html.BEAUTIFY'>, 'BODY': <class 'gluon.html.BODY'>, 'BR': <class 'gluon.html.BR'>, 'BUTTON': <class 'gluon.html.BUTTON'>, 'CAT': <class 'gluon.html.CAT'>, 'CENTER': <class 'gluon.html.CENTER'>, 'CLEANUP': <class 'gluon.validators.CLEANUP'>, ...}, layer='/home/arpita/courses/sem3/ssad/web2py/applications/project/controllers/default.py')"
p3026
sS'func'
p3027
S'restricted'
p3028
sa(dp3029
g3004
S'/home/arpita/courses/sem3/ssad/web2py/applications/project/controllers/default.py'
p3030
sg3006
(dp3031
sg3012
I153
sg3013
(dp3032
I142
S'        for j in xrange(k):'
p3033
sI143
S"            file = open('applications/project/controllers/myfile.txt','a')"
p3034
sI144
S'            if p[j]==i:'
p3035
sI145
S'              c=c+1'
p3036
sI146
S'              if c==1:'
p3037
sI147
S'                file.write("\\"name\\":\\"%d\\", " %p[j])'
p3038
sI148
S'                file.write("\\"children\\":[\\n" %q[j])'
p3039
sI149
S"                #file.write('children=q[j]')"
p3040
sI150
S'               # file.close()'
p3041
sI151
S'    return dict(p=p,q=q)'
p3042
ssg3025
S'()'
p3043
sg3027
S'<module>'
p3044
sa(dp3045
g3004
S'/home/arpita/courses/sem3/ssad/web2py/gluon/globals.py'
p3046
sg3006
(dp3047
S'self'
p3048
S'undefined'
p3049
sS'f'
S'<function kruskal>'
p3050
ssg3012
I173
sg3013
(dp3051
I168
S'        self.menu = []             # used by the default view layout'
p3052
sI169
S'        self.files = []            # used by web2py_ajax.html'
p3053
sI170
S'        self.generic_patterns = [] # patterns to allow generic views'
p3054
sI171
S"        self.delimiters = ('{{','}}')"
p3055
sI172
S'        self._vars = None'
p3056
sI173
S'        self._caller = lambda f: f()'
p3057
sI174
S'        self._view_environment = None'
p3058
sI175
S'        self._custom_commit = None'
p3059
sI176
S'        self._custom_rollback = None'
p3060
sI177
S''
ssg3025
S'(f=<function kruskal>)'
p3061
sg3027
S'<lambda>'
p3062
sa(dp3063
g3004
S'/home/arpita/courses/sem3/ssad/web2py/applications/project/controllers/default.py'
p3064
sg3006
(dp3065
S'c.append'
p3066
S'<built-in method append of list object>'
p3067
sS'global c'
p3068
S'[]'
p3069
ssg3012
I84
sg3013
(dp3070
I79
S''
sI80
S'    lis = db().select(db.Relation.ALL)'
p3071
sI81
S'    emp=db().select(db.Employee.ALL, orderby=db.Employee.Name)'
p3072
sI82
S'    counts=len(emp)'
p3073
sI83
S'    for i in xrange(counts+1):'
p3074
sI84
S'       c.append([])'
p3075
sI85
S'       vis.append([])'
p3076
sI86
S'       rep.append(i)'
p3077
sI87
S'       ed.append([])'
p3078
sI88
S'       for j in xrange(counts+1):'
p3079
ssg3025
S'()'
p3080
sg3027
S'kruskal'
p3081
sasS'pyver'
p3082
S'Python 2.7.2+: /usr/bin/python'
p3083
sS'session'
p3084
g57
(g58
g59
NtRp3085
(dp3086
g62
(dp3087
sg64
(lp3088
g57
(g66
g59
NtRp3089
(dp3090
g62
(dp3091
g70
I5
ssg71
Nsg64
(lp3092
g57
(g73
g59
NtRp3093
(dp3094
g62
(dp3095
sg71
g3089
sg64
(lp3096
g57
(g78
g59
NtRp3097
(dp3098
g62
(dp3099
g82
g83
ssg71
g3093
sg64
(lp3100
S'auth'
p3101
asbag57
(g78
g59
NtRp3102
(dp3103
g62
(dp3104
g89
g90
ssg71
g3093
sg64
(lp3105
S':'
asbag57
(g78
g59
NtRp3106
(dp3107
g62
(dp3108
sg71
g3093
sg64
(lp3109
g57
(g58
g59
NtRp3110
(dp3111
g62
(dp3112
g70
I5
ssg71
g3106
sg64
(lp3113
g57
(g66
g59
NtRp3114
(dp3115
g62
(dp3116
g70
I4
ssg71
Nsg64
(lp3117
g57
(g73
g59
NtRp3118
(dp3119
g62
(dp3120
sg71
g3114
sg64
(lp3121
g57
(g78
g59
NtRp3122
(dp3123
g62
(dp3124
g82
g83
ssg71
g3118
sg64
(lp3125
S'expiration'
p3126
asbag57
(g78
g59
NtRp3127
(dp3128
g62
(dp3129
g89
g90
ssg71
g3118
sg64
(lp3130
S':'
asbag57
(g78
g59
NtRp3131
(dp3132
g62
(dp3133
sg71
g3118
sg64
(lp3134
g57
(g58
g59
NtRp3135
(dp3136
g62
(dp3137
g70
I4
ssg71
g3131
sg64
(lp3138
S'3600'
p3139
asbasbasbag57
(g73
g59
NtRp3140
(dp3141
g62
(dp3142
sg71
g3114
sg64
(lp3143
g57
(g78
g59
NtRp3144
(dp3145
g62
(dp3146
g82
g83
ssg71
g3140
sg64
(lp3147
S'hmac_key'
p3148
asbag57
(g78
g59
NtRp3149
(dp3150
g62
(dp3151
g89
g90
ssg71
g3140
sg64
(lp3152
S':'
asbag57
(g78
g59
NtRp3153
(dp3154
g62
(dp3155
sg71
g3140
sg64
(lp3156
g57
(g58
g59
NtRp3157
(dp3158
g62
(dp3159
g70
I4
ssg71
g3153
sg64
(lp3160
S'24b97e57-b9fc-4ee1-9f8d-b811c8e001d3'
p3161
asbasbasbag57
(g73
g59
NtRp3162
(dp3163
g62
(dp3164
sg71
g3114
sg64
(lp3165
g57
(g78
g59
NtRp3166
(dp3167
g62
(dp3168
g82
g83
ssg71
g3162
sg64
(lp3169
S'last_visit'
p3170
asbag57
(g78
g59
NtRp3171
(dp3172
g62
(dp3173
g89
g90
ssg71
g3162
sg64
(lp3174
S':'
asbag57
(g78
g59
NtRp3175
(dp3176
g62
(dp3177
sg71
g3162
sg64
(lp3178
g57
(g58
g59
NtRp3179
(dp3180
g62
(dp3181
g70
I4
ssg71
g3175
sg64
(lp3182
S'datetime.datetime(2012, 11, 7, 2, 0, 28, 436743)'
p3183
asbasbasbag57
(g73
g59
NtRp3184
(dp3185
g62
(dp3186
sg71
g3114
sg64
(lp3187
g57
(g78
g59
NtRp3188
(dp3189
g62
(dp3190
g82
g83
ssg71
g3184
sg64
(lp3191
S'remember'
p3192
asbag57
(g78
g59
NtRp3193
(dp3194
g62
(dp3195
g89
g90
ssg71
g3184
sg64
(lp3196
S':'
asbag57
(g78
g59
NtRp3197
(dp3198
g62
(dp3199
sg71
g3184
sg64
(lp3200
g57
(g58
g59
NtRp3201
(dp3202
g62
(dp3203
g70
I4
ssg71
g3197
sg64
(lp3204
g100
asbasbasbag57
(g73
g59
NtRp3205
(dp3206
g62
(dp3207
sg71
g3114
sg64
(lp3208
g57
(g78
g59
NtRp3209
(dp3210
g62
(dp3211
g82
g83
ssg71
g3205
sg64
(lp3212
S'user'
p3213
asbag57
(g78
g59
NtRp3214
(dp3215
g62
(dp3216
g89
g90
ssg71
g3205
sg64
(lp3217
S':'
asbag57
(g78
g59
NtRp3218
(dp3219
g62
(dp3220
sg71
g3205
sg64
(lp3221
g57
(g58
g59
NtRp3222
(dp3223
g62
(dp3224
g70
I4
ssg71
g3218
sg64
(lp3225
g57
(g66
g59
NtRp3226
(dp3227
g62
(dp3228
g70
I3
ssg71
Nsg64
(lp3229
g57
(g73
g59
NtRp3230
(dp3231
g62
(dp3232
sg71
g3226
sg64
(lp3233
g57
(g78
g59
NtRp3234
(dp3235
g62
(dp3236
g82
g83
ssg71
g3230
sg64
(lp3237
S'email'
p3238
asbag57
(g78
g59
NtRp3239
(dp3240
g62
(dp3241
g89
g90
ssg71
g3230
sg64
(lp3242
S':'
asbag57
(g78
g59
NtRp3243
(dp3244
g62
(dp3245
sg71
g3230
sg64
(lp3246
g57
(g58
g59
NtRp3247
(dp3248
g62
(dp3249
g70
I3
ssg71
g3243
sg64
(lp3250
S'rammurthy@faculty.iiit.ac.in'
p3251
asbasbasbag57
(g73
g59
NtRp3252
(dp3253
g62
(dp3254
sg71
g3226
sg64
(lp3255
g57
(g78
g59
NtRp3256
(dp3257
g62
(dp3258
g82
g83
ssg71
g3252
sg64
(lp3259
S'first_name'
p3260
asbag57
(g78
g59
NtRp3261
(dp3262
g62
(dp3263
g89
g90
ssg71
g3252
sg64
(lp3264
S':'
asbag57
(g78
g59
NtRp3265
(dp3266
g62
(dp3267
sg71
g3252
sg64
(lp3268
g57
(g58
g59
NtRp3269
(dp3270
g62
(dp3271
g70
I3
ssg71
g3265
sg64
(lp3272
S'rammurthy'
p3273
asbasbasbag57
(g73
g59
NtRp3274
(dp3275
g62
(dp3276
sg71
g3226
sg64
(lp3277
g57
(g78
g59
NtRp3278
(dp3279
g62
(dp3280
g82
g83
ssg71
g3274
sg64
(lp3281
S'id'
p3282
asbag57
(g78
g59
NtRp3283
(dp3284
g62
(dp3285
g89
g90
ssg71
g3274
sg64
(lp3286
S':'
asbag57
(g78
g59
NtRp3287
(dp3288
g62
(dp3289
sg71
g3274
sg64
(lp3290
g57
(g58
g59
NtRp3291
(dp3292
g62
(dp3293
g70
I3
ssg71
g3287
sg64
(lp3294
S'1'
asbasbasbag57
(g73
g59
NtRp3295
(dp3296
g62
(dp3297
sg71
g3226
sg64
(lp3298
g57
(g78
g59
NtRp3299
(dp3300
g62
(dp3301
g82
g83
ssg71
g3295
sg64
(lp3302
S'last_name'
p3303
asbag57
(g78
g59
NtRp3304
(dp3305
g62
(dp3306
g89
g90
ssg71
g3295
sg64
(lp3307
S':'
asbag57
(g78
g59
NtRp3308
(dp3309
g62
(dp3310
sg71
g3295
sg64
(lp3311
g57
(g58
g59
NtRp3312
(dp3313
g62
(dp3314
g70
I3
ssg71
g3308
sg64
(lp3315
S'sir'
p3316
asbasbasbag57
(g73
g59
NtRp3317
(dp3318
g62
(dp3319
sg71
g3226
sg64
(lp3320
g57
(g78
g59
NtRp3321
(dp3322
g62
(dp3323
g82
g83
ssg71
g3317
sg64
(lp3324
S'password'
p3325
asbag57
(g78
g59
NtRp3326
(dp3327
g62
(dp3328
g89
g90
ssg71
g3317
sg64
(lp3329
S':'
asbag57
(g78
g59
NtRp3330
(dp3331
g62
(dp3332
sg71
g3317
sg64
(lp3333
g57
(g58
g59
NtRp3334
(dp3335
g62
(dp3336
g70
I3
ssg71
g3330
sg64
(lp3337
S'9da56e6636f0f89c2a2b7b54a400c423'
p3338
asbasbasbag57
(g73
g59
NtRp3339
(dp3340
g62
(dp3341
sg71
g3226
sg64
(lp3342
g57
(g78
g59
NtRp3343
(dp3344
g62
(dp3345
g82
g83
ssg71
g3339
sg64
(lp3346
S'registration_id'
p3347
asbag57
(g78
g59
NtRp3348
(dp3349
g62
(dp3350
g89
g90
ssg71
g3339
sg64
(lp3351
S':'
asbag57
(g78
g59
NtRp3352
(dp3353
g62
(dp3354
sg71
g3339
sg64
(lp3355
g57
(g58
g59
NtRp3356
(dp3357
g62
(dp3358
g70
I3
ssg71
g3352
sg64
(lp3359
S''
asbasbasbag57
(g73
g59
NtRp3360
(dp3361
g62
(dp3362
sg71
g3226
sg64
(lp3363
g57
(g78
g59
NtRp3364
(dp3365
g62
(dp3366
g82
g83
ssg71
g3360
sg64
(lp3367
S'registration_key'
p3368
asbag57
(g78
g59
NtRp3369
(dp3370
g62
(dp3371
g89
g90
ssg71
g3360
sg64
(lp3372
S':'
asbag57
(g78
g59
NtRp3373
(dp3374
g62
(dp3375
sg71
g3360
sg64
(lp3376
g57
(g58
g59
NtRp3377
(dp3378
g62
(dp3379
g70
I3
ssg71
g3373
sg64
(lp3380
S''
asbasbasbag57
(g73
g59
NtRp3381
(dp3382
g62
(dp3383
sg71
g3226
sg64
(lp3384
g57
(g78
g59
NtRp3385
(dp3386
g62
(dp3387
g82
g83
ssg71
g3381
sg64
(lp3388
S'reset_password_key'
p3389
asbag57
(g78
g59
NtRp3390
(dp3391
g62
(dp3392
g89
g90
ssg71
g3381
sg64
(lp3393
S':'
asbag57
(g78
g59
NtRp3394
(dp3395
g62
(dp3396
sg71
g3381
sg64
(lp3397
g57
(g58
g59
NtRp3398
(dp3399
g62
(dp3400
g70
I3
ssg71
g3394
sg64
(lp3401
S''
asbasbasbasbasbasbasbag57
(g73
g59
NtRp3402
(dp3403
g62
(dp3404
sg71
g3114
sg64
(lp3405
g57
(g78
g59
NtRp3406
(dp3407
g62
(dp3408
g82
g83
ssg71
g3402
sg64
(lp3409
S'user_groups'
p3410
asbag57
(g78
g59
NtRp3411
(dp3412
g62
(dp3413
g89
g90
ssg71
g3402
sg64
(lp3414
S':'
asbag57
(g78
g59
NtRp3415
(dp3416
g62
(dp3417
sg71
g3402
sg64
(lp3418
g57
(g58
g59
NtRp3419
(dp3420
g62
(dp3421
g70
I4
ssg71
g3415
sg64
(lp3422
g57
(g66
g59
NtRp3423
(dp3424
g62
(dp3425
g70
I3
ssg71
Nsg64
(lp3426
g57
(g73
g59
NtRp3427
(dp3428
g62
(dp3429
sg71
g3423
sg64
(lp3430
g57
(g78
g59
NtRp3431
(dp3432
g62
(dp3433
g82
g83
ssg71
g3427
sg64
(lp3434
S'1'
asbag57
(g78
g59
NtRp3435
(dp3436
g62
(dp3437
g89
g90
ssg71
g3427
sg64
(lp3438
S':'
asbag57
(g78
g59
NtRp3439
(dp3440
g62
(dp3441
sg71
g3427
sg64
(lp3442
g57
(g58
g59
NtRp3443
(dp3444
g62
(dp3445
g70
I3
ssg71
g3439
sg64
(lp3446
S'user_1'
p3447
asbasbasbag57
(g73
g59
NtRp3448
(dp3449
g62
(dp3450
sg71
g3423
sg64
(lp3451
g57
(g78
g59
NtRp3452
(dp3453
g62
(dp3454
g82
g83
ssg71
g3448
sg64
(lp3455
S'2'
asbag57
(g78
g59
NtRp3456
(dp3457
g62
(dp3458
g89
g90
ssg71
g3448
sg64
(lp3459
S':'
asbag57
(g78
g59
NtRp3460
(dp3461
g62
(dp3462
sg71
g3448
sg64
(lp3463
g57
(g58
g59
NtRp3464
(dp3465
g62
(dp3466
g70
I3
ssg71
g3460
sg64
(lp3467
S'Administrator'
p3468
asbasbasbasbasbasbasbasbasbasbasbasbasbsS'etype'
p3469
S"<type 'exceptions.UnboundLocalError'>"
p3470
sS'date'
p3471
S'Wed Nov  7 02:00:31 2012'
p3472
sS'response'
p3473
g57
(g58
g59
NtRp3474
(dp3475
g62
(dp3476
sg64
(lp3477
g57
(g66
g59
NtRp3478
(dp3479
g62
(dp3480
g70
I5
ssg71
Nsg64
(lp3481
g57
(g73
g59
NtRp3482
(dp3483
g62
(dp3484
sg71
g3478
sg64
(lp3485
g57
(g78
g59
NtRp3486
(dp3487
g62
(dp3488
g82
g83
ssg71
g3482
sg64
(lp3489
g155
asbag57
(g78
g59
NtRp3490
(dp3491
g62
(dp3492
g89
g90
ssg71
g3482
sg64
(lp3493
S':'
asbag57
(g78
g59
NtRp3494
(dp3495
g62
(dp3496
sg71
g3482
sg64
(lp3497
g57
(g58
g59
NtRp3498
(dp3499
g62
(dp3500
g70
I5
ssg71
g3494
sg64
(lp3501
S'<cStringIO.StringO object at 0x9a89ce0>'
p3502
asbasbasbag57
(g73
g59
NtRp3503
(dp3504
g62
(dp3505
sg71
g3478
sg64
(lp3506
g57
(g78
g59
NtRp3507
(dp3508
g62
(dp3509
g82
g83
ssg71
g3503
sg64
(lp3510
g221
asbag57
(g78
g59
NtRp3511
(dp3512
g62
(dp3513
g89
g90
ssg71
g3503
sg64
(lp3514
S':'
asbag57
(g78
g59
NtRp3515
(dp3516
g62
(dp3517
sg71
g3503
sg64
(lp3518
g57
(g58
g59
NtRp3519
(dp3520
g62
(dp3521
g70
I5
ssg71
g3515
sg64
(lp3522
g57
(g66
g59
NtRp3523
(dp3524
g62
(dp3525
g70
I4
ssg71
Nsg64
(lp3526
g57
(g73
g59
NtRp3527
(dp3528
g62
(dp3529
sg71
g3523
sg64
(lp3530
g57
(g78
g59
NtRp3531
(dp3532
g62
(dp3533
g82
g83
ssg71
g3527
sg64
(lp3534
S'session_id_project'
p3535
asbag57
(g78
g59
NtRp3536
(dp3537
g62
(dp3538
g89
g90
ssg71
g3527
sg64
(lp3539
S':'
asbag57
(g78
g59
NtRp3540
(dp3541
g62
(dp3542
sg71
g3527
sg64
(lp3543
g57
(g58
g59
NtRp3544
(dp3545
g62
(dp3546
g70
I4
ssg71
g3540
sg64
(lp3547
g57
(g66
g59
NtRp3548
(dp3549
g62
(dp3550
g70
I3
ssg71
Nsg64
(lp3551
g57
(g73
g59
NtRp3552
(dp3553
g62
(dp3554
sg71
g3548
sg64
(lp3555
g57
(g78
g59
NtRp3556
(dp3557
g62
(dp3558
g82
g83
ssg71
g3552
sg64
(lp3559
g271
asbag57
(g78
g59
NtRp3560
(dp3561
g62
(dp3562
g89
g90
ssg71
g3552
sg64
(lp3563
S':'
asbag57
(g78
g59
NtRp3564
(dp3565
g62
(dp3566
sg71
g3552
sg64
(lp3567
g57
(g58
g59
NtRp3568
(dp3569
g62
(dp3570
g70
I3
ssg71
g3564
sg64
(lp3571
S''
asbasbasbag57
(g73
g59
NtRp3572
(dp3573
g62
(dp3574
sg71
g3548
sg64
(lp3575
g57
(g78
g59
NtRp3576
(dp3577
g62
(dp3578
g82
g83
ssg71
g3572
sg64
(lp3579
g292
asbag57
(g78
g59
NtRp3580
(dp3581
g62
(dp3582
g89
g90
ssg71
g3572
sg64
(lp3583
S':'
asbag57
(g78
g59
NtRp3584
(dp3585
g62
(dp3586
sg71
g3572
sg64
(lp3587
g57
(g58
g59
NtRp3588
(dp3589
g62
(dp3590
g70
I3
ssg71
g3584
sg64
(lp3591
S''
asbasbasbag57
(g73
g59
NtRp3592
(dp3593
g62
(dp3594
sg71
g3548
sg64
(lp3595
g57
(g78
g59
NtRp3596
(dp3597
g62
(dp3598
g82
g83
ssg71
g3592
sg64
(lp3599
g313
asbag57
(g78
g59
NtRp3600
(dp3601
g62
(dp3602
g89
g90
ssg71
g3592
sg64
(lp3603
S':'
asbag57
(g78
g59
NtRp3604
(dp3605
g62
(dp3606
sg71
g3592
sg64
(lp3607
g57
(g58
g59
NtRp3608
(dp3609
g62
(dp3610
g70
I3
ssg71
g3604
sg64
(lp3611
S''
asbasbasbag57
(g73
g59
NtRp3612
(dp3613
g62
(dp3614
sg71
g3548
sg64
(lp3615
g57
(g78
g59
NtRp3616
(dp3617
g62
(dp3618
g82
g83
ssg71
g3612
sg64
(lp3619
g334
asbag57
(g78
g59
NtRp3620
(dp3621
g62
(dp3622
g89
g90
ssg71
g3612
sg64
(lp3623
S':'
asbag57
(g78
g59
NtRp3624
(dp3625
g62
(dp3626
sg71
g3612
sg64
(lp3627
g57
(g58
g59
NtRp3628
(dp3629
g62
(dp3630
g70
I3
ssg71
g3624
sg64
(lp3631
S''
asbasbasbag57
(g73
g59
NtRp3632
(dp3633
g62
(dp3634
sg71
g3548
sg64
(lp3635
g57
(g78
g59
NtRp3636
(dp3637
g62
(dp3638
g82
g83
ssg71
g3632
sg64
(lp3639
g355
asbag57
(g78
g59
NtRp3640
(dp3641
g62
(dp3642
g89
g90
ssg71
g3632
sg64
(lp3643
S':'
asbag57
(g78
g59
NtRp3644
(dp3645
g62
(dp3646
sg71
g3632
sg64
(lp3647
g57
(g58
g59
NtRp3648
(dp3649
g62
(dp3650
g70
I3
ssg71
g3644
sg64
(lp3651
S''
asbasbasbag57
(g73
g59
NtRp3652
(dp3653
g62
(dp3654
sg71
g3548
sg64
(lp3655
g57
(g78
g59
NtRp3656
(dp3657
g62
(dp3658
g82
g83
ssg71
g3652
sg64
(lp3659
g376
asbag57
(g78
g59
NtRp3660
(dp3661
g62
(dp3662
g89
g90
ssg71
g3652
sg64
(lp3663
S':'
asbag57
(g78
g59
NtRp3664
(dp3665
g62
(dp3666
sg71
g3652
sg64
(lp3667
g57
(g58
g59
NtRp3668
(dp3669
g62
(dp3670
g70
I3
ssg71
g3664
sg64
(lp3671
S'/'
asbasbasbag57
(g73
g59
NtRp3672
(dp3673
g62
(dp3674
sg71
g3548
sg64
(lp3675
g57
(g78
g59
NtRp3676
(dp3677
g62
(dp3678
g82
g83
ssg71
g3672
sg64
(lp3679
g397
asbag57
(g78
g59
NtRp3680
(dp3681
g62
(dp3682
g89
g90
ssg71
g3672
sg64
(lp3683
S':'
asbag57
(g78
g59
NtRp3684
(dp3685
g62
(dp3686
sg71
g3672
sg64
(lp3687
g57
(g58
g59
NtRp3688
(dp3689
g62
(dp3690
g70
I3
ssg71
g3684
sg64
(lp3691
S''
asbasbasbag57
(g73
g59
NtRp3692
(dp3693
g62
(dp3694
sg71
g3548
sg64
(lp3695
g57
(g78
g59
NtRp3696
(dp3697
g62
(dp3698
g82
g83
ssg71
g3692
sg64
(lp3699
g418
asbag57
(g78
g59
NtRp3700
(dp3701
g62
(dp3702
g89
g90
ssg71
g3692
sg64
(lp3703
S':'
asbag57
(g78
g59
NtRp3704
(dp3705
g62
(dp3706
sg71
g3692
sg64
(lp3707
g57
(g58
g59
NtRp3708
(dp3709
g62
(dp3710
g70
I3
ssg71
g3704
sg64
(lp3711
S''
asbasbasbasbasbasbasbasbasbasbasbag57
(g73
g59
NtRp3712
(dp3713
g62
(dp3714
sg71
g3478
sg64
(lp3715
g57
(g78
g59
NtRp3716
(dp3717
g62
(dp3718
g82
g83
ssg71
g3712
sg64
(lp3719
S'delimiters'
p3720
asbag57
(g78
g59
NtRp3721
(dp3722
g62
(dp3723
g89
g90
ssg71
g3712
sg64
(lp3724
S':'
asbag57
(g78
g59
NtRp3725
(dp3726
g62
(dp3727
sg71
g3712
sg64
(lp3728
g57
(g58
g59
NtRp3729
(dp3730
g62
(dp3731
g70
I5
ssg71
g3725
sg64
(lp3732
g57
(g66
g59
NtRp3733
(dp3734
g62
(dp3735
g70
I4
ssg71
Nsg64
(lp3736
g57
(g73
g59
NtRp3737
(dp3738
g62
(dp3739
sg71
g3733
sg64
(lp3740
g57
(g78
g59
NtRp3741
(dp3742
g62
(dp3743
sg71
g3737
sg64
(lp3744
g57
(g58
g59
NtRp3745
(dp3746
g62
(dp3747
g70
I4
ssg71
g3741
sg64
(lp3748
S'{{'
p3749
asbasbasbag57
(g73
g59
NtRp3750
(dp3751
g62
(dp3752
sg71
g3733
sg64
(lp3753
g57
(g78
g59
NtRp3754
(dp3755
g62
(dp3756
sg71
g3750
sg64
(lp3757
g57
(g58
g59
NtRp3758
(dp3759
g62
(dp3760
g70
I4
ssg71
g3754
sg64
(lp3761
S'}}'
p3762
asbasbasbasbasbasbasbag57
(g73
g59
NtRp3763
(dp3764
g62
(dp3765
sg71
g3478
sg64
(lp3766
g57
(g78
g59
NtRp3767
(dp3768
g62
(dp3769
g82
g83
ssg71
g3763
sg64
(lp3770
S'files'
p3771
asbag57
(g78
g59
NtRp3772
(dp3773
g62
(dp3774
g89
g90
ssg71
g3763
sg64
(lp3775
S':'
asbag57
(g78
g59
NtRp3776
(dp3777
g62
(dp3778
sg71
g3763
sg64
(lp3779
g57
(g58
g59
NtRp3780
(dp3781
g62
(dp3782
g70
I5
ssg71
g3776
sg64
(lp3783
g57
(g66
g59
NtRp3784
(dp3785
g62
(dp3786
g70
I4
ssg71
Nsg64
(lp3787
sbasbasbasbag57
(g73
g59
NtRp3788
(dp3789
g62
(dp3790
sg71
g3478
sg64
(lp3791
g57
(g78
g59
NtRp3792
(dp3793
g62
(dp3794
g82
g83
ssg71
g3788
sg64
(lp3795
S'flash'
p3796
asbag57
(g78
g59
NtRp3797
(dp3798
g62
(dp3799
g89
g90
ssg71
g3788
sg64
(lp3800
S':'
asbag57
(g78
g59
NtRp3801
(dp3802
g62
(dp3803
sg71
g3788
sg64
(lp3804
g57
(g58
g59
NtRp3805
(dp3806
g62
(dp3807
g70
I5
ssg71
g3801
sg64
(lp3808
S''
asbasbasbag57
(g73
g59
NtRp3809
(dp3810
g62
(dp3811
sg71
g3478
sg64
(lp3812
g57
(g78
g59
NtRp3813
(dp3814
g62
(dp3815
g82
g83
ssg71
g3809
sg64
(lp3816
S'generic_patterns'
p3817
asbag57
(g78
g59
NtRp3818
(dp3819
g62
(dp3820
g89
g90
ssg71
g3809
sg64
(lp3821
S':'
asbag57
(g78
g59
NtRp3822
(dp3823
g62
(dp3824
sg71
g3809
sg64
(lp3825
g57
(g58
g59
NtRp3826
(dp3827
g62
(dp3828
g70
I5
ssg71
g3822
sg64
(lp3829
g57
(g66
g59
NtRp3830
(dp3831
g62
(dp3832
g70
I4
ssg71
Nsg64
(lp3833
g57
(g73
g59
NtRp3834
(dp3835
g62
(dp3836
sg71
g3830
sg64
(lp3837
g57
(g78
g59
NtRp3838
(dp3839
g62
(dp3840
sg71
g3834
sg64
(lp3841
g57
(g58
g59
NtRp3842
(dp3843
g62
(dp3844
g70
I4
ssg71
g3838
sg64
(lp3845
S'*'
asbasbasbasbasbasbasbag57
(g73
g59
NtRp3846
(dp3847
g62
(dp3848
sg71
g3478
sg64
(lp3849
g57
(g78
g59
NtRp3850
(dp3851
g62
(dp3852
g82
g83
ssg71
g3846
sg64
(lp3853
S'headers'
p3854
asbag57
(g78
g59
NtRp3855
(dp3856
g62
(dp3857
g89
g90
ssg71
g3846
sg64
(lp3858
S':'
asbag57
(g78
g59
NtRp3859
(dp3860
g62
(dp3861
sg71
g3846
sg64
(lp3862
g57
(g58
g59
NtRp3863
(dp3864
g62
(dp3865
g70
I5
ssg71
g3859
sg64
(lp3866
g57
(g66
g59
NtRp3867
(dp3868
g62
(dp3869
g70
I4
ssg71
Nsg64
(lp3870
g57
(g73
g59
NtRp3871
(dp3872
g62
(dp3873
sg71
g3867
sg64
(lp3874
g57
(g78
g59
NtRp3875
(dp3876
g62
(dp3877
g82
g83
ssg71
g3871
sg64
(lp3878
S'Cache-Control'
p3879
asbag57
(g78
g59
NtRp3880
(dp3881
g62
(dp3882
g89
g90
ssg71
g3871
sg64
(lp3883
S':'
asbag57
(g78
g59
NtRp3884
(dp3885
g62
(dp3886
sg71
g3871
sg64
(lp3887
g57
(g58
g59
NtRp3888
(dp3889
g62
(dp3890
g70
I4
ssg71
g3884
sg64
(lp3891
S'no-store, no-cache, must-revalidate, post-check=0, pre-check=0'
p3892
asbasbasbag57
(g73
g59
NtRp3893
(dp3894
g62
(dp3895
sg71
g3867
sg64
(lp3896
g57
(g78
g59
NtRp3897
(dp3898
g62
(dp3899
g82
g83
ssg71
g3893
sg64
(lp3900
S'Content-Type'
p3901
asbag57
(g78
g59
NtRp3902
(dp3903
g62
(dp3904
g89
g90
ssg71
g3893
sg64
(lp3905
S':'
asbag57
(g78
g59
NtRp3906
(dp3907
g62
(dp3908
sg71
g3893
sg64
(lp3909
g57
(g58
g59
NtRp3910
(dp3911
g62
(dp3912
g70
I4
ssg71
g3906
sg64
(lp3913
S'text/html; charset=utf-8'
p3914
asbasbasbag57
(g73
g59
NtRp3915
(dp3916
g62
(dp3917
sg71
g3867
sg64
(lp3918
g57
(g78
g59
NtRp3919
(dp3920
g62
(dp3921
g82
g83
ssg71
g3915
sg64
(lp3922
S'Expires'
p3923
asbag57
(g78
g59
NtRp3924
(dp3925
g62
(dp3926
g89
g90
ssg71
g3915
sg64
(lp3927
S':'
asbag57
(g78
g59
NtRp3928
(dp3929
g62
(dp3930
sg71
g3915
sg64
(lp3931
g57
(g58
g59
NtRp3932
(dp3933
g62
(dp3934
g70
I4
ssg71
g3928
sg64
(lp3935
S'Tue, 06 Nov 2012 20:30:31 GMT'
p3936
asbasbasbag57
(g73
g59
NtRp3937
(dp3938
g62
(dp3939
sg71
g3867
sg64
(lp3940
g57
(g78
g59
NtRp3941
(dp3942
g62
(dp3943
g82
g83
ssg71
g3937
sg64
(lp3944
S'Pragma'
p3945
asbag57
(g78
g59
NtRp3946
(dp3947
g62
(dp3948
g89
g90
ssg71
g3937
sg64
(lp3949
S':'
asbag57
(g78
g59
NtRp3950
(dp3951
g62
(dp3952
sg71
g3937
sg64
(lp3953
g57
(g58
g59
NtRp3954
(dp3955
g62
(dp3956
g70
I4
ssg71
g3950
sg64
(lp3957
S'no-cache'
p3958
asbasbasbag57
(g73
g59
NtRp3959
(dp3960
g62
(dp3961
sg71
g3867
sg64
(lp3962
g57
(g78
g59
NtRp3963
(dp3964
g62
(dp3965
g82
g83
ssg71
g3959
sg64
(lp3966
S'X-Powered-By'
p3967
asbag57
(g78
g59
NtRp3968
(dp3969
g62
(dp3970
g89
g90
ssg71
g3959
sg64
(lp3971
S':'
asbag57
(g78
g59
NtRp3972
(dp3973
g62
(dp3974
sg71
g3959
sg64
(lp3975
g57
(g58
g59
NtRp3976
(dp3977
g62
(dp3978
g70
I4
ssg71
g3972
sg64
(lp3979
S'web2py'
p3980
asbasbasbasbasbasbasbag57
(g73
g59
NtRp3981
(dp3982
g62
(dp3983
sg71
g3478
sg64
(lp3984
g57
(g78
g59
NtRp3985
(dp3986
g62
(dp3987
g82
g83
ssg71
g3981
sg64
(lp3988
S'menu'
p3989
asbag57
(g78
g59
NtRp3990
(dp3991
g62
(dp3992
g89
g90
ssg71
g3981
sg64
(lp3993
S':'
asbag57
(g78
g59
NtRp3994
(dp3995
g62
(dp3996
sg71
g3981
sg64
(lp3997
g57
(g58
g59
NtRp3998
(dp3999
g62
(dp4000
g70
I5
ssg71
g3994
sg64
(lp4001
g57
(g66
g59
NtRp4002
(dp4003
g62
(dp4004
g70
I4
ssg71
Nsg64
(lp4005
g57
(g73
g59
NtRp4006
(dp4007
g62
(dp4008
sg71
g4002
sg64
(lp4009
g57
(g78
g59
NtRp4010
(dp4011
g62
(dp4012
sg71
g4006
sg64
(lp4013
g57
(g58
g59
NtRp4014
(dp4015
g62
(dp4016
g70
I4
ssg71
g4010
sg64
(lp4017
g57
(g66
g59
NtRp4018
(dp4019
g62
(dp4020
g70
I3
ssg71
Nsg64
(lp4021
g57
(g73
g59
NtRp4022
(dp4023
g62
(dp4024
sg71
g4018
sg64
(lp4025
g57
(g78
g59
NtRp4026
(dp4027
g62
(dp4028
sg71
g4022
sg64
(lp4029
g57
(g58
g59
NtRp4030
(dp4031
g62
(dp4032
g70
I3
ssg71
g4026
sg64
(lp4033
cgluon.languages
lazyT_unpickle
p4034
(S't\x04\x00\x00\x00Home'
tRp4035
asbasbasbag57
(g73
g59
NtRp4036
(dp4037
g62
(dp4038
sg71
g4018
sg64
(lp4039
g57
(g78
g59
NtRp4040
(dp4041
g62
(dp4042
sg71
g4036
sg64
(lp4043
g57
(g58
g59
NtRp4044
(dp4045
g62
(dp4046
g70
I3
ssg71
g4040
sg64
(lp4047
g100
asbasbasbag57
(g73
g59
NtRp4048
(dp4049
g62
(dp4050
sg71
g4018
sg64
(lp4051
g57
(g78
g59
NtRp4052
(dp4053
g62
(dp4054
sg71
g4048
sg64
(lp4055
g57
(g58
g59
NtRp4056
(dp4057
g62
(dp4058
g70
I3
ssg71
g4052
sg64
(lp4059
S'/project/default/index'
p4060
asbasbasbag57
(g73
g59
NtRp4061
(dp4062
g62
(dp4063
sg71
g4018
sg64
(lp4064
g57
(g78
g59
NtRp4065
(dp4066
g62
(dp4067
sg71
g4061
sg64
(lp4068
g57
(g58
g59
NtRp4069
(dp4070
g62
(dp4071
g70
I3
ssg71
g4065
sg64
(lp4072
g57
(g66
g59
NtRp4073
(dp4074
g62
(dp4075
g70
I2
ssg71
Nsg64
(lp4076
sbasbasbasbasbasbasbasbag57
(g73
g59
NtRp4077
(dp4078
g62
(dp4079
sg71
g4002
sg64
(lp4080
g57
(g78
g59
NtRp4081
(dp4082
g62
(dp4083
sg71
g4077
sg64
(lp4084
g57
(g58
g59
NtRp4085
(dp4086
g62
(dp4087
g70
I4
ssg71
g4081
sg64
(lp4088
g57
(g66
g59
NtRp4089
(dp4090
g62
(dp4091
g70
I3
ssg71
Nsg64
(lp4092
g57
(g73
g59
NtRp4093
(dp4094
g62
(dp4095
sg71
g4089
sg64
(lp4096
g57
(g78
g59
NtRp4097
(dp4098
g62
(dp4099
sg71
g4093
sg64
(lp4100
g57
(g58
g59
NtRp4101
(dp4102
g62
(dp4103
g70
I3
ssg71
g4097
sg64
(lp4104
g57
(cgluon.html
SPAN
p4105
g59
NtRp4106
(dp4107
g62
(dp4108
g82
S'color:yellow'
p4109
ssg71
Nsg64
(lp4110
g3980
asbasbasbasbag57
(g73
g59
NtRp4111
(dp4112
g62
(dp4113
sg71
g4089
sg64
(lp4114
g57
(g78
g59
NtRp4115
(dp4116
g62
(dp4117
sg71
g4111
sg64
(lp4118
g57
(g58
g59
NtRp4119
(dp4120
g62
(dp4121
g70
I3
ssg71
g4115
sg64
(lp4122
g100
asbasbasbag57
(g73
g59
NtRp4123
(dp4124
g62
(dp4125
sg71
g4089
sg64
(lp4126
g57
(g78
g59
NtRp4127
(dp4128
g62
(dp4129
sg71
g4123
sg64
(lp4130
g57
(g58
g59
NtRp4131
(dp4132
g62
(dp4133
g70
I3
ssg71
g4127
sg64
(lp4134
S'None'
p4135
asbasbasbag57
(g73
g59
NtRp4136
(dp4137
g62
(dp4138
sg71
g4089
sg64
(lp4139
g57
(g78
g59
NtRp4140
(dp4141
g62
(dp4142
sg71
g4136
sg64
(lp4143
g57
(g58
g59
NtRp4144
(dp4145
g62
(dp4146
g70
I3
ssg71
g4140
sg64
(lp4147
g57
(g66
g59
NtRp4148
(dp4149
g62
(dp4150
g70
I2
ssg71
Nsg64
(lp4151
g57
(g73
g59
NtRp4152
(dp4153
g62
(dp4154
sg71
g4148
sg64
(lp4155
g57
(g78
g59
NtRp4156
(dp4157
g62
(dp4158
sg71
g4152
sg64
(lp4159
g57
(g58
g59
NtRp4160
(dp4161
g62
(dp4162
g70
I2
ssg71
g4156
sg64
(lp4163
g57
(g66
g59
NtRp4164
(dp4165
g62
(dp4166
g70
I1
ssg71
Nsg64
(lp4167
g57
(g73
g59
NtRp4168
(dp4169
g62
(dp4170
sg71
g4164
sg64
(lp4171
g57
(g78
g59
NtRp4172
(dp4173
g62
(dp4174
sg71
g4168
sg64
(lp4175
g57
(g58
g59
NtRp4176
(dp4177
g62
(dp4178
g70
I1
ssg71
g4172
sg64
(lp4179
g4034
(S's\x08\x00\x00\x00My Sites'
tRp4180
asbasbasbag57
(g73
g59
NtRp4181
(dp4182
g62
(dp4183
sg71
g4164
sg64
(lp4184
g57
(g78
g59
NtRp4185
(dp4186
g62
(dp4187
sg71
g4181
sg64
(lp4188
g57
(g58
g59
NtRp4189
(dp4190
g62
(dp4191
g70
I1
ssg71
g4185
sg64
(lp4192
I00
asbasbasbag57
(g73
g59
NtRp4193
(dp4194
g62
(dp4195
sg71
g4164
sg64
(lp4196
g57
(g78
g59
NtRp4197
(dp4198
g62
(dp4199
sg71
g4193
sg64
(lp4200
g57
(g58
g59
NtRp4201
(dp4202
g62
(dp4203
g70
I1
ssg71
g4197
sg64
(lp4204
S'/admin/default/site'
p4205
asbasbasbasbasbasbasbag57
(g73
g59
NtRp4206
(dp4207
g62
(dp4208
sg71
g4148
sg64
(lp4209
g57
(g78
g59
NtRp4210
(dp4211
g62
(dp4212
sg71
g4206
sg64
(lp4213
g57
(g58
g59
NtRp4214
(dp4215
g62
(dp4216
g70
I2
ssg71
g4210
sg64
(lp4217
g57
(g66
g59
NtRp4218
(dp4219
g62
(dp4220
g70
I1
ssg71
Nsg64
(lp4221
g57
(g73
g59
NtRp4222
(dp4223
g62
(dp4224
sg71
g4218
sg64
(lp4225
g57
(g78
g59
NtRp4226
(dp4227
g62
(dp4228
sg71
g4222
sg64
(lp4229
g57
(g58
g59
NtRp4230
(dp4231
g62
(dp4232
g70
I1
ssg71
g4226
sg64
(lp4233
g4034
(S's\x08\x00\x00\x00This App'
tRp4234
asbasbasbag57
(g73
g59
NtRp4235
(dp4236
g62
(dp4237
sg71
g4218
sg64
(lp4238
g57
(g78
g59
NtRp4239
(dp4240
g62
(dp4241
sg71
g4235
sg64
(lp4242
g57
(g58
g59
NtRp4243
(dp4244
g62
(dp4245
g70
I1
ssg71
g4239
sg64
(lp4246
I00
asbasbasbag57
(g73
g59
NtRp4247
(dp4248
g62
(dp4249
sg71
g4218
sg64
(lp4250
g57
(g78
g59
NtRp4251
(dp4252
g62
(dp4253
sg71
g4247
sg64
(lp4254
g57
(g58
g59
NtRp4255
(dp4256
g62
(dp4257
g70
I1
ssg71
g4251
sg64
(lp4258
S'/admin/default/design/project'
p4259
asbasbasbag57
(g73
g59
NtRp4260
(dp4261
g62
(dp4262
sg71
g4218
sg64
(lp4263
g57
(g78
g59
NtRp4264
(dp4265
g62
(dp4266
sg71
g4260
sg64
(lp4267
g57
(g58
g59
NtRp4268
(dp4269
g62
(dp4270
g70
I1
ssg71
g4264
sg64
(lp4271
(lp4272
(g4034
(S't\n\x00\x00\x00Controller'
tRp4273
I00
S'/admin/default/edit/project/controllers/default.py'
tp4274
a(g4034
(S't\x04\x00\x00\x00View'
tRp4275
I00
S'/admin/default/edit/project/views/default/kruskal.html'
tp4276
a(g4034
(S't\x06\x00\x00\x00Layout'
tRp4277
I00
S'/admin/default/edit/project/views/layout.html'
tp4278
a(g4034
(S't\n\x00\x00\x00Stylesheet'
tRp4279
I00
S'/admin/default/edit/project/static/css/web2py.css'
tp4280
a(g4034
(S's\x08\x00\x00\x00DB Model'
tRp4281
I00
S'/admin/default/edit/project/models/db.py'
tp4282
a(g4034
(S's\n\x00\x00\x00Menu Model'
tRp4283
I00
S'/admin/default/edit/project/models/menu.py'
tp4284
a(g4034
(S't\x08\x00\x00\x00Database'
tRp4285
I00
S'/project/appadmin/index'
tp4286
a(g4034
(S't\x06\x00\x00\x00Errors'
tRp4287
I00
S'/admin/default/errors/project'
tp4288
a(g4034
(S't\x05\x00\x00\x00About'
tRp4289
I00
S'/admin/default/about/project'
tp4290
aasbasbasbasbasbasbasbag57
(g73
g59
NtRp4291
(dp4292
g62
(dp4293
sg71
g4148
sg64
(lp4294
g57
(g78
g59
NtRp4295
(dp4296
g62
(dp4297
sg71
g4291
sg64
(lp4298
g57
(g58
g59
NtRp4299
(dp4300
g62
(dp4301
g70
I2
ssg71
g4295
sg64
(lp4302
g57
(g66
g59
NtRp4303
(dp4304
g62
(dp4305
g70
I1
ssg71
Nsg64
(lp4306
g57
(g73
g59
NtRp4307
(dp4308
g62
(dp4309
sg71
g4303
sg64
(lp4310
g57
(g78
g59
NtRp4311
(dp4312
g62
(dp4313
sg71
g4307
sg64
(lp4314
g57
(g58
g59
NtRp4315
(dp4316
g62
(dp4317
g70
I1
ssg71
g4311
sg64
(lp4318
S'web2py.com'
p4319
asbasbasbag57
(g73
g59
NtRp4320
(dp4321
g62
(dp4322
sg71
g4303
sg64
(lp4323
g57
(g78
g59
NtRp4324
(dp4325
g62
(dp4326
sg71
g4320
sg64
(lp4327
g57
(g58
g59
NtRp4328
(dp4329
g62
(dp4330
g70
I1
ssg71
g4324
sg64
(lp4331
I00
asbasbasbag57
(g73
g59
NtRp4332
(dp4333
g62
(dp4334
sg71
g4303
sg64
(lp4335
g57
(g78
g59
NtRp4336
(dp4337
g62
(dp4338
sg71
g4332
sg64
(lp4339
g57
(g58
g59
NtRp4340
(dp4341
g62
(dp4342
g70
I1
ssg71
g4336
sg64
(lp4343
S'http://www.web2py.com'
p4344
asbasbasbag57
(g73
g59
NtRp4345
(dp4346
g62
(dp4347
sg71
g4303
sg64
(lp4348
g57
(g78
g59
NtRp4349
(dp4350
g62
(dp4351
sg71
g4345
sg64
(lp4352
g57
(g58
g59
NtRp4353
(dp4354
g62
(dp4355
g70
I1
ssg71
g4349
sg64
(lp4356
(lp4357
(g4034
(S't\x08\x00\x00\x00Download'
tRp4358
I00
S'http://www.web2py.com/examples/default/download'
p4359
tp4360
a(g4034
(S't\x07\x00\x00\x00Support'
tRp4361
I00
S'http://www.web2py.com/examples/default/support'
p4362
tp4363
a(g4034
(S't\x04\x00\x00\x00Demo'
tRp4364
I00
S'http://web2py.com/demo_admin'
p4365
tp4366
a(g4034
(S's\x0e\x00\x00\x00Quick Examples'
tRp4367
I00
S'http://web2py.com/examples/default/examples'
p4368
tp4369
a(g4034
(S't\x03\x00\x00\x00FAQ'
tRp4370
I00
S'http://web2py.com/AlterEgo'
p4371
tp4372
a(g4034
(S't\x06\x00\x00\x00Videos'
tRp4373
I00
S'http://www.web2py.com/examples/default/videos/'
p4374
tp4375
a(g4034
(S's\x11\x00\x00\x00Free Applications'
tRp4376
I00
S'http://web2py.com/appliances'
p4377
tp4378
a(g4034
(S't\x07\x00\x00\x00Plugins'
tRp4379
I00
S'http://web2py.com/plugins'
p4380
tp4381
a(g4034
(S't\x07\x00\x00\x00Layouts'
tRp4382
I00
S'http://web2py.com/layouts'
p4383
tp4384
a(g4034
(S't\x07\x00\x00\x00Recipes'
tRp4385
I00
S'http://web2pyslices.com/'
p4386
tp4387
a(g4034
(S't\x08\x00\x00\x00Semantic'
tRp4388
I00
S'http://web2py.com/semantic'
p4389
tp4390
aasbasbasbasbasbasbasbag57
(g73
g59
NtRp4391
(dp4392
g62
(dp4393
sg71
g4148
sg64
(lp4394
g57
(g78
g59
NtRp4395
(dp4396
g62
(dp4397
sg71
g4391
sg64
(lp4398
g57
(g58
g59
NtRp4399
(dp4400
g62
(dp4401
g70
I2
ssg71
g4395
sg64
(lp4402
g57
(g66
g59
NtRp4403
(dp4404
g62
(dp4405
g70
I1
ssg71
Nsg64
(lp4406
g57
(g73
g59
NtRp4407
(dp4408
g62
(dp4409
sg71
g4403
sg64
(lp4410
g57
(g78
g59
NtRp4411
(dp4412
g62
(dp4413
sg71
g4407
sg64
(lp4414
g57
(g58
g59
NtRp4415
(dp4416
g62
(dp4417
g70
I1
ssg71
g4411
sg64
(lp4418
g4034
(S't\r\x00\x00\x00Documentation'
tRp4419
asbasbasbag57
(g73
g59
NtRp4420
(dp4421
g62
(dp4422
sg71
g4403
sg64
(lp4423
g57
(g78
g59
NtRp4424
(dp4425
g62
(dp4426
sg71
g4420
sg64
(lp4427
g57
(g58
g59
NtRp4428
(dp4429
g62
(dp4430
g70
I1
ssg71
g4424
sg64
(lp4431
I00
asbasbasbag57
(g73
g59
NtRp4432
(dp4433
g62
(dp4434
sg71
g4403
sg64
(lp4435
g57
(g78
g59
NtRp4436
(dp4437
g62
(dp4438
sg71
g4432
sg64
(lp4439
g57
(g58
g59
NtRp4440
(dp4441
g62
(dp4442
g70
I1
ssg71
g4436
sg64
(lp4443
S'http://www.web2py.com/book'
p4444
asbasbasbag57
(g73
g59
NtRp4445
(dp4446
g62
(dp4447
sg71
g4403
sg64
(lp4448
g57
(g78
g59
NtRp4449
(dp4450
g62
(dp4451
sg71
g4445
sg64
(lp4452
g57
(g58
g59
NtRp4453
(dp4454
g62
(dp4455
g70
I1
ssg71
g4449
sg64
(lp4456
(lp4457
(g4034
(S't\x07\x00\x00\x00Preface'
tRp4458
I00
S'http://www.web2py.com/book/default/chapter/00'
p4459
tp4460
a(g4034
(S't\x0c\x00\x00\x00Introduction'
tRp4461
I00
S'http://www.web2py.com/book/default/chapter/01'
p4462
tp4463
a(g4034
(S't\x06\x00\x00\x00Python'
tRp4464
I00
S'http://www.web2py.com/book/default/chapter/02'
p4465
tp4466
a(g4034
(S't\x08\x00\x00\x00Overview'
tRp4467
I00
S'http://www.web2py.com/book/default/chapter/03'
p4468
tp4469
a(g4034
(S's\x08\x00\x00\x00The Core'
tRp4470
I00
S'http://www.web2py.com/book/default/chapter/04'
p4471
tp4472
a(g4034
(S's\t\x00\x00\x00The Views'
tRp4473
I00
S'http://www.web2py.com/book/default/chapter/05'
p4474
tp4475
a(g4034
(S't\x08\x00\x00\x00Database'
tRp4476
I00
S'http://www.web2py.com/book/default/chapter/06'
p4477
tp4478
a(g4034
(S's\x14\x00\x00\x00Forms and Validators'
tRp4479
I00
S'http://www.web2py.com/book/default/chapter/07'
p4480
tp4481
a(g4034
(S's\r\x00\x00\x00Email and SMS'
tRp4482
I00
S'http://www.web2py.com/book/default/chapter/08'
p4483
tp4484
a(g4034
(S's\x0e\x00\x00\x00Access Control'
tRp4485
I00
S'http://www.web2py.com/book/default/chapter/09'
p4486
tp4487
a(g4034
(S't\x08\x00\x00\x00Services'
tRp4488
I00
S'http://www.web2py.com/book/default/chapter/10'
p4489
tp4490
a(g4034
(S's\x0c\x00\x00\x00Ajax Recipes'
tRp4491
I00
S'http://www.web2py.com/book/default/chapter/11'
p4492
tp4493
a(g4034
(S's\x16\x00\x00\x00Components and Plugins'
tRp4494
I00
S'http://www.web2py.com/book/default/chapter/12'
p4495
tp4496
a(g4034
(S's\x12\x00\x00\x00Deployment Recipes'
tRp4497
I00
S'http://www.web2py.com/book/default/chapter/13'
p4498
tp4499
a(g4034
(S's\r\x00\x00\x00Other Recipes'
tRp4500
I00
S'http://www.web2py.com/book/default/chapter/14'
p4501
tp4502
a(g4034
(S's\r\x00\x00\x00Buy this book'
tRp4503
I00
S'http://stores.lulu.com/web2py'
p4504
tp4505
aasbasbasbasbasbasbasbag57
(g73
g59
NtRp4506
(dp4507
g62
(dp4508
sg71
g4148
sg64
(lp4509
g57
(g78
g59
NtRp4510
(dp4511
g62
(dp4512
sg71
g4506
sg64
(lp4513
g57
(g58
g59
NtRp4514
(dp4515
g62
(dp4516
g70
I2
ssg71
g4510
sg64
(lp4517
g57
(g66
g59
NtRp4518
(dp4519
g62
(dp4520
g70
I1
ssg71
Nsg64
(lp4521
g57
(g73
g59
NtRp4522
(dp4523
g62
(dp4524
sg71
g4518
sg64
(lp4525
g57
(g78
g59
NtRp4526
(dp4527
g62
(dp4528
sg71
g4522
sg64
(lp4529
g57
(g58
g59
NtRp4530
(dp4531
g62
(dp4532
g70
I1
ssg71
g4526
sg64
(lp4533
g4034
(S't\t\x00\x00\x00Community'
tRp4534
asbasbasbag57
(g73
g59
NtRp4535
(dp4536
g62
(dp4537
sg71
g4518
sg64
(lp4538
g57
(g78
g59
NtRp4539
(dp4540
g62
(dp4541
sg71
g4535
sg64
(lp4542
g57
(g58
g59
NtRp4543
(dp4544
g62
(dp4545
g70
I1
ssg71
g4539
sg64
(lp4546
I00
asbasbasbag57
(g73
g59
NtRp4547
(dp4548
g62
(dp4549
sg71
g4518
sg64
(lp4550
g57
(g78
g59
NtRp4551
(dp4552
g62
(dp4553
sg71
g4547
sg64
(lp4554
g57
(g58
g59
NtRp4555
(dp4556
g62
(dp4557
g70
I1
ssg71
g4551
sg64
(lp4558
Nasbasbasbag57
(g73
g59
NtRp4559
(dp4560
g62
(dp4561
sg71
g4518
sg64
(lp4562
g57
(g78
g59
NtRp4563
(dp4564
g62
(dp4565
sg71
g4559
sg64
(lp4566
g57
(g58
g59
NtRp4567
(dp4568
g62
(dp4569
g70
I1
ssg71
g4563
sg64
(lp4570
(lp4571
(g4034
(S't\x06\x00\x00\x00Groups'
tRp4572
I00
S'http://www.web2py.com/examples/default/usergroups'
p4573
tp4574
a(g4034
(S't\x07\x00\x00\x00Twitter'
tRp4575
I00
S'http://twitter.com/web2py'
p4576
tp4577
a(g4034
(S's\t\x00\x00\x00Live Chat'
tRp4578
I00
S'http://webchat.freenode.net/?channels=web2py'
p4579
tp4580
aasbasbasbasbasbasbasbag57
(g73
g59
NtRp4581
(dp4582
g62
(dp4583
sg71
g4148
sg64
(lp4584
g57
(g78
g59
NtRp4585
(dp4586
g62
(dp4587
sg71
g4581
sg64
(lp4588
g57
(g58
g59
NtRp4589
(dp4590
g62
(dp4591
g70
I2
ssg71
g4585
sg64
(lp4592
g57
(g66
g59
NtRp4593
(dp4594
g62
(dp4595
g70
I1
ssg71
Nsg64
(lp4596
g57
(g73
g59
NtRp4597
(dp4598
g62
(dp4599
sg71
g4593
sg64
(lp4600
g57
(g78
g59
NtRp4601
(dp4602
g62
(dp4603
sg71
g4597
sg64
(lp4604
g57
(g58
g59
NtRp4605
(dp4606
g62
(dp4607
g70
I1
ssg71
g4601
sg64
(lp4608
g4034
(S't\x07\x00\x00\x00Plugins'
tRp4609
asbasbasbag57
(g73
g59
NtRp4610
(dp4611
g62
(dp4612
sg71
g4593
sg64
(lp4613
g57
(g78
g59
NtRp4614
(dp4615
g62
(dp4616
sg71
g4610
sg64
(lp4617
g57
(g58
g59
NtRp4618
(dp4619
g62
(dp4620
g70
I1
ssg71
g4614
sg64
(lp4621
I00
asbasbasbag57
(g73
g59
NtRp4622
(dp4623
g62
(dp4624
sg71
g4593
sg64
(lp4625
g57
(g78
g59
NtRp4626
(dp4627
g62
(dp4628
sg71
g4622
sg64
(lp4629
g57
(g58
g59
NtRp4630
(dp4631
g62
(dp4632
g70
I1
ssg71
g4626
sg64
(lp4633
Nasbasbasbag57
(g73
g59
NtRp4634
(dp4635
g62
(dp4636
sg71
g4593
sg64
(lp4637
g57
(g78
g59
NtRp4638
(dp4639
g62
(dp4640
sg71
g4634
sg64
(lp4641
g57
(g58
g59
NtRp4642
(dp4643
g62
(dp4644
g70
I1
ssg71
g4638
sg64
(lp4645
(lp4646
(S'plugin_wiki'
p4647
I00
S'http://web2py.com/examples/default/download'
p4648
tp4649
a(g4034
(S's\r\x00\x00\x00Other Plugins'
tRp4650
I00
g4380
tp4651
a(g4034
(S's\x0e\x00\x00\x00Layout Plugins'
tRp4652
I00
g4383
tp4653
aasbasbasbasbasbasbasbasbasbasbasbasbasbasbasbasbasbasbasbag57
(g73
g59
NtRp4654
(dp4655
g62
(dp4656
sg71
g3478
sg64
(lp4657
g57
(g78
g59
NtRp4658
(dp4659
g62
(dp4660
g82
g83
ssg71
g4654
sg64
(lp4661
S'meta'
p4662
asbag57
(g78
g59
NtRp4663
(dp4664
g62
(dp4665
g89
g90
ssg71
g4654
sg64
(lp4666
S':'
asbag57
(g78
g59
NtRp4667
(dp4668
g62
(dp4669
sg71
g4654
sg64
(lp4670
g57
(g58
g59
NtRp4671
(dp4672
g62
(dp4673
g70
I5
ssg71
g4667
sg64
(lp4674
g57
(g66
g59
NtRp4675
(dp4676
g62
(dp4677
g70
I4
ssg71
Nsg64
(lp4678
g57
(g73
g59
NtRp4679
(dp4680
g62
(dp4681
sg71
g4675
sg64
(lp4682
g57
(g78
g59
NtRp4683
(dp4684
g62
(dp4685
g82
g83
ssg71
g4679
sg64
(lp4686
S'author'
p4687
asbag57
(g78
g59
NtRp4688
(dp4689
g62
(dp4690
g89
g90
ssg71
g4679
sg64
(lp4691
S':'
asbag57
(g78
g59
NtRp4692
(dp4693
g62
(dp4694
sg71
g4679
sg64
(lp4695
g57
(g58
g59
NtRp4696
(dp4697
g62
(dp4698
g70
I4
ssg71
g4692
sg64
(lp4699
S'Your Name <you@example.com>'
p4700
asbasbasbag57
(g73
g59
NtRp4701
(dp4702
g62
(dp4703
sg71
g4675
sg64
(lp4704
g57
(g78
g59
NtRp4705
(dp4706
g62
(dp4707
g82
g83
ssg71
g4701
sg64
(lp4708
S'copyright'
p4709
asbag57
(g78
g59
NtRp4710
(dp4711
g62
(dp4712
g89
g90
ssg71
g4701
sg64
(lp4713
S':'
asbag57
(g78
g59
NtRp4714
(dp4715
g62
(dp4716
sg71
g4701
sg64
(lp4717
g57
(g58
g59
NtRp4718
(dp4719
g62
(dp4720
g70
I4
ssg71
g4714
sg64
(lp4721
S'Copyright 2011'
p4722
asbasbasbag57
(g73
g59
NtRp4723
(dp4724
g62
(dp4725
sg71
g4675
sg64
(lp4726
g57
(g78
g59
NtRp4727
(dp4728
g62
(dp4729
g82
g83
ssg71
g4723
sg64
(lp4730
S'description'
p4731
asbag57
(g78
g59
NtRp4732
(dp4733
g62
(dp4734
g89
g90
ssg71
g4723
sg64
(lp4735
S':'
asbag57
(g78
g59
NtRp4736
(dp4737
g62
(dp4738
sg71
g4723
sg64
(lp4739
g57
(g58
g59
NtRp4740
(dp4741
g62
(dp4742
g70
I4
ssg71
g4736
sg64
(lp4743
S'a cool new app'
p4744
asbasbasbag57
(g73
g59
NtRp4745
(dp4746
g62
(dp4747
sg71
g4675
sg64
(lp4748
g57
(g78
g59
NtRp4749
(dp4750
g62
(dp4751
g82
g83
ssg71
g4745
sg64
(lp4752
S'generator'
p4753
asbag57
(g78
g59
NtRp4754
(dp4755
g62
(dp4756
g89
g90
ssg71
g4745
sg64
(lp4757
S':'
asbag57
(g78
g59
NtRp4758
(dp4759
g62
(dp4760
sg71
g4745
sg64
(lp4761
g57
(g58
g59
NtRp4762
(dp4763
g62
(dp4764
g70
I4
ssg71
g4758
sg64
(lp4765
S'Web2py Web Framework'
p4766
asbasbasbag57
(g73
g59
NtRp4767
(dp4768
g62
(dp4769
sg71
g4675
sg64
(lp4770
g57
(g78
g59
NtRp4771
(dp4772
g62
(dp4773
g82
g83
ssg71
g4767
sg64
(lp4774
S'keywords'
p4775
asbag57
(g78
g59
NtRp4776
(dp4777
g62
(dp4778
g89
g90
ssg71
g4767
sg64
(lp4779
S':'
asbag57
(g78
g59
NtRp4780
(dp4781
g62
(dp4782
sg71
g4767
sg64
(lp4783
g57
(g58
g59
NtRp4784
(dp4785
g62
(dp4786
g70
I4
ssg71
g4780
sg64
(lp4787
S'web2py, python, framework'
p4788
asbasbasbasbasbasbasbag57
(g73
g59
NtRp4789
(dp4790
g62
(dp4791
sg71
g3478
sg64
(lp4792
g57
(g78
g59
NtRp4793
(dp4794
g62
(dp4795
g82
g83
ssg71
g4789
sg64
(lp4796
S'postprocessing'
p4797
asbag57
(g78
g59
NtRp4798
(dp4799
g62
(dp4800
g89
g90
ssg71
g4789
sg64
(lp4801
S':'
asbag57
(g78
g59
NtRp4802
(dp4803
g62
(dp4804
sg71
g4789
sg64
(lp4805
g57
(g58
g59
NtRp4806
(dp4807
g62
(dp4808
g70
I5
ssg71
g4802
sg64
(lp4809
g57
(g66
g59
NtRp4810
(dp4811
g62
(dp4812
g70
I4
ssg71
Nsg64
(lp4813
sbasbasbasbag57
(g73
g59
NtRp4814
(dp4815
g62
(dp4816
sg71
g3478
sg64
(lp4817
g57
(g78
g59
NtRp4818
(dp4819
g62
(dp4820
g82
g83
ssg71
g4814
sg64
(lp4821
S'session_file'
p4822
asbag57
(g78
g59
NtRp4823
(dp4824
g62
(dp4825
g89
g90
ssg71
g4814
sg64
(lp4826
S':'
asbag57
(g78
g59
NtRp4827
(dp4828
g62
(dp4829
sg71
g4814
sg64
(lp4830
g57
(g58
g59
NtRp4831
(dp4832
g62
(dp4833
g70
I5
ssg71
g4827
sg64
(lp4834
S"<open file '/home/arpita/courses/sem3/ssad/web2py/applications/project/sessions/127.0.0.1-d9e81940-7277-4247-97d4-d386c713cd25', mode 'rb+' at 0x97632e0>"
p4835
asbasbasbag57
(g73
g59
NtRp4836
(dp4837
g62
(dp4838
sg71
g3478
sg64
(lp4839
g57
(g78
g59
NtRp4840
(dp4841
g62
(dp4842
g82
g83
ssg71
g4836
sg64
(lp4843
S'session_filename'
p4844
asbag57
(g78
g59
NtRp4845
(dp4846
g62
(dp4847
g89
g90
ssg71
g4836
sg64
(lp4848
S':'
asbag57
(g78
g59
NtRp4849
(dp4850
g62
(dp4851
sg71
g4836
sg64
(lp4852
g57
(g58
g59
NtRp4853
(dp4854
g62
(dp4855
g70
I5
ssg71
g4849
sg64
(lp4856
S'/home/arpita/courses/sem3/ssad/web2py/applications/project/sessions/127.0.0.1-d9e81940-7277-4247-97d4-d386c713cd25'
p4857
asbasbasbag57
(g73
g59
NtRp4858
(dp4859
g62
(dp4860
sg71
g3478
sg64
(lp4861
g57
(g78
g59
NtRp4862
(dp4863
g62
(dp4864
g82
g83
ssg71
g4858
sg64
(lp4865
S'session_id'
p4866
asbag57
(g78
g59
NtRp4867
(dp4868
g62
(dp4869
g89
g90
ssg71
g4858
sg64
(lp4870
S':'
asbag57
(g78
g59
NtRp4871
(dp4872
g62
(dp4873
sg71
g4858
sg64
(lp4874
g57
(g58
g59
NtRp4875
(dp4876
g62
(dp4877
g70
I5
ssg71
g4871
sg64
(lp4878
S'127.0.0.1-d9e81940-7277-4247-97d4-d386c713cd25'
p4879
asbasbasbag57
(g73
g59
NtRp4880
(dp4881
g62
(dp4882
sg71
g3478
sg64
(lp4883
g57
(g78
g59
NtRp4884
(dp4885
g62
(dp4886
g82
g83
ssg71
g4880
sg64
(lp4887
S'session_id_name'
p4888
asbag57
(g78
g59
NtRp4889
(dp4890
g62
(dp4891
g89
g90
ssg71
g4880
sg64
(lp4892
S':'
asbag57
(g78
g59
NtRp4893
(dp4894
g62
(dp4895
sg71
g4880
sg64
(lp4896
g57
(g58
g59
NtRp4897
(dp4898
g62
(dp4899
g70
I5
ssg71
g4893
sg64
(lp4900
g3535
asbasbasbag57
(g73
g59
NtRp4901
(dp4902
g62
(dp4903
sg71
g3478
sg64
(lp4904
g57
(g78
g59
NtRp4905
(dp4906
g62
(dp4907
g82
g83
ssg71
g4901
sg64
(lp4908
S'session_locked'
p4909
asbag57
(g78
g59
NtRp4910
(dp4911
g62
(dp4912
g89
g90
ssg71
g4901
sg64
(lp4913
S':'
asbag57
(g78
g59
NtRp4914
(dp4915
g62
(dp4916
sg71
g4901
sg64
(lp4917
g57
(g58
g59
NtRp4918
(dp4919
g62
(dp4920
g70
I5
ssg71
g4914
sg64
(lp4921
g1678
asbasbasbag57
(g73
g59
NtRp4922
(dp4923
g62
(dp4924
sg71
g3478
sg64
(lp4925
g57
(g78
g59
NtRp4926
(dp4927
g62
(dp4928
g82
g83
ssg71
g4922
sg64
(lp4929
S'session_new'
p4930
asbag57
(g78
g59
NtRp4931
(dp4932
g62
(dp4933
g89
g90
ssg71
g4922
sg64
(lp4934
S':'
asbag57
(g78
g59
NtRp4935
(dp4936
g62
(dp4937
sg71
g4922
sg64
(lp4938
g57
(g58
g59
NtRp4939
(dp4940
g62
(dp4941
g70
I5
ssg71
g4935
sg64
(lp4942
g100
asbasbasbag57
(g73
g59
NtRp4943
(dp4944
g62
(dp4945
sg71
g3478
sg64
(lp4946
g57
(g78
g59
NtRp4947
(dp4948
g62
(dp4949
g82
g83
ssg71
g4943
sg64
(lp4950
S'status'
p4951
asbag57
(g78
g59
NtRp4952
(dp4953
g62
(dp4954
g89
g90
ssg71
g4943
sg64
(lp4955
S':'
asbag57
(g78
g59
NtRp4956
(dp4957
g62
(dp4958
sg71
g4943
sg64
(lp4959
g57
(g58
g59
NtRp4960
(dp4961
g62
(dp4962
g70
I5
ssg71
g4956
sg64
(lp4963
S'200'
p4964
asbasbasbag57
(g73
g59
NtRp4965
(dp4966
g62
(dp4967
sg71
g3478
sg64
(lp4968
g57
(g78
g59
NtRp4969
(dp4970
g62
(dp4971
g82
g83
ssg71
g4965
sg64
(lp4972
S'subtitle'
p4973
asbag57
(g78
g59
NtRp4974
(dp4975
g62
(dp4976
g89
g90
ssg71
g4965
sg64
(lp4977
S':'
asbag57
(g78
g59
NtRp4978
(dp4979
g62
(dp4980
sg71
g4965
sg64
(lp4981
g57
(g58
g59
NtRp4982
(dp4983
g62
(dp4984
g70
I5
ssg71
g4978
sg64
(lp4985
g4034
(S's\r\x00\x00\x00customize me!'
tRp4986
asbasbasbag57
(g73
g59
NtRp4987
(dp4988
g62
(dp4989
sg71
g3478
sg64
(lp4990
g57
(g78
g59
NtRp4991
(dp4992
g62
(dp4993
g82
g83
ssg71
g4987
sg64
(lp4994
S'title'
p4995
asbag57
(g78
g59
NtRp4996
(dp4997
g62
(dp4998
g89
g90
ssg71
g4987
sg64
(lp4999
S':'
asbag57
(g78
g59
NtRp5000
(dp5001
g62
(dp5002
sg71
g4987
sg64
(lp5003
g57
(g58
g59
NtRp5004
(dp5005
g62
(dp5006
g70
I5
ssg71
g5000
sg64
(lp5007
S'Project'
p5008
asbasbasbag57
(g73
g59
NtRp5009
(dp5010
g62
(dp5011
sg71
g3478
sg64
(lp5012
g57
(g78
g59
NtRp5013
(dp5014
g62
(dp5015
g82
g83
ssg71
g5009
sg64
(lp5016
g2342
asbag57
(g78
g59
NtRp5017
(dp5018
g62
(dp5019
g89
g90
ssg71
g5009
sg64
(lp5020
S':'
asbag57
(g78
g59
NtRp5021
(dp5022
g62
(dp5023
sg71
g5009
sg64
(lp5024
g57
(g58
g59
NtRp5025
(dp5026
g62
(dp5027
g70
I5
ssg71
g5021
sg64
(lp5028
g2355
asbasbasbag57
(g73
g59
NtRp5029
(dp5030
g62
(dp5031
sg71
g3478
sg64
(lp5032
g57
(g78
g59
NtRp5033
(dp5034
g62
(dp5035
g82
g83
ssg71
g5029
sg64
(lp5036
S'view'
p5037
asbag57
(g78
g59
NtRp5038
(dp5039
g62
(dp5040
g89
g90
ssg71
g5029
sg64
(lp5041
S':'
asbag57
(g78
g59
NtRp5042
(dp5043
g62
(dp5044
sg71
g5029
sg64
(lp5045
g57
(g58
g59
NtRp5046
(dp5047
g62
(dp5048
g70
I5
ssg71
g5042
sg64
(lp5049
S'default/kruskal.html'
p5050
asbasbasbasbasbsS'locals'
p5051
(dp5052
S'i'
S'0'
sS'counts'
p5053
S'9'
sS'emp'
p5054
S'<gluon.dal.Rows object>'
p5055
sS'lis'
p5056
S'<gluon.dal.Rows object>'
p5057
sssS'traceback'
p5058
S'Traceback (most recent call last):\n  File "/home/arpita/courses/sem3/ssad/web2py/gluon/restricted.py", line 205, in restricted\n    exec ccode in environment\n  File "/home/arpita/courses/sem3/ssad/web2py/applications/project/controllers/default.py", line 153, in <module>\n  File "/home/arpita/courses/sem3/ssad/web2py/gluon/globals.py", line 173, in <lambda>\n    self._caller = lambda f: f()\n  File "/home/arpita/courses/sem3/ssad/web2py/applications/project/controllers/default.py", line 84, in kruskal\n    c.append([])\nUnboundLocalError: local variable \'c\' referenced before assignment\n'
p5059
s.