(dp1
S'output'
p2
S"<type 'exceptions.KeyError'> 8"
p3
sS'layer'
p4
S'/home/arpita/courses/sem3/ssad/web2py/applications/project/controllers/default.py'
p5
sS'code'
p6
S'# -*- coding: utf-8 -*-\n# this file is released under public domain and you can use without limitations\n\n#########################################################################\n## This is a samples controller\n## - index is the default action of any application\n## - user is required for authentication and authorization\n## - download is for downloading files uploaded in the db (does streaming)\n## - call exposes all registered services (none by default)\n#########################################################################\n@auth.requires_membership(\'Administrator\')\ndef index():\n    emp=db().select(db.Employee.ALL, orderby=db.Employee.Importance_val)\n    \n    """\n    example action using the internationalization operator T and flash\n    rendered by views/default/index.html or views/generic.html\n    """\n    form=crud.create(db.Employee)\n    response.flash = "Employee Details"\n    return dict(form=form,emp=emp)\n\ndef user():\n    """\n    exposes:\n    http://..../[app]/default/user/login\n    http://..../[app]/default/user/logout\n    http://..../[app]/default/user/register\n    http://..../[app]/default/user/profile\n    http://..../[app]/default/user/retrieve_password\n    http://..../[app]/default/user/change_password\n    use @auth.requires_login()\n        @auth.requires_membership(\'group name\')\n        @auth.requires_permission(\'read\',\'table name\',record_id)\n    to decorate functions that need access control\n    """\n    return dict(form=auth())\n\n\n\n\n\n@auth.requires_signature()\ndef data():\n    """\n    http://..../[app]/default/data/tables\n    http://..../[app]/default/data/create/[table]\n    http://..../[app]/default/data/read/[table]/[id]\n    http://..../[app]/default/data/update/[table]/[id]\n    http://..../[app]/default/data/delete/[table]/[id]\n    http://..../[app]/default/data/select/[table]\n    http://..../[app]/default/data/search/[table]\n    but URLs must be signed, i.e. linked with\n      A(\'table\',_href=URL(\'data/tables\',user_signature=True))\n    or with the signed load operator\n      LOAD(\'default\',\'data.load\',args=\'tables\',ajax=True,user_signature=True)\n    """\n    return dict(form=crud())\n\ndef graph():\n    empl=db.Employee(request.args(0))\n    return dict(empl=empl)  \n \n\n\ndef relate():\n   response.flash= "Define Relation"\n   form=crud.create(db.Relation)\n   return dict(form=form)\n\n\nc=[]\nrep=[]\nvis=[]\ned=[]\np={}\nq={}\ndef kruskal():\n    \n    lis = db().select(db.Relation.ALL)\n    emp=db().select(db.Employee.ALL, orderby=db.Employee.Name)\n    counts=len(emp)\n    for i in xrange(counts+1):\n       c.append([])\n       vis.append([])\n       rep.append(i)\n       ed.append([])\n       for j in xrange(counts+1):\n          c[i].append(0)\n          vis[i].append(0)\n          ed[i].append(0)\n    for li in lis:\n       a=li.Emp1_id\n       b=li.Emp2_id\n       c[a][b]=1\n       \n    cou=0   \n    while cou !=counts:\n        min=100\n        for i in xrange(counts+1):\n            for j in xrange(counts+1):\n                if c[i][j]!=0 and vis[i][j]==0:\n                    if rep[i]!=rep[j]:\n                               vis[i][j]=1\n                               ed[i][j]=1\n                               count1=0\n                               count2=0\n                               for k in xrange(counts+1):\n                                        if rep[k]==rep[i]:\n                                            count1=count1+1\n                                        if rep[k]==rep[j]:\n                                            count2=count2+1\n                               if count1<count2:\n                                           for k in xrange(counts+1):\n                                                if rep[k]==rep[i] and k!=i:\n                                                    rep[k]=rep[j]\n                                           rep[i]=rep[j]\n                               else:\n                                        for k in xrange(counts+1):\n                                                   if rep[k]==rep[j] and k!=j:\n                                                        rep[k]=rep[i]\n                                        rep[j]=rep[i]\n\n                    else:\n                        vis[i][j]=1\n        cou=0\n        for k in xrange(counts+1):\n            if rep[k]==rep[1]:\n                    cou=cou+1\n        k=0            \n        for i in xrange(counts+1):\n                for j in xrange(counts+1):\n                      if ed[i][j]==1:\n                           p[k]=i\n                           q[k]=j\n                           k=k+1 \n    v=[0]*k\n    for i in xrange(k+1):\n       flag=0\n       for j in xrange(k+1):\n          if p[i]==q[j]:\n             flag=1\n             break\n       if flag==0:\n          break\n    file=open(\'applications/project/controllers/abc.txt\',\'w\')      \n    fil(p,q,p[i],k)   \n    for j in xrange(k+1):\n        if vis[j]==0:\n            fil(p,q,p[j],k)\n                    \n    #file = open(\'applications/project/controllers/myfile.txt\',\'w\')\n    #for i in xrange(counts+1):\n     #   co=0  \n    \n    #    file = open(\'applications/project/controllers/myfile.txt\',\'a\')\n      #  for j in xrange(k):\n       #     file = open(\'applications/project/controllers/myfile.txt\',\'a\')\n        #    if p[j]==i:\n         #     co=co+1\n          #    if co==1:\n           #     file.write("{\\"name\\":\\"%d\\", " %p[j])\n            #    file.write("\\"children\\":[{\\"name\\":\\"%d\\"}" %q[j] )\n             # else:\n              #  file.write(",{\\"name\\":\\"%d\\"}" %q[j])\n                #file.write(\'children=q[j]\')\n               # file.close()     \n       # if co>0:\n        # file.write("]")\n         #file.write("}")                                               \n    return dict(p=p,q=q)\n\ndef fil(p,q,k,t):\n  for i in xrange(t+1):\n       if p[i]==k:\n           file.write("parent %d " %p[i])\n           vis[i]=1\n           file.write("children %d\\n" %q[i])\n           fil(p,q,q[i],t)\n\nresponse._vars=response._caller(kruskal)\n'
p7
sS'snapshot'
p8
(dp9
S'exception'
p10
(dp11
S'__hash__'
p12
S"<method-wrapper '__hash__' of exceptions.KeyError object>"
p13
sS'__setattr__'
p14
S"<method-wrapper '__setattr__' of exceptions.KeyError object>"
p15
sS'__reduce_ex__'
p16
S'<built-in method __reduce_ex__ of exceptions.KeyError object>'
p17
sS'__getslice__'
p18
S"<method-wrapper '__getslice__' of exceptions.KeyError object>"
p19
sS'__getitem__'
p20
S"<method-wrapper '__getitem__' of exceptions.KeyError object>"
p21
sS'__setstate__'
p22
S'<built-in method __setstate__ of exceptions.KeyError object>'
p23
sS'__reduce__'
p24
S'<built-in method __reduce__ of exceptions.KeyError object>'
p25
sS'__str__'
p26
S"<method-wrapper '__str__' of exceptions.KeyError object>"
p27
sS'__format__'
p28
S'<built-in method __format__ of exceptions.KeyError object>'
p29
sS'__getattribute__'
p30
S"<method-wrapper '__getattribute__' of exceptions.KeyError object>"
p31
sS'__class__'
p32
S"<type 'exceptions.KeyError'>"
p33
sS'__unicode__'
p34
S'<built-in method __unicode__ of exceptions.KeyError object>'
p35
sS'__delattr__'
p36
S"<method-wrapper '__delattr__' of exceptions.KeyError object>"
p37
sS'__subclasshook__'
p38
S'<built-in method __subclasshook__ of type object>'
p39
sS'__repr__'
p40
S"<method-wrapper '__repr__' of exceptions.KeyError object>"
p41
sS'args'
p42
S'(8,)'
p43
sS'__dict__'
p44
S'{}'
p45
sS'__sizeof__'
p46
S'<built-in method __sizeof__ of exceptions.KeyError object>'
p47
sS'__doc__'
p48
S"'Mapping key not found.'"
p49
sS'__init__'
p50
S"<method-wrapper '__init__' of exceptions.KeyError object>"
p51
sS'__new__'
p52
S'<built-in method __new__ of type object>'
p53
ssS'evalue'
p54
S'8'
sS'request'
p55
ccopy_reg
_reconstructor
p56
(cgluon.html
BEAUTIFY
p57
c__builtin__
object
p58
NtRp59
(dp60
S'attributes'
p61
(dp62
sS'components'
p63
(lp64
g56
(cgluon.html
TABLE
p65
g58
NtRp66
(dp67
g61
(dp68
S'level'
p69
I5
ssS'parent'
p70
Nsg63
(lp71
g56
(cgluon.html
TR
p72
g58
NtRp73
(dp74
g61
(dp75
sg70
g66
sg63
(lp76
g56
(cgluon.html
TD
p77
g58
NtRp78
(dp79
g61
(dp80
S'_style'
p81
S'font-weight:bold;vertical-align:top'
p82
ssg70
g73
sg63
(lp83
S'ajax'
p84
asbag56
(g77
g58
NtRp85
(dp86
g61
(dp87
S'_valign'
p88
S'top'
p89
ssg70
g73
sg63
(lp90
S':'
asbag56
(g77
g58
NtRp91
(dp92
g61
(dp93
sg70
g73
sg63
(lp94
g56
(g57
g58
NtRp95
(dp96
g61
(dp97
g69
I5
ssg70
g91
sg63
(lp98
S'False'
p99
asbasbasbag56
(g72
g58
NtRp100
(dp101
g61
(dp102
sg70
g66
sg63
(lp103
g56
(g77
g58
NtRp104
(dp105
g61
(dp106
g81
g82
ssg70
g100
sg63
(lp107
S'application'
p108
asbag56
(g77
g58
NtRp109
(dp110
g61
(dp111
g88
g89
ssg70
g100
sg63
(lp112
S':'
asbag56
(g77
g58
NtRp113
(dp114
g61
(dp115
sg70
g100
sg63
(lp116
g56
(g57
g58
NtRp117
(dp118
g61
(dp119
g69
I5
ssg70
g113
sg63
(lp120
S'project'
p121
asbasbasbag56
(g72
g58
NtRp122
(dp123
g61
(dp124
sg70
g66
sg63
(lp125
g56
(g77
g58
NtRp126
(dp127
g61
(dp128
g81
g82
ssg70
g122
sg63
(lp129
g42
asbag56
(g77
g58
NtRp130
(dp131
g61
(dp132
g88
g89
ssg70
g122
sg63
(lp133
S':'
asbag56
(g77
g58
NtRp134
(dp135
g61
(dp136
sg70
g122
sg63
(lp137
g56
(g57
g58
NtRp138
(dp139
g61
(dp140
g69
I5
ssg70
g134
sg63
(lp141
g56
(g65
g58
NtRp142
(dp143
g61
(dp144
g69
I4
ssg70
Nsg63
(lp145
sbasbasbasbag56
(g72
g58
NtRp146
(dp147
g61
(dp148
sg70
g66
sg63
(lp149
g56
(g77
g58
NtRp150
(dp151
g61
(dp152
g81
g82
ssg70
g146
sg63
(lp153
S'body'
p154
asbag56
(g77
g58
NtRp155
(dp156
g61
(dp157
g88
g89
ssg70
g146
sg63
(lp158
S':'
asbag56
(g77
g58
NtRp159
(dp160
g61
(dp161
sg70
g146
sg63
(lp162
g56
(g57
g58
NtRp163
(dp164
g61
(dp165
g69
I5
ssg70
g159
sg63
(lp166
S'<cStringIO.StringO object at 0x9c86500>'
p167
asbasbasbag56
(g72
g58
NtRp168
(dp169
g61
(dp170
sg70
g66
sg63
(lp171
g56
(g77
g58
NtRp172
(dp173
g61
(dp174
g81
g82
ssg70
g168
sg63
(lp175
S'client'
p176
asbag56
(g77
g58
NtRp177
(dp178
g61
(dp179
g88
g89
ssg70
g168
sg63
(lp180
S':'
asbag56
(g77
g58
NtRp181
(dp182
g61
(dp183
sg70
g168
sg63
(lp184
g56
(g57
g58
NtRp185
(dp186
g61
(dp187
g69
I5
ssg70
g181
sg63
(lp188
S'127.0.0.1'
p189
asbasbasbag56
(g72
g58
NtRp190
(dp191
g61
(dp192
sg70
g66
sg63
(lp193
g56
(g77
g58
NtRp194
(dp195
g61
(dp196
g81
g82
ssg70
g190
sg63
(lp197
S'controller'
p198
asbag56
(g77
g58
NtRp199
(dp200
g61
(dp201
g88
g89
ssg70
g190
sg63
(lp202
S':'
asbag56
(g77
g58
NtRp203
(dp204
g61
(dp205
sg70
g190
sg63
(lp206
g56
(g57
g58
NtRp207
(dp208
g61
(dp209
g69
I5
ssg70
g203
sg63
(lp210
S'default'
p211
asbasbasbag56
(g72
g58
NtRp212
(dp213
g61
(dp214
sg70
g66
sg63
(lp215
g56
(g77
g58
NtRp216
(dp217
g61
(dp218
g81
g82
ssg70
g212
sg63
(lp219
S'cookies'
p220
asbag56
(g77
g58
NtRp221
(dp222
g61
(dp223
g88
g89
ssg70
g212
sg63
(lp224
S':'
asbag56
(g77
g58
NtRp225
(dp226
g61
(dp227
sg70
g212
sg63
(lp228
g56
(g57
g58
NtRp229
(dp230
g61
(dp231
g69
I5
ssg70
g225
sg63
(lp232
g56
(g65
g58
NtRp233
(dp234
g61
(dp235
g69
I4
ssg70
Nsg63
(lp236
g56
(g72
g58
NtRp237
(dp238
g61
(dp239
sg70
g233
sg63
(lp240
g56
(g77
g58
NtRp241
(dp242
g61
(dp243
g81
g82
ssg70
g237
sg63
(lp244
S'session_id_admin'
p245
asbag56
(g77
g58
NtRp246
(dp247
g61
(dp248
g88
g89
ssg70
g237
sg63
(lp249
S':'
asbag56
(g77
g58
NtRp250
(dp251
g61
(dp252
sg70
g237
sg63
(lp253
g56
(g57
g58
NtRp254
(dp255
g61
(dp256
g69
I4
ssg70
g250
sg63
(lp257
g56
(g65
g58
NtRp258
(dp259
g61
(dp260
g69
I3
ssg70
Nsg63
(lp261
g56
(g72
g58
NtRp262
(dp263
g61
(dp264
sg70
g258
sg63
(lp265
g56
(g77
g58
NtRp266
(dp267
g61
(dp268
g81
g82
ssg70
g262
sg63
(lp269
S'comment'
p270
asbag56
(g77
g58
NtRp271
(dp272
g61
(dp273
g88
g89
ssg70
g262
sg63
(lp274
S':'
asbag56
(g77
g58
NtRp275
(dp276
g61
(dp277
sg70
g262
sg63
(lp278
g56
(g57
g58
NtRp279
(dp280
g61
(dp281
g69
I3
ssg70
g275
sg63
(lp282
S''
asbasbasbag56
(g72
g58
NtRp283
(dp284
g61
(dp285
sg70
g258
sg63
(lp286
g56
(g77
g58
NtRp287
(dp288
g61
(dp289
g81
g82
ssg70
g283
sg63
(lp290
S'domain'
p291
asbag56
(g77
g58
NtRp292
(dp293
g61
(dp294
g88
g89
ssg70
g283
sg63
(lp295
S':'
asbag56
(g77
g58
NtRp296
(dp297
g61
(dp298
sg70
g283
sg63
(lp299
g56
(g57
g58
NtRp300
(dp301
g61
(dp302
g69
I3
ssg70
g296
sg63
(lp303
S''
asbasbasbag56
(g72
g58
NtRp304
(dp305
g61
(dp306
sg70
g258
sg63
(lp307
g56
(g77
g58
NtRp308
(dp309
g61
(dp310
g81
g82
ssg70
g304
sg63
(lp311
S'expires'
p312
asbag56
(g77
g58
NtRp313
(dp314
g61
(dp315
g88
g89
ssg70
g304
sg63
(lp316
S':'
asbag56
(g77
g58
NtRp317
(dp318
g61
(dp319
sg70
g304
sg63
(lp320
g56
(g57
g58
NtRp321
(dp322
g61
(dp323
g69
I3
ssg70
g317
sg63
(lp324
S''
asbasbasbag56
(g72
g58
NtRp325
(dp326
g61
(dp327
sg70
g258
sg63
(lp328
g56
(g77
g58
NtRp329
(dp330
g61
(dp331
g81
g82
ssg70
g325
sg63
(lp332
S'httponly'
p333
asbag56
(g77
g58
NtRp334
(dp335
g61
(dp336
g88
g89
ssg70
g325
sg63
(lp337
S':'
asbag56
(g77
g58
NtRp338
(dp339
g61
(dp340
sg70
g325
sg63
(lp341
g56
(g57
g58
NtRp342
(dp343
g61
(dp344
g69
I3
ssg70
g338
sg63
(lp345
S''
asbasbasbag56
(g72
g58
NtRp346
(dp347
g61
(dp348
sg70
g258
sg63
(lp349
g56
(g77
g58
NtRp350
(dp351
g61
(dp352
g81
g82
ssg70
g346
sg63
(lp353
S'max-age'
p354
asbag56
(g77
g58
NtRp355
(dp356
g61
(dp357
g88
g89
ssg70
g346
sg63
(lp358
S':'
asbag56
(g77
g58
NtRp359
(dp360
g61
(dp361
sg70
g346
sg63
(lp362
g56
(g57
g58
NtRp363
(dp364
g61
(dp365
g69
I3
ssg70
g359
sg63
(lp366
S''
asbasbasbag56
(g72
g58
NtRp367
(dp368
g61
(dp369
sg70
g258
sg63
(lp370
g56
(g77
g58
NtRp371
(dp372
g61
(dp373
g81
g82
ssg70
g367
sg63
(lp374
S'path'
p375
asbag56
(g77
g58
NtRp376
(dp377
g61
(dp378
g88
g89
ssg70
g367
sg63
(lp379
S':'
asbag56
(g77
g58
NtRp380
(dp381
g61
(dp382
sg70
g367
sg63
(lp383
g56
(g57
g58
NtRp384
(dp385
g61
(dp386
g69
I3
ssg70
g380
sg63
(lp387
S''
asbasbasbag56
(g72
g58
NtRp388
(dp389
g61
(dp390
sg70
g258
sg63
(lp391
g56
(g77
g58
NtRp392
(dp393
g61
(dp394
g81
g82
ssg70
g388
sg63
(lp395
S'secure'
p396
asbag56
(g77
g58
NtRp397
(dp398
g61
(dp399
g88
g89
ssg70
g388
sg63
(lp400
S':'
asbag56
(g77
g58
NtRp401
(dp402
g61
(dp403
sg70
g388
sg63
(lp404
g56
(g57
g58
NtRp405
(dp406
g61
(dp407
g69
I3
ssg70
g401
sg63
(lp408
S''
asbasbasbag56
(g72
g58
NtRp409
(dp410
g61
(dp411
sg70
g258
sg63
(lp412
g56
(g77
g58
NtRp413
(dp414
g61
(dp415
g81
g82
ssg70
g409
sg63
(lp416
S'version'
p417
asbag56
(g77
g58
NtRp418
(dp419
g61
(dp420
g88
g89
ssg70
g409
sg63
(lp421
S':'
asbag56
(g77
g58
NtRp422
(dp423
g61
(dp424
sg70
g409
sg63
(lp425
g56
(g57
g58
NtRp426
(dp427
g61
(dp428
g69
I3
ssg70
g422
sg63
(lp429
S''
asbasbasbasbasbasbasbag56
(g72
g58
NtRp430
(dp431
g61
(dp432
sg70
g233
sg63
(lp433
g56
(g77
g58
NtRp434
(dp435
g61
(dp436
g81
g82
ssg70
g430
sg63
(lp437
S'session_id_project'
p438
asbag56
(g77
g58
NtRp439
(dp440
g61
(dp441
g88
g89
ssg70
g430
sg63
(lp442
S':'
asbag56
(g77
g58
NtRp443
(dp444
g61
(dp445
sg70
g430
sg63
(lp446
g56
(g57
g58
NtRp447
(dp448
g61
(dp449
g69
I4
ssg70
g443
sg63
(lp450
g56
(g65
g58
NtRp451
(dp452
g61
(dp453
g69
I3
ssg70
Nsg63
(lp454
g56
(g72
g58
NtRp455
(dp456
g61
(dp457
sg70
g451
sg63
(lp458
g56
(g77
g58
NtRp459
(dp460
g61
(dp461
g81
g82
ssg70
g455
sg63
(lp462
g270
asbag56
(g77
g58
NtRp463
(dp464
g61
(dp465
g88
g89
ssg70
g455
sg63
(lp466
S':'
asbag56
(g77
g58
NtRp467
(dp468
g61
(dp469
sg70
g455
sg63
(lp470
g56
(g57
g58
NtRp471
(dp472
g61
(dp473
g69
I3
ssg70
g467
sg63
(lp474
S''
asbasbasbag56
(g72
g58
NtRp475
(dp476
g61
(dp477
sg70
g451
sg63
(lp478
g56
(g77
g58
NtRp479
(dp480
g61
(dp481
g81
g82
ssg70
g475
sg63
(lp482
g291
asbag56
(g77
g58
NtRp483
(dp484
g61
(dp485
g88
g89
ssg70
g475
sg63
(lp486
S':'
asbag56
(g77
g58
NtRp487
(dp488
g61
(dp489
sg70
g475
sg63
(lp490
g56
(g57
g58
NtRp491
(dp492
g61
(dp493
g69
I3
ssg70
g487
sg63
(lp494
S''
asbasbasbag56
(g72
g58
NtRp495
(dp496
g61
(dp497
sg70
g451
sg63
(lp498
g56
(g77
g58
NtRp499
(dp500
g61
(dp501
g81
g82
ssg70
g495
sg63
(lp502
g312
asbag56
(g77
g58
NtRp503
(dp504
g61
(dp505
g88
g89
ssg70
g495
sg63
(lp506
S':'
asbag56
(g77
g58
NtRp507
(dp508
g61
(dp509
sg70
g495
sg63
(lp510
g56
(g57
g58
NtRp511
(dp512
g61
(dp513
g69
I3
ssg70
g507
sg63
(lp514
S''
asbasbasbag56
(g72
g58
NtRp515
(dp516
g61
(dp517
sg70
g451
sg63
(lp518
g56
(g77
g58
NtRp519
(dp520
g61
(dp521
g81
g82
ssg70
g515
sg63
(lp522
g333
asbag56
(g77
g58
NtRp523
(dp524
g61
(dp525
g88
g89
ssg70
g515
sg63
(lp526
S':'
asbag56
(g77
g58
NtRp527
(dp528
g61
(dp529
sg70
g515
sg63
(lp530
g56
(g57
g58
NtRp531
(dp532
g61
(dp533
g69
I3
ssg70
g527
sg63
(lp534
S''
asbasbasbag56
(g72
g58
NtRp535
(dp536
g61
(dp537
sg70
g451
sg63
(lp538
g56
(g77
g58
NtRp539
(dp540
g61
(dp541
g81
g82
ssg70
g535
sg63
(lp542
g354
asbag56
(g77
g58
NtRp543
(dp544
g61
(dp545
g88
g89
ssg70
g535
sg63
(lp546
S':'
asbag56
(g77
g58
NtRp547
(dp548
g61
(dp549
sg70
g535
sg63
(lp550
g56
(g57
g58
NtRp551
(dp552
g61
(dp553
g69
I3
ssg70
g547
sg63
(lp554
S''
asbasbasbag56
(g72
g58
NtRp555
(dp556
g61
(dp557
sg70
g451
sg63
(lp558
g56
(g77
g58
NtRp559
(dp560
g61
(dp561
g81
g82
ssg70
g555
sg63
(lp562
g375
asbag56
(g77
g58
NtRp563
(dp564
g61
(dp565
g88
g89
ssg70
g555
sg63
(lp566
S':'
asbag56
(g77
g58
NtRp567
(dp568
g61
(dp569
sg70
g555
sg63
(lp570
g56
(g57
g58
NtRp571
(dp572
g61
(dp573
g69
I3
ssg70
g567
sg63
(lp574
S''
asbasbasbag56
(g72
g58
NtRp575
(dp576
g61
(dp577
sg70
g451
sg63
(lp578
g56
(g77
g58
NtRp579
(dp580
g61
(dp581
g81
g82
ssg70
g575
sg63
(lp582
g396
asbag56
(g77
g58
NtRp583
(dp584
g61
(dp585
g88
g89
ssg70
g575
sg63
(lp586
S':'
asbag56
(g77
g58
NtRp587
(dp588
g61
(dp589
sg70
g575
sg63
(lp590
g56
(g57
g58
NtRp591
(dp592
g61
(dp593
g69
I3
ssg70
g587
sg63
(lp594
S''
asbasbasbag56
(g72
g58
NtRp595
(dp596
g61
(dp597
sg70
g451
sg63
(lp598
g56
(g77
g58
NtRp599
(dp600
g61
(dp601
g81
g82
ssg70
g595
sg63
(lp602
g417
asbag56
(g77
g58
NtRp603
(dp604
g61
(dp605
g88
g89
ssg70
g595
sg63
(lp606
S':'
asbag56
(g77
g58
NtRp607
(dp608
g61
(dp609
sg70
g595
sg63
(lp610
g56
(g57
g58
NtRp611
(dp612
g61
(dp613
g69
I3
ssg70
g607
sg63
(lp614
S''
asbasbasbasbasbasbasbag56
(g72
g58
NtRp615
(dp616
g61
(dp617
sg70
g233
sg63
(lp618
g56
(g77
g58
NtRp619
(dp620
g61
(dp621
g81
g82
ssg70
g615
sg63
(lp622
S'session_id_welcome'
p623
asbag56
(g77
g58
NtRp624
(dp625
g61
(dp626
g88
g89
ssg70
g615
sg63
(lp627
S':'
asbag56
(g77
g58
NtRp628
(dp629
g61
(dp630
sg70
g615
sg63
(lp631
g56
(g57
g58
NtRp632
(dp633
g61
(dp634
g69
I4
ssg70
g628
sg63
(lp635
g56
(g65
g58
NtRp636
(dp637
g61
(dp638
g69
I3
ssg70
Nsg63
(lp639
g56
(g72
g58
NtRp640
(dp641
g61
(dp642
sg70
g636
sg63
(lp643
g56
(g77
g58
NtRp644
(dp645
g61
(dp646
g81
g82
ssg70
g640
sg63
(lp647
g270
asbag56
(g77
g58
NtRp648
(dp649
g61
(dp650
g88
g89
ssg70
g640
sg63
(lp651
S':'
asbag56
(g77
g58
NtRp652
(dp653
g61
(dp654
sg70
g640
sg63
(lp655
g56
(g57
g58
NtRp656
(dp657
g61
(dp658
g69
I3
ssg70
g652
sg63
(lp659
S''
asbasbasbag56
(g72
g58
NtRp660
(dp661
g61
(dp662
sg70
g636
sg63
(lp663
g56
(g77
g58
NtRp664
(dp665
g61
(dp666
g81
g82
ssg70
g660
sg63
(lp667
g291
asbag56
(g77
g58
NtRp668
(dp669
g61
(dp670
g88
g89
ssg70
g660
sg63
(lp671
S':'
asbag56
(g77
g58
NtRp672
(dp673
g61
(dp674
sg70
g660
sg63
(lp675
g56
(g57
g58
NtRp676
(dp677
g61
(dp678
g69
I3
ssg70
g672
sg63
(lp679
S''
asbasbasbag56
(g72
g58
NtRp680
(dp681
g61
(dp682
sg70
g636
sg63
(lp683
g56
(g77
g58
NtRp684
(dp685
g61
(dp686
g81
g82
ssg70
g680
sg63
(lp687
g312
asbag56
(g77
g58
NtRp688
(dp689
g61
(dp690
g88
g89
ssg70
g680
sg63
(lp691
S':'
asbag56
(g77
g58
NtRp692
(dp693
g61
(dp694
sg70
g680
sg63
(lp695
g56
(g57
g58
NtRp696
(dp697
g61
(dp698
g69
I3
ssg70
g692
sg63
(lp699
S''
asbasbasbag56
(g72
g58
NtRp700
(dp701
g61
(dp702
sg70
g636
sg63
(lp703
g56
(g77
g58
NtRp704
(dp705
g61
(dp706
g81
g82
ssg70
g700
sg63
(lp707
g333
asbag56
(g77
g58
NtRp708
(dp709
g61
(dp710
g88
g89
ssg70
g700
sg63
(lp711
S':'
asbag56
(g77
g58
NtRp712
(dp713
g61
(dp714
sg70
g700
sg63
(lp715
g56
(g57
g58
NtRp716
(dp717
g61
(dp718
g69
I3
ssg70
g712
sg63
(lp719
S''
asbasbasbag56
(g72
g58
NtRp720
(dp721
g61
(dp722
sg70
g636
sg63
(lp723
g56
(g77
g58
NtRp724
(dp725
g61
(dp726
g81
g82
ssg70
g720
sg63
(lp727
g354
asbag56
(g77
g58
NtRp728
(dp729
g61
(dp730
g88
g89
ssg70
g720
sg63
(lp731
S':'
asbag56
(g77
g58
NtRp732
(dp733
g61
(dp734
sg70
g720
sg63
(lp735
g56
(g57
g58
NtRp736
(dp737
g61
(dp738
g69
I3
ssg70
g732
sg63
(lp739
S''
asbasbasbag56
(g72
g58
NtRp740
(dp741
g61
(dp742
sg70
g636
sg63
(lp743
g56
(g77
g58
NtRp744
(dp745
g61
(dp746
g81
g82
ssg70
g740
sg63
(lp747
g375
asbag56
(g77
g58
NtRp748
(dp749
g61
(dp750
g88
g89
ssg70
g740
sg63
(lp751
S':'
asbag56
(g77
g58
NtRp752
(dp753
g61
(dp754
sg70
g740
sg63
(lp755
g56
(g57
g58
NtRp756
(dp757
g61
(dp758
g69
I3
ssg70
g752
sg63
(lp759
S''
asbasbasbag56
(g72
g58
NtRp760
(dp761
g61
(dp762
sg70
g636
sg63
(lp763
g56
(g77
g58
NtRp764
(dp765
g61
(dp766
g81
g82
ssg70
g760
sg63
(lp767
g396
asbag56
(g77
g58
NtRp768
(dp769
g61
(dp770
g88
g89
ssg70
g760
sg63
(lp771
S':'
asbag56
(g77
g58
NtRp772
(dp773
g61
(dp774
sg70
g760
sg63
(lp775
g56
(g57
g58
NtRp776
(dp777
g61
(dp778
g69
I3
ssg70
g772
sg63
(lp779
S''
asbasbasbag56
(g72
g58
NtRp780
(dp781
g61
(dp782
sg70
g636
sg63
(lp783
g56
(g77
g58
NtRp784
(dp785
g61
(dp786
g81
g82
ssg70
g780
sg63
(lp787
g417
asbag56
(g77
g58
NtRp788
(dp789
g61
(dp790
g88
g89
ssg70
g780
sg63
(lp791
S':'
asbag56
(g77
g58
NtRp792
(dp793
g61
(dp794
sg70
g780
sg63
(lp795
g56
(g57
g58
NtRp796
(dp797
g61
(dp798
g69
I3
ssg70
g792
sg63
(lp799
S''
asbasbasbasbasbasbasbasbasbasbasbag56
(g72
g58
NtRp800
(dp801
g61
(dp802
sg70
g66
sg63
(lp803
g56
(g77
g58
NtRp804
(dp805
g61
(dp806
g81
g82
ssg70
g800
sg63
(lp807
S'env'
p808
asbag56
(g77
g58
NtRp809
(dp810
g61
(dp811
g88
g89
ssg70
g800
sg63
(lp812
S':'
asbag56
(g77
g58
NtRp813
(dp814
g61
(dp815
sg70
g800
sg63
(lp816
g56
(g57
g58
NtRp817
(dp818
g61
(dp819
g69
I5
ssg70
g813
sg63
(lp820
g56
(g65
g58
NtRp821
(dp822
g61
(dp823
g69
I4
ssg70
Nsg63
(lp824
g56
(g72
g58
NtRp825
(dp826
g61
(dp827
sg70
g821
sg63
(lp828
g56
(g77
g58
NtRp829
(dp830
g61
(dp831
g81
g82
ssg70
g825
sg63
(lp832
S'app_folders'
p833
asbag56
(g77
g58
NtRp834
(dp835
g61
(dp836
g88
g89
ssg70
g825
sg63
(lp837
S':'
asbag56
(g77
g58
NtRp838
(dp839
g61
(dp840
sg70
g825
sg63
(lp841
g56
(g57
g58
NtRp842
(dp843
g61
(dp844
g69
I4
ssg70
g838
sg63
(lp845
S"set(['/home/arpita/courses/sem3/ssad/web2py/applications/admin/', '/home/arpita/courses/sem3/ssad/web2py/applications/project/', '/home/arpita/courses/sem3/ssad/web2py/applications/welcome/'])"
p846
asbasbasbag56
(g72
g58
NtRp847
(dp848
g61
(dp849
sg70
g821
sg63
(lp850
g56
(g77
g58
NtRp851
(dp852
g61
(dp853
g81
g82
ssg70
g847
sg63
(lp854
S'applications_parent'
p855
asbag56
(g77
g58
NtRp856
(dp857
g61
(dp858
g88
g89
ssg70
g847
sg63
(lp859
S':'
asbag56
(g77
g58
NtRp860
(dp861
g61
(dp862
sg70
g847
sg63
(lp863
g56
(g57
g58
NtRp864
(dp865
g61
(dp866
g69
I4
ssg70
g860
sg63
(lp867
S'/home/arpita/courses/sem3/ssad/web2py'
p868
asbasbasbag56
(g72
g58
NtRp869
(dp870
g61
(dp871
sg70
g821
sg63
(lp872
g56
(g77
g58
NtRp873
(dp874
g61
(dp875
g81
g82
ssg70
g869
sg63
(lp876
S'cmd_args'
p877
asbag56
(g77
g58
NtRp878
(dp879
g61
(dp880
g88
g89
ssg70
g869
sg63
(lp881
S':'
asbag56
(g77
g58
NtRp882
(dp883
g61
(dp884
sg70
g869
sg63
(lp885
g56
(g57
g58
NtRp886
(dp887
g61
(dp888
g69
I4
ssg70
g882
sg63
(lp889
g56
(g65
g58
NtRp890
(dp891
g61
(dp892
g69
I3
ssg70
Nsg63
(lp893
sbasbasbasbag56
(g72
g58
NtRp894
(dp895
g61
(dp896
sg70
g821
sg63
(lp897
g56
(g77
g58
NtRp898
(dp899
g61
(dp900
g81
g82
ssg70
g894
sg63
(lp901
S'cmd_options'
p902
asbag56
(g77
g58
NtRp903
(dp904
g61
(dp905
g88
g89
ssg70
g894
sg63
(lp906
S':'
asbag56
(g77
g58
NtRp907
(dp908
g61
(dp909
sg70
g894
sg63
(lp910
g56
(g57
g58
NtRp911
(dp912
g61
(dp913
g69
I4
ssg70
g907
sg63
(lp914
S"<Values at 0x99e03cc: {'verbose': False, 'ip': '127.0.0.1', 'shutdown_timeout': 5, 'taskbar': False, 'nocron': False, 'pid_filename': 'httpserver.pid', 'maxthreads': None, 'softcron': False, 'server_name': 'arpita-HP-630-Notebook-PC', 'bpython': False, 'nogui': False, 'port': 8000, 'extcron': False, 'debuglevel': 30, 'test': None, 'folder': '/home/arpita/courses/sem3/ssad/web2py', 'config': '', 'import_models': False, 'winservice': '', 'shell': None, 'run': '', 'log_filename': 'httpserver.log', 'args': [''], 'socket_timeout': 5, 'ssl_ca_certificate': None, 'scheduler': None, 'profiler_filename': None, 'ssl_private_key': '', 'password': 'arpita', 'request_queue_size': 5, 'ssl_certificate': '', 'cronjob': False, 'numthreads': None, 'quiet': False, 'interfaces': None, 'minthreads': None, 'timeout': 10, 'plain': False, 'nobanner': False}>"
p915
asbasbasbag56
(g72
g58
NtRp916
(dp917
g61
(dp918
sg70
g821
sg63
(lp919
g56
(g77
g58
NtRp920
(dp921
g61
(dp922
g81
g82
ssg70
g916
sg63
(lp923
S'db_sessions'
p924
asbag56
(g77
g58
NtRp925
(dp926
g61
(dp927
g88
g89
ssg70
g916
sg63
(lp928
S':'
asbag56
(g77
g58
NtRp929
(dp930
g61
(dp931
sg70
g916
sg63
(lp932
g56
(g57
g58
NtRp933
(dp934
g61
(dp935
g69
I4
ssg70
g929
sg63
(lp936
S'set([])'
p937
asbasbasbag56
(g72
g58
NtRp938
(dp939
g61
(dp940
sg70
g821
sg63
(lp941
g56
(g77
g58
NtRp942
(dp943
g61
(dp944
g81
g82
ssg70
g938
sg63
(lp945
S'debugging'
p946
asbag56
(g77
g58
NtRp947
(dp948
g61
(dp949
g88
g89
ssg70
g938
sg63
(lp950
S':'
asbag56
(g77
g58
NtRp951
(dp952
g61
(dp953
sg70
g938
sg63
(lp954
g56
(g57
g58
NtRp955
(dp956
g61
(dp957
g69
I4
ssg70
g951
sg63
(lp958
g99
asbasbasbag56
(g72
g58
NtRp959
(dp960
g61
(dp961
sg70
g821
sg63
(lp962
g56
(g77
g58
NtRp963
(dp964
g61
(dp965
g81
g82
ssg70
g959
sg63
(lp966
S'gluon_parent'
p967
asbag56
(g77
g58
NtRp968
(dp969
g61
(dp970
g88
g89
ssg70
g959
sg63
(lp971
S':'
asbag56
(g77
g58
NtRp972
(dp973
g61
(dp974
sg70
g959
sg63
(lp975
g56
(g57
g58
NtRp976
(dp977
g61
(dp978
g69
I4
ssg70
g972
sg63
(lp979
S'/home/arpita/courses/sem3/ssad/web2py'
p980
asbasbasbag56
(g72
g58
NtRp981
(dp982
g61
(dp983
sg70
g821
sg63
(lp984
g56
(g77
g58
NtRp985
(dp986
g61
(dp987
g81
g82
ssg70
g981
sg63
(lp988
S'http_accept'
p989
asbag56
(g77
g58
NtRp990
(dp991
g61
(dp992
g88
g89
ssg70
g981
sg63
(lp993
S':'
asbag56
(g77
g58
NtRp994
(dp995
g61
(dp996
sg70
g981
sg63
(lp997
g56
(g57
g58
NtRp998
(dp999
g61
(dp1000
g69
I4
ssg70
g994
sg63
(lp1001
S'text/html,application/xhtml+xml,application/xml;q=0.9,*/*;q=0.8'
p1002
asbasbasbag56
(g72
g58
NtRp1003
(dp1004
g61
(dp1005
sg70
g821
sg63
(lp1006
g56
(g77
g58
NtRp1007
(dp1008
g61
(dp1009
g81
g82
ssg70
g1003
sg63
(lp1010
S'http_accept_charset'
p1011
asbag56
(g77
g58
NtRp1012
(dp1013
g61
(dp1014
g88
g89
ssg70
g1003
sg63
(lp1015
S':'
asbag56
(g77
g58
NtRp1016
(dp1017
g61
(dp1018
sg70
g1003
sg63
(lp1019
g56
(g57
g58
NtRp1020
(dp1021
g61
(dp1022
g69
I4
ssg70
g1016
sg63
(lp1023
S'ISO-8859-1,utf-8;q=0.7,*;q=0.7'
p1024
asbasbasbag56
(g72
g58
NtRp1025
(dp1026
g61
(dp1027
sg70
g821
sg63
(lp1028
g56
(g77
g58
NtRp1029
(dp1030
g61
(dp1031
g81
g82
ssg70
g1025
sg63
(lp1032
S'http_accept_encoding'
p1033
asbag56
(g77
g58
NtRp1034
(dp1035
g61
(dp1036
g88
g89
ssg70
g1025
sg63
(lp1037
S':'
asbag56
(g77
g58
NtRp1038
(dp1039
g61
(dp1040
sg70
g1025
sg63
(lp1041
g56
(g57
g58
NtRp1042
(dp1043
g61
(dp1044
g69
I4
ssg70
g1038
sg63
(lp1045
S'gzip, deflate'
p1046
asbasbasbag56
(g72
g58
NtRp1047
(dp1048
g61
(dp1049
sg70
g821
sg63
(lp1050
g56
(g77
g58
NtRp1051
(dp1052
g61
(dp1053
g81
g82
ssg70
g1047
sg63
(lp1054
S'http_accept_language'
p1055
asbag56
(g77
g58
NtRp1056
(dp1057
g61
(dp1058
g88
g89
ssg70
g1047
sg63
(lp1059
S':'
asbag56
(g77
g58
NtRp1060
(dp1061
g61
(dp1062
sg70
g1047
sg63
(lp1063
g56
(g57
g58
NtRp1064
(dp1065
g61
(dp1066
g69
I4
ssg70
g1060
sg63
(lp1067
S'en-us,en;q=0.5'
p1068
asbasbasbag56
(g72
g58
NtRp1069
(dp1070
g61
(dp1071
sg70
g821
sg63
(lp1072
g56
(g77
g58
NtRp1073
(dp1074
g61
(dp1075
g81
g82
ssg70
g1069
sg63
(lp1076
S'http_connection'
p1077
asbag56
(g77
g58
NtRp1078
(dp1079
g61
(dp1080
g88
g89
ssg70
g1069
sg63
(lp1081
S':'
asbag56
(g77
g58
NtRp1082
(dp1083
g61
(dp1084
sg70
g1069
sg63
(lp1085
g56
(g57
g58
NtRp1086
(dp1087
g61
(dp1088
g69
I4
ssg70
g1082
sg63
(lp1089
S'keep-alive'
p1090
asbasbasbag56
(g72
g58
NtRp1091
(dp1092
g61
(dp1093
sg70
g821
sg63
(lp1094
g56
(g77
g58
NtRp1095
(dp1096
g61
(dp1097
g81
g82
ssg70
g1091
sg63
(lp1098
S'http_cookie'
p1099
asbag56
(g77
g58
NtRp1100
(dp1101
g61
(dp1102
g88
g89
ssg70
g1091
sg63
(lp1103
S':'
asbag56
(g77
g58
NtRp1104
(dp1105
g61
(dp1106
sg70
g1091
sg63
(lp1107
g56
(g57
g58
NtRp1108
(dp1109
g61
(dp1110
g69
I4
ssg70
g1104
sg63
(lp1111
S'session_id_welcome=127.0.0.1-18fcf790-7e84-475f-ad3e-9915143ebf78; session_id_admin=127.0.0.1-68258ca6-9a3e-47bc-9615-887809986329; session_id_project=127.0.0.1-70b1e447-fab4-4ce7-b92c-36d8158ff7e8'
p1112
asbasbasbag56
(g72
g58
NtRp1113
(dp1114
g61
(dp1115
sg70
g821
sg63
(lp1116
g56
(g77
g58
NtRp1117
(dp1118
g61
(dp1119
g81
g82
ssg70
g1113
sg63
(lp1120
S'http_host'
p1121
asbag56
(g77
g58
NtRp1122
(dp1123
g61
(dp1124
g88
g89
ssg70
g1113
sg63
(lp1125
S':'
asbag56
(g77
g58
NtRp1126
(dp1127
g61
(dp1128
sg70
g1113
sg63
(lp1129
g56
(g57
g58
NtRp1130
(dp1131
g61
(dp1132
g69
I4
ssg70
g1126
sg63
(lp1133
S'127.0.0.1:8000'
p1134
asbasbasbag56
(g72
g58
NtRp1135
(dp1136
g61
(dp1137
sg70
g821
sg63
(lp1138
g56
(g77
g58
NtRp1139
(dp1140
g61
(dp1141
g81
g82
ssg70
g1135
sg63
(lp1142
S'http_referer'
p1143
asbag56
(g77
g58
NtRp1144
(dp1145
g61
(dp1146
g88
g89
ssg70
g1135
sg63
(lp1147
S':'
asbag56
(g77
g58
NtRp1148
(dp1149
g61
(dp1150
sg70
g1135
sg63
(lp1151
g56
(g57
g58
NtRp1152
(dp1153
g61
(dp1154
g69
I4
ssg70
g1148
sg63
(lp1155
S'http://127.0.0.1:8000/project/default/relate'
p1156
asbasbasbag56
(g72
g58
NtRp1157
(dp1158
g61
(dp1159
sg70
g821
sg63
(lp1160
g56
(g77
g58
NtRp1161
(dp1162
g61
(dp1163
g81
g82
ssg70
g1157
sg63
(lp1164
S'http_user_agent'
p1165
asbag56
(g77
g58
NtRp1166
(dp1167
g61
(dp1168
g88
g89
ssg70
g1157
sg63
(lp1169
S':'
asbag56
(g77
g58
NtRp1170
(dp1171
g61
(dp1172
sg70
g1157
sg63
(lp1173
g56
(g57
g58
NtRp1174
(dp1175
g61
(dp1176
g69
I4
ssg70
g1170
sg63
(lp1177
S'Mozilla/5.0 (X11; Linux i686; rv:7.0.1) Gecko/20100101 Firefox/7.0.1'
p1178
asbasbasbag56
(g72
g58
NtRp1179
(dp1180
g61
(dp1181
sg70
g821
sg63
(lp1182
g56
(g77
g58
NtRp1183
(dp1184
g61
(dp1185
g81
g82
ssg70
g1179
sg63
(lp1186
S'is_jython'
p1187
asbag56
(g77
g58
NtRp1188
(dp1189
g61
(dp1190
g88
g89
ssg70
g1179
sg63
(lp1191
S':'
asbag56
(g77
g58
NtRp1192
(dp1193
g61
(dp1194
sg70
g1179
sg63
(lp1195
g56
(g57
g58
NtRp1196
(dp1197
g61
(dp1198
g69
I4
ssg70
g1192
sg63
(lp1199
g99
asbasbasbag56
(g72
g58
NtRp1200
(dp1201
g61
(dp1202
sg70
g821
sg63
(lp1203
g56
(g77
g58
NtRp1204
(dp1205
g61
(dp1206
g81
g82
ssg70
g1200
sg63
(lp1207
S'is_pypy'
p1208
asbag56
(g77
g58
NtRp1209
(dp1210
g61
(dp1211
g88
g89
ssg70
g1200
sg63
(lp1212
S':'
asbag56
(g77
g58
NtRp1213
(dp1214
g61
(dp1215
sg70
g1200
sg63
(lp1216
g56
(g57
g58
NtRp1217
(dp1218
g61
(dp1219
g69
I4
ssg70
g1213
sg63
(lp1220
g99
asbasbasbag56
(g72
g58
NtRp1221
(dp1222
g61
(dp1223
sg70
g821
sg63
(lp1224
g56
(g77
g58
NtRp1225
(dp1226
g61
(dp1227
g81
g82
ssg70
g1221
sg63
(lp1228
S'path_info'
p1229
asbag56
(g77
g58
NtRp1230
(dp1231
g61
(dp1232
g88
g89
ssg70
g1221
sg63
(lp1233
S':'
asbag56
(g77
g58
NtRp1234
(dp1235
g61
(dp1236
sg70
g1221
sg63
(lp1237
g56
(g57
g58
NtRp1238
(dp1239
g61
(dp1240
g69
I4
ssg70
g1234
sg63
(lp1241
S'/project/default/kruskal'
p1242
asbasbasbag56
(g72
g58
NtRp1243
(dp1244
g61
(dp1245
sg70
g821
sg63
(lp1246
g56
(g77
g58
NtRp1247
(dp1248
g61
(dp1249
g81
g82
ssg70
g1243
sg63
(lp1250
S'query_string'
p1251
asbag56
(g77
g58
NtRp1252
(dp1253
g61
(dp1254
g88
g89
ssg70
g1243
sg63
(lp1255
S':'
asbag56
(g77
g58
NtRp1256
(dp1257
g61
(dp1258
sg70
g1243
sg63
(lp1259
g56
(g57
g58
NtRp1260
(dp1261
g61
(dp1262
g69
I4
ssg70
g1256
sg63
(lp1263
S''
asbasbasbag56
(g72
g58
NtRp1264
(dp1265
g61
(dp1266
sg70
g821
sg63
(lp1267
g56
(g77
g58
NtRp1268
(dp1269
g61
(dp1270
g81
g82
ssg70
g1264
sg63
(lp1271
S'remote_addr'
p1272
asbag56
(g77
g58
NtRp1273
(dp1274
g61
(dp1275
g88
g89
ssg70
g1264
sg63
(lp1276
S':'
asbag56
(g77
g58
NtRp1277
(dp1278
g61
(dp1279
sg70
g1264
sg63
(lp1280
g56
(g57
g58
NtRp1281
(dp1282
g61
(dp1283
g69
I4
ssg70
g1277
sg63
(lp1284
g189
asbasbasbag56
(g72
g58
NtRp1285
(dp1286
g61
(dp1287
sg70
g821
sg63
(lp1288
g56
(g77
g58
NtRp1289
(dp1290
g61
(dp1291
g81
g82
ssg70
g1285
sg63
(lp1292
S'remote_port'
p1293
asbag56
(g77
g58
NtRp1294
(dp1295
g61
(dp1296
g88
g89
ssg70
g1285
sg63
(lp1297
S':'
asbag56
(g77
g58
NtRp1298
(dp1299
g61
(dp1300
sg70
g1285
sg63
(lp1301
g56
(g57
g58
NtRp1302
(dp1303
g61
(dp1304
g69
I4
ssg70
g1298
sg63
(lp1305
S'58540'
p1306
asbasbasbag56
(g72
g58
NtRp1307
(dp1308
g61
(dp1309
sg70
g821
sg63
(lp1310
g56
(g77
g58
NtRp1311
(dp1312
g61
(dp1313
g81
g82
ssg70
g1307
sg63
(lp1314
S'request_method'
p1315
asbag56
(g77
g58
NtRp1316
(dp1317
g61
(dp1318
g88
g89
ssg70
g1307
sg63
(lp1319
S':'
asbag56
(g77
g58
NtRp1320
(dp1321
g61
(dp1322
sg70
g1307
sg63
(lp1323
g56
(g57
g58
NtRp1324
(dp1325
g61
(dp1326
g69
I4
ssg70
g1320
sg63
(lp1327
S'GET'
p1328
asbasbasbag56
(g72
g58
NtRp1329
(dp1330
g61
(dp1331
sg70
g821
sg63
(lp1332
g56
(g77
g58
NtRp1333
(dp1334
g61
(dp1335
g81
g82
ssg70
g1329
sg63
(lp1336
S'script_name'
p1337
asbag56
(g77
g58
NtRp1338
(dp1339
g61
(dp1340
g88
g89
ssg70
g1329
sg63
(lp1341
S':'
asbag56
(g77
g58
NtRp1342
(dp1343
g61
(dp1344
sg70
g1329
sg63
(lp1345
g56
(g57
g58
NtRp1346
(dp1347
g61
(dp1348
g69
I4
ssg70
g1342
sg63
(lp1349
S''
asbasbasbag56
(g72
g58
NtRp1350
(dp1351
g61
(dp1352
sg70
g821
sg63
(lp1353
g56
(g77
g58
NtRp1354
(dp1355
g61
(dp1356
g81
g82
ssg70
g1350
sg63
(lp1357
S'server_name'
p1358
asbag56
(g77
g58
NtRp1359
(dp1360
g61
(dp1361
g88
g89
ssg70
g1350
sg63
(lp1362
S':'
asbag56
(g77
g58
NtRp1363
(dp1364
g61
(dp1365
sg70
g1350
sg63
(lp1366
g56
(g57
g58
NtRp1367
(dp1368
g61
(dp1369
g69
I4
ssg70
g1363
sg63
(lp1370
S'arpita-HP-630-Notebook-PC'
p1371
asbasbasbag56
(g72
g58
NtRp1372
(dp1373
g61
(dp1374
sg70
g821
sg63
(lp1375
g56
(g77
g58
NtRp1376
(dp1377
g61
(dp1378
g81
g82
ssg70
g1372
sg63
(lp1379
S'server_port'
p1380
asbag56
(g77
g58
NtRp1381
(dp1382
g61
(dp1383
g88
g89
ssg70
g1372
sg63
(lp1384
S':'
asbag56
(g77
g58
NtRp1385
(dp1386
g61
(dp1387
sg70
g1372
sg63
(lp1388
g56
(g57
g58
NtRp1389
(dp1390
g61
(dp1391
g69
I4
ssg70
g1385
sg63
(lp1392
S'8000'
p1393
asbasbasbag56
(g72
g58
NtRp1394
(dp1395
g61
(dp1396
sg70
g821
sg63
(lp1397
g56
(g77
g58
NtRp1398
(dp1399
g61
(dp1400
g81
g82
ssg70
g1394
sg63
(lp1401
S'server_protocol'
p1402
asbag56
(g77
g58
NtRp1403
(dp1404
g61
(dp1405
g88
g89
ssg70
g1394
sg63
(lp1406
S':'
asbag56
(g77
g58
NtRp1407
(dp1408
g61
(dp1409
sg70
g1394
sg63
(lp1410
g56
(g57
g58
NtRp1411
(dp1412
g61
(dp1413
g69
I4
ssg70
g1407
sg63
(lp1414
S'HTTP/1.1'
p1415
asbasbasbag56
(g72
g58
NtRp1416
(dp1417
g61
(dp1418
sg70
g821
sg63
(lp1419
g56
(g77
g58
NtRp1420
(dp1421
g61
(dp1422
g81
g82
ssg70
g1416
sg63
(lp1423
S'server_software'
p1424
asbag56
(g77
g58
NtRp1425
(dp1426
g61
(dp1427
g88
g89
ssg70
g1416
sg63
(lp1428
S':'
asbag56
(g77
g58
NtRp1429
(dp1430
g61
(dp1431
sg70
g1416
sg63
(lp1432
g56
(g57
g58
NtRp1433
(dp1434
g61
(dp1435
g69
I4
ssg70
g1429
sg63
(lp1436
S'Rocket 1.2.4'
p1437
asbasbasbag56
(g72
g58
NtRp1438
(dp1439
g61
(dp1440
sg70
g821
sg63
(lp1441
g56
(g77
g58
NtRp1442
(dp1443
g61
(dp1444
g81
g82
ssg70
g1438
sg63
(lp1445
S'web2py_crontype'
p1446
asbag56
(g77
g58
NtRp1447
(dp1448
g61
(dp1449
g88
g89
ssg70
g1438
sg63
(lp1450
S':'
asbag56
(g77
g58
NtRp1451
(dp1452
g61
(dp1453
sg70
g1438
sg63
(lp1454
g56
(g57
g58
NtRp1455
(dp1456
g61
(dp1457
g69
I4
ssg70
g1451
sg63
(lp1458
S'hard'
p1459
asbasbasbag56
(g72
g58
NtRp1460
(dp1461
g61
(dp1462
sg70
g821
sg63
(lp1463
g56
(g77
g58
NtRp1464
(dp1465
g61
(dp1466
g81
g82
ssg70
g1460
sg63
(lp1467
S'web2py_path'
p1468
asbag56
(g77
g58
NtRp1469
(dp1470
g61
(dp1471
g88
g89
ssg70
g1460
sg63
(lp1472
S':'
asbag56
(g77
g58
NtRp1473
(dp1474
g61
(dp1475
sg70
g1460
sg63
(lp1476
g56
(g57
g58
NtRp1477
(dp1478
g61
(dp1479
g69
I4
ssg70
g1473
sg63
(lp1480
g868
asbasbasbag56
(g72
g58
NtRp1481
(dp1482
g61
(dp1483
sg70
g821
sg63
(lp1484
g56
(g77
g58
NtRp1485
(dp1486
g61
(dp1487
g81
g82
ssg70
g1481
sg63
(lp1488
S'web2py_version'
p1489
asbag56
(g77
g58
NtRp1490
(dp1491
g61
(dp1492
g88
g89
ssg70
g1481
sg63
(lp1493
S':'
asbag56
(g77
g58
NtRp1494
(dp1495
g61
(dp1496
sg70
g1481
sg63
(lp1497
g56
(g57
g58
NtRp1498
(dp1499
g61
(dp1500
g69
I4
ssg70
g1494
sg63
(lp1501
g56
(g65
g58
NtRp1502
(dp1503
g61
(dp1504
g69
I3
ssg70
Nsg63
(lp1505
g56
(g72
g58
NtRp1506
(dp1507
g61
(dp1508
sg70
g1502
sg63
(lp1509
g56
(g77
g58
NtRp1510
(dp1511
g61
(dp1512
sg70
g1506
sg63
(lp1513
g56
(g57
g58
NtRp1514
(dp1515
g61
(dp1516
g69
I3
ssg70
g1510
sg63
(lp1517
S'1'
asbasbasbag56
(g72
g58
NtRp1518
(dp1519
g61
(dp1520
sg70
g1502
sg63
(lp1521
g56
(g77
g58
NtRp1522
(dp1523
g61
(dp1524
sg70
g1518
sg63
(lp1525
g56
(g57
g58
NtRp1526
(dp1527
g61
(dp1528
g69
I3
ssg70
g1522
sg63
(lp1529
S'99'
p1530
asbasbasbag56
(g72
g58
NtRp1531
(dp1532
g61
(dp1533
sg70
g1502
sg63
(lp1534
g56
(g77
g58
NtRp1535
(dp1536
g61
(dp1537
sg70
g1531
sg63
(lp1538
g56
(g57
g58
NtRp1539
(dp1540
g61
(dp1541
g69
I3
ssg70
g1535
sg63
(lp1542
S'7'
asbasbasbag56
(g72
g58
NtRp1543
(dp1544
g61
(dp1545
sg70
g1502
sg63
(lp1546
g56
(g77
g58
NtRp1547
(dp1548
g61
(dp1549
sg70
g1543
sg63
(lp1550
g56
(g57
g58
NtRp1551
(dp1552
g61
(dp1553
g69
I3
ssg70
g1547
sg63
(lp1554
S'datetime.datetime(2012, 3, 4, 22, 12, 8)'
p1555
asbasbasbag56
(g72
g58
NtRp1556
(dp1557
g61
(dp1558
sg70
g1502
sg63
(lp1559
g56
(g77
g58
NtRp1560
(dp1561
g61
(dp1562
sg70
g1556
sg63
(lp1563
g56
(g57
g58
NtRp1564
(dp1565
g61
(dp1566
g69
I3
ssg70
g1560
sg63
(lp1567
S'stable'
p1568
asbasbasbasbasbasbasbag56
(g72
g58
NtRp1569
(dp1570
g61
(dp1571
sg70
g821
sg63
(lp1572
g56
(g77
g58
NtRp1573
(dp1574
g61
(dp1575
g81
g82
ssg70
g1569
sg63
(lp1576
S'wsgi_errors'
p1577
asbag56
(g77
g58
NtRp1578
(dp1579
g61
(dp1580
g88
g89
ssg70
g1569
sg63
(lp1581
S':'
asbag56
(g77
g58
NtRp1582
(dp1583
g61
(dp1584
sg70
g1569
sg63
(lp1585
g56
(g57
g58
NtRp1586
(dp1587
g61
(dp1588
g69
I4
ssg70
g1582
sg63
(lp1589
S"<open file '<stderr>', mode 'w' at 0xb730f0d0>"
p1590
asbasbasbag56
(g72
g58
NtRp1591
(dp1592
g61
(dp1593
sg70
g821
sg63
(lp1594
g56
(g77
g58
NtRp1595
(dp1596
g61
(dp1597
g81
g82
ssg70
g1591
sg63
(lp1598
S'wsgi_file_wrapper'
p1599
asbag56
(g77
g58
NtRp1600
(dp1601
g61
(dp1602
g88
g89
ssg70
g1591
sg63
(lp1603
S':'
asbag56
(g77
g58
NtRp1604
(dp1605
g61
(dp1606
sg70
g1591
sg63
(lp1607
g56
(g57
g58
NtRp1608
(dp1609
g61
(dp1610
g69
I4
ssg70
g1604
sg63
(lp1611
S'<class wsgiref.util.FileWrapper at 0x9983f2c>'
p1612
asbasbasbag56
(g72
g58
NtRp1613
(dp1614
g61
(dp1615
sg70
g821
sg63
(lp1616
g56
(g77
g58
NtRp1617
(dp1618
g61
(dp1619
g81
g82
ssg70
g1613
sg63
(lp1620
S'wsgi_input'
p1621
asbag56
(g77
g58
NtRp1622
(dp1623
g61
(dp1624
g88
g89
ssg70
g1613
sg63
(lp1625
S':'
asbag56
(g77
g58
NtRp1626
(dp1627
g61
(dp1628
sg70
g1613
sg63
(lp1629
g56
(g57
g58
NtRp1630
(dp1631
g61
(dp1632
g69
I4
ssg70
g1626
sg63
(lp1633
S'<socket._fileobject object at 0xa08cdec>'
p1634
asbasbasbag56
(g72
g58
NtRp1635
(dp1636
g61
(dp1637
sg70
g821
sg63
(lp1638
g56
(g77
g58
NtRp1639
(dp1640
g61
(dp1641
g81
g82
ssg70
g1635
sg63
(lp1642
S'wsgi_multiprocess'
p1643
asbag56
(g77
g58
NtRp1644
(dp1645
g61
(dp1646
g88
g89
ssg70
g1635
sg63
(lp1647
S':'
asbag56
(g77
g58
NtRp1648
(dp1649
g61
(dp1650
sg70
g1635
sg63
(lp1651
g56
(g57
g58
NtRp1652
(dp1653
g61
(dp1654
g69
I4
ssg70
g1648
sg63
(lp1655
g99
asbasbasbag56
(g72
g58
NtRp1656
(dp1657
g61
(dp1658
sg70
g821
sg63
(lp1659
g56
(g77
g58
NtRp1660
(dp1661
g61
(dp1662
g81
g82
ssg70
g1656
sg63
(lp1663
S'wsgi_multithread'
p1664
asbag56
(g77
g58
NtRp1665
(dp1666
g61
(dp1667
g88
g89
ssg70
g1656
sg63
(lp1668
S':'
asbag56
(g77
g58
NtRp1669
(dp1670
g61
(dp1671
sg70
g1656
sg63
(lp1672
g56
(g57
g58
NtRp1673
(dp1674
g61
(dp1675
g69
I4
ssg70
g1669
sg63
(lp1676
S'True'
p1677
asbasbasbag56
(g72
g58
NtRp1678
(dp1679
g61
(dp1680
sg70
g821
sg63
(lp1681
g56
(g77
g58
NtRp1682
(dp1683
g61
(dp1684
g81
g82
ssg70
g1678
sg63
(lp1685
S'wsgi_run_once'
p1686
asbag56
(g77
g58
NtRp1687
(dp1688
g61
(dp1689
g88
g89
ssg70
g1678
sg63
(lp1690
S':'
asbag56
(g77
g58
NtRp1691
(dp1692
g61
(dp1693
sg70
g1678
sg63
(lp1694
g56
(g57
g58
NtRp1695
(dp1696
g61
(dp1697
g69
I4
ssg70
g1691
sg63
(lp1698
g99
asbasbasbag56
(g72
g58
NtRp1699
(dp1700
g61
(dp1701
sg70
g821
sg63
(lp1702
g56
(g77
g58
NtRp1703
(dp1704
g61
(dp1705
g81
g82
ssg70
g1699
sg63
(lp1706
S'wsgi_url_scheme'
p1707
asbag56
(g77
g58
NtRp1708
(dp1709
g61
(dp1710
g88
g89
ssg70
g1699
sg63
(lp1711
S':'
asbag56
(g77
g58
NtRp1712
(dp1713
g61
(dp1714
sg70
g1699
sg63
(lp1715
g56
(g57
g58
NtRp1716
(dp1717
g61
(dp1718
g69
I4
ssg70
g1712
sg63
(lp1719
S'http'
p1720
asbasbasbag56
(g72
g58
NtRp1721
(dp1722
g61
(dp1723
sg70
g821
sg63
(lp1724
g56
(g77
g58
NtRp1725
(dp1726
g61
(dp1727
g81
g82
ssg70
g1721
sg63
(lp1728
S'wsgi_version'
p1729
asbag56
(g77
g58
NtRp1730
(dp1731
g61
(dp1732
g88
g89
ssg70
g1721
sg63
(lp1733
S':'
asbag56
(g77
g58
NtRp1734
(dp1735
g61
(dp1736
sg70
g1721
sg63
(lp1737
g56
(g57
g58
NtRp1738
(dp1739
g61
(dp1740
g69
I4
ssg70
g1734
sg63
(lp1741
g56
(g65
g58
NtRp1742
(dp1743
g61
(dp1744
g69
I3
ssg70
Nsg63
(lp1745
g56
(g72
g58
NtRp1746
(dp1747
g61
(dp1748
sg70
g1742
sg63
(lp1749
g56
(g77
g58
NtRp1750
(dp1751
g61
(dp1752
sg70
g1746
sg63
(lp1753
g56
(g57
g58
NtRp1754
(dp1755
g61
(dp1756
g69
I3
ssg70
g1750
sg63
(lp1757
S'1'
asbasbasbag56
(g72
g58
NtRp1758
(dp1759
g61
(dp1760
sg70
g1742
sg63
(lp1761
g56
(g77
g58
NtRp1762
(dp1763
g61
(dp1764
sg70
g1758
sg63
(lp1765
g56
(g57
g58
NtRp1766
(dp1767
g61
(dp1768
g69
I3
ssg70
g1762
sg63
(lp1769
S'0'
asbasbasbasbasbasbasbasbasbasbasbag56
(g72
g58
NtRp1770
(dp1771
g61
(dp1772
sg70
g66
sg63
(lp1773
g56
(g77
g58
NtRp1774
(dp1775
g61
(dp1776
g81
g82
ssg70
g1770
sg63
(lp1777
S'extension'
p1778
asbag56
(g77
g58
NtRp1779
(dp1780
g61
(dp1781
g88
g89
ssg70
g1770
sg63
(lp1782
S':'
asbag56
(g77
g58
NtRp1783
(dp1784
g61
(dp1785
sg70
g1770
sg63
(lp1786
g56
(g57
g58
NtRp1787
(dp1788
g61
(dp1789
g69
I5
ssg70
g1783
sg63
(lp1790
S'html'
p1791
asbasbasbag56
(g72
g58
NtRp1792
(dp1793
g61
(dp1794
sg70
g66
sg63
(lp1795
g56
(g77
g58
NtRp1796
(dp1797
g61
(dp1798
g81
g82
ssg70
g1792
sg63
(lp1799
S'folder'
p1800
asbag56
(g77
g58
NtRp1801
(dp1802
g61
(dp1803
g88
g89
ssg70
g1792
sg63
(lp1804
S':'
asbag56
(g77
g58
NtRp1805
(dp1806
g61
(dp1807
sg70
g1792
sg63
(lp1808
g56
(g57
g58
NtRp1809
(dp1810
g61
(dp1811
g69
I5
ssg70
g1805
sg63
(lp1812
S'/home/arpita/courses/sem3/ssad/web2py/applications/project/'
p1813
asbasbasbag56
(g72
g58
NtRp1814
(dp1815
g61
(dp1816
sg70
g66
sg63
(lp1817
g56
(g77
g58
NtRp1818
(dp1819
g61
(dp1820
g81
g82
ssg70
g1814
sg63
(lp1821
S'function'
p1822
asbag56
(g77
g58
NtRp1823
(dp1824
g61
(dp1825
g88
g89
ssg70
g1814
sg63
(lp1826
S':'
asbag56
(g77
g58
NtRp1827
(dp1828
g61
(dp1829
sg70
g1814
sg63
(lp1830
g56
(g57
g58
NtRp1831
(dp1832
g61
(dp1833
g69
I5
ssg70
g1827
sg63
(lp1834
S'kruskal'
p1835
asbasbasbag56
(g72
g58
NtRp1836
(dp1837
g61
(dp1838
sg70
g66
sg63
(lp1839
g56
(g77
g58
NtRp1840
(dp1841
g61
(dp1842
g81
g82
ssg70
g1836
sg63
(lp1843
S'get_vars'
p1844
asbag56
(g77
g58
NtRp1845
(dp1846
g61
(dp1847
g88
g89
ssg70
g1836
sg63
(lp1848
S':'
asbag56
(g77
g58
NtRp1849
(dp1850
g61
(dp1851
sg70
g1836
sg63
(lp1852
g56
(g57
g58
NtRp1853
(dp1854
g61
(dp1855
g69
I5
ssg70
g1849
sg63
(lp1856
g56
(g65
g58
NtRp1857
(dp1858
g61
(dp1859
g69
I4
ssg70
Nsg63
(lp1860
sbasbasbasbag56
(g72
g58
NtRp1861
(dp1862
g61
(dp1863
sg70
g66
sg63
(lp1864
g56
(g77
g58
NtRp1865
(dp1866
g61
(dp1867
g81
g82
ssg70
g1861
sg63
(lp1868
S'global_settings'
p1869
asbag56
(g77
g58
NtRp1870
(dp1871
g61
(dp1872
g88
g89
ssg70
g1861
sg63
(lp1873
S':'
asbag56
(g77
g58
NtRp1874
(dp1875
g61
(dp1876
sg70
g1861
sg63
(lp1877
g56
(g57
g58
NtRp1878
(dp1879
g61
(dp1880
g69
I5
ssg70
g1874
sg63
(lp1881
g56
(g65
g58
NtRp1882
(dp1883
g61
(dp1884
g69
I4
ssg70
Nsg63
(lp1885
g56
(g72
g58
NtRp1886
(dp1887
g61
(dp1888
sg70
g1882
sg63
(lp1889
g56
(g77
g58
NtRp1890
(dp1891
g61
(dp1892
g81
g82
ssg70
g1886
sg63
(lp1893
g833
asbag56
(g77
g58
NtRp1894
(dp1895
g61
(dp1896
g88
g89
ssg70
g1886
sg63
(lp1897
S':'
asbag56
(g77
g58
NtRp1898
(dp1899
g61
(dp1900
sg70
g1886
sg63
(lp1901
g56
(g57
g58
NtRp1902
(dp1903
g61
(dp1904
g69
I4
ssg70
g1898
sg63
(lp1905
S"set(['/home/arpita/courses/sem3/ssad/web2py/applications/admin/', '/home/arpita/courses/sem3/ssad/web2py/applications/project/', '/home/arpita/courses/sem3/ssad/web2py/applications/welcome/'])"
p1906
asbasbasbag56
(g72
g58
NtRp1907
(dp1908
g61
(dp1909
sg70
g1882
sg63
(lp1910
g56
(g77
g58
NtRp1911
(dp1912
g61
(dp1913
g81
g82
ssg70
g1907
sg63
(lp1914
g855
asbag56
(g77
g58
NtRp1915
(dp1916
g61
(dp1917
g88
g89
ssg70
g1907
sg63
(lp1918
S':'
asbag56
(g77
g58
NtRp1919
(dp1920
g61
(dp1921
sg70
g1907
sg63
(lp1922
g56
(g57
g58
NtRp1923
(dp1924
g61
(dp1925
g69
I4
ssg70
g1919
sg63
(lp1926
g868
asbasbasbag56
(g72
g58
NtRp1927
(dp1928
g61
(dp1929
sg70
g1882
sg63
(lp1930
g56
(g77
g58
NtRp1931
(dp1932
g61
(dp1933
g81
g82
ssg70
g1927
sg63
(lp1934
g877
asbag56
(g77
g58
NtRp1935
(dp1936
g61
(dp1937
g88
g89
ssg70
g1927
sg63
(lp1938
S':'
asbag56
(g77
g58
NtRp1939
(dp1940
g61
(dp1941
sg70
g1927
sg63
(lp1942
g56
(g57
g58
NtRp1943
(dp1944
g61
(dp1945
g69
I4
ssg70
g1939
sg63
(lp1946
g56
(g65
g58
NtRp1947
(dp1948
g61
(dp1949
g69
I3
ssg70
Nsg63
(lp1950
sbasbasbasbag56
(g72
g58
NtRp1951
(dp1952
g61
(dp1953
sg70
g1882
sg63
(lp1954
g56
(g77
g58
NtRp1955
(dp1956
g61
(dp1957
g81
g82
ssg70
g1951
sg63
(lp1958
g902
asbag56
(g77
g58
NtRp1959
(dp1960
g61
(dp1961
g88
g89
ssg70
g1951
sg63
(lp1962
S':'
asbag56
(g77
g58
NtRp1963
(dp1964
g61
(dp1965
sg70
g1951
sg63
(lp1966
g56
(g57
g58
NtRp1967
(dp1968
g61
(dp1969
g69
I4
ssg70
g1963
sg63
(lp1970
S"<Values at 0x99e03cc: {'verbose': False, 'ip': '127.0.0.1', 'shutdown_timeout': 5, 'taskbar': False, 'nocron': False, 'pid_filename': 'httpserver.pid', 'maxthreads': None, 'softcron': False, 'server_name': 'arpita-HP-630-Notebook-PC', 'bpython': False, 'nogui': False, 'port': 8000, 'extcron': False, 'debuglevel': 30, 'test': None, 'folder': '/home/arpita/courses/sem3/ssad/web2py', 'config': '', 'import_models': False, 'winservice': '', 'shell': None, 'run': '', 'log_filename': 'httpserver.log', 'args': [''], 'socket_timeout': 5, 'ssl_ca_certificate': None, 'scheduler': None, 'profiler_filename': None, 'ssl_private_key': '', 'password': 'arpita', 'request_queue_size': 5, 'ssl_certificate': '', 'cronjob': False, 'numthreads': None, 'quiet': False, 'interfaces': None, 'minthreads': None, 'timeout': 10, 'plain': False, 'nobanner': False}>"
p1971
asbasbasbag56
(g72
g58
NtRp1972
(dp1973
g61
(dp1974
sg70
g1882
sg63
(lp1975
g56
(g77
g58
NtRp1976
(dp1977
g61
(dp1978
g81
g82
ssg70
g1972
sg63
(lp1979
g924
asbag56
(g77
g58
NtRp1980
(dp1981
g61
(dp1982
g88
g89
ssg70
g1972
sg63
(lp1983
S':'
asbag56
(g77
g58
NtRp1984
(dp1985
g61
(dp1986
sg70
g1972
sg63
(lp1987
g56
(g57
g58
NtRp1988
(dp1989
g61
(dp1990
g69
I4
ssg70
g1984
sg63
(lp1991
S'set([])'
p1992
asbasbasbag56
(g72
g58
NtRp1993
(dp1994
g61
(dp1995
sg70
g1882
sg63
(lp1996
g56
(g77
g58
NtRp1997
(dp1998
g61
(dp1999
g81
g82
ssg70
g1993
sg63
(lp2000
g946
asbag56
(g77
g58
NtRp2001
(dp2002
g61
(dp2003
g88
g89
ssg70
g1993
sg63
(lp2004
S':'
asbag56
(g77
g58
NtRp2005
(dp2006
g61
(dp2007
sg70
g1993
sg63
(lp2008
g56
(g57
g58
NtRp2009
(dp2010
g61
(dp2011
g69
I4
ssg70
g2005
sg63
(lp2012
g99
asbasbasbag56
(g72
g58
NtRp2013
(dp2014
g61
(dp2015
sg70
g1882
sg63
(lp2016
g56
(g77
g58
NtRp2017
(dp2018
g61
(dp2019
g81
g82
ssg70
g2013
sg63
(lp2020
g967
asbag56
(g77
g58
NtRp2021
(dp2022
g61
(dp2023
g88
g89
ssg70
g2013
sg63
(lp2024
S':'
asbag56
(g77
g58
NtRp2025
(dp2026
g61
(dp2027
sg70
g2013
sg63
(lp2028
g56
(g57
g58
NtRp2029
(dp2030
g61
(dp2031
g69
I4
ssg70
g2025
sg63
(lp2032
g980
asbasbasbag56
(g72
g58
NtRp2033
(dp2034
g61
(dp2035
sg70
g1882
sg63
(lp2036
g56
(g77
g58
NtRp2037
(dp2038
g61
(dp2039
g81
g82
ssg70
g2033
sg63
(lp2040
g1187
asbag56
(g77
g58
NtRp2041
(dp2042
g61
(dp2043
g88
g89
ssg70
g2033
sg63
(lp2044
S':'
asbag56
(g77
g58
NtRp2045
(dp2046
g61
(dp2047
sg70
g2033
sg63
(lp2048
g56
(g57
g58
NtRp2049
(dp2050
g61
(dp2051
g69
I4
ssg70
g2045
sg63
(lp2052
g99
asbasbasbag56
(g72
g58
NtRp2053
(dp2054
g61
(dp2055
sg70
g1882
sg63
(lp2056
g56
(g77
g58
NtRp2057
(dp2058
g61
(dp2059
g81
g82
ssg70
g2053
sg63
(lp2060
g1208
asbag56
(g77
g58
NtRp2061
(dp2062
g61
(dp2063
g88
g89
ssg70
g2053
sg63
(lp2064
S':'
asbag56
(g77
g58
NtRp2065
(dp2066
g61
(dp2067
sg70
g2053
sg63
(lp2068
g56
(g57
g58
NtRp2069
(dp2070
g61
(dp2071
g69
I4
ssg70
g2065
sg63
(lp2072
g99
asbasbasbag56
(g72
g58
NtRp2073
(dp2074
g61
(dp2075
sg70
g1882
sg63
(lp2076
g56
(g77
g58
NtRp2077
(dp2078
g61
(dp2079
g81
g82
ssg70
g2073
sg63
(lp2080
g1446
asbag56
(g77
g58
NtRp2081
(dp2082
g61
(dp2083
g88
g89
ssg70
g2073
sg63
(lp2084
S':'
asbag56
(g77
g58
NtRp2085
(dp2086
g61
(dp2087
sg70
g2073
sg63
(lp2088
g56
(g57
g58
NtRp2089
(dp2090
g61
(dp2091
g69
I4
ssg70
g2085
sg63
(lp2092
g1459
asbasbasbag56
(g72
g58
NtRp2093
(dp2094
g61
(dp2095
sg70
g1882
sg63
(lp2096
g56
(g77
g58
NtRp2097
(dp2098
g61
(dp2099
g81
g82
ssg70
g2093
sg63
(lp2100
g1489
asbag56
(g77
g58
NtRp2101
(dp2102
g61
(dp2103
g88
g89
ssg70
g2093
sg63
(lp2104
S':'
asbag56
(g77
g58
NtRp2105
(dp2106
g61
(dp2107
sg70
g2093
sg63
(lp2108
g56
(g57
g58
NtRp2109
(dp2110
g61
(dp2111
g69
I4
ssg70
g2105
sg63
(lp2112
g56
(g65
g58
NtRp2113
(dp2114
g61
(dp2115
g69
I3
ssg70
Nsg63
(lp2116
g56
(g72
g58
NtRp2117
(dp2118
g61
(dp2119
sg70
g2113
sg63
(lp2120
g56
(g77
g58
NtRp2121
(dp2122
g61
(dp2123
sg70
g2117
sg63
(lp2124
g56
(g57
g58
NtRp2125
(dp2126
g61
(dp2127
g69
I3
ssg70
g2121
sg63
(lp2128
S'1'
asbasbasbag56
(g72
g58
NtRp2129
(dp2130
g61
(dp2131
sg70
g2113
sg63
(lp2132
g56
(g77
g58
NtRp2133
(dp2134
g61
(dp2135
sg70
g2129
sg63
(lp2136
g56
(g57
g58
NtRp2137
(dp2138
g61
(dp2139
g69
I3
ssg70
g2133
sg63
(lp2140
S'99'
p2141
asbasbasbag56
(g72
g58
NtRp2142
(dp2143
g61
(dp2144
sg70
g2113
sg63
(lp2145
g56
(g77
g58
NtRp2146
(dp2147
g61
(dp2148
sg70
g2142
sg63
(lp2149
g56
(g57
g58
NtRp2150
(dp2151
g61
(dp2152
g69
I3
ssg70
g2146
sg63
(lp2153
S'7'
asbasbasbag56
(g72
g58
NtRp2154
(dp2155
g61
(dp2156
sg70
g2113
sg63
(lp2157
g56
(g77
g58
NtRp2158
(dp2159
g61
(dp2160
sg70
g2154
sg63
(lp2161
g56
(g57
g58
NtRp2162
(dp2163
g61
(dp2164
g69
I3
ssg70
g2158
sg63
(lp2165
S'datetime.datetime(2012, 3, 4, 22, 12, 8)'
p2166
asbasbasbag56
(g72
g58
NtRp2167
(dp2168
g61
(dp2169
sg70
g2113
sg63
(lp2170
g56
(g77
g58
NtRp2171
(dp2172
g61
(dp2173
sg70
g2167
sg63
(lp2174
g56
(g57
g58
NtRp2175
(dp2176
g61
(dp2177
g69
I3
ssg70
g2171
sg63
(lp2178
g1568
asbasbasbasbasbasbasbasbasbasbasbag56
(g72
g58
NtRp2179
(dp2180
g61
(dp2181
sg70
g66
sg63
(lp2182
g56
(g77
g58
NtRp2183
(dp2184
g61
(dp2185
g81
g82
ssg70
g2179
sg63
(lp2186
S'is_https'
p2187
asbag56
(g77
g58
NtRp2188
(dp2189
g61
(dp2190
g88
g89
ssg70
g2179
sg63
(lp2191
S':'
asbag56
(g77
g58
NtRp2192
(dp2193
g61
(dp2194
sg70
g2179
sg63
(lp2195
g56
(g57
g58
NtRp2196
(dp2197
g61
(dp2198
g69
I5
ssg70
g2192
sg63
(lp2199
g99
asbasbasbag56
(g72
g58
NtRp2200
(dp2201
g61
(dp2202
sg70
g66
sg63
(lp2203
g56
(g77
g58
NtRp2204
(dp2205
g61
(dp2206
g81
g82
ssg70
g2200
sg63
(lp2207
S'is_local'
p2208
asbag56
(g77
g58
NtRp2209
(dp2210
g61
(dp2211
g88
g89
ssg70
g2200
sg63
(lp2212
S':'
asbag56
(g77
g58
NtRp2213
(dp2214
g61
(dp2215
sg70
g2200
sg63
(lp2216
g56
(g57
g58
NtRp2217
(dp2218
g61
(dp2219
g69
I5
ssg70
g2213
sg63
(lp2220
g1677
asbasbasbag56
(g72
g58
NtRp2221
(dp2222
g61
(dp2223
sg70
g66
sg63
(lp2224
g56
(g77
g58
NtRp2225
(dp2226
g61
(dp2227
g81
g82
ssg70
g2221
sg63
(lp2228
S'is_restful'
p2229
asbag56
(g77
g58
NtRp2230
(dp2231
g61
(dp2232
g88
g89
ssg70
g2221
sg63
(lp2233
S':'
asbag56
(g77
g58
NtRp2234
(dp2235
g61
(dp2236
sg70
g2221
sg63
(lp2237
g56
(g57
g58
NtRp2238
(dp2239
g61
(dp2240
g69
I5
ssg70
g2234
sg63
(lp2241
g99
asbasbasbag56
(g72
g58
NtRp2242
(dp2243
g61
(dp2244
sg70
g66
sg63
(lp2245
g56
(g77
g58
NtRp2246
(dp2247
g61
(dp2248
g81
g82
ssg70
g2242
sg63
(lp2249
S'now'
p2250
asbag56
(g77
g58
NtRp2251
(dp2252
g61
(dp2253
g88
g89
ssg70
g2242
sg63
(lp2254
S':'
asbag56
(g77
g58
NtRp2255
(dp2256
g61
(dp2257
sg70
g2242
sg63
(lp2258
g56
(g57
g58
NtRp2259
(dp2260
g61
(dp2261
g69
I5
ssg70
g2255
sg63
(lp2262
S'datetime.datetime(2012, 11, 8, 4, 53, 55, 525728)'
p2263
asbasbasbag56
(g72
g58
NtRp2264
(dp2265
g61
(dp2266
sg70
g66
sg63
(lp2267
g56
(g77
g58
NtRp2268
(dp2269
g61
(dp2270
g81
g82
ssg70
g2264
sg63
(lp2271
S'post_vars'
p2272
asbag56
(g77
g58
NtRp2273
(dp2274
g61
(dp2275
g88
g89
ssg70
g2264
sg63
(lp2276
S':'
asbag56
(g77
g58
NtRp2277
(dp2278
g61
(dp2279
sg70
g2264
sg63
(lp2280
g56
(g57
g58
NtRp2281
(dp2282
g61
(dp2283
g69
I5
ssg70
g2277
sg63
(lp2284
g56
(g65
g58
NtRp2285
(dp2286
g61
(dp2287
g69
I4
ssg70
Nsg63
(lp2288
sbasbasbasbag56
(g72
g58
NtRp2289
(dp2290
g61
(dp2291
sg70
g66
sg63
(lp2292
g56
(g77
g58
NtRp2293
(dp2294
g61
(dp2295
g81
g82
ssg70
g2289
sg63
(lp2296
S'url'
p2297
asbag56
(g77
g58
NtRp2298
(dp2299
g61
(dp2300
g88
g89
ssg70
g2289
sg63
(lp2301
S':'
asbag56
(g77
g58
NtRp2302
(dp2303
g61
(dp2304
sg70
g2289
sg63
(lp2305
g56
(g57
g58
NtRp2306
(dp2307
g61
(dp2308
g69
I5
ssg70
g2302
sg63
(lp2309
S'/project/default/kruskal'
p2310
asbasbasbag56
(g72
g58
NtRp2311
(dp2312
g61
(dp2313
sg70
g66
sg63
(lp2314
g56
(g77
g58
NtRp2315
(dp2316
g61
(dp2317
g81
g82
ssg70
g2311
sg63
(lp2318
S'utcnow'
p2319
asbag56
(g77
g58
NtRp2320
(dp2321
g61
(dp2322
g88
g89
ssg70
g2311
sg63
(lp2323
S':'
asbag56
(g77
g58
NtRp2324
(dp2325
g61
(dp2326
sg70
g2311
sg63
(lp2327
g56
(g57
g58
NtRp2328
(dp2329
g61
(dp2330
g69
I5
ssg70
g2324
sg63
(lp2331
S'datetime.datetime(2012, 11, 7, 23, 23, 55, 525803)'
p2332
asbasbasbag56
(g72
g58
NtRp2333
(dp2334
g61
(dp2335
sg70
g66
sg63
(lp2336
g56
(g77
g58
NtRp2337
(dp2338
g61
(dp2339
g81
g82
ssg70
g2333
sg63
(lp2340
S'uuid'
p2341
asbag56
(g77
g58
NtRp2342
(dp2343
g61
(dp2344
g88
g89
ssg70
g2333
sg63
(lp2345
S':'
asbag56
(g77
g58
NtRp2346
(dp2347
g61
(dp2348
sg70
g2333
sg63
(lp2349
g56
(g57
g58
NtRp2350
(dp2351
g61
(dp2352
g69
I5
ssg70
g2346
sg63
(lp2353
S'project/127.0.0.1.2012-11-08.04-53-55.2a334a13-8a0a-4717-a733-8050c69b5be4'
p2354
asbasbasbag56
(g72
g58
NtRp2355
(dp2356
g61
(dp2357
sg70
g66
sg63
(lp2358
g56
(g77
g58
NtRp2359
(dp2360
g61
(dp2361
g81
g82
ssg70
g2355
sg63
(lp2362
S'vars'
p2363
asbag56
(g77
g58
NtRp2364
(dp2365
g61
(dp2366
g88
g89
ssg70
g2355
sg63
(lp2367
S':'
asbag56
(g77
g58
NtRp2368
(dp2369
g61
(dp2370
sg70
g2355
sg63
(lp2371
g56
(g57
g58
NtRp2372
(dp2373
g61
(dp2374
g69
I5
ssg70
g2368
sg63
(lp2375
g56
(g65
g58
NtRp2376
(dp2377
g61
(dp2378
g69
I4
ssg70
Nsg63
(lp2379
sbasbasbasbag56
(g72
g58
NtRp2380
(dp2381
g61
(dp2382
sg70
g66
sg63
(lp2383
g56
(g77
g58
NtRp2384
(dp2385
g61
(dp2386
g81
g82
ssg70
g2380
sg63
(lp2387
S'wsgi'
p2388
asbag56
(g77
g58
NtRp2389
(dp2390
g61
(dp2391
g88
g89
ssg70
g2380
sg63
(lp2392
S':'
asbag56
(g77
g58
NtRp2393
(dp2394
g61
(dp2395
sg70
g2380
sg63
(lp2396
g56
(g57
g58
NtRp2397
(dp2398
g61
(dp2399
g69
I5
ssg70
g2393
sg63
(lp2400
g56
(g65
g58
NtRp2401
(dp2402
g61
(dp2403
g69
I4
ssg70
Nsg63
(lp2404
g56
(g72
g58
NtRp2405
(dp2406
g61
(dp2407
sg70
g2401
sg63
(lp2408
g56
(g77
g58
NtRp2409
(dp2410
g61
(dp2411
g81
g82
ssg70
g2405
sg63
(lp2412
S'environ'
p2413
asbag56
(g77
g58
NtRp2414
(dp2415
g61
(dp2416
g88
g89
ssg70
g2405
sg63
(lp2417
S':'
asbag56
(g77
g58
NtRp2418
(dp2419
g61
(dp2420
sg70
g2405
sg63
(lp2421
g56
(g57
g58
NtRp2422
(dp2423
g61
(dp2424
g69
I4
ssg70
g2418
sg63
(lp2425
g56
(g65
g58
NtRp2426
(dp2427
g61
(dp2428
g69
I3
ssg70
Nsg63
(lp2429
g56
(g72
g58
NtRp2430
(dp2431
g61
(dp2432
sg70
g2426
sg63
(lp2433
g56
(g77
g58
NtRp2434
(dp2435
g61
(dp2436
g81
g82
ssg70
g2430
sg63
(lp2437
S'HTTP_ACCEPT'
p2438
asbag56
(g77
g58
NtRp2439
(dp2440
g61
(dp2441
g88
g89
ssg70
g2430
sg63
(lp2442
S':'
asbag56
(g77
g58
NtRp2443
(dp2444
g61
(dp2445
sg70
g2430
sg63
(lp2446
g56
(g57
g58
NtRp2447
(dp2448
g61
(dp2449
g69
I3
ssg70
g2443
sg63
(lp2450
g1002
asbasbasbag56
(g72
g58
NtRp2451
(dp2452
g61
(dp2453
sg70
g2426
sg63
(lp2454
g56
(g77
g58
NtRp2455
(dp2456
g61
(dp2457
g81
g82
ssg70
g2451
sg63
(lp2458
S'HTTP_ACCEPT_CHARSET'
p2459
asbag56
(g77
g58
NtRp2460
(dp2461
g61
(dp2462
g88
g89
ssg70
g2451
sg63
(lp2463
S':'
asbag56
(g77
g58
NtRp2464
(dp2465
g61
(dp2466
sg70
g2451
sg63
(lp2467
g56
(g57
g58
NtRp2468
(dp2469
g61
(dp2470
g69
I3
ssg70
g2464
sg63
(lp2471
g1024
asbasbasbag56
(g72
g58
NtRp2472
(dp2473
g61
(dp2474
sg70
g2426
sg63
(lp2475
g56
(g77
g58
NtRp2476
(dp2477
g61
(dp2478
g81
g82
ssg70
g2472
sg63
(lp2479
S'HTTP_ACCEPT_ENCODING'
p2480
asbag56
(g77
g58
NtRp2481
(dp2482
g61
(dp2483
g88
g89
ssg70
g2472
sg63
(lp2484
S':'
asbag56
(g77
g58
NtRp2485
(dp2486
g61
(dp2487
sg70
g2472
sg63
(lp2488
g56
(g57
g58
NtRp2489
(dp2490
g61
(dp2491
g69
I3
ssg70
g2485
sg63
(lp2492
g1046
asbasbasbag56
(g72
g58
NtRp2493
(dp2494
g61
(dp2495
sg70
g2426
sg63
(lp2496
g56
(g77
g58
NtRp2497
(dp2498
g61
(dp2499
g81
g82
ssg70
g2493
sg63
(lp2500
S'HTTP_ACCEPT_LANGUAGE'
p2501
asbag56
(g77
g58
NtRp2502
(dp2503
g61
(dp2504
g88
g89
ssg70
g2493
sg63
(lp2505
S':'
asbag56
(g77
g58
NtRp2506
(dp2507
g61
(dp2508
sg70
g2493
sg63
(lp2509
g56
(g57
g58
NtRp2510
(dp2511
g61
(dp2512
g69
I3
ssg70
g2506
sg63
(lp2513
g1068
asbasbasbag56
(g72
g58
NtRp2514
(dp2515
g61
(dp2516
sg70
g2426
sg63
(lp2517
g56
(g77
g58
NtRp2518
(dp2519
g61
(dp2520
g81
g82
ssg70
g2514
sg63
(lp2521
S'HTTP_CONNECTION'
p2522
asbag56
(g77
g58
NtRp2523
(dp2524
g61
(dp2525
g88
g89
ssg70
g2514
sg63
(lp2526
S':'
asbag56
(g77
g58
NtRp2527
(dp2528
g61
(dp2529
sg70
g2514
sg63
(lp2530
g56
(g57
g58
NtRp2531
(dp2532
g61
(dp2533
g69
I3
ssg70
g2527
sg63
(lp2534
g1090
asbasbasbag56
(g72
g58
NtRp2535
(dp2536
g61
(dp2537
sg70
g2426
sg63
(lp2538
g56
(g77
g58
NtRp2539
(dp2540
g61
(dp2541
g81
g82
ssg70
g2535
sg63
(lp2542
S'HTTP_COOKIE'
p2543
asbag56
(g77
g58
NtRp2544
(dp2545
g61
(dp2546
g88
g89
ssg70
g2535
sg63
(lp2547
S':'
asbag56
(g77
g58
NtRp2548
(dp2549
g61
(dp2550
sg70
g2535
sg63
(lp2551
g56
(g57
g58
NtRp2552
(dp2553
g61
(dp2554
g69
I3
ssg70
g2548
sg63
(lp2555
g1112
asbasbasbag56
(g72
g58
NtRp2556
(dp2557
g61
(dp2558
sg70
g2426
sg63
(lp2559
g56
(g77
g58
NtRp2560
(dp2561
g61
(dp2562
g81
g82
ssg70
g2556
sg63
(lp2563
S'HTTP_HOST'
p2564
asbag56
(g77
g58
NtRp2565
(dp2566
g61
(dp2567
g88
g89
ssg70
g2556
sg63
(lp2568
S':'
asbag56
(g77
g58
NtRp2569
(dp2570
g61
(dp2571
sg70
g2556
sg63
(lp2572
g56
(g57
g58
NtRp2573
(dp2574
g61
(dp2575
g69
I3
ssg70
g2569
sg63
(lp2576
g1134
asbasbasbag56
(g72
g58
NtRp2577
(dp2578
g61
(dp2579
sg70
g2426
sg63
(lp2580
g56
(g77
g58
NtRp2581
(dp2582
g61
(dp2583
g81
g82
ssg70
g2577
sg63
(lp2584
S'HTTP_REFERER'
p2585
asbag56
(g77
g58
NtRp2586
(dp2587
g61
(dp2588
g88
g89
ssg70
g2577
sg63
(lp2589
S':'
asbag56
(g77
g58
NtRp2590
(dp2591
g61
(dp2592
sg70
g2577
sg63
(lp2593
g56
(g57
g58
NtRp2594
(dp2595
g61
(dp2596
g69
I3
ssg70
g2590
sg63
(lp2597
g1156
asbasbasbag56
(g72
g58
NtRp2598
(dp2599
g61
(dp2600
sg70
g2426
sg63
(lp2601
g56
(g77
g58
NtRp2602
(dp2603
g61
(dp2604
g81
g82
ssg70
g2598
sg63
(lp2605
S'HTTP_USER_AGENT'
p2606
asbag56
(g77
g58
NtRp2607
(dp2608
g61
(dp2609
g88
g89
ssg70
g2598
sg63
(lp2610
S':'
asbag56
(g77
g58
NtRp2611
(dp2612
g61
(dp2613
sg70
g2598
sg63
(lp2614
g56
(g57
g58
NtRp2615
(dp2616
g61
(dp2617
g69
I3
ssg70
g2611
sg63
(lp2618
g1178
asbasbasbag56
(g72
g58
NtRp2619
(dp2620
g61
(dp2621
sg70
g2426
sg63
(lp2622
g56
(g77
g58
NtRp2623
(dp2624
g61
(dp2625
g81
g82
ssg70
g2619
sg63
(lp2626
S'PATH_INFO'
p2627
asbag56
(g77
g58
NtRp2628
(dp2629
g61
(dp2630
g88
g89
ssg70
g2619
sg63
(lp2631
S':'
asbag56
(g77
g58
NtRp2632
(dp2633
g61
(dp2634
sg70
g2619
sg63
(lp2635
g56
(g57
g58
NtRp2636
(dp2637
g61
(dp2638
g69
I3
ssg70
g2632
sg63
(lp2639
g1242
asbasbasbag56
(g72
g58
NtRp2640
(dp2641
g61
(dp2642
sg70
g2426
sg63
(lp2643
g56
(g77
g58
NtRp2644
(dp2645
g61
(dp2646
g81
g82
ssg70
g2640
sg63
(lp2647
S'QUERY_STRING'
p2648
asbag56
(g77
g58
NtRp2649
(dp2650
g61
(dp2651
g88
g89
ssg70
g2640
sg63
(lp2652
S':'
asbag56
(g77
g58
NtRp2653
(dp2654
g61
(dp2655
sg70
g2640
sg63
(lp2656
g56
(g57
g58
NtRp2657
(dp2658
g61
(dp2659
g69
I3
ssg70
g2653
sg63
(lp2660
S''
asbasbasbag56
(g72
g58
NtRp2661
(dp2662
g61
(dp2663
sg70
g2426
sg63
(lp2664
g56
(g77
g58
NtRp2665
(dp2666
g61
(dp2667
g81
g82
ssg70
g2661
sg63
(lp2668
S'REMOTE_ADDR'
p2669
asbag56
(g77
g58
NtRp2670
(dp2671
g61
(dp2672
g88
g89
ssg70
g2661
sg63
(lp2673
S':'
asbag56
(g77
g58
NtRp2674
(dp2675
g61
(dp2676
sg70
g2661
sg63
(lp2677
g56
(g57
g58
NtRp2678
(dp2679
g61
(dp2680
g69
I3
ssg70
g2674
sg63
(lp2681
g189
asbasbasbag56
(g72
g58
NtRp2682
(dp2683
g61
(dp2684
sg70
g2426
sg63
(lp2685
g56
(g77
g58
NtRp2686
(dp2687
g61
(dp2688
g81
g82
ssg70
g2682
sg63
(lp2689
S'REMOTE_PORT'
p2690
asbag56
(g77
g58
NtRp2691
(dp2692
g61
(dp2693
g88
g89
ssg70
g2682
sg63
(lp2694
S':'
asbag56
(g77
g58
NtRp2695
(dp2696
g61
(dp2697
sg70
g2682
sg63
(lp2698
g56
(g57
g58
NtRp2699
(dp2700
g61
(dp2701
g69
I3
ssg70
g2695
sg63
(lp2702
g1306
asbasbasbag56
(g72
g58
NtRp2703
(dp2704
g61
(dp2705
sg70
g2426
sg63
(lp2706
g56
(g77
g58
NtRp2707
(dp2708
g61
(dp2709
g81
g82
ssg70
g2703
sg63
(lp2710
S'REQUEST_METHOD'
p2711
asbag56
(g77
g58
NtRp2712
(dp2713
g61
(dp2714
g88
g89
ssg70
g2703
sg63
(lp2715
S':'
asbag56
(g77
g58
NtRp2716
(dp2717
g61
(dp2718
sg70
g2703
sg63
(lp2719
g56
(g57
g58
NtRp2720
(dp2721
g61
(dp2722
g69
I3
ssg70
g2716
sg63
(lp2723
g1328
asbasbasbag56
(g72
g58
NtRp2724
(dp2725
g61
(dp2726
sg70
g2426
sg63
(lp2727
g56
(g77
g58
NtRp2728
(dp2729
g61
(dp2730
g81
g82
ssg70
g2724
sg63
(lp2731
S'SCRIPT_NAME'
p2732
asbag56
(g77
g58
NtRp2733
(dp2734
g61
(dp2735
g88
g89
ssg70
g2724
sg63
(lp2736
S':'
asbag56
(g77
g58
NtRp2737
(dp2738
g61
(dp2739
sg70
g2724
sg63
(lp2740
g56
(g57
g58
NtRp2741
(dp2742
g61
(dp2743
g69
I3
ssg70
g2737
sg63
(lp2744
S''
asbasbasbag56
(g72
g58
NtRp2745
(dp2746
g61
(dp2747
sg70
g2426
sg63
(lp2748
g56
(g77
g58
NtRp2749
(dp2750
g61
(dp2751
g81
g82
ssg70
g2745
sg63
(lp2752
S'SERVER_NAME'
p2753
asbag56
(g77
g58
NtRp2754
(dp2755
g61
(dp2756
g88
g89
ssg70
g2745
sg63
(lp2757
S':'
asbag56
(g77
g58
NtRp2758
(dp2759
g61
(dp2760
sg70
g2745
sg63
(lp2761
g56
(g57
g58
NtRp2762
(dp2763
g61
(dp2764
g69
I3
ssg70
g2758
sg63
(lp2765
g1371
asbasbasbag56
(g72
g58
NtRp2766
(dp2767
g61
(dp2768
sg70
g2426
sg63
(lp2769
g56
(g77
g58
NtRp2770
(dp2771
g61
(dp2772
g81
g82
ssg70
g2766
sg63
(lp2773
S'SERVER_PORT'
p2774
asbag56
(g77
g58
NtRp2775
(dp2776
g61
(dp2777
g88
g89
ssg70
g2766
sg63
(lp2778
S':'
asbag56
(g77
g58
NtRp2779
(dp2780
g61
(dp2781
sg70
g2766
sg63
(lp2782
g56
(g57
g58
NtRp2783
(dp2784
g61
(dp2785
g69
I3
ssg70
g2779
sg63
(lp2786
g1393
asbasbasbag56
(g72
g58
NtRp2787
(dp2788
g61
(dp2789
sg70
g2426
sg63
(lp2790
g56
(g77
g58
NtRp2791
(dp2792
g61
(dp2793
g81
g82
ssg70
g2787
sg63
(lp2794
S'SERVER_PROTOCOL'
p2795
asbag56
(g77
g58
NtRp2796
(dp2797
g61
(dp2798
g88
g89
ssg70
g2787
sg63
(lp2799
S':'
asbag56
(g77
g58
NtRp2800
(dp2801
g61
(dp2802
sg70
g2787
sg63
(lp2803
g56
(g57
g58
NtRp2804
(dp2805
g61
(dp2806
g69
I3
ssg70
g2800
sg63
(lp2807
g1415
asbasbasbag56
(g72
g58
NtRp2808
(dp2809
g61
(dp2810
sg70
g2426
sg63
(lp2811
g56
(g77
g58
NtRp2812
(dp2813
g61
(dp2814
g81
g82
ssg70
g2808
sg63
(lp2815
S'SERVER_SOFTWARE'
p2816
asbag56
(g77
g58
NtRp2817
(dp2818
g61
(dp2819
g88
g89
ssg70
g2808
sg63
(lp2820
S':'
asbag56
(g77
g58
NtRp2821
(dp2822
g61
(dp2823
sg70
g2808
sg63
(lp2824
g56
(g57
g58
NtRp2825
(dp2826
g61
(dp2827
g69
I3
ssg70
g2821
sg63
(lp2828
g1437
asbasbasbag56
(g72
g58
NtRp2829
(dp2830
g61
(dp2831
sg70
g2426
sg63
(lp2832
g56
(g77
g58
NtRp2833
(dp2834
g61
(dp2835
g81
g82
ssg70
g2829
sg63
(lp2836
S'wsgi.errors'
p2837
asbag56
(g77
g58
NtRp2838
(dp2839
g61
(dp2840
g88
g89
ssg70
g2829
sg63
(lp2841
S':'
asbag56
(g77
g58
NtRp2842
(dp2843
g61
(dp2844
sg70
g2829
sg63
(lp2845
g56
(g57
g58
NtRp2846
(dp2847
g61
(dp2848
g69
I3
ssg70
g2842
sg63
(lp2849
S"<open file '<stderr>', mode 'w' at 0xb730f0d0>"
p2850
asbasbasbag56
(g72
g58
NtRp2851
(dp2852
g61
(dp2853
sg70
g2426
sg63
(lp2854
g56
(g77
g58
NtRp2855
(dp2856
g61
(dp2857
g81
g82
ssg70
g2851
sg63
(lp2858
S'wsgi.file_wrapper'
p2859
asbag56
(g77
g58
NtRp2860
(dp2861
g61
(dp2862
g88
g89
ssg70
g2851
sg63
(lp2863
S':'
asbag56
(g77
g58
NtRp2864
(dp2865
g61
(dp2866
sg70
g2851
sg63
(lp2867
g56
(g57
g58
NtRp2868
(dp2869
g61
(dp2870
g69
I3
ssg70
g2864
sg63
(lp2871
S'<class wsgiref.util.FileWrapper at 0x9983f2c>'
p2872
asbasbasbag56
(g72
g58
NtRp2873
(dp2874
g61
(dp2875
sg70
g2426
sg63
(lp2876
g56
(g77
g58
NtRp2877
(dp2878
g61
(dp2879
g81
g82
ssg70
g2873
sg63
(lp2880
S'wsgi.input'
p2881
asbag56
(g77
g58
NtRp2882
(dp2883
g61
(dp2884
g88
g89
ssg70
g2873
sg63
(lp2885
S':'
asbag56
(g77
g58
NtRp2886
(dp2887
g61
(dp2888
sg70
g2873
sg63
(lp2889
g56
(g57
g58
NtRp2890
(dp2891
g61
(dp2892
g69
I3
ssg70
g2886
sg63
(lp2893
S'<cStringIO.StringO object at 0x9c86500>'
p2894
asbasbasbag56
(g72
g58
NtRp2895
(dp2896
g61
(dp2897
sg70
g2426
sg63
(lp2898
g56
(g77
g58
NtRp2899
(dp2900
g61
(dp2901
g81
g82
ssg70
g2895
sg63
(lp2902
S'wsgi.multiprocess'
p2903
asbag56
(g77
g58
NtRp2904
(dp2905
g61
(dp2906
g88
g89
ssg70
g2895
sg63
(lp2907
S':'
asbag56
(g77
g58
NtRp2908
(dp2909
g61
(dp2910
sg70
g2895
sg63
(lp2911
g56
(g57
g58
NtRp2912
(dp2913
g61
(dp2914
g69
I3
ssg70
g2908
sg63
(lp2915
g99
asbasbasbag56
(g72
g58
NtRp2916
(dp2917
g61
(dp2918
sg70
g2426
sg63
(lp2919
g56
(g77
g58
NtRp2920
(dp2921
g61
(dp2922
g81
g82
ssg70
g2916
sg63
(lp2923
S'wsgi.multithread'
p2924
asbag56
(g77
g58
NtRp2925
(dp2926
g61
(dp2927
g88
g89
ssg70
g2916
sg63
(lp2928
S':'
asbag56
(g77
g58
NtRp2929
(dp2930
g61
(dp2931
sg70
g2916
sg63
(lp2932
g56
(g57
g58
NtRp2933
(dp2934
g61
(dp2935
g69
I3
ssg70
g2929
sg63
(lp2936
g1677
asbasbasbag56
(g72
g58
NtRp2937
(dp2938
g61
(dp2939
sg70
g2426
sg63
(lp2940
g56
(g77
g58
NtRp2941
(dp2942
g61
(dp2943
g81
g82
ssg70
g2937
sg63
(lp2944
S'wsgi.run_once'
p2945
asbag56
(g77
g58
NtRp2946
(dp2947
g61
(dp2948
g88
g89
ssg70
g2937
sg63
(lp2949
S':'
asbag56
(g77
g58
NtRp2950
(dp2951
g61
(dp2952
sg70
g2937
sg63
(lp2953
g56
(g57
g58
NtRp2954
(dp2955
g61
(dp2956
g69
I3
ssg70
g2950
sg63
(lp2957
g99
asbasbasbag56
(g72
g58
NtRp2958
(dp2959
g61
(dp2960
sg70
g2426
sg63
(lp2961
g56
(g77
g58
NtRp2962
(dp2963
g61
(dp2964
g81
g82
ssg70
g2958
sg63
(lp2965
S'wsgi.url_scheme'
p2966
asbag56
(g77
g58
NtRp2967
(dp2968
g61
(dp2969
g88
g89
ssg70
g2958
sg63
(lp2970
S':'
asbag56
(g77
g58
NtRp2971
(dp2972
g61
(dp2973
sg70
g2958
sg63
(lp2974
g56
(g57
g58
NtRp2975
(dp2976
g61
(dp2977
g69
I3
ssg70
g2971
sg63
(lp2978
g1720
asbasbasbag56
(g72
g58
NtRp2979
(dp2980
g61
(dp2981
sg70
g2426
sg63
(lp2982
g56
(g77
g58
NtRp2983
(dp2984
g61
(dp2985
g81
g82
ssg70
g2979
sg63
(lp2986
S'wsgi.version'
p2987
asbag56
(g77
g58
NtRp2988
(dp2989
g61
(dp2990
g88
g89
ssg70
g2979
sg63
(lp2991
S':'
asbag56
(g77
g58
NtRp2992
(dp2993
g61
(dp2994
sg70
g2979
sg63
(lp2995
g56
(g57
g58
NtRp2996
(dp2997
g61
(dp2998
g69
I3
ssg70
g2992
sg63
(lp2999
S'1'
asbasbasbasbasbasbasbasbasbasbasbasbasbsS'frames'
p3000
(lp3001
(dp3002
S'file'
p3003
S'/home/arpita/courses/sem3/ssad/web2py/gluon/restricted.py'
p3004
sS'dump'
p3005
(dp3006
S'environment'
p3007
S"{'A': <class 'gluon.html.A'>, 'Auth': <class 'gluon.tools.Auth'>, 'B': <class 'gluon.html.B'>, 'BEAUTIFY': <class 'gluon.html.BEAUTIFY'>, 'BODY': <class 'gluon.html.BODY'>, 'BR': <class 'gluon.html.BR'>, 'BUTTON': <class 'gluon.html.BUTTON'>, 'CAT': <class 'gluon.html.CAT'>, 'CENTER': <class 'gluon.html.CENTER'>, 'CLEANUP': <class 'gluon.validators.CLEANUP'>, ...}"
p3008
sS'ccode'
p3009
S'<code object <module> at 0xa08d338, file "/home/...cations/project/controllers/default.py", line 11>'
p3010
ssS'lnum'
p3011
I205
sS'lines'
p3012
(dp3013
I200
S'    try:'
p3014
sI201
S'        if type(code) == types.CodeType:'
p3015
sI202
S'            ccode = code'
p3016
sI203
S'        else:'
p3017
sI204
S'            ccode = compile2(code,layer)'
p3018
sI205
S'        exec ccode in environment'
p3019
sI206
S'    except HTTP:'
p3020
sI207
S'        raise'
p3021
sI208
S'    except RestrictedError:'
p3022
sI209
S'        # do not encapsulate (obfuscate) the original RestrictedError'
p3023
ssS'call'
p3024
S"(code='# -*- coding: utf-8 -*-\\n# this file is released ...[i],t)\\n\\nresponse._vars=response._caller(kruskal)\\n', environment={'A': <class 'gluon.html.A'>, 'Auth': <class 'gluon.tools.Auth'>, 'B': <class 'gluon.html.B'>, 'BEAUTIFY': <class 'gluon.html.BEAUTIFY'>, 'BODY': <class 'gluon.html.BODY'>, 'BR': <class 'gluon.html.BR'>, 'BUTTON': <class 'gluon.html.BUTTON'>, 'CAT': <class 'gluon.html.CAT'>, 'CENTER': <class 'gluon.html.CENTER'>, 'CLEANUP': <class 'gluon.validators.CLEANUP'>, ...}, layer='/home/arpita/courses/sem3/ssad/web2py/applications/project/controllers/default.py')"
p3025
sS'func'
p3026
S'restricted'
p3027
sa(dp3028
g3003
S'/home/arpita/courses/sem3/ssad/web2py/applications/project/controllers/default.py'
p3029
sg3005
(dp3030
sg3011
I181
sg3012
(dp3031
I170
S'         #file.write("}")'
p3032
sI171
S'    return dict(p=p,q=q)'
p3033
sI172
S''
sI173
S'def fil(p,q,k,t):'
p3034
sI174
S'  for i in xrange(t+1):'
p3035
sI175
S'       if p[i]==k:'
p3036
sI176
S'           file.write("parent %d " %p[i])'
p3037
sI177
S'           vis[i]=1'
p3038
sI178
S'           file.write("children %d\\n" %q[i])'
p3039
sI179
S'           fil(p,q,q[i],t)'
p3040
ssg3024
S'()'
p3041
sg3026
S'<module>'
p3042
sa(dp3043
g3003
S'/home/arpita/courses/sem3/ssad/web2py/gluon/globals.py'
p3044
sg3005
(dp3045
S'self'
p3046
S'undefined'
p3047
sS'f'
S'<function kruskal>'
p3048
ssg3011
I173
sg3012
(dp3049
I168
S'        self.menu = []             # used by the default view layout'
p3050
sI169
S'        self.files = []            # used by web2py_ajax.html'
p3051
sI170
S'        self.generic_patterns = [] # patterns to allow generic views'
p3052
sI171
S"        self.delimiters = ('{{','}}')"
p3053
sI172
S'        self._vars = None'
p3054
sI173
S'        self._caller = lambda f: f()'
p3055
sI174
S'        self._view_environment = None'
p3056
sI175
S'        self._custom_commit = None'
p3057
sI176
S'        self._custom_rollback = None'
p3058
sI177
S''
ssg3024
S'(f=<function kruskal>)'
p3059
sg3026
S'<lambda>'
p3060
sa(dp3061
g3003
S'/home/arpita/courses/sem3/ssad/web2py/applications/project/controllers/default.py'
p3062
sg3005
(dp3063
S'i'
S'7'
sS'j'
S'8'
sS'global q'
p3064
S'{0: 2, 1: 3, 2: 4, 3: 8, 4: 6, 5: 9, 6: 1, 7: 5}'
p3065
sS'global p'
p3066
S'{0: 1, 1: 1, 2: 1, 3: 1, 4: 2, 5: 4, 6: 5, 7: 7}'
p3067
ssg3011
I141
sg3012
(dp3068
I136
S'                           k=k+1'
p3069
sI137
S'    v=[0]*k'
p3070
sI138
S'    for i in xrange(k+1):'
p3071
sI139
S'       flag=0'
p3072
sI140
S'       for j in xrange(k+1):'
p3073
sI141
S'          if p[i]==q[j]:'
p3074
sI142
S'             flag=1'
p3075
sI143
S'             break'
p3076
sI144
S'       if flag==0:'
p3077
sI145
S'          break'
p3078
ssg3024
S'()'
p3079
sg3026
S'kruskal'
p3080
sasS'pyver'
p3081
S'Python 2.7.2+: /usr/bin/python'
p3082
sS'session'
p3083
g56
(g57
g58
NtRp3084
(dp3085
g61
(dp3086
sg63
(lp3087
g56
(g65
g58
NtRp3088
(dp3089
g61
(dp3090
g69
I5
ssg70
Nsg63
(lp3091
g56
(g72
g58
NtRp3092
(dp3093
g61
(dp3094
sg70
g3088
sg63
(lp3095
g56
(g77
g58
NtRp3096
(dp3097
g61
(dp3098
g81
g82
ssg70
g3092
sg63
(lp3099
S'auth'
p3100
asbag56
(g77
g58
NtRp3101
(dp3102
g61
(dp3103
g88
g89
ssg70
g3092
sg63
(lp3104
S':'
asbag56
(g77
g58
NtRp3105
(dp3106
g61
(dp3107
sg70
g3092
sg63
(lp3108
g56
(g57
g58
NtRp3109
(dp3110
g61
(dp3111
g69
I5
ssg70
g3105
sg63
(lp3112
g56
(g65
g58
NtRp3113
(dp3114
g61
(dp3115
g69
I4
ssg70
Nsg63
(lp3116
g56
(g72
g58
NtRp3117
(dp3118
g61
(dp3119
sg70
g3113
sg63
(lp3120
g56
(g77
g58
NtRp3121
(dp3122
g61
(dp3123
g81
g82
ssg70
g3117
sg63
(lp3124
S'expiration'
p3125
asbag56
(g77
g58
NtRp3126
(dp3127
g61
(dp3128
g88
g89
ssg70
g3117
sg63
(lp3129
S':'
asbag56
(g77
g58
NtRp3130
(dp3131
g61
(dp3132
sg70
g3117
sg63
(lp3133
g56
(g57
g58
NtRp3134
(dp3135
g61
(dp3136
g69
I4
ssg70
g3130
sg63
(lp3137
S'3600'
p3138
asbasbasbag56
(g72
g58
NtRp3139
(dp3140
g61
(dp3141
sg70
g3113
sg63
(lp3142
g56
(g77
g58
NtRp3143
(dp3144
g61
(dp3145
g81
g82
ssg70
g3139
sg63
(lp3146
S'hmac_key'
p3147
asbag56
(g77
g58
NtRp3148
(dp3149
g61
(dp3150
g88
g89
ssg70
g3139
sg63
(lp3151
S':'
asbag56
(g77
g58
NtRp3152
(dp3153
g61
(dp3154
sg70
g3139
sg63
(lp3155
g56
(g57
g58
NtRp3156
(dp3157
g61
(dp3158
g69
I4
ssg70
g3152
sg63
(lp3159
S'5f030173-8c60-4af3-8bec-ba5ecba0dbde'
p3160
asbasbasbag56
(g72
g58
NtRp3161
(dp3162
g61
(dp3163
sg70
g3113
sg63
(lp3164
g56
(g77
g58
NtRp3165
(dp3166
g61
(dp3167
g81
g82
ssg70
g3161
sg63
(lp3168
S'last_visit'
p3169
asbag56
(g77
g58
NtRp3170
(dp3171
g61
(dp3172
g88
g89
ssg70
g3161
sg63
(lp3173
S':'
asbag56
(g77
g58
NtRp3174
(dp3175
g61
(dp3176
sg70
g3161
sg63
(lp3177
g56
(g57
g58
NtRp3178
(dp3179
g61
(dp3180
g69
I4
ssg70
g3174
sg63
(lp3181
S'datetime.datetime(2012, 11, 8, 4, 53, 50, 390726)'
p3182
asbasbasbag56
(g72
g58
NtRp3183
(dp3184
g61
(dp3185
sg70
g3113
sg63
(lp3186
g56
(g77
g58
NtRp3187
(dp3188
g61
(dp3189
g81
g82
ssg70
g3183
sg63
(lp3190
S'remember'
p3191
asbag56
(g77
g58
NtRp3192
(dp3193
g61
(dp3194
g88
g89
ssg70
g3183
sg63
(lp3195
S':'
asbag56
(g77
g58
NtRp3196
(dp3197
g61
(dp3198
sg70
g3183
sg63
(lp3199
g56
(g57
g58
NtRp3200
(dp3201
g61
(dp3202
g69
I4
ssg70
g3196
sg63
(lp3203
g99
asbasbasbag56
(g72
g58
NtRp3204
(dp3205
g61
(dp3206
sg70
g3113
sg63
(lp3207
g56
(g77
g58
NtRp3208
(dp3209
g61
(dp3210
g81
g82
ssg70
g3204
sg63
(lp3211
S'user'
p3212
asbag56
(g77
g58
NtRp3213
(dp3214
g61
(dp3215
g88
g89
ssg70
g3204
sg63
(lp3216
S':'
asbag56
(g77
g58
NtRp3217
(dp3218
g61
(dp3219
sg70
g3204
sg63
(lp3220
g56
(g57
g58
NtRp3221
(dp3222
g61
(dp3223
g69
I4
ssg70
g3217
sg63
(lp3224
g56
(g65
g58
NtRp3225
(dp3226
g61
(dp3227
g69
I3
ssg70
Nsg63
(lp3228
g56
(g72
g58
NtRp3229
(dp3230
g61
(dp3231
sg70
g3225
sg63
(lp3232
g56
(g77
g58
NtRp3233
(dp3234
g61
(dp3235
g81
g82
ssg70
g3229
sg63
(lp3236
S'email'
p3237
asbag56
(g77
g58
NtRp3238
(dp3239
g61
(dp3240
g88
g89
ssg70
g3229
sg63
(lp3241
S':'
asbag56
(g77
g58
NtRp3242
(dp3243
g61
(dp3244
sg70
g3229
sg63
(lp3245
g56
(g57
g58
NtRp3246
(dp3247
g61
(dp3248
g69
I3
ssg70
g3242
sg63
(lp3249
S'rammurthy@faculty.iiit.ac.in'
p3250
asbasbasbag56
(g72
g58
NtRp3251
(dp3252
g61
(dp3253
sg70
g3225
sg63
(lp3254
g56
(g77
g58
NtRp3255
(dp3256
g61
(dp3257
g81
g82
ssg70
g3251
sg63
(lp3258
S'first_name'
p3259
asbag56
(g77
g58
NtRp3260
(dp3261
g61
(dp3262
g88
g89
ssg70
g3251
sg63
(lp3263
S':'
asbag56
(g77
g58
NtRp3264
(dp3265
g61
(dp3266
sg70
g3251
sg63
(lp3267
g56
(g57
g58
NtRp3268
(dp3269
g61
(dp3270
g69
I3
ssg70
g3264
sg63
(lp3271
S'rammurthy'
p3272
asbasbasbag56
(g72
g58
NtRp3273
(dp3274
g61
(dp3275
sg70
g3225
sg63
(lp3276
g56
(g77
g58
NtRp3277
(dp3278
g61
(dp3279
g81
g82
ssg70
g3273
sg63
(lp3280
S'id'
p3281
asbag56
(g77
g58
NtRp3282
(dp3283
g61
(dp3284
g88
g89
ssg70
g3273
sg63
(lp3285
S':'
asbag56
(g77
g58
NtRp3286
(dp3287
g61
(dp3288
sg70
g3273
sg63
(lp3289
g56
(g57
g58
NtRp3290
(dp3291
g61
(dp3292
g69
I3
ssg70
g3286
sg63
(lp3293
S'1'
asbasbasbag56
(g72
g58
NtRp3294
(dp3295
g61
(dp3296
sg70
g3225
sg63
(lp3297
g56
(g77
g58
NtRp3298
(dp3299
g61
(dp3300
g81
g82
ssg70
g3294
sg63
(lp3301
S'last_name'
p3302
asbag56
(g77
g58
NtRp3303
(dp3304
g61
(dp3305
g88
g89
ssg70
g3294
sg63
(lp3306
S':'
asbag56
(g77
g58
NtRp3307
(dp3308
g61
(dp3309
sg70
g3294
sg63
(lp3310
g56
(g57
g58
NtRp3311
(dp3312
g61
(dp3313
g69
I3
ssg70
g3307
sg63
(lp3314
S'sir'
p3315
asbasbasbag56
(g72
g58
NtRp3316
(dp3317
g61
(dp3318
sg70
g3225
sg63
(lp3319
g56
(g77
g58
NtRp3320
(dp3321
g61
(dp3322
g81
g82
ssg70
g3316
sg63
(lp3323
S'password'
p3324
asbag56
(g77
g58
NtRp3325
(dp3326
g61
(dp3327
g88
g89
ssg70
g3316
sg63
(lp3328
S':'
asbag56
(g77
g58
NtRp3329
(dp3330
g61
(dp3331
sg70
g3316
sg63
(lp3332
g56
(g57
g58
NtRp3333
(dp3334
g61
(dp3335
g69
I3
ssg70
g3329
sg63
(lp3336
S'9da56e6636f0f89c2a2b7b54a400c423'
p3337
asbasbasbag56
(g72
g58
NtRp3338
(dp3339
g61
(dp3340
sg70
g3225
sg63
(lp3341
g56
(g77
g58
NtRp3342
(dp3343
g61
(dp3344
g81
g82
ssg70
g3338
sg63
(lp3345
S'registration_id'
p3346
asbag56
(g77
g58
NtRp3347
(dp3348
g61
(dp3349
g88
g89
ssg70
g3338
sg63
(lp3350
S':'
asbag56
(g77
g58
NtRp3351
(dp3352
g61
(dp3353
sg70
g3338
sg63
(lp3354
g56
(g57
g58
NtRp3355
(dp3356
g61
(dp3357
g69
I3
ssg70
g3351
sg63
(lp3358
S''
asbasbasbag56
(g72
g58
NtRp3359
(dp3360
g61
(dp3361
sg70
g3225
sg63
(lp3362
g56
(g77
g58
NtRp3363
(dp3364
g61
(dp3365
g81
g82
ssg70
g3359
sg63
(lp3366
S'registration_key'
p3367
asbag56
(g77
g58
NtRp3368
(dp3369
g61
(dp3370
g88
g89
ssg70
g3359
sg63
(lp3371
S':'
asbag56
(g77
g58
NtRp3372
(dp3373
g61
(dp3374
sg70
g3359
sg63
(lp3375
g56
(g57
g58
NtRp3376
(dp3377
g61
(dp3378
g69
I3
ssg70
g3372
sg63
(lp3379
S''
asbasbasbag56
(g72
g58
NtRp3380
(dp3381
g61
(dp3382
sg70
g3225
sg63
(lp3383
g56
(g77
g58
NtRp3384
(dp3385
g61
(dp3386
g81
g82
ssg70
g3380
sg63
(lp3387
S'reset_password_key'
p3388
asbag56
(g77
g58
NtRp3389
(dp3390
g61
(dp3391
g88
g89
ssg70
g3380
sg63
(lp3392
S':'
asbag56
(g77
g58
NtRp3393
(dp3394
g61
(dp3395
sg70
g3380
sg63
(lp3396
g56
(g57
g58
NtRp3397
(dp3398
g61
(dp3399
g69
I3
ssg70
g3393
sg63
(lp3400
S''
asbasbasbasbasbasbasbag56
(g72
g58
NtRp3401
(dp3402
g61
(dp3403
sg70
g3113
sg63
(lp3404
g56
(g77
g58
NtRp3405
(dp3406
g61
(dp3407
g81
g82
ssg70
g3401
sg63
(lp3408
S'user_groups'
p3409
asbag56
(g77
g58
NtRp3410
(dp3411
g61
(dp3412
g88
g89
ssg70
g3401
sg63
(lp3413
S':'
asbag56
(g77
g58
NtRp3414
(dp3415
g61
(dp3416
sg70
g3401
sg63
(lp3417
g56
(g57
g58
NtRp3418
(dp3419
g61
(dp3420
g69
I4
ssg70
g3414
sg63
(lp3421
g56
(g65
g58
NtRp3422
(dp3423
g61
(dp3424
g69
I3
ssg70
Nsg63
(lp3425
g56
(g72
g58
NtRp3426
(dp3427
g61
(dp3428
sg70
g3422
sg63
(lp3429
g56
(g77
g58
NtRp3430
(dp3431
g61
(dp3432
g81
g82
ssg70
g3426
sg63
(lp3433
S'1'
asbag56
(g77
g58
NtRp3434
(dp3435
g61
(dp3436
g88
g89
ssg70
g3426
sg63
(lp3437
S':'
asbag56
(g77
g58
NtRp3438
(dp3439
g61
(dp3440
sg70
g3426
sg63
(lp3441
g56
(g57
g58
NtRp3442
(dp3443
g61
(dp3444
g69
I3
ssg70
g3438
sg63
(lp3445
S'user_1'
p3446
asbasbasbag56
(g72
g58
NtRp3447
(dp3448
g61
(dp3449
sg70
g3422
sg63
(lp3450
g56
(g77
g58
NtRp3451
(dp3452
g61
(dp3453
g81
g82
ssg70
g3447
sg63
(lp3454
S'2'
asbag56
(g77
g58
NtRp3455
(dp3456
g61
(dp3457
g88
g89
ssg70
g3447
sg63
(lp3458
S':'
asbag56
(g77
g58
NtRp3459
(dp3460
g61
(dp3461
sg70
g3447
sg63
(lp3462
g56
(g57
g58
NtRp3463
(dp3464
g61
(dp3465
g69
I3
ssg70
g3459
sg63
(lp3466
S'Administrator'
p3467
asbasbasbasbasbasbasbasbasbasbasbasbasbsS'etype'
p3468
S"<type 'exceptions.KeyError'>"
p3469
sS'date'
p3470
S'Thu Nov  8 04:53:55 2012'
p3471
sS'response'
p3472
g56
(g57
g58
NtRp3473
(dp3474
g61
(dp3475
sg63
(lp3476
g56
(g65
g58
NtRp3477
(dp3478
g61
(dp3479
g69
I5
ssg70
Nsg63
(lp3480
g56
(g72
g58
NtRp3481
(dp3482
g61
(dp3483
sg70
g3477
sg63
(lp3484
g56
(g77
g58
NtRp3485
(dp3486
g61
(dp3487
g81
g82
ssg70
g3481
sg63
(lp3488
g154
asbag56
(g77
g58
NtRp3489
(dp3490
g61
(dp3491
g88
g89
ssg70
g3481
sg63
(lp3492
S':'
asbag56
(g77
g58
NtRp3493
(dp3494
g61
(dp3495
sg70
g3481
sg63
(lp3496
g56
(g57
g58
NtRp3497
(dp3498
g61
(dp3499
g69
I5
ssg70
g3493
sg63
(lp3500
S'<cStringIO.StringO object at 0x9c86e00>'
p3501
asbasbasbag56
(g72
g58
NtRp3502
(dp3503
g61
(dp3504
sg70
g3477
sg63
(lp3505
g56
(g77
g58
NtRp3506
(dp3507
g61
(dp3508
g81
g82
ssg70
g3502
sg63
(lp3509
g220
asbag56
(g77
g58
NtRp3510
(dp3511
g61
(dp3512
g88
g89
ssg70
g3502
sg63
(lp3513
S':'
asbag56
(g77
g58
NtRp3514
(dp3515
g61
(dp3516
sg70
g3502
sg63
(lp3517
g56
(g57
g58
NtRp3518
(dp3519
g61
(dp3520
g69
I5
ssg70
g3514
sg63
(lp3521
g56
(g65
g58
NtRp3522
(dp3523
g61
(dp3524
g69
I4
ssg70
Nsg63
(lp3525
g56
(g72
g58
NtRp3526
(dp3527
g61
(dp3528
sg70
g3522
sg63
(lp3529
g56
(g77
g58
NtRp3530
(dp3531
g61
(dp3532
g81
g82
ssg70
g3526
sg63
(lp3533
S'session_id_project'
p3534
asbag56
(g77
g58
NtRp3535
(dp3536
g61
(dp3537
g88
g89
ssg70
g3526
sg63
(lp3538
S':'
asbag56
(g77
g58
NtRp3539
(dp3540
g61
(dp3541
sg70
g3526
sg63
(lp3542
g56
(g57
g58
NtRp3543
(dp3544
g61
(dp3545
g69
I4
ssg70
g3539
sg63
(lp3546
g56
(g65
g58
NtRp3547
(dp3548
g61
(dp3549
g69
I3
ssg70
Nsg63
(lp3550
g56
(g72
g58
NtRp3551
(dp3552
g61
(dp3553
sg70
g3547
sg63
(lp3554
g56
(g77
g58
NtRp3555
(dp3556
g61
(dp3557
g81
g82
ssg70
g3551
sg63
(lp3558
g270
asbag56
(g77
g58
NtRp3559
(dp3560
g61
(dp3561
g88
g89
ssg70
g3551
sg63
(lp3562
S':'
asbag56
(g77
g58
NtRp3563
(dp3564
g61
(dp3565
sg70
g3551
sg63
(lp3566
g56
(g57
g58
NtRp3567
(dp3568
g61
(dp3569
g69
I3
ssg70
g3563
sg63
(lp3570
S''
asbasbasbag56
(g72
g58
NtRp3571
(dp3572
g61
(dp3573
sg70
g3547
sg63
(lp3574
g56
(g77
g58
NtRp3575
(dp3576
g61
(dp3577
g81
g82
ssg70
g3571
sg63
(lp3578
g291
asbag56
(g77
g58
NtRp3579
(dp3580
g61
(dp3581
g88
g89
ssg70
g3571
sg63
(lp3582
S':'
asbag56
(g77
g58
NtRp3583
(dp3584
g61
(dp3585
sg70
g3571
sg63
(lp3586
g56
(g57
g58
NtRp3587
(dp3588
g61
(dp3589
g69
I3
ssg70
g3583
sg63
(lp3590
S''
asbasbasbag56
(g72
g58
NtRp3591
(dp3592
g61
(dp3593
sg70
g3547
sg63
(lp3594
g56
(g77
g58
NtRp3595
(dp3596
g61
(dp3597
g81
g82
ssg70
g3591
sg63
(lp3598
g312
asbag56
(g77
g58
NtRp3599
(dp3600
g61
(dp3601
g88
g89
ssg70
g3591
sg63
(lp3602
S':'
asbag56
(g77
g58
NtRp3603
(dp3604
g61
(dp3605
sg70
g3591
sg63
(lp3606
g56
(g57
g58
NtRp3607
(dp3608
g61
(dp3609
g69
I3
ssg70
g3603
sg63
(lp3610
S''
asbasbasbag56
(g72
g58
NtRp3611
(dp3612
g61
(dp3613
sg70
g3547
sg63
(lp3614
g56
(g77
g58
NtRp3615
(dp3616
g61
(dp3617
g81
g82
ssg70
g3611
sg63
(lp3618
g333
asbag56
(g77
g58
NtRp3619
(dp3620
g61
(dp3621
g88
g89
ssg70
g3611
sg63
(lp3622
S':'
asbag56
(g77
g58
NtRp3623
(dp3624
g61
(dp3625
sg70
g3611
sg63
(lp3626
g56
(g57
g58
NtRp3627
(dp3628
g61
(dp3629
g69
I3
ssg70
g3623
sg63
(lp3630
S''
asbasbasbag56
(g72
g58
NtRp3631
(dp3632
g61
(dp3633
sg70
g3547
sg63
(lp3634
g56
(g77
g58
NtRp3635
(dp3636
g61
(dp3637
g81
g82
ssg70
g3631
sg63
(lp3638
g354
asbag56
(g77
g58
NtRp3639
(dp3640
g61
(dp3641
g88
g89
ssg70
g3631
sg63
(lp3642
S':'
asbag56
(g77
g58
NtRp3643
(dp3644
g61
(dp3645
sg70
g3631
sg63
(lp3646
g56
(g57
g58
NtRp3647
(dp3648
g61
(dp3649
g69
I3
ssg70
g3643
sg63
(lp3650
S''
asbasbasbag56
(g72
g58
NtRp3651
(dp3652
g61
(dp3653
sg70
g3547
sg63
(lp3654
g56
(g77
g58
NtRp3655
(dp3656
g61
(dp3657
g81
g82
ssg70
g3651
sg63
(lp3658
g375
asbag56
(g77
g58
NtRp3659
(dp3660
g61
(dp3661
g88
g89
ssg70
g3651
sg63
(lp3662
S':'
asbag56
(g77
g58
NtRp3663
(dp3664
g61
(dp3665
sg70
g3651
sg63
(lp3666
g56
(g57
g58
NtRp3667
(dp3668
g61
(dp3669
g69
I3
ssg70
g3663
sg63
(lp3670
S'/'
asbasbasbag56
(g72
g58
NtRp3671
(dp3672
g61
(dp3673
sg70
g3547
sg63
(lp3674
g56
(g77
g58
NtRp3675
(dp3676
g61
(dp3677
g81
g82
ssg70
g3671
sg63
(lp3678
g396
asbag56
(g77
g58
NtRp3679
(dp3680
g61
(dp3681
g88
g89
ssg70
g3671
sg63
(lp3682
S':'
asbag56
(g77
g58
NtRp3683
(dp3684
g61
(dp3685
sg70
g3671
sg63
(lp3686
g56
(g57
g58
NtRp3687
(dp3688
g61
(dp3689
g69
I3
ssg70
g3683
sg63
(lp3690
S''
asbasbasbag56
(g72
g58
NtRp3691
(dp3692
g61
(dp3693
sg70
g3547
sg63
(lp3694
g56
(g77
g58
NtRp3695
(dp3696
g61
(dp3697
g81
g82
ssg70
g3691
sg63
(lp3698
g417
asbag56
(g77
g58
NtRp3699
(dp3700
g61
(dp3701
g88
g89
ssg70
g3691
sg63
(lp3702
S':'
asbag56
(g77
g58
NtRp3703
(dp3704
g61
(dp3705
sg70
g3691
sg63
(lp3706
g56
(g57
g58
NtRp3707
(dp3708
g61
(dp3709
g69
I3
ssg70
g3703
sg63
(lp3710
S''
asbasbasbasbasbasbasbasbasbasbasbag56
(g72
g58
NtRp3711
(dp3712
g61
(dp3713
sg70
g3477
sg63
(lp3714
g56
(g77
g58
NtRp3715
(dp3716
g61
(dp3717
g81
g82
ssg70
g3711
sg63
(lp3718
S'delimiters'
p3719
asbag56
(g77
g58
NtRp3720
(dp3721
g61
(dp3722
g88
g89
ssg70
g3711
sg63
(lp3723
S':'
asbag56
(g77
g58
NtRp3724
(dp3725
g61
(dp3726
sg70
g3711
sg63
(lp3727
g56
(g57
g58
NtRp3728
(dp3729
g61
(dp3730
g69
I5
ssg70
g3724
sg63
(lp3731
g56
(g65
g58
NtRp3732
(dp3733
g61
(dp3734
g69
I4
ssg70
Nsg63
(lp3735
g56
(g72
g58
NtRp3736
(dp3737
g61
(dp3738
sg70
g3732
sg63
(lp3739
g56
(g77
g58
NtRp3740
(dp3741
g61
(dp3742
sg70
g3736
sg63
(lp3743
g56
(g57
g58
NtRp3744
(dp3745
g61
(dp3746
g69
I4
ssg70
g3740
sg63
(lp3747
S'{{'
p3748
asbasbasbag56
(g72
g58
NtRp3749
(dp3750
g61
(dp3751
sg70
g3732
sg63
(lp3752
g56
(g77
g58
NtRp3753
(dp3754
g61
(dp3755
sg70
g3749
sg63
(lp3756
g56
(g57
g58
NtRp3757
(dp3758
g61
(dp3759
g69
I4
ssg70
g3753
sg63
(lp3760
S'}}'
p3761
asbasbasbasbasbasbasbag56
(g72
g58
NtRp3762
(dp3763
g61
(dp3764
sg70
g3477
sg63
(lp3765
g56
(g77
g58
NtRp3766
(dp3767
g61
(dp3768
g81
g82
ssg70
g3762
sg63
(lp3769
S'files'
p3770
asbag56
(g77
g58
NtRp3771
(dp3772
g61
(dp3773
g88
g89
ssg70
g3762
sg63
(lp3774
S':'
asbag56
(g77
g58
NtRp3775
(dp3776
g61
(dp3777
sg70
g3762
sg63
(lp3778
g56
(g57
g58
NtRp3779
(dp3780
g61
(dp3781
g69
I5
ssg70
g3775
sg63
(lp3782
g56
(g65
g58
NtRp3783
(dp3784
g61
(dp3785
g69
I4
ssg70
Nsg63
(lp3786
sbasbasbasbag56
(g72
g58
NtRp3787
(dp3788
g61
(dp3789
sg70
g3477
sg63
(lp3790
g56
(g77
g58
NtRp3791
(dp3792
g61
(dp3793
g81
g82
ssg70
g3787
sg63
(lp3794
S'flash'
p3795
asbag56
(g77
g58
NtRp3796
(dp3797
g61
(dp3798
g88
g89
ssg70
g3787
sg63
(lp3799
S':'
asbag56
(g77
g58
NtRp3800
(dp3801
g61
(dp3802
sg70
g3787
sg63
(lp3803
g56
(g57
g58
NtRp3804
(dp3805
g61
(dp3806
g69
I5
ssg70
g3800
sg63
(lp3807
S''
asbasbasbag56
(g72
g58
NtRp3808
(dp3809
g61
(dp3810
sg70
g3477
sg63
(lp3811
g56
(g77
g58
NtRp3812
(dp3813
g61
(dp3814
g81
g82
ssg70
g3808
sg63
(lp3815
S'generic_patterns'
p3816
asbag56
(g77
g58
NtRp3817
(dp3818
g61
(dp3819
g88
g89
ssg70
g3808
sg63
(lp3820
S':'
asbag56
(g77
g58
NtRp3821
(dp3822
g61
(dp3823
sg70
g3808
sg63
(lp3824
g56
(g57
g58
NtRp3825
(dp3826
g61
(dp3827
g69
I5
ssg70
g3821
sg63
(lp3828
g56
(g65
g58
NtRp3829
(dp3830
g61
(dp3831
g69
I4
ssg70
Nsg63
(lp3832
g56
(g72
g58
NtRp3833
(dp3834
g61
(dp3835
sg70
g3829
sg63
(lp3836
g56
(g77
g58
NtRp3837
(dp3838
g61
(dp3839
sg70
g3833
sg63
(lp3840
g56
(g57
g58
NtRp3841
(dp3842
g61
(dp3843
g69
I4
ssg70
g3837
sg63
(lp3844
S'*'
asbasbasbasbasbasbasbag56
(g72
g58
NtRp3845
(dp3846
g61
(dp3847
sg70
g3477
sg63
(lp3848
g56
(g77
g58
NtRp3849
(dp3850
g61
(dp3851
g81
g82
ssg70
g3845
sg63
(lp3852
S'headers'
p3853
asbag56
(g77
g58
NtRp3854
(dp3855
g61
(dp3856
g88
g89
ssg70
g3845
sg63
(lp3857
S':'
asbag56
(g77
g58
NtRp3858
(dp3859
g61
(dp3860
sg70
g3845
sg63
(lp3861
g56
(g57
g58
NtRp3862
(dp3863
g61
(dp3864
g69
I5
ssg70
g3858
sg63
(lp3865
g56
(g65
g58
NtRp3866
(dp3867
g61
(dp3868
g69
I4
ssg70
Nsg63
(lp3869
g56
(g72
g58
NtRp3870
(dp3871
g61
(dp3872
sg70
g3866
sg63
(lp3873
g56
(g77
g58
NtRp3874
(dp3875
g61
(dp3876
g81
g82
ssg70
g3870
sg63
(lp3877
S'Cache-Control'
p3878
asbag56
(g77
g58
NtRp3879
(dp3880
g61
(dp3881
g88
g89
ssg70
g3870
sg63
(lp3882
S':'
asbag56
(g77
g58
NtRp3883
(dp3884
g61
(dp3885
sg70
g3870
sg63
(lp3886
g56
(g57
g58
NtRp3887
(dp3888
g61
(dp3889
g69
I4
ssg70
g3883
sg63
(lp3890
S'no-store, no-cache, must-revalidate, post-check=0, pre-check=0'
p3891
asbasbasbag56
(g72
g58
NtRp3892
(dp3893
g61
(dp3894
sg70
g3866
sg63
(lp3895
g56
(g77
g58
NtRp3896
(dp3897
g61
(dp3898
g81
g82
ssg70
g3892
sg63
(lp3899
S'Content-Type'
p3900
asbag56
(g77
g58
NtRp3901
(dp3902
g61
(dp3903
g88
g89
ssg70
g3892
sg63
(lp3904
S':'
asbag56
(g77
g58
NtRp3905
(dp3906
g61
(dp3907
sg70
g3892
sg63
(lp3908
g56
(g57
g58
NtRp3909
(dp3910
g61
(dp3911
g69
I4
ssg70
g3905
sg63
(lp3912
S'text/html; charset=utf-8'
p3913
asbasbasbag56
(g72
g58
NtRp3914
(dp3915
g61
(dp3916
sg70
g3866
sg63
(lp3917
g56
(g77
g58
NtRp3918
(dp3919
g61
(dp3920
g81
g82
ssg70
g3914
sg63
(lp3921
S'Expires'
p3922
asbag56
(g77
g58
NtRp3923
(dp3924
g61
(dp3925
g88
g89
ssg70
g3914
sg63
(lp3926
S':'
asbag56
(g77
g58
NtRp3927
(dp3928
g61
(dp3929
sg70
g3914
sg63
(lp3930
g56
(g57
g58
NtRp3931
(dp3932
g61
(dp3933
g69
I4
ssg70
g3927
sg63
(lp3934
S'Wed, 07 Nov 2012 23:23:55 GMT'
p3935
asbasbasbag56
(g72
g58
NtRp3936
(dp3937
g61
(dp3938
sg70
g3866
sg63
(lp3939
g56
(g77
g58
NtRp3940
(dp3941
g61
(dp3942
g81
g82
ssg70
g3936
sg63
(lp3943
S'Pragma'
p3944
asbag56
(g77
g58
NtRp3945
(dp3946
g61
(dp3947
g88
g89
ssg70
g3936
sg63
(lp3948
S':'
asbag56
(g77
g58
NtRp3949
(dp3950
g61
(dp3951
sg70
g3936
sg63
(lp3952
g56
(g57
g58
NtRp3953
(dp3954
g61
(dp3955
g69
I4
ssg70
g3949
sg63
(lp3956
S'no-cache'
p3957
asbasbasbag56
(g72
g58
NtRp3958
(dp3959
g61
(dp3960
sg70
g3866
sg63
(lp3961
g56
(g77
g58
NtRp3962
(dp3963
g61
(dp3964
g81
g82
ssg70
g3958
sg63
(lp3965
S'X-Powered-By'
p3966
asbag56
(g77
g58
NtRp3967
(dp3968
g61
(dp3969
g88
g89
ssg70
g3958
sg63
(lp3970
S':'
asbag56
(g77
g58
NtRp3971
(dp3972
g61
(dp3973
sg70
g3958
sg63
(lp3974
g56
(g57
g58
NtRp3975
(dp3976
g61
(dp3977
g69
I4
ssg70
g3971
sg63
(lp3978
S'web2py'
p3979
asbasbasbasbasbasbasbag56
(g72
g58
NtRp3980
(dp3981
g61
(dp3982
sg70
g3477
sg63
(lp3983
g56
(g77
g58
NtRp3984
(dp3985
g61
(dp3986
g81
g82
ssg70
g3980
sg63
(lp3987
S'menu'
p3988
asbag56
(g77
g58
NtRp3989
(dp3990
g61
(dp3991
g88
g89
ssg70
g3980
sg63
(lp3992
S':'
asbag56
(g77
g58
NtRp3993
(dp3994
g61
(dp3995
sg70
g3980
sg63
(lp3996
g56
(g57
g58
NtRp3997
(dp3998
g61
(dp3999
g69
I5
ssg70
g3993
sg63
(lp4000
g56
(g65
g58
NtRp4001
(dp4002
g61
(dp4003
g69
I4
ssg70
Nsg63
(lp4004
g56
(g72
g58
NtRp4005
(dp4006
g61
(dp4007
sg70
g4001
sg63
(lp4008
g56
(g77
g58
NtRp4009
(dp4010
g61
(dp4011
sg70
g4005
sg63
(lp4012
g56
(g57
g58
NtRp4013
(dp4014
g61
(dp4015
g69
I4
ssg70
g4009
sg63
(lp4016
g56
(g65
g58
NtRp4017
(dp4018
g61
(dp4019
g69
I3
ssg70
Nsg63
(lp4020
g56
(g72
g58
NtRp4021
(dp4022
g61
(dp4023
sg70
g4017
sg63
(lp4024
g56
(g77
g58
NtRp4025
(dp4026
g61
(dp4027
sg70
g4021
sg63
(lp4028
g56
(g57
g58
NtRp4029
(dp4030
g61
(dp4031
g69
I3
ssg70
g4025
sg63
(lp4032
cgluon.languages
lazyT_unpickle
p4033
(S't\x04\x00\x00\x00Home'
tRp4034
asbasbasbag56
(g72
g58
NtRp4035
(dp4036
g61
(dp4037
sg70
g4017
sg63
(lp4038
g56
(g77
g58
NtRp4039
(dp4040
g61
(dp4041
sg70
g4035
sg63
(lp4042
g56
(g57
g58
NtRp4043
(dp4044
g61
(dp4045
g69
I3
ssg70
g4039
sg63
(lp4046
g99
asbasbasbag56
(g72
g58
NtRp4047
(dp4048
g61
(dp4049
sg70
g4017
sg63
(lp4050
g56
(g77
g58
NtRp4051
(dp4052
g61
(dp4053
sg70
g4047
sg63
(lp4054
g56
(g57
g58
NtRp4055
(dp4056
g61
(dp4057
g69
I3
ssg70
g4051
sg63
(lp4058
S'/project/default/index'
p4059
asbasbasbag56
(g72
g58
NtRp4060
(dp4061
g61
(dp4062
sg70
g4017
sg63
(lp4063
g56
(g77
g58
NtRp4064
(dp4065
g61
(dp4066
sg70
g4060
sg63
(lp4067
g56
(g57
g58
NtRp4068
(dp4069
g61
(dp4070
g69
I3
ssg70
g4064
sg63
(lp4071
g56
(g65
g58
NtRp4072
(dp4073
g61
(dp4074
g69
I2
ssg70
Nsg63
(lp4075
sbasbasbasbasbasbasbasbag56
(g72
g58
NtRp4076
(dp4077
g61
(dp4078
sg70
g4001
sg63
(lp4079
g56
(g77
g58
NtRp4080
(dp4081
g61
(dp4082
sg70
g4076
sg63
(lp4083
g56
(g57
g58
NtRp4084
(dp4085
g61
(dp4086
g69
I4
ssg70
g4080
sg63
(lp4087
g56
(g65
g58
NtRp4088
(dp4089
g61
(dp4090
g69
I3
ssg70
Nsg63
(lp4091
g56
(g72
g58
NtRp4092
(dp4093
g61
(dp4094
sg70
g4088
sg63
(lp4095
g56
(g77
g58
NtRp4096
(dp4097
g61
(dp4098
sg70
g4092
sg63
(lp4099
g56
(g57
g58
NtRp4100
(dp4101
g61
(dp4102
g69
I3
ssg70
g4096
sg63
(lp4103
g56
(cgluon.html
SPAN
p4104
g58
NtRp4105
(dp4106
g61
(dp4107
g81
S'color:yellow'
p4108
ssg70
Nsg63
(lp4109
g3979
asbasbasbasbag56
(g72
g58
NtRp4110
(dp4111
g61
(dp4112
sg70
g4088
sg63
(lp4113
g56
(g77
g58
NtRp4114
(dp4115
g61
(dp4116
sg70
g4110
sg63
(lp4117
g56
(g57
g58
NtRp4118
(dp4119
g61
(dp4120
g69
I3
ssg70
g4114
sg63
(lp4121
g99
asbasbasbag56
(g72
g58
NtRp4122
(dp4123
g61
(dp4124
sg70
g4088
sg63
(lp4125
g56
(g77
g58
NtRp4126
(dp4127
g61
(dp4128
sg70
g4122
sg63
(lp4129
g56
(g57
g58
NtRp4130
(dp4131
g61
(dp4132
g69
I3
ssg70
g4126
sg63
(lp4133
S'None'
p4134
asbasbasbag56
(g72
g58
NtRp4135
(dp4136
g61
(dp4137
sg70
g4088
sg63
(lp4138
g56
(g77
g58
NtRp4139
(dp4140
g61
(dp4141
sg70
g4135
sg63
(lp4142
g56
(g57
g58
NtRp4143
(dp4144
g61
(dp4145
g69
I3
ssg70
g4139
sg63
(lp4146
g56
(g65
g58
NtRp4147
(dp4148
g61
(dp4149
g69
I2
ssg70
Nsg63
(lp4150
g56
(g72
g58
NtRp4151
(dp4152
g61
(dp4153
sg70
g4147
sg63
(lp4154
g56
(g77
g58
NtRp4155
(dp4156
g61
(dp4157
sg70
g4151
sg63
(lp4158
g56
(g57
g58
NtRp4159
(dp4160
g61
(dp4161
g69
I2
ssg70
g4155
sg63
(lp4162
g56
(g65
g58
NtRp4163
(dp4164
g61
(dp4165
g69
I1
ssg70
Nsg63
(lp4166
g56
(g72
g58
NtRp4167
(dp4168
g61
(dp4169
sg70
g4163
sg63
(lp4170
g56
(g77
g58
NtRp4171
(dp4172
g61
(dp4173
sg70
g4167
sg63
(lp4174
g56
(g57
g58
NtRp4175
(dp4176
g61
(dp4177
g69
I1
ssg70
g4171
sg63
(lp4178
g4033
(S's\x08\x00\x00\x00My Sites'
tRp4179
asbasbasbag56
(g72
g58
NtRp4180
(dp4181
g61
(dp4182
sg70
g4163
sg63
(lp4183
g56
(g77
g58
NtRp4184
(dp4185
g61
(dp4186
sg70
g4180
sg63
(lp4187
g56
(g57
g58
NtRp4188
(dp4189
g61
(dp4190
g69
I1
ssg70
g4184
sg63
(lp4191
I00
asbasbasbag56
(g72
g58
NtRp4192
(dp4193
g61
(dp4194
sg70
g4163
sg63
(lp4195
g56
(g77
g58
NtRp4196
(dp4197
g61
(dp4198
sg70
g4192
sg63
(lp4199
g56
(g57
g58
NtRp4200
(dp4201
g61
(dp4202
g69
I1
ssg70
g4196
sg63
(lp4203
S'/admin/default/site'
p4204
asbasbasbasbasbasbasbag56
(g72
g58
NtRp4205
(dp4206
g61
(dp4207
sg70
g4147
sg63
(lp4208
g56
(g77
g58
NtRp4209
(dp4210
g61
(dp4211
sg70
g4205
sg63
(lp4212
g56
(g57
g58
NtRp4213
(dp4214
g61
(dp4215
g69
I2
ssg70
g4209
sg63
(lp4216
g56
(g65
g58
NtRp4217
(dp4218
g61
(dp4219
g69
I1
ssg70
Nsg63
(lp4220
g56
(g72
g58
NtRp4221
(dp4222
g61
(dp4223
sg70
g4217
sg63
(lp4224
g56
(g77
g58
NtRp4225
(dp4226
g61
(dp4227
sg70
g4221
sg63
(lp4228
g56
(g57
g58
NtRp4229
(dp4230
g61
(dp4231
g69
I1
ssg70
g4225
sg63
(lp4232
g4033
(S's\x08\x00\x00\x00This App'
tRp4233
asbasbasbag56
(g72
g58
NtRp4234
(dp4235
g61
(dp4236
sg70
g4217
sg63
(lp4237
g56
(g77
g58
NtRp4238
(dp4239
g61
(dp4240
sg70
g4234
sg63
(lp4241
g56
(g57
g58
NtRp4242
(dp4243
g61
(dp4244
g69
I1
ssg70
g4238
sg63
(lp4245
I00
asbasbasbag56
(g72
g58
NtRp4246
(dp4247
g61
(dp4248
sg70
g4217
sg63
(lp4249
g56
(g77
g58
NtRp4250
(dp4251
g61
(dp4252
sg70
g4246
sg63
(lp4253
g56
(g57
g58
NtRp4254
(dp4255
g61
(dp4256
g69
I1
ssg70
g4250
sg63
(lp4257
S'/admin/default/design/project'
p4258
asbasbasbag56
(g72
g58
NtRp4259
(dp4260
g61
(dp4261
sg70
g4217
sg63
(lp4262
g56
(g77
g58
NtRp4263
(dp4264
g61
(dp4265
sg70
g4259
sg63
(lp4266
g56
(g57
g58
NtRp4267
(dp4268
g61
(dp4269
g69
I1
ssg70
g4263
sg63
(lp4270
(lp4271
(g4033
(S't\n\x00\x00\x00Controller'
tRp4272
I00
S'/admin/default/edit/project/controllers/default.py'
tp4273
a(g4033
(S't\x04\x00\x00\x00View'
tRp4274
I00
S'/admin/default/edit/project/views/default/kruskal.html'
tp4275
a(g4033
(S't\x06\x00\x00\x00Layout'
tRp4276
I00
S'/admin/default/edit/project/views/layout.html'
tp4277
a(g4033
(S't\n\x00\x00\x00Stylesheet'
tRp4278
I00
S'/admin/default/edit/project/static/css/web2py.css'
tp4279
a(g4033
(S's\x08\x00\x00\x00DB Model'
tRp4280
I00
S'/admin/default/edit/project/models/db.py'
tp4281
a(g4033
(S's\n\x00\x00\x00Menu Model'
tRp4282
I00
S'/admin/default/edit/project/models/menu.py'
tp4283
a(g4033
(S't\x08\x00\x00\x00Database'
tRp4284
I00
S'/project/appadmin/index'
tp4285
a(g4033
(S't\x06\x00\x00\x00Errors'
tRp4286
I00
S'/admin/default/errors/project'
tp4287
a(g4033
(S't\x05\x00\x00\x00About'
tRp4288
I00
S'/admin/default/about/project'
tp4289
aasbasbasbasbasbasbasbag56
(g72
g58
NtRp4290
(dp4291
g61
(dp4292
sg70
g4147
sg63
(lp4293
g56
(g77
g58
NtRp4294
(dp4295
g61
(dp4296
sg70
g4290
sg63
(lp4297
g56
(g57
g58
NtRp4298
(dp4299
g61
(dp4300
g69
I2
ssg70
g4294
sg63
(lp4301
g56
(g65
g58
NtRp4302
(dp4303
g61
(dp4304
g69
I1
ssg70
Nsg63
(lp4305
g56
(g72
g58
NtRp4306
(dp4307
g61
(dp4308
sg70
g4302
sg63
(lp4309
g56
(g77
g58
NtRp4310
(dp4311
g61
(dp4312
sg70
g4306
sg63
(lp4313
g56
(g57
g58
NtRp4314
(dp4315
g61
(dp4316
g69
I1
ssg70
g4310
sg63
(lp4317
S'web2py.com'
p4318
asbasbasbag56
(g72
g58
NtRp4319
(dp4320
g61
(dp4321
sg70
g4302
sg63
(lp4322
g56
(g77
g58
NtRp4323
(dp4324
g61
(dp4325
sg70
g4319
sg63
(lp4326
g56
(g57
g58
NtRp4327
(dp4328
g61
(dp4329
g69
I1
ssg70
g4323
sg63
(lp4330
I00
asbasbasbag56
(g72
g58
NtRp4331
(dp4332
g61
(dp4333
sg70
g4302
sg63
(lp4334
g56
(g77
g58
NtRp4335
(dp4336
g61
(dp4337
sg70
g4331
sg63
(lp4338
g56
(g57
g58
NtRp4339
(dp4340
g61
(dp4341
g69
I1
ssg70
g4335
sg63
(lp4342
S'http://www.web2py.com'
p4343
asbasbasbag56
(g72
g58
NtRp4344
(dp4345
g61
(dp4346
sg70
g4302
sg63
(lp4347
g56
(g77
g58
NtRp4348
(dp4349
g61
(dp4350
sg70
g4344
sg63
(lp4351
g56
(g57
g58
NtRp4352
(dp4353
g61
(dp4354
g69
I1
ssg70
g4348
sg63
(lp4355
(lp4356
(g4033
(S't\x08\x00\x00\x00Download'
tRp4357
I00
S'http://www.web2py.com/examples/default/download'
p4358
tp4359
a(g4033
(S't\x07\x00\x00\x00Support'
tRp4360
I00
S'http://www.web2py.com/examples/default/support'
p4361
tp4362
a(g4033
(S't\x04\x00\x00\x00Demo'
tRp4363
I00
S'http://web2py.com/demo_admin'
p4364
tp4365
a(g4033
(S's\x0e\x00\x00\x00Quick Examples'
tRp4366
I00
S'http://web2py.com/examples/default/examples'
p4367
tp4368
a(g4033
(S't\x03\x00\x00\x00FAQ'
tRp4369
I00
S'http://web2py.com/AlterEgo'
p4370
tp4371
a(g4033
(S't\x06\x00\x00\x00Videos'
tRp4372
I00
S'http://www.web2py.com/examples/default/videos/'
p4373
tp4374
a(g4033
(S's\x11\x00\x00\x00Free Applications'
tRp4375
I00
S'http://web2py.com/appliances'
p4376
tp4377
a(g4033
(S't\x07\x00\x00\x00Plugins'
tRp4378
I00
S'http://web2py.com/plugins'
p4379
tp4380
a(g4033
(S't\x07\x00\x00\x00Layouts'
tRp4381
I00
S'http://web2py.com/layouts'
p4382
tp4383
a(g4033
(S't\x07\x00\x00\x00Recipes'
tRp4384
I00
S'http://web2pyslices.com/'
p4385
tp4386
a(g4033
(S't\x08\x00\x00\x00Semantic'
tRp4387
I00
S'http://web2py.com/semantic'
p4388
tp4389
aasbasbasbasbasbasbasbag56
(g72
g58
NtRp4390
(dp4391
g61
(dp4392
sg70
g4147
sg63
(lp4393
g56
(g77
g58
NtRp4394
(dp4395
g61
(dp4396
sg70
g4390
sg63
(lp4397
g56
(g57
g58
NtRp4398
(dp4399
g61
(dp4400
g69
I2
ssg70
g4394
sg63
(lp4401
g56
(g65
g58
NtRp4402
(dp4403
g61
(dp4404
g69
I1
ssg70
Nsg63
(lp4405
g56
(g72
g58
NtRp4406
(dp4407
g61
(dp4408
sg70
g4402
sg63
(lp4409
g56
(g77
g58
NtRp4410
(dp4411
g61
(dp4412
sg70
g4406
sg63
(lp4413
g56
(g57
g58
NtRp4414
(dp4415
g61
(dp4416
g69
I1
ssg70
g4410
sg63
(lp4417
g4033
(S't\r\x00\x00\x00Documentation'
tRp4418
asbasbasbag56
(g72
g58
NtRp4419
(dp4420
g61
(dp4421
sg70
g4402
sg63
(lp4422
g56
(g77
g58
NtRp4423
(dp4424
g61
(dp4425
sg70
g4419
sg63
(lp4426
g56
(g57
g58
NtRp4427
(dp4428
g61
(dp4429
g69
I1
ssg70
g4423
sg63
(lp4430
I00
asbasbasbag56
(g72
g58
NtRp4431
(dp4432
g61
(dp4433
sg70
g4402
sg63
(lp4434
g56
(g77
g58
NtRp4435
(dp4436
g61
(dp4437
sg70
g4431
sg63
(lp4438
g56
(g57
g58
NtRp4439
(dp4440
g61
(dp4441
g69
I1
ssg70
g4435
sg63
(lp4442
S'http://www.web2py.com/book'
p4443
asbasbasbag56
(g72
g58
NtRp4444
(dp4445
g61
(dp4446
sg70
g4402
sg63
(lp4447
g56
(g77
g58
NtRp4448
(dp4449
g61
(dp4450
sg70
g4444
sg63
(lp4451
g56
(g57
g58
NtRp4452
(dp4453
g61
(dp4454
g69
I1
ssg70
g4448
sg63
(lp4455
(lp4456
(g4033
(S't\x07\x00\x00\x00Preface'
tRp4457
I00
S'http://www.web2py.com/book/default/chapter/00'
p4458
tp4459
a(g4033
(S't\x0c\x00\x00\x00Introduction'
tRp4460
I00
S'http://www.web2py.com/book/default/chapter/01'
p4461
tp4462
a(g4033
(S't\x06\x00\x00\x00Python'
tRp4463
I00
S'http://www.web2py.com/book/default/chapter/02'
p4464
tp4465
a(g4033
(S't\x08\x00\x00\x00Overview'
tRp4466
I00
S'http://www.web2py.com/book/default/chapter/03'
p4467
tp4468
a(g4033
(S's\x08\x00\x00\x00The Core'
tRp4469
I00
S'http://www.web2py.com/book/default/chapter/04'
p4470
tp4471
a(g4033
(S's\t\x00\x00\x00The Views'
tRp4472
I00
S'http://www.web2py.com/book/default/chapter/05'
p4473
tp4474
a(g4033
(S't\x08\x00\x00\x00Database'
tRp4475
I00
S'http://www.web2py.com/book/default/chapter/06'
p4476
tp4477
a(g4033
(S's\x14\x00\x00\x00Forms and Validators'
tRp4478
I00
S'http://www.web2py.com/book/default/chapter/07'
p4479
tp4480
a(g4033
(S's\r\x00\x00\x00Email and SMS'
tRp4481
I00
S'http://www.web2py.com/book/default/chapter/08'
p4482
tp4483
a(g4033
(S's\x0e\x00\x00\x00Access Control'
tRp4484
I00
S'http://www.web2py.com/book/default/chapter/09'
p4485
tp4486
a(g4033
(S't\x08\x00\x00\x00Services'
tRp4487
I00
S'http://www.web2py.com/book/default/chapter/10'
p4488
tp4489
a(g4033
(S's\x0c\x00\x00\x00Ajax Recipes'
tRp4490
I00
S'http://www.web2py.com/book/default/chapter/11'
p4491
tp4492
a(g4033
(S's\x16\x00\x00\x00Components and Plugins'
tRp4493
I00
S'http://www.web2py.com/book/default/chapter/12'
p4494
tp4495
a(g4033
(S's\x12\x00\x00\x00Deployment Recipes'
tRp4496
I00
S'http://www.web2py.com/book/default/chapter/13'
p4497
tp4498
a(g4033
(S's\r\x00\x00\x00Other Recipes'
tRp4499
I00
S'http://www.web2py.com/book/default/chapter/14'
p4500
tp4501
a(g4033
(S's\r\x00\x00\x00Buy this book'
tRp4502
I00
S'http://stores.lulu.com/web2py'
p4503
tp4504
aasbasbasbasbasbasbasbag56
(g72
g58
NtRp4505
(dp4506
g61
(dp4507
sg70
g4147
sg63
(lp4508
g56
(g77
g58
NtRp4509
(dp4510
g61
(dp4511
sg70
g4505
sg63
(lp4512
g56
(g57
g58
NtRp4513
(dp4514
g61
(dp4515
g69
I2
ssg70
g4509
sg63
(lp4516
g56
(g65
g58
NtRp4517
(dp4518
g61
(dp4519
g69
I1
ssg70
Nsg63
(lp4520
g56
(g72
g58
NtRp4521
(dp4522
g61
(dp4523
sg70
g4517
sg63
(lp4524
g56
(g77
g58
NtRp4525
(dp4526
g61
(dp4527
sg70
g4521
sg63
(lp4528
g56
(g57
g58
NtRp4529
(dp4530
g61
(dp4531
g69
I1
ssg70
g4525
sg63
(lp4532
g4033
(S't\t\x00\x00\x00Community'
tRp4533
asbasbasbag56
(g72
g58
NtRp4534
(dp4535
g61
(dp4536
sg70
g4517
sg63
(lp4537
g56
(g77
g58
NtRp4538
(dp4539
g61
(dp4540
sg70
g4534
sg63
(lp4541
g56
(g57
g58
NtRp4542
(dp4543
g61
(dp4544
g69
I1
ssg70
g4538
sg63
(lp4545
I00
asbasbasbag56
(g72
g58
NtRp4546
(dp4547
g61
(dp4548
sg70
g4517
sg63
(lp4549
g56
(g77
g58
NtRp4550
(dp4551
g61
(dp4552
sg70
g4546
sg63
(lp4553
g56
(g57
g58
NtRp4554
(dp4555
g61
(dp4556
g69
I1
ssg70
g4550
sg63
(lp4557
Nasbasbasbag56
(g72
g58
NtRp4558
(dp4559
g61
(dp4560
sg70
g4517
sg63
(lp4561
g56
(g77
g58
NtRp4562
(dp4563
g61
(dp4564
sg70
g4558
sg63
(lp4565
g56
(g57
g58
NtRp4566
(dp4567
g61
(dp4568
g69
I1
ssg70
g4562
sg63
(lp4569
(lp4570
(g4033
(S't\x06\x00\x00\x00Groups'
tRp4571
I00
S'http://www.web2py.com/examples/default/usergroups'
p4572
tp4573
a(g4033
(S't\x07\x00\x00\x00Twitter'
tRp4574
I00
S'http://twitter.com/web2py'
p4575
tp4576
a(g4033
(S's\t\x00\x00\x00Live Chat'
tRp4577
I00
S'http://webchat.freenode.net/?channels=web2py'
p4578
tp4579
aasbasbasbasbasbasbasbag56
(g72
g58
NtRp4580
(dp4581
g61
(dp4582
sg70
g4147
sg63
(lp4583
g56
(g77
g58
NtRp4584
(dp4585
g61
(dp4586
sg70
g4580
sg63
(lp4587
g56
(g57
g58
NtRp4588
(dp4589
g61
(dp4590
g69
I2
ssg70
g4584
sg63
(lp4591
g56
(g65
g58
NtRp4592
(dp4593
g61
(dp4594
g69
I1
ssg70
Nsg63
(lp4595
g56
(g72
g58
NtRp4596
(dp4597
g61
(dp4598
sg70
g4592
sg63
(lp4599
g56
(g77
g58
NtRp4600
(dp4601
g61
(dp4602
sg70
g4596
sg63
(lp4603
g56
(g57
g58
NtRp4604
(dp4605
g61
(dp4606
g69
I1
ssg70
g4600
sg63
(lp4607
g4033
(S't\x07\x00\x00\x00Plugins'
tRp4608
asbasbasbag56
(g72
g58
NtRp4609
(dp4610
g61
(dp4611
sg70
g4592
sg63
(lp4612
g56
(g77
g58
NtRp4613
(dp4614
g61
(dp4615
sg70
g4609
sg63
(lp4616
g56
(g57
g58
NtRp4617
(dp4618
g61
(dp4619
g69
I1
ssg70
g4613
sg63
(lp4620
I00
asbasbasbag56
(g72
g58
NtRp4621
(dp4622
g61
(dp4623
sg70
g4592
sg63
(lp4624
g56
(g77
g58
NtRp4625
(dp4626
g61
(dp4627
sg70
g4621
sg63
(lp4628
g56
(g57
g58
NtRp4629
(dp4630
g61
(dp4631
g69
I1
ssg70
g4625
sg63
(lp4632
Nasbasbasbag56
(g72
g58
NtRp4633
(dp4634
g61
(dp4635
sg70
g4592
sg63
(lp4636
g56
(g77
g58
NtRp4637
(dp4638
g61
(dp4639
sg70
g4633
sg63
(lp4640
g56
(g57
g58
NtRp4641
(dp4642
g61
(dp4643
g69
I1
ssg70
g4637
sg63
(lp4644
(lp4645
(S'plugin_wiki'
p4646
I00
S'http://web2py.com/examples/default/download'
p4647
tp4648
a(g4033
(S's\r\x00\x00\x00Other Plugins'
tRp4649
I00
g4379
tp4650
a(g4033
(S's\x0e\x00\x00\x00Layout Plugins'
tRp4651
I00
g4382
tp4652
aasbasbasbasbasbasbasbasbasbasbasbasbasbasbasbasbasbasbasbag56
(g72
g58
NtRp4653
(dp4654
g61
(dp4655
sg70
g3477
sg63
(lp4656
g56
(g77
g58
NtRp4657
(dp4658
g61
(dp4659
g81
g82
ssg70
g4653
sg63
(lp4660
S'meta'
p4661
asbag56
(g77
g58
NtRp4662
(dp4663
g61
(dp4664
g88
g89
ssg70
g4653
sg63
(lp4665
S':'
asbag56
(g77
g58
NtRp4666
(dp4667
g61
(dp4668
sg70
g4653
sg63
(lp4669
g56
(g57
g58
NtRp4670
(dp4671
g61
(dp4672
g69
I5
ssg70
g4666
sg63
(lp4673
g56
(g65
g58
NtRp4674
(dp4675
g61
(dp4676
g69
I4
ssg70
Nsg63
(lp4677
g56
(g72
g58
NtRp4678
(dp4679
g61
(dp4680
sg70
g4674
sg63
(lp4681
g56
(g77
g58
NtRp4682
(dp4683
g61
(dp4684
g81
g82
ssg70
g4678
sg63
(lp4685
S'author'
p4686
asbag56
(g77
g58
NtRp4687
(dp4688
g61
(dp4689
g88
g89
ssg70
g4678
sg63
(lp4690
S':'
asbag56
(g77
g58
NtRp4691
(dp4692
g61
(dp4693
sg70
g4678
sg63
(lp4694
g56
(g57
g58
NtRp4695
(dp4696
g61
(dp4697
g69
I4
ssg70
g4691
sg63
(lp4698
S'Your Name <you@example.com>'
p4699
asbasbasbag56
(g72
g58
NtRp4700
(dp4701
g61
(dp4702
sg70
g4674
sg63
(lp4703
g56
(g77
g58
NtRp4704
(dp4705
g61
(dp4706
g81
g82
ssg70
g4700
sg63
(lp4707
S'copyright'
p4708
asbag56
(g77
g58
NtRp4709
(dp4710
g61
(dp4711
g88
g89
ssg70
g4700
sg63
(lp4712
S':'
asbag56
(g77
g58
NtRp4713
(dp4714
g61
(dp4715
sg70
g4700
sg63
(lp4716
g56
(g57
g58
NtRp4717
(dp4718
g61
(dp4719
g69
I4
ssg70
g4713
sg63
(lp4720
S'Copyright 2011'
p4721
asbasbasbag56
(g72
g58
NtRp4722
(dp4723
g61
(dp4724
sg70
g4674
sg63
(lp4725
g56
(g77
g58
NtRp4726
(dp4727
g61
(dp4728
g81
g82
ssg70
g4722
sg63
(lp4729
S'description'
p4730
asbag56
(g77
g58
NtRp4731
(dp4732
g61
(dp4733
g88
g89
ssg70
g4722
sg63
(lp4734
S':'
asbag56
(g77
g58
NtRp4735
(dp4736
g61
(dp4737
sg70
g4722
sg63
(lp4738
g56
(g57
g58
NtRp4739
(dp4740
g61
(dp4741
g69
I4
ssg70
g4735
sg63
(lp4742
S'a cool new app'
p4743
asbasbasbag56
(g72
g58
NtRp4744
(dp4745
g61
(dp4746
sg70
g4674
sg63
(lp4747
g56
(g77
g58
NtRp4748
(dp4749
g61
(dp4750
g81
g82
ssg70
g4744
sg63
(lp4751
S'generator'
p4752
asbag56
(g77
g58
NtRp4753
(dp4754
g61
(dp4755
g88
g89
ssg70
g4744
sg63
(lp4756
S':'
asbag56
(g77
g58
NtRp4757
(dp4758
g61
(dp4759
sg70
g4744
sg63
(lp4760
g56
(g57
g58
NtRp4761
(dp4762
g61
(dp4763
g69
I4
ssg70
g4757
sg63
(lp4764
S'Web2py Web Framework'
p4765
asbasbasbag56
(g72
g58
NtRp4766
(dp4767
g61
(dp4768
sg70
g4674
sg63
(lp4769
g56
(g77
g58
NtRp4770
(dp4771
g61
(dp4772
g81
g82
ssg70
g4766
sg63
(lp4773
S'keywords'
p4774
asbag56
(g77
g58
NtRp4775
(dp4776
g61
(dp4777
g88
g89
ssg70
g4766
sg63
(lp4778
S':'
asbag56
(g77
g58
NtRp4779
(dp4780
g61
(dp4781
sg70
g4766
sg63
(lp4782
g56
(g57
g58
NtRp4783
(dp4784
g61
(dp4785
g69
I4
ssg70
g4779
sg63
(lp4786
S'web2py, python, framework'
p4787
asbasbasbasbasbasbasbag56
(g72
g58
NtRp4788
(dp4789
g61
(dp4790
sg70
g3477
sg63
(lp4791
g56
(g77
g58
NtRp4792
(dp4793
g61
(dp4794
g81
g82
ssg70
g4788
sg63
(lp4795
S'postprocessing'
p4796
asbag56
(g77
g58
NtRp4797
(dp4798
g61
(dp4799
g88
g89
ssg70
g4788
sg63
(lp4800
S':'
asbag56
(g77
g58
NtRp4801
(dp4802
g61
(dp4803
sg70
g4788
sg63
(lp4804
g56
(g57
g58
NtRp4805
(dp4806
g61
(dp4807
g69
I5
ssg70
g4801
sg63
(lp4808
g56
(g65
g58
NtRp4809
(dp4810
g61
(dp4811
g69
I4
ssg70
Nsg63
(lp4812
sbasbasbasbag56
(g72
g58
NtRp4813
(dp4814
g61
(dp4815
sg70
g3477
sg63
(lp4816
g56
(g77
g58
NtRp4817
(dp4818
g61
(dp4819
g81
g82
ssg70
g4813
sg63
(lp4820
S'session_file'
p4821
asbag56
(g77
g58
NtRp4822
(dp4823
g61
(dp4824
g88
g89
ssg70
g4813
sg63
(lp4825
S':'
asbag56
(g77
g58
NtRp4826
(dp4827
g61
(dp4828
sg70
g4813
sg63
(lp4829
g56
(g57
g58
NtRp4830
(dp4831
g61
(dp4832
g69
I5
ssg70
g4826
sg63
(lp4833
S"<open file '/home/arpita/courses/sem3/ssad/web2py/applications/project/sessions/127.0.0.1-70b1e447-fab4-4ce7-b92c-36d8158ff7e8', mode 'rb+' at 0x99ddf40>"
p4834
asbasbasbag56
(g72
g58
NtRp4835
(dp4836
g61
(dp4837
sg70
g3477
sg63
(lp4838
g56
(g77
g58
NtRp4839
(dp4840
g61
(dp4841
g81
g82
ssg70
g4835
sg63
(lp4842
S'session_filename'
p4843
asbag56
(g77
g58
NtRp4844
(dp4845
g61
(dp4846
g88
g89
ssg70
g4835
sg63
(lp4847
S':'
asbag56
(g77
g58
NtRp4848
(dp4849
g61
(dp4850
sg70
g4835
sg63
(lp4851
g56
(g57
g58
NtRp4852
(dp4853
g61
(dp4854
g69
I5
ssg70
g4848
sg63
(lp4855
S'/home/arpita/courses/sem3/ssad/web2py/applications/project/sessions/127.0.0.1-70b1e447-fab4-4ce7-b92c-36d8158ff7e8'
p4856
asbasbasbag56
(g72
g58
NtRp4857
(dp4858
g61
(dp4859
sg70
g3477
sg63
(lp4860
g56
(g77
g58
NtRp4861
(dp4862
g61
(dp4863
g81
g82
ssg70
g4857
sg63
(lp4864
S'session_id'
p4865
asbag56
(g77
g58
NtRp4866
(dp4867
g61
(dp4868
g88
g89
ssg70
g4857
sg63
(lp4869
S':'
asbag56
(g77
g58
NtRp4870
(dp4871
g61
(dp4872
sg70
g4857
sg63
(lp4873
g56
(g57
g58
NtRp4874
(dp4875
g61
(dp4876
g69
I5
ssg70
g4870
sg63
(lp4877
S'127.0.0.1-70b1e447-fab4-4ce7-b92c-36d8158ff7e8'
p4878
asbasbasbag56
(g72
g58
NtRp4879
(dp4880
g61
(dp4881
sg70
g3477
sg63
(lp4882
g56
(g77
g58
NtRp4883
(dp4884
g61
(dp4885
g81
g82
ssg70
g4879
sg63
(lp4886
S'session_id_name'
p4887
asbag56
(g77
g58
NtRp4888
(dp4889
g61
(dp4890
g88
g89
ssg70
g4879
sg63
(lp4891
S':'
asbag56
(g77
g58
NtRp4892
(dp4893
g61
(dp4894
sg70
g4879
sg63
(lp4895
g56
(g57
g58
NtRp4896
(dp4897
g61
(dp4898
g69
I5
ssg70
g4892
sg63
(lp4899
g3534
asbasbasbag56
(g72
g58
NtRp4900
(dp4901
g61
(dp4902
sg70
g3477
sg63
(lp4903
g56
(g77
g58
NtRp4904
(dp4905
g61
(dp4906
g81
g82
ssg70
g4900
sg63
(lp4907
S'session_locked'
p4908
asbag56
(g77
g58
NtRp4909
(dp4910
g61
(dp4911
g88
g89
ssg70
g4900
sg63
(lp4912
S':'
asbag56
(g77
g58
NtRp4913
(dp4914
g61
(dp4915
sg70
g4900
sg63
(lp4916
g56
(g57
g58
NtRp4917
(dp4918
g61
(dp4919
g69
I5
ssg70
g4913
sg63
(lp4920
g1677
asbasbasbag56
(g72
g58
NtRp4921
(dp4922
g61
(dp4923
sg70
g3477
sg63
(lp4924
g56
(g77
g58
NtRp4925
(dp4926
g61
(dp4927
g81
g82
ssg70
g4921
sg63
(lp4928
S'session_new'
p4929
asbag56
(g77
g58
NtRp4930
(dp4931
g61
(dp4932
g88
g89
ssg70
g4921
sg63
(lp4933
S':'
asbag56
(g77
g58
NtRp4934
(dp4935
g61
(dp4936
sg70
g4921
sg63
(lp4937
g56
(g57
g58
NtRp4938
(dp4939
g61
(dp4940
g69
I5
ssg70
g4934
sg63
(lp4941
g99
asbasbasbag56
(g72
g58
NtRp4942
(dp4943
g61
(dp4944
sg70
g3477
sg63
(lp4945
g56
(g77
g58
NtRp4946
(dp4947
g61
(dp4948
g81
g82
ssg70
g4942
sg63
(lp4949
S'status'
p4950
asbag56
(g77
g58
NtRp4951
(dp4952
g61
(dp4953
g88
g89
ssg70
g4942
sg63
(lp4954
S':'
asbag56
(g77
g58
NtRp4955
(dp4956
g61
(dp4957
sg70
g4942
sg63
(lp4958
g56
(g57
g58
NtRp4959
(dp4960
g61
(dp4961
g69
I5
ssg70
g4955
sg63
(lp4962
S'200'
p4963
asbasbasbag56
(g72
g58
NtRp4964
(dp4965
g61
(dp4966
sg70
g3477
sg63
(lp4967
g56
(g77
g58
NtRp4968
(dp4969
g61
(dp4970
g81
g82
ssg70
g4964
sg63
(lp4971
S'subtitle'
p4972
asbag56
(g77
g58
NtRp4973
(dp4974
g61
(dp4975
g88
g89
ssg70
g4964
sg63
(lp4976
S':'
asbag56
(g77
g58
NtRp4977
(dp4978
g61
(dp4979
sg70
g4964
sg63
(lp4980
g56
(g57
g58
NtRp4981
(dp4982
g61
(dp4983
g69
I5
ssg70
g4977
sg63
(lp4984
g4033
(S's\r\x00\x00\x00customize me!'
tRp4985
asbasbasbag56
(g72
g58
NtRp4986
(dp4987
g61
(dp4988
sg70
g3477
sg63
(lp4989
g56
(g77
g58
NtRp4990
(dp4991
g61
(dp4992
g81
g82
ssg70
g4986
sg63
(lp4993
S'title'
p4994
asbag56
(g77
g58
NtRp4995
(dp4996
g61
(dp4997
g88
g89
ssg70
g4986
sg63
(lp4998
S':'
asbag56
(g77
g58
NtRp4999
(dp5000
g61
(dp5001
sg70
g4986
sg63
(lp5002
g56
(g57
g58
NtRp5003
(dp5004
g61
(dp5005
g69
I5
ssg70
g4999
sg63
(lp5006
S'Project'
p5007
asbasbasbag56
(g72
g58
NtRp5008
(dp5009
g61
(dp5010
sg70
g3477
sg63
(lp5011
g56
(g77
g58
NtRp5012
(dp5013
g61
(dp5014
g81
g82
ssg70
g5008
sg63
(lp5015
g2341
asbag56
(g77
g58
NtRp5016
(dp5017
g61
(dp5018
g88
g89
ssg70
g5008
sg63
(lp5019
S':'
asbag56
(g77
g58
NtRp5020
(dp5021
g61
(dp5022
sg70
g5008
sg63
(lp5023
g56
(g57
g58
NtRp5024
(dp5025
g61
(dp5026
g69
I5
ssg70
g5020
sg63
(lp5027
g2354
asbasbasbag56
(g72
g58
NtRp5028
(dp5029
g61
(dp5030
sg70
g3477
sg63
(lp5031
g56
(g77
g58
NtRp5032
(dp5033
g61
(dp5034
g81
g82
ssg70
g5028
sg63
(lp5035
S'view'
p5036
asbag56
(g77
g58
NtRp5037
(dp5038
g61
(dp5039
g88
g89
ssg70
g5028
sg63
(lp5040
S':'
asbag56
(g77
g58
NtRp5041
(dp5042
g61
(dp5043
sg70
g5028
sg63
(lp5044
g56
(g57
g58
NtRp5045
(dp5046
g61
(dp5047
g69
I5
ssg70
g5041
sg63
(lp5048
S'default/kruskal.html'
p5049
asbasbasbasbasbsS'locals'
p5050
(dp5051
S'a'
S'7'
sS'b'
S'5'
sS'cou'
p5052
S'9'
sS'min'
p5053
S'100'
p5054
sS'i'
S'7'
sS'k'
S'8'
sS'j'
S'8'
sS'v'
S'[0, 0, 0, 0, 0, 0, 0, 0]'
p5055
sS'li'
p5056
S"<Row {'update_record': <function <lambda> at 0xa... <function <lambda> at 0xa11509c>, 'Emp2_id': 5}>"
p5057
sS'flag'
p5058
S'0'
sS'emp'
p5059
S'<gluon.dal.Rows object>'
p5060
sS'lis'
p5061
S'<gluon.dal.Rows object>'
p5062
sS'count1'
p5063
S'1'
sS'counts'
p5064
S'9'
sS'count2'
p5065
S'8'
sssS'traceback'
p5066
S'Traceback (most recent call last):\n  File "/home/arpita/courses/sem3/ssad/web2py/gluon/restricted.py", line 205, in restricted\n    exec ccode in environment\n  File "/home/arpita/courses/sem3/ssad/web2py/applications/project/controllers/default.py", line 181, in <module>\n  File "/home/arpita/courses/sem3/ssad/web2py/gluon/globals.py", line 173, in <lambda>\n    self._caller = lambda f: f()\n  File "/home/arpita/courses/sem3/ssad/web2py/applications/project/controllers/default.py", line 141, in kruskal\n    if p[i]==q[j]:\nKeyError: 8\n'
p5067
s.