(dp1
S'output'
p2
S"<type 'exceptions.IOError'> [Errno 2] No such file or directory: 'applications/project/controller/myfile.txt'"
p3
sS'layer'
p4
S'/home/arpita/courses/sem3/ssad/web2py/applications/project/controllers/default.py'
p5
sS'code'
p6
S'# -*- coding: utf-8 -*-\n# this file is released under public domain and you can use without limitations\n\n#########################################################################\n## This is a samples controller\n## - index is the default action of any application\n## - user is required for authentication and authorization\n## - download is for downloading files uploaded in the db (does streaming)\n## - call exposes all registered services (none by default)\n#########################################################################\n@auth.requires_membership(\'Administrator\')\ndef index():\n    emp=db().select(db.Employee.ALL, orderby=db.Employee.Importance_val)\n    \n    """\n    example action using the internationalization operator T and flash\n    rendered by views/default/index.html or views/generic.html\n    """\n    form=crud.create(db.Employee)\n    response.flash = "Employee Details"\n    return dict(form=form,emp=emp)\n\ndef user():\n    """\n    exposes:\n    http://..../[app]/default/user/login\n    http://..../[app]/default/user/logout\n    http://..../[app]/default/user/register\n    http://..../[app]/default/user/profile\n    http://..../[app]/default/user/retrieve_password\n    http://..../[app]/default/user/change_password\n    use @auth.requires_login()\n        @auth.requires_membership(\'group name\')\n        @auth.requires_permission(\'read\',\'table name\',record_id)\n    to decorate functions that need access control\n    """\n    return dict(form=auth())\n\n\n\n\n\n@auth.requires_signature()\ndef data():\n    """\n    http://..../[app]/default/data/tables\n    http://..../[app]/default/data/create/[table]\n    http://..../[app]/default/data/read/[table]/[id]\n    http://..../[app]/default/data/update/[table]/[id]\n    http://..../[app]/default/data/delete/[table]/[id]\n    http://..../[app]/default/data/select/[table]\n    http://..../[app]/default/data/search/[table]\n    but URLs must be signed, i.e. linked with\n      A(\'table\',_href=URL(\'data/tables\',user_signature=True))\n    or with the signed load operator\n      LOAD(\'default\',\'data.load\',args=\'tables\',ajax=True,user_signature=True)\n    """\n    return dict(form=crud())\n\ndef graph():\n    empl=db.Employee(request.args(0))\n    return dict(empl=empl)  \n \n\n\ndef relate():\n   response.flash= "Define Relation"\n   form=crud.create(db.Relation)\n   return dict(form=form)\n\n\nc=[]\nrep=[]\nvis=[]\ned=[]\np={}\nq={}\ndef kruskal():\n    \n    lis = db().select(db.Relation.ALL)\n    emp=db().select(db.Employee.ALL, orderby=db.Employee.Name)\n    counts=len(emp)\n    for i in xrange(counts+1):\n       c.append([])\n       vis.append([])\n       rep.append(i)\n       ed.append([])\n       for j in xrange(counts+1):\n          c[i].append(0)\n          vis[i].append(0)\n          ed[i].append(0)\n    for li in lis:\n       a=li.Emp1_id\n       b=li.Emp2_id\n       c[a][b]=1\n       \n    cou=0   \n    while cou !=counts:\n        min=100\n        for i in xrange(counts+1):\n            for j in xrange(counts+1):\n                if c[i][j]!=0 and vis[i][j]==0:\n                    if rep[i]!=rep[j]:\n                               vis[i][j]=1\n                               ed[i][j]=1\n                               count1=0\n                               count2=0\n                               for k in xrange(counts+1):\n                                        if rep[k]==rep[i]:\n                                            count1=count1+1\n                                        if rep[k]==rep[j]:\n                                            count2=count2+1\n                               if count1<count2:\n                                           for k in xrange(counts+1):\n                                                if rep[k]==rep[i] and k!=i:\n                                                    rep[k]=rep[j]\n                                           rep[i]=rep[j]\n                               else:\n                                        for k in xrange(counts+1):\n                                                   if rep[k]==rep[j] and k!=j:\n                                                        rep[k]=rep[i]\n                                        rep[j]=rep[i]\n\n                    else:\n                        vis[i][j]=1\n        cou=0\n        for k in xrange(counts+1):\n            if rep[k]==rep[1]:\n                    cou=cou+1\n        k=0            \n        for i in xrange(counts+1):\n                for j in xrange(counts+1):\n                      if ed[i][j]==1:\n                           p[k]=i\n                           q[k]=j\n                           k=k+1 \n    file = open(\'applications/project/controller/myfile.txt\',\'w\')\n    file.write(\'hello world\')\n    file.close()                                             \n    return dict(p=p,q=q)\n\nresponse._vars=response._caller(kruskal)\n'
p7
sS'snapshot'
p8
(dp9
S'exception'
p10
(dp11
S'__getslice__'
p12
S"<method-wrapper '__getslice__' of exceptions.IOError object>"
p13
sS'__str__'
p14
S"<method-wrapper '__str__' of exceptions.IOError object>"
p15
sS'__reduce__'
p16
S'<built-in method __reduce__ of exceptions.IOError object>'
p17
sS'__dict__'
p18
S'{}'
p19
sS'__sizeof__'
p20
S'<built-in method __sizeof__ of exceptions.IOError object>'
p21
sS'__init__'
p22
S"<method-wrapper '__init__' of exceptions.IOError object>"
p23
sS'__setattr__'
p24
S"<method-wrapper '__setattr__' of exceptions.IOError object>"
p25
sS'__reduce_ex__'
p26
S'<built-in method __reduce_ex__ of exceptions.IOError object>'
p27
sS'__new__'
p28
S'<built-in method __new__ of type object>'
p29
sS'errno'
p30
S'2'
sS'__format__'
p31
S'<built-in method __format__ of exceptions.IOError object>'
p32
sS'__class__'
p33
S"<type 'exceptions.IOError'>"
p34
sS'filename'
p35
S"'applications/project/controller/myfile.txt'"
p36
sS'__doc__'
p37
S"'I/O operation failed.'"
p38
sS'__getitem__'
p39
S"<method-wrapper '__getitem__' of exceptions.IOError object>"
p40
sS'__setstate__'
p41
S'<built-in method __setstate__ of exceptions.IOError object>'
p42
sS'__getattribute__'
p43
S"<method-wrapper '__getattribute__' of exceptions.IOError object>"
p44
sS'args'
p45
S"(2, 'No such file or directory')"
p46
sS'__subclasshook__'
p47
S'<built-in method __subclasshook__ of type object>'
p48
sS'__unicode__'
p49
S'<built-in method __unicode__ of exceptions.IOError object>'
p50
sS'strerror'
p51
S"'No such file or directory'"
p52
sS'__delattr__'
p53
S"<method-wrapper '__delattr__' of exceptions.IOError object>"
p54
sS'__repr__'
p55
S"<method-wrapper '__repr__' of exceptions.IOError object>"
p56
sS'__hash__'
p57
S"<method-wrapper '__hash__' of exceptions.IOError object>"
p58
ssS'evalue'
p59
S"[Errno 2] No such file or directory: 'applications/project/controller/myfile.txt'"
p60
sS'request'
p61
ccopy_reg
_reconstructor
p62
(cgluon.html
BEAUTIFY
p63
c__builtin__
object
p64
NtRp65
(dp66
S'attributes'
p67
(dp68
sS'components'
p69
(lp70
g62
(cgluon.html
TABLE
p71
g64
NtRp72
(dp73
g67
(dp74
S'level'
p75
I5
ssS'parent'
p76
Nsg69
(lp77
g62
(cgluon.html
TR
p78
g64
NtRp79
(dp80
g67
(dp81
sg76
g72
sg69
(lp82
g62
(cgluon.html
TD
p83
g64
NtRp84
(dp85
g67
(dp86
S'_style'
p87
S'font-weight:bold;vertical-align:top'
p88
ssg76
g79
sg69
(lp89
S'ajax'
p90
asbag62
(g83
g64
NtRp91
(dp92
g67
(dp93
S'_valign'
p94
S'top'
p95
ssg76
g79
sg69
(lp96
S':'
asbag62
(g83
g64
NtRp97
(dp98
g67
(dp99
sg76
g79
sg69
(lp100
g62
(g63
g64
NtRp101
(dp102
g67
(dp103
g75
I5
ssg76
g97
sg69
(lp104
S'False'
p105
asbasbasbag62
(g78
g64
NtRp106
(dp107
g67
(dp108
sg76
g72
sg69
(lp109
g62
(g83
g64
NtRp110
(dp111
g67
(dp112
g87
g88
ssg76
g106
sg69
(lp113
S'application'
p114
asbag62
(g83
g64
NtRp115
(dp116
g67
(dp117
g94
g95
ssg76
g106
sg69
(lp118
S':'
asbag62
(g83
g64
NtRp119
(dp120
g67
(dp121
sg76
g106
sg69
(lp122
g62
(g63
g64
NtRp123
(dp124
g67
(dp125
g75
I5
ssg76
g119
sg69
(lp126
S'project'
p127
asbasbasbag62
(g78
g64
NtRp128
(dp129
g67
(dp130
sg76
g72
sg69
(lp131
g62
(g83
g64
NtRp132
(dp133
g67
(dp134
g87
g88
ssg76
g128
sg69
(lp135
g45
asbag62
(g83
g64
NtRp136
(dp137
g67
(dp138
g94
g95
ssg76
g128
sg69
(lp139
S':'
asbag62
(g83
g64
NtRp140
(dp141
g67
(dp142
sg76
g128
sg69
(lp143
g62
(g63
g64
NtRp144
(dp145
g67
(dp146
g75
I5
ssg76
g140
sg69
(lp147
g62
(g71
g64
NtRp148
(dp149
g67
(dp150
g75
I4
ssg76
Nsg69
(lp151
sbasbasbasbag62
(g78
g64
NtRp152
(dp153
g67
(dp154
sg76
g72
sg69
(lp155
g62
(g83
g64
NtRp156
(dp157
g67
(dp158
g87
g88
ssg76
g152
sg69
(lp159
S'body'
p160
asbag62
(g83
g64
NtRp161
(dp162
g67
(dp163
g94
g95
ssg76
g152
sg69
(lp164
S':'
asbag62
(g83
g64
NtRp165
(dp166
g67
(dp167
sg76
g152
sg69
(lp168
g62
(g63
g64
NtRp169
(dp170
g67
(dp171
g75
I5
ssg76
g165
sg69
(lp172
S'<cStringIO.StringO object at 0x9604620>'
p173
asbasbasbag62
(g78
g64
NtRp174
(dp175
g67
(dp176
sg76
g72
sg69
(lp177
g62
(g83
g64
NtRp178
(dp179
g67
(dp180
g87
g88
ssg76
g174
sg69
(lp181
S'client'
p182
asbag62
(g83
g64
NtRp183
(dp184
g67
(dp185
g94
g95
ssg76
g174
sg69
(lp186
S':'
asbag62
(g83
g64
NtRp187
(dp188
g67
(dp189
sg76
g174
sg69
(lp190
g62
(g63
g64
NtRp191
(dp192
g67
(dp193
g75
I5
ssg76
g187
sg69
(lp194
S'127.0.0.1'
p195
asbasbasbag62
(g78
g64
NtRp196
(dp197
g67
(dp198
sg76
g72
sg69
(lp199
g62
(g83
g64
NtRp200
(dp201
g67
(dp202
g87
g88
ssg76
g196
sg69
(lp203
S'controller'
p204
asbag62
(g83
g64
NtRp205
(dp206
g67
(dp207
g94
g95
ssg76
g196
sg69
(lp208
S':'
asbag62
(g83
g64
NtRp209
(dp210
g67
(dp211
sg76
g196
sg69
(lp212
g62
(g63
g64
NtRp213
(dp214
g67
(dp215
g75
I5
ssg76
g209
sg69
(lp216
S'default'
p217
asbasbasbag62
(g78
g64
NtRp218
(dp219
g67
(dp220
sg76
g72
sg69
(lp221
g62
(g83
g64
NtRp222
(dp223
g67
(dp224
g87
g88
ssg76
g218
sg69
(lp225
S'cookies'
p226
asbag62
(g83
g64
NtRp227
(dp228
g67
(dp229
g94
g95
ssg76
g218
sg69
(lp230
S':'
asbag62
(g83
g64
NtRp231
(dp232
g67
(dp233
sg76
g218
sg69
(lp234
g62
(g63
g64
NtRp235
(dp236
g67
(dp237
g75
I5
ssg76
g231
sg69
(lp238
g62
(g71
g64
NtRp239
(dp240
g67
(dp241
g75
I4
ssg76
Nsg69
(lp242
g62
(g78
g64
NtRp243
(dp244
g67
(dp245
sg76
g239
sg69
(lp246
g62
(g83
g64
NtRp247
(dp248
g67
(dp249
g87
g88
ssg76
g243
sg69
(lp250
S'session_id_admin'
p251
asbag62
(g83
g64
NtRp252
(dp253
g67
(dp254
g94
g95
ssg76
g243
sg69
(lp255
S':'
asbag62
(g83
g64
NtRp256
(dp257
g67
(dp258
sg76
g243
sg69
(lp259
g62
(g63
g64
NtRp260
(dp261
g67
(dp262
g75
I4
ssg76
g256
sg69
(lp263
g62
(g71
g64
NtRp264
(dp265
g67
(dp266
g75
I3
ssg76
Nsg69
(lp267
g62
(g78
g64
NtRp268
(dp269
g67
(dp270
sg76
g264
sg69
(lp271
g62
(g83
g64
NtRp272
(dp273
g67
(dp274
g87
g88
ssg76
g268
sg69
(lp275
S'comment'
p276
asbag62
(g83
g64
NtRp277
(dp278
g67
(dp279
g94
g95
ssg76
g268
sg69
(lp280
S':'
asbag62
(g83
g64
NtRp281
(dp282
g67
(dp283
sg76
g268
sg69
(lp284
g62
(g63
g64
NtRp285
(dp286
g67
(dp287
g75
I3
ssg76
g281
sg69
(lp288
S''
asbasbasbag62
(g78
g64
NtRp289
(dp290
g67
(dp291
sg76
g264
sg69
(lp292
g62
(g83
g64
NtRp293
(dp294
g67
(dp295
g87
g88
ssg76
g289
sg69
(lp296
S'domain'
p297
asbag62
(g83
g64
NtRp298
(dp299
g67
(dp300
g94
g95
ssg76
g289
sg69
(lp301
S':'
asbag62
(g83
g64
NtRp302
(dp303
g67
(dp304
sg76
g289
sg69
(lp305
g62
(g63
g64
NtRp306
(dp307
g67
(dp308
g75
I3
ssg76
g302
sg69
(lp309
S''
asbasbasbag62
(g78
g64
NtRp310
(dp311
g67
(dp312
sg76
g264
sg69
(lp313
g62
(g83
g64
NtRp314
(dp315
g67
(dp316
g87
g88
ssg76
g310
sg69
(lp317
S'expires'
p318
asbag62
(g83
g64
NtRp319
(dp320
g67
(dp321
g94
g95
ssg76
g310
sg69
(lp322
S':'
asbag62
(g83
g64
NtRp323
(dp324
g67
(dp325
sg76
g310
sg69
(lp326
g62
(g63
g64
NtRp327
(dp328
g67
(dp329
g75
I3
ssg76
g323
sg69
(lp330
S''
asbasbasbag62
(g78
g64
NtRp331
(dp332
g67
(dp333
sg76
g264
sg69
(lp334
g62
(g83
g64
NtRp335
(dp336
g67
(dp337
g87
g88
ssg76
g331
sg69
(lp338
S'httponly'
p339
asbag62
(g83
g64
NtRp340
(dp341
g67
(dp342
g94
g95
ssg76
g331
sg69
(lp343
S':'
asbag62
(g83
g64
NtRp344
(dp345
g67
(dp346
sg76
g331
sg69
(lp347
g62
(g63
g64
NtRp348
(dp349
g67
(dp350
g75
I3
ssg76
g344
sg69
(lp351
S''
asbasbasbag62
(g78
g64
NtRp352
(dp353
g67
(dp354
sg76
g264
sg69
(lp355
g62
(g83
g64
NtRp356
(dp357
g67
(dp358
g87
g88
ssg76
g352
sg69
(lp359
S'max-age'
p360
asbag62
(g83
g64
NtRp361
(dp362
g67
(dp363
g94
g95
ssg76
g352
sg69
(lp364
S':'
asbag62
(g83
g64
NtRp365
(dp366
g67
(dp367
sg76
g352
sg69
(lp368
g62
(g63
g64
NtRp369
(dp370
g67
(dp371
g75
I3
ssg76
g365
sg69
(lp372
S''
asbasbasbag62
(g78
g64
NtRp373
(dp374
g67
(dp375
sg76
g264
sg69
(lp376
g62
(g83
g64
NtRp377
(dp378
g67
(dp379
g87
g88
ssg76
g373
sg69
(lp380
S'path'
p381
asbag62
(g83
g64
NtRp382
(dp383
g67
(dp384
g94
g95
ssg76
g373
sg69
(lp385
S':'
asbag62
(g83
g64
NtRp386
(dp387
g67
(dp388
sg76
g373
sg69
(lp389
g62
(g63
g64
NtRp390
(dp391
g67
(dp392
g75
I3
ssg76
g386
sg69
(lp393
S''
asbasbasbag62
(g78
g64
NtRp394
(dp395
g67
(dp396
sg76
g264
sg69
(lp397
g62
(g83
g64
NtRp398
(dp399
g67
(dp400
g87
g88
ssg76
g394
sg69
(lp401
S'secure'
p402
asbag62
(g83
g64
NtRp403
(dp404
g67
(dp405
g94
g95
ssg76
g394
sg69
(lp406
S':'
asbag62
(g83
g64
NtRp407
(dp408
g67
(dp409
sg76
g394
sg69
(lp410
g62
(g63
g64
NtRp411
(dp412
g67
(dp413
g75
I3
ssg76
g407
sg69
(lp414
S''
asbasbasbag62
(g78
g64
NtRp415
(dp416
g67
(dp417
sg76
g264
sg69
(lp418
g62
(g83
g64
NtRp419
(dp420
g67
(dp421
g87
g88
ssg76
g415
sg69
(lp422
S'version'
p423
asbag62
(g83
g64
NtRp424
(dp425
g67
(dp426
g94
g95
ssg76
g415
sg69
(lp427
S':'
asbag62
(g83
g64
NtRp428
(dp429
g67
(dp430
sg76
g415
sg69
(lp431
g62
(g63
g64
NtRp432
(dp433
g67
(dp434
g75
I3
ssg76
g428
sg69
(lp435
S''
asbasbasbasbasbasbasbag62
(g78
g64
NtRp436
(dp437
g67
(dp438
sg76
g239
sg69
(lp439
g62
(g83
g64
NtRp440
(dp441
g67
(dp442
g87
g88
ssg76
g436
sg69
(lp443
S'session_id_project'
p444
asbag62
(g83
g64
NtRp445
(dp446
g67
(dp447
g94
g95
ssg76
g436
sg69
(lp448
S':'
asbag62
(g83
g64
NtRp449
(dp450
g67
(dp451
sg76
g436
sg69
(lp452
g62
(g63
g64
NtRp453
(dp454
g67
(dp455
g75
I4
ssg76
g449
sg69
(lp456
g62
(g71
g64
NtRp457
(dp458
g67
(dp459
g75
I3
ssg76
Nsg69
(lp460
g62
(g78
g64
NtRp461
(dp462
g67
(dp463
sg76
g457
sg69
(lp464
g62
(g83
g64
NtRp465
(dp466
g67
(dp467
g87
g88
ssg76
g461
sg69
(lp468
g276
asbag62
(g83
g64
NtRp469
(dp470
g67
(dp471
g94
g95
ssg76
g461
sg69
(lp472
S':'
asbag62
(g83
g64
NtRp473
(dp474
g67
(dp475
sg76
g461
sg69
(lp476
g62
(g63
g64
NtRp477
(dp478
g67
(dp479
g75
I3
ssg76
g473
sg69
(lp480
S''
asbasbasbag62
(g78
g64
NtRp481
(dp482
g67
(dp483
sg76
g457
sg69
(lp484
g62
(g83
g64
NtRp485
(dp486
g67
(dp487
g87
g88
ssg76
g481
sg69
(lp488
g297
asbag62
(g83
g64
NtRp489
(dp490
g67
(dp491
g94
g95
ssg76
g481
sg69
(lp492
S':'
asbag62
(g83
g64
NtRp493
(dp494
g67
(dp495
sg76
g481
sg69
(lp496
g62
(g63
g64
NtRp497
(dp498
g67
(dp499
g75
I3
ssg76
g493
sg69
(lp500
S''
asbasbasbag62
(g78
g64
NtRp501
(dp502
g67
(dp503
sg76
g457
sg69
(lp504
g62
(g83
g64
NtRp505
(dp506
g67
(dp507
g87
g88
ssg76
g501
sg69
(lp508
g318
asbag62
(g83
g64
NtRp509
(dp510
g67
(dp511
g94
g95
ssg76
g501
sg69
(lp512
S':'
asbag62
(g83
g64
NtRp513
(dp514
g67
(dp515
sg76
g501
sg69
(lp516
g62
(g63
g64
NtRp517
(dp518
g67
(dp519
g75
I3
ssg76
g513
sg69
(lp520
S''
asbasbasbag62
(g78
g64
NtRp521
(dp522
g67
(dp523
sg76
g457
sg69
(lp524
g62
(g83
g64
NtRp525
(dp526
g67
(dp527
g87
g88
ssg76
g521
sg69
(lp528
g339
asbag62
(g83
g64
NtRp529
(dp530
g67
(dp531
g94
g95
ssg76
g521
sg69
(lp532
S':'
asbag62
(g83
g64
NtRp533
(dp534
g67
(dp535
sg76
g521
sg69
(lp536
g62
(g63
g64
NtRp537
(dp538
g67
(dp539
g75
I3
ssg76
g533
sg69
(lp540
S''
asbasbasbag62
(g78
g64
NtRp541
(dp542
g67
(dp543
sg76
g457
sg69
(lp544
g62
(g83
g64
NtRp545
(dp546
g67
(dp547
g87
g88
ssg76
g541
sg69
(lp548
g360
asbag62
(g83
g64
NtRp549
(dp550
g67
(dp551
g94
g95
ssg76
g541
sg69
(lp552
S':'
asbag62
(g83
g64
NtRp553
(dp554
g67
(dp555
sg76
g541
sg69
(lp556
g62
(g63
g64
NtRp557
(dp558
g67
(dp559
g75
I3
ssg76
g553
sg69
(lp560
S''
asbasbasbag62
(g78
g64
NtRp561
(dp562
g67
(dp563
sg76
g457
sg69
(lp564
g62
(g83
g64
NtRp565
(dp566
g67
(dp567
g87
g88
ssg76
g561
sg69
(lp568
g381
asbag62
(g83
g64
NtRp569
(dp570
g67
(dp571
g94
g95
ssg76
g561
sg69
(lp572
S':'
asbag62
(g83
g64
NtRp573
(dp574
g67
(dp575
sg76
g561
sg69
(lp576
g62
(g63
g64
NtRp577
(dp578
g67
(dp579
g75
I3
ssg76
g573
sg69
(lp580
S''
asbasbasbag62
(g78
g64
NtRp581
(dp582
g67
(dp583
sg76
g457
sg69
(lp584
g62
(g83
g64
NtRp585
(dp586
g67
(dp587
g87
g88
ssg76
g581
sg69
(lp588
g402
asbag62
(g83
g64
NtRp589
(dp590
g67
(dp591
g94
g95
ssg76
g581
sg69
(lp592
S':'
asbag62
(g83
g64
NtRp593
(dp594
g67
(dp595
sg76
g581
sg69
(lp596
g62
(g63
g64
NtRp597
(dp598
g67
(dp599
g75
I3
ssg76
g593
sg69
(lp600
S''
asbasbasbag62
(g78
g64
NtRp601
(dp602
g67
(dp603
sg76
g457
sg69
(lp604
g62
(g83
g64
NtRp605
(dp606
g67
(dp607
g87
g88
ssg76
g601
sg69
(lp608
g423
asbag62
(g83
g64
NtRp609
(dp610
g67
(dp611
g94
g95
ssg76
g601
sg69
(lp612
S':'
asbag62
(g83
g64
NtRp613
(dp614
g67
(dp615
sg76
g601
sg69
(lp616
g62
(g63
g64
NtRp617
(dp618
g67
(dp619
g75
I3
ssg76
g613
sg69
(lp620
S''
asbasbasbasbasbasbasbag62
(g78
g64
NtRp621
(dp622
g67
(dp623
sg76
g239
sg69
(lp624
g62
(g83
g64
NtRp625
(dp626
g67
(dp627
g87
g88
ssg76
g621
sg69
(lp628
S'session_id_welcome'
p629
asbag62
(g83
g64
NtRp630
(dp631
g67
(dp632
g94
g95
ssg76
g621
sg69
(lp633
S':'
asbag62
(g83
g64
NtRp634
(dp635
g67
(dp636
sg76
g621
sg69
(lp637
g62
(g63
g64
NtRp638
(dp639
g67
(dp640
g75
I4
ssg76
g634
sg69
(lp641
g62
(g71
g64
NtRp642
(dp643
g67
(dp644
g75
I3
ssg76
Nsg69
(lp645
g62
(g78
g64
NtRp646
(dp647
g67
(dp648
sg76
g642
sg69
(lp649
g62
(g83
g64
NtRp650
(dp651
g67
(dp652
g87
g88
ssg76
g646
sg69
(lp653
g276
asbag62
(g83
g64
NtRp654
(dp655
g67
(dp656
g94
g95
ssg76
g646
sg69
(lp657
S':'
asbag62
(g83
g64
NtRp658
(dp659
g67
(dp660
sg76
g646
sg69
(lp661
g62
(g63
g64
NtRp662
(dp663
g67
(dp664
g75
I3
ssg76
g658
sg69
(lp665
S''
asbasbasbag62
(g78
g64
NtRp666
(dp667
g67
(dp668
sg76
g642
sg69
(lp669
g62
(g83
g64
NtRp670
(dp671
g67
(dp672
g87
g88
ssg76
g666
sg69
(lp673
g297
asbag62
(g83
g64
NtRp674
(dp675
g67
(dp676
g94
g95
ssg76
g666
sg69
(lp677
S':'
asbag62
(g83
g64
NtRp678
(dp679
g67
(dp680
sg76
g666
sg69
(lp681
g62
(g63
g64
NtRp682
(dp683
g67
(dp684
g75
I3
ssg76
g678
sg69
(lp685
S''
asbasbasbag62
(g78
g64
NtRp686
(dp687
g67
(dp688
sg76
g642
sg69
(lp689
g62
(g83
g64
NtRp690
(dp691
g67
(dp692
g87
g88
ssg76
g686
sg69
(lp693
g318
asbag62
(g83
g64
NtRp694
(dp695
g67
(dp696
g94
g95
ssg76
g686
sg69
(lp697
S':'
asbag62
(g83
g64
NtRp698
(dp699
g67
(dp700
sg76
g686
sg69
(lp701
g62
(g63
g64
NtRp702
(dp703
g67
(dp704
g75
I3
ssg76
g698
sg69
(lp705
S''
asbasbasbag62
(g78
g64
NtRp706
(dp707
g67
(dp708
sg76
g642
sg69
(lp709
g62
(g83
g64
NtRp710
(dp711
g67
(dp712
g87
g88
ssg76
g706
sg69
(lp713
g339
asbag62
(g83
g64
NtRp714
(dp715
g67
(dp716
g94
g95
ssg76
g706
sg69
(lp717
S':'
asbag62
(g83
g64
NtRp718
(dp719
g67
(dp720
sg76
g706
sg69
(lp721
g62
(g63
g64
NtRp722
(dp723
g67
(dp724
g75
I3
ssg76
g718
sg69
(lp725
S''
asbasbasbag62
(g78
g64
NtRp726
(dp727
g67
(dp728
sg76
g642
sg69
(lp729
g62
(g83
g64
NtRp730
(dp731
g67
(dp732
g87
g88
ssg76
g726
sg69
(lp733
g360
asbag62
(g83
g64
NtRp734
(dp735
g67
(dp736
g94
g95
ssg76
g726
sg69
(lp737
S':'
asbag62
(g83
g64
NtRp738
(dp739
g67
(dp740
sg76
g726
sg69
(lp741
g62
(g63
g64
NtRp742
(dp743
g67
(dp744
g75
I3
ssg76
g738
sg69
(lp745
S''
asbasbasbag62
(g78
g64
NtRp746
(dp747
g67
(dp748
sg76
g642
sg69
(lp749
g62
(g83
g64
NtRp750
(dp751
g67
(dp752
g87
g88
ssg76
g746
sg69
(lp753
g381
asbag62
(g83
g64
NtRp754
(dp755
g67
(dp756
g94
g95
ssg76
g746
sg69
(lp757
S':'
asbag62
(g83
g64
NtRp758
(dp759
g67
(dp760
sg76
g746
sg69
(lp761
g62
(g63
g64
NtRp762
(dp763
g67
(dp764
g75
I3
ssg76
g758
sg69
(lp765
S''
asbasbasbag62
(g78
g64
NtRp766
(dp767
g67
(dp768
sg76
g642
sg69
(lp769
g62
(g83
g64
NtRp770
(dp771
g67
(dp772
g87
g88
ssg76
g766
sg69
(lp773
g402
asbag62
(g83
g64
NtRp774
(dp775
g67
(dp776
g94
g95
ssg76
g766
sg69
(lp777
S':'
asbag62
(g83
g64
NtRp778
(dp779
g67
(dp780
sg76
g766
sg69
(lp781
g62
(g63
g64
NtRp782
(dp783
g67
(dp784
g75
I3
ssg76
g778
sg69
(lp785
S''
asbasbasbag62
(g78
g64
NtRp786
(dp787
g67
(dp788
sg76
g642
sg69
(lp789
g62
(g83
g64
NtRp790
(dp791
g67
(dp792
g87
g88
ssg76
g786
sg69
(lp793
g423
asbag62
(g83
g64
NtRp794
(dp795
g67
(dp796
g94
g95
ssg76
g786
sg69
(lp797
S':'
asbag62
(g83
g64
NtRp798
(dp799
g67
(dp800
sg76
g786
sg69
(lp801
g62
(g63
g64
NtRp802
(dp803
g67
(dp804
g75
I3
ssg76
g798
sg69
(lp805
S''
asbasbasbasbasbasbasbasbasbasbasbag62
(g78
g64
NtRp806
(dp807
g67
(dp808
sg76
g72
sg69
(lp809
g62
(g83
g64
NtRp810
(dp811
g67
(dp812
g87
g88
ssg76
g806
sg69
(lp813
S'env'
p814
asbag62
(g83
g64
NtRp815
(dp816
g67
(dp817
g94
g95
ssg76
g806
sg69
(lp818
S':'
asbag62
(g83
g64
NtRp819
(dp820
g67
(dp821
sg76
g806
sg69
(lp822
g62
(g63
g64
NtRp823
(dp824
g67
(dp825
g75
I5
ssg76
g819
sg69
(lp826
g62
(g71
g64
NtRp827
(dp828
g67
(dp829
g75
I4
ssg76
Nsg69
(lp830
g62
(g78
g64
NtRp831
(dp832
g67
(dp833
sg76
g827
sg69
(lp834
g62
(g83
g64
NtRp835
(dp836
g67
(dp837
g87
g88
ssg76
g831
sg69
(lp838
S'app_folders'
p839
asbag62
(g83
g64
NtRp840
(dp841
g67
(dp842
g94
g95
ssg76
g831
sg69
(lp843
S':'
asbag62
(g83
g64
NtRp844
(dp845
g67
(dp846
sg76
g831
sg69
(lp847
g62
(g63
g64
NtRp848
(dp849
g67
(dp850
g75
I4
ssg76
g844
sg69
(lp851
S"set(['/home/arpita/courses/sem3/ssad/web2py/applications/admin/', '/home/arpita/courses/sem3/ssad/web2py/applications/project/', '/home/arpita/courses/sem3/ssad/web2py/applications/welcome/'])"
p852
asbasbasbag62
(g78
g64
NtRp853
(dp854
g67
(dp855
sg76
g827
sg69
(lp856
g62
(g83
g64
NtRp857
(dp858
g67
(dp859
g87
g88
ssg76
g853
sg69
(lp860
S'applications_parent'
p861
asbag62
(g83
g64
NtRp862
(dp863
g67
(dp864
g94
g95
ssg76
g853
sg69
(lp865
S':'
asbag62
(g83
g64
NtRp866
(dp867
g67
(dp868
sg76
g853
sg69
(lp869
g62
(g63
g64
NtRp870
(dp871
g67
(dp872
g75
I4
ssg76
g866
sg69
(lp873
S'/home/arpita/courses/sem3/ssad/web2py'
p874
asbasbasbag62
(g78
g64
NtRp875
(dp876
g67
(dp877
sg76
g827
sg69
(lp878
g62
(g83
g64
NtRp879
(dp880
g67
(dp881
g87
g88
ssg76
g875
sg69
(lp882
S'cmd_args'
p883
asbag62
(g83
g64
NtRp884
(dp885
g67
(dp886
g94
g95
ssg76
g875
sg69
(lp887
S':'
asbag62
(g83
g64
NtRp888
(dp889
g67
(dp890
sg76
g875
sg69
(lp891
g62
(g63
g64
NtRp892
(dp893
g67
(dp894
g75
I4
ssg76
g888
sg69
(lp895
g62
(g71
g64
NtRp896
(dp897
g67
(dp898
g75
I3
ssg76
Nsg69
(lp899
sbasbasbasbag62
(g78
g64
NtRp900
(dp901
g67
(dp902
sg76
g827
sg69
(lp903
g62
(g83
g64
NtRp904
(dp905
g67
(dp906
g87
g88
ssg76
g900
sg69
(lp907
S'cmd_options'
p908
asbag62
(g83
g64
NtRp909
(dp910
g67
(dp911
g94
g95
ssg76
g900
sg69
(lp912
S':'
asbag62
(g83
g64
NtRp913
(dp914
g67
(dp915
sg76
g900
sg69
(lp916
g62
(g63
g64
NtRp917
(dp918
g67
(dp919
g75
I4
ssg76
g913
sg69
(lp920
S"<Values at 0x928e3cc: {'verbose': False, 'ip': '127.0.0.1', 'shutdown_timeout': 5, 'taskbar': False, 'nocron': False, 'pid_filename': 'httpserver.pid', 'maxthreads': None, 'softcron': False, 'server_name': 'arpita-HP-630-Notebook-PC', 'bpython': False, 'nogui': False, 'port': 8000, 'extcron': False, 'debuglevel': 30, 'test': None, 'folder': '/home/arpita/courses/sem3/ssad/web2py', 'config': '', 'import_models': False, 'winservice': '', 'shell': None, 'run': '', 'log_filename': 'httpserver.log', 'args': [''], 'socket_timeout': 5, 'ssl_ca_certificate': None, 'scheduler': None, 'profiler_filename': None, 'ssl_private_key': '', 'password': 'arpita', 'request_queue_size': 5, 'ssl_certificate': '', 'cronjob': False, 'numthreads': None, 'quiet': False, 'interfaces': None, 'minthreads': None, 'timeout': 10, 'plain': False, 'nobanner': False}>"
p921
asbasbasbag62
(g78
g64
NtRp922
(dp923
g67
(dp924
sg76
g827
sg69
(lp925
g62
(g83
g64
NtRp926
(dp927
g67
(dp928
g87
g88
ssg76
g922
sg69
(lp929
S'db_sessions'
p930
asbag62
(g83
g64
NtRp931
(dp932
g67
(dp933
g94
g95
ssg76
g922
sg69
(lp934
S':'
asbag62
(g83
g64
NtRp935
(dp936
g67
(dp937
sg76
g922
sg69
(lp938
g62
(g63
g64
NtRp939
(dp940
g67
(dp941
g75
I4
ssg76
g935
sg69
(lp942
S'set([])'
p943
asbasbasbag62
(g78
g64
NtRp944
(dp945
g67
(dp946
sg76
g827
sg69
(lp947
g62
(g83
g64
NtRp948
(dp949
g67
(dp950
g87
g88
ssg76
g944
sg69
(lp951
S'debugging'
p952
asbag62
(g83
g64
NtRp953
(dp954
g67
(dp955
g94
g95
ssg76
g944
sg69
(lp956
S':'
asbag62
(g83
g64
NtRp957
(dp958
g67
(dp959
sg76
g944
sg69
(lp960
g62
(g63
g64
NtRp961
(dp962
g67
(dp963
g75
I4
ssg76
g957
sg69
(lp964
g105
asbasbasbag62
(g78
g64
NtRp965
(dp966
g67
(dp967
sg76
g827
sg69
(lp968
g62
(g83
g64
NtRp969
(dp970
g67
(dp971
g87
g88
ssg76
g965
sg69
(lp972
S'gluon_parent'
p973
asbag62
(g83
g64
NtRp974
(dp975
g67
(dp976
g94
g95
ssg76
g965
sg69
(lp977
S':'
asbag62
(g83
g64
NtRp978
(dp979
g67
(dp980
sg76
g965
sg69
(lp981
g62
(g63
g64
NtRp982
(dp983
g67
(dp984
g75
I4
ssg76
g978
sg69
(lp985
S'/home/arpita/courses/sem3/ssad/web2py'
p986
asbasbasbag62
(g78
g64
NtRp987
(dp988
g67
(dp989
sg76
g827
sg69
(lp990
g62
(g83
g64
NtRp991
(dp992
g67
(dp993
g87
g88
ssg76
g987
sg69
(lp994
S'http_accept'
p995
asbag62
(g83
g64
NtRp996
(dp997
g67
(dp998
g94
g95
ssg76
g987
sg69
(lp999
S':'
asbag62
(g83
g64
NtRp1000
(dp1001
g67
(dp1002
sg76
g987
sg69
(lp1003
g62
(g63
g64
NtRp1004
(dp1005
g67
(dp1006
g75
I4
ssg76
g1000
sg69
(lp1007
S'text/html,application/xhtml+xml,application/xml;q=0.9,*/*;q=0.8'
p1008
asbasbasbag62
(g78
g64
NtRp1009
(dp1010
g67
(dp1011
sg76
g827
sg69
(lp1012
g62
(g83
g64
NtRp1013
(dp1014
g67
(dp1015
g87
g88
ssg76
g1009
sg69
(lp1016
S'http_accept_charset'
p1017
asbag62
(g83
g64
NtRp1018
(dp1019
g67
(dp1020
g94
g95
ssg76
g1009
sg69
(lp1021
S':'
asbag62
(g83
g64
NtRp1022
(dp1023
g67
(dp1024
sg76
g1009
sg69
(lp1025
g62
(g63
g64
NtRp1026
(dp1027
g67
(dp1028
g75
I4
ssg76
g1022
sg69
(lp1029
S'ISO-8859-1,utf-8;q=0.7,*;q=0.7'
p1030
asbasbasbag62
(g78
g64
NtRp1031
(dp1032
g67
(dp1033
sg76
g827
sg69
(lp1034
g62
(g83
g64
NtRp1035
(dp1036
g67
(dp1037
g87
g88
ssg76
g1031
sg69
(lp1038
S'http_accept_encoding'
p1039
asbag62
(g83
g64
NtRp1040
(dp1041
g67
(dp1042
g94
g95
ssg76
g1031
sg69
(lp1043
S':'
asbag62
(g83
g64
NtRp1044
(dp1045
g67
(dp1046
sg76
g1031
sg69
(lp1047
g62
(g63
g64
NtRp1048
(dp1049
g67
(dp1050
g75
I4
ssg76
g1044
sg69
(lp1051
S'gzip, deflate'
p1052
asbasbasbag62
(g78
g64
NtRp1053
(dp1054
g67
(dp1055
sg76
g827
sg69
(lp1056
g62
(g83
g64
NtRp1057
(dp1058
g67
(dp1059
g87
g88
ssg76
g1053
sg69
(lp1060
S'http_accept_language'
p1061
asbag62
(g83
g64
NtRp1062
(dp1063
g67
(dp1064
g94
g95
ssg76
g1053
sg69
(lp1065
S':'
asbag62
(g83
g64
NtRp1066
(dp1067
g67
(dp1068
sg76
g1053
sg69
(lp1069
g62
(g63
g64
NtRp1070
(dp1071
g67
(dp1072
g75
I4
ssg76
g1066
sg69
(lp1073
S'en-us,en;q=0.5'
p1074
asbasbasbag62
(g78
g64
NtRp1075
(dp1076
g67
(dp1077
sg76
g827
sg69
(lp1078
g62
(g83
g64
NtRp1079
(dp1080
g67
(dp1081
g87
g88
ssg76
g1075
sg69
(lp1082
S'http_connection'
p1083
asbag62
(g83
g64
NtRp1084
(dp1085
g67
(dp1086
g94
g95
ssg76
g1075
sg69
(lp1087
S':'
asbag62
(g83
g64
NtRp1088
(dp1089
g67
(dp1090
sg76
g1075
sg69
(lp1091
g62
(g63
g64
NtRp1092
(dp1093
g67
(dp1094
g75
I4
ssg76
g1088
sg69
(lp1095
S'keep-alive'
p1096
asbasbasbag62
(g78
g64
NtRp1097
(dp1098
g67
(dp1099
sg76
g827
sg69
(lp1100
g62
(g83
g64
NtRp1101
(dp1102
g67
(dp1103
g87
g88
ssg76
g1097
sg69
(lp1104
S'http_cookie'
p1105
asbag62
(g83
g64
NtRp1106
(dp1107
g67
(dp1108
g94
g95
ssg76
g1097
sg69
(lp1109
S':'
asbag62
(g83
g64
NtRp1110
(dp1111
g67
(dp1112
sg76
g1097
sg69
(lp1113
g62
(g63
g64
NtRp1114
(dp1115
g67
(dp1116
g75
I4
ssg76
g1110
sg69
(lp1117
S'session_id_welcome=127.0.0.1-678b1a4f-bdb2-46cd-abad-b52c0674e327; session_id_admin=127.0.0.1-898a117f-1979-482c-9a45-67a3f4c49569; session_id_project=127.0.0.1-b6115b3d-9b4c-4cde-b209-d74130608881'
p1118
asbasbasbag62
(g78
g64
NtRp1119
(dp1120
g67
(dp1121
sg76
g827
sg69
(lp1122
g62
(g83
g64
NtRp1123
(dp1124
g67
(dp1125
g87
g88
ssg76
g1119
sg69
(lp1126
S'http_host'
p1127
asbag62
(g83
g64
NtRp1128
(dp1129
g67
(dp1130
g94
g95
ssg76
g1119
sg69
(lp1131
S':'
asbag62
(g83
g64
NtRp1132
(dp1133
g67
(dp1134
sg76
g1119
sg69
(lp1135
g62
(g63
g64
NtRp1136
(dp1137
g67
(dp1138
g75
I4
ssg76
g1132
sg69
(lp1139
S'127.0.0.1:8000'
p1140
asbasbasbag62
(g78
g64
NtRp1141
(dp1142
g67
(dp1143
sg76
g827
sg69
(lp1144
g62
(g83
g64
NtRp1145
(dp1146
g67
(dp1147
g87
g88
ssg76
g1141
sg69
(lp1148
S'http_referer'
p1149
asbag62
(g83
g64
NtRp1150
(dp1151
g67
(dp1152
g94
g95
ssg76
g1141
sg69
(lp1153
S':'
asbag62
(g83
g64
NtRp1154
(dp1155
g67
(dp1156
sg76
g1141
sg69
(lp1157
g62
(g63
g64
NtRp1158
(dp1159
g67
(dp1160
g75
I4
ssg76
g1154
sg69
(lp1161
S'http://127.0.0.1:8000/project/default/relate'
p1162
asbasbasbag62
(g78
g64
NtRp1163
(dp1164
g67
(dp1165
sg76
g827
sg69
(lp1166
g62
(g83
g64
NtRp1167
(dp1168
g67
(dp1169
g87
g88
ssg76
g1163
sg69
(lp1170
S'http_user_agent'
p1171
asbag62
(g83
g64
NtRp1172
(dp1173
g67
(dp1174
g94
g95
ssg76
g1163
sg69
(lp1175
S':'
asbag62
(g83
g64
NtRp1176
(dp1177
g67
(dp1178
sg76
g1163
sg69
(lp1179
g62
(g63
g64
NtRp1180
(dp1181
g67
(dp1182
g75
I4
ssg76
g1176
sg69
(lp1183
S'Mozilla/5.0 (X11; Linux i686; rv:7.0.1) Gecko/20100101 Firefox/7.0.1'
p1184
asbasbasbag62
(g78
g64
NtRp1185
(dp1186
g67
(dp1187
sg76
g827
sg69
(lp1188
g62
(g83
g64
NtRp1189
(dp1190
g67
(dp1191
g87
g88
ssg76
g1185
sg69
(lp1192
S'is_jython'
p1193
asbag62
(g83
g64
NtRp1194
(dp1195
g67
(dp1196
g94
g95
ssg76
g1185
sg69
(lp1197
S':'
asbag62
(g83
g64
NtRp1198
(dp1199
g67
(dp1200
sg76
g1185
sg69
(lp1201
g62
(g63
g64
NtRp1202
(dp1203
g67
(dp1204
g75
I4
ssg76
g1198
sg69
(lp1205
g105
asbasbasbag62
(g78
g64
NtRp1206
(dp1207
g67
(dp1208
sg76
g827
sg69
(lp1209
g62
(g83
g64
NtRp1210
(dp1211
g67
(dp1212
g87
g88
ssg76
g1206
sg69
(lp1213
S'is_pypy'
p1214
asbag62
(g83
g64
NtRp1215
(dp1216
g67
(dp1217
g94
g95
ssg76
g1206
sg69
(lp1218
S':'
asbag62
(g83
g64
NtRp1219
(dp1220
g67
(dp1221
sg76
g1206
sg69
(lp1222
g62
(g63
g64
NtRp1223
(dp1224
g67
(dp1225
g75
I4
ssg76
g1219
sg69
(lp1226
g105
asbasbasbag62
(g78
g64
NtRp1227
(dp1228
g67
(dp1229
sg76
g827
sg69
(lp1230
g62
(g83
g64
NtRp1231
(dp1232
g67
(dp1233
g87
g88
ssg76
g1227
sg69
(lp1234
S'path_info'
p1235
asbag62
(g83
g64
NtRp1236
(dp1237
g67
(dp1238
g94
g95
ssg76
g1227
sg69
(lp1239
S':'
asbag62
(g83
g64
NtRp1240
(dp1241
g67
(dp1242
sg76
g1227
sg69
(lp1243
g62
(g63
g64
NtRp1244
(dp1245
g67
(dp1246
g75
I4
ssg76
g1240
sg69
(lp1247
S'/project/default/kruskal'
p1248
asbasbasbag62
(g78
g64
NtRp1249
(dp1250
g67
(dp1251
sg76
g827
sg69
(lp1252
g62
(g83
g64
NtRp1253
(dp1254
g67
(dp1255
g87
g88
ssg76
g1249
sg69
(lp1256
S'query_string'
p1257
asbag62
(g83
g64
NtRp1258
(dp1259
g67
(dp1260
g94
g95
ssg76
g1249
sg69
(lp1261
S':'
asbag62
(g83
g64
NtRp1262
(dp1263
g67
(dp1264
sg76
g1249
sg69
(lp1265
g62
(g63
g64
NtRp1266
(dp1267
g67
(dp1268
g75
I4
ssg76
g1262
sg69
(lp1269
S''
asbasbasbag62
(g78
g64
NtRp1270
(dp1271
g67
(dp1272
sg76
g827
sg69
(lp1273
g62
(g83
g64
NtRp1274
(dp1275
g67
(dp1276
g87
g88
ssg76
g1270
sg69
(lp1277
S'remote_addr'
p1278
asbag62
(g83
g64
NtRp1279
(dp1280
g67
(dp1281
g94
g95
ssg76
g1270
sg69
(lp1282
S':'
asbag62
(g83
g64
NtRp1283
(dp1284
g67
(dp1285
sg76
g1270
sg69
(lp1286
g62
(g63
g64
NtRp1287
(dp1288
g67
(dp1289
g75
I4
ssg76
g1283
sg69
(lp1290
g195
asbasbasbag62
(g78
g64
NtRp1291
(dp1292
g67
(dp1293
sg76
g827
sg69
(lp1294
g62
(g83
g64
NtRp1295
(dp1296
g67
(dp1297
g87
g88
ssg76
g1291
sg69
(lp1298
S'remote_port'
p1299
asbag62
(g83
g64
NtRp1300
(dp1301
g67
(dp1302
g94
g95
ssg76
g1291
sg69
(lp1303
S':'
asbag62
(g83
g64
NtRp1304
(dp1305
g67
(dp1306
sg76
g1291
sg69
(lp1307
g62
(g63
g64
NtRp1308
(dp1309
g67
(dp1310
g75
I4
ssg76
g1304
sg69
(lp1311
S'48079'
p1312
asbasbasbag62
(g78
g64
NtRp1313
(dp1314
g67
(dp1315
sg76
g827
sg69
(lp1316
g62
(g83
g64
NtRp1317
(dp1318
g67
(dp1319
g87
g88
ssg76
g1313
sg69
(lp1320
S'request_method'
p1321
asbag62
(g83
g64
NtRp1322
(dp1323
g67
(dp1324
g94
g95
ssg76
g1313
sg69
(lp1325
S':'
asbag62
(g83
g64
NtRp1326
(dp1327
g67
(dp1328
sg76
g1313
sg69
(lp1329
g62
(g63
g64
NtRp1330
(dp1331
g67
(dp1332
g75
I4
ssg76
g1326
sg69
(lp1333
S'GET'
p1334
asbasbasbag62
(g78
g64
NtRp1335
(dp1336
g67
(dp1337
sg76
g827
sg69
(lp1338
g62
(g83
g64
NtRp1339
(dp1340
g67
(dp1341
g87
g88
ssg76
g1335
sg69
(lp1342
S'script_name'
p1343
asbag62
(g83
g64
NtRp1344
(dp1345
g67
(dp1346
g94
g95
ssg76
g1335
sg69
(lp1347
S':'
asbag62
(g83
g64
NtRp1348
(dp1349
g67
(dp1350
sg76
g1335
sg69
(lp1351
g62
(g63
g64
NtRp1352
(dp1353
g67
(dp1354
g75
I4
ssg76
g1348
sg69
(lp1355
S''
asbasbasbag62
(g78
g64
NtRp1356
(dp1357
g67
(dp1358
sg76
g827
sg69
(lp1359
g62
(g83
g64
NtRp1360
(dp1361
g67
(dp1362
g87
g88
ssg76
g1356
sg69
(lp1363
S'server_name'
p1364
asbag62
(g83
g64
NtRp1365
(dp1366
g67
(dp1367
g94
g95
ssg76
g1356
sg69
(lp1368
S':'
asbag62
(g83
g64
NtRp1369
(dp1370
g67
(dp1371
sg76
g1356
sg69
(lp1372
g62
(g63
g64
NtRp1373
(dp1374
g67
(dp1375
g75
I4
ssg76
g1369
sg69
(lp1376
S'arpita-HP-630-Notebook-PC'
p1377
asbasbasbag62
(g78
g64
NtRp1378
(dp1379
g67
(dp1380
sg76
g827
sg69
(lp1381
g62
(g83
g64
NtRp1382
(dp1383
g67
(dp1384
g87
g88
ssg76
g1378
sg69
(lp1385
S'server_port'
p1386
asbag62
(g83
g64
NtRp1387
(dp1388
g67
(dp1389
g94
g95
ssg76
g1378
sg69
(lp1390
S':'
asbag62
(g83
g64
NtRp1391
(dp1392
g67
(dp1393
sg76
g1378
sg69
(lp1394
g62
(g63
g64
NtRp1395
(dp1396
g67
(dp1397
g75
I4
ssg76
g1391
sg69
(lp1398
S'8000'
p1399
asbasbasbag62
(g78
g64
NtRp1400
(dp1401
g67
(dp1402
sg76
g827
sg69
(lp1403
g62
(g83
g64
NtRp1404
(dp1405
g67
(dp1406
g87
g88
ssg76
g1400
sg69
(lp1407
S'server_protocol'
p1408
asbag62
(g83
g64
NtRp1409
(dp1410
g67
(dp1411
g94
g95
ssg76
g1400
sg69
(lp1412
S':'
asbag62
(g83
g64
NtRp1413
(dp1414
g67
(dp1415
sg76
g1400
sg69
(lp1416
g62
(g63
g64
NtRp1417
(dp1418
g67
(dp1419
g75
I4
ssg76
g1413
sg69
(lp1420
S'HTTP/1.1'
p1421
asbasbasbag62
(g78
g64
NtRp1422
(dp1423
g67
(dp1424
sg76
g827
sg69
(lp1425
g62
(g83
g64
NtRp1426
(dp1427
g67
(dp1428
g87
g88
ssg76
g1422
sg69
(lp1429
S'server_software'
p1430
asbag62
(g83
g64
NtRp1431
(dp1432
g67
(dp1433
g94
g95
ssg76
g1422
sg69
(lp1434
S':'
asbag62
(g83
g64
NtRp1435
(dp1436
g67
(dp1437
sg76
g1422
sg69
(lp1438
g62
(g63
g64
NtRp1439
(dp1440
g67
(dp1441
g75
I4
ssg76
g1435
sg69
(lp1442
S'Rocket 1.2.4'
p1443
asbasbasbag62
(g78
g64
NtRp1444
(dp1445
g67
(dp1446
sg76
g827
sg69
(lp1447
g62
(g83
g64
NtRp1448
(dp1449
g67
(dp1450
g87
g88
ssg76
g1444
sg69
(lp1451
S'web2py_crontype'
p1452
asbag62
(g83
g64
NtRp1453
(dp1454
g67
(dp1455
g94
g95
ssg76
g1444
sg69
(lp1456
S':'
asbag62
(g83
g64
NtRp1457
(dp1458
g67
(dp1459
sg76
g1444
sg69
(lp1460
g62
(g63
g64
NtRp1461
(dp1462
g67
(dp1463
g75
I4
ssg76
g1457
sg69
(lp1464
S'hard'
p1465
asbasbasbag62
(g78
g64
NtRp1466
(dp1467
g67
(dp1468
sg76
g827
sg69
(lp1469
g62
(g83
g64
NtRp1470
(dp1471
g67
(dp1472
g87
g88
ssg76
g1466
sg69
(lp1473
S'web2py_path'
p1474
asbag62
(g83
g64
NtRp1475
(dp1476
g67
(dp1477
g94
g95
ssg76
g1466
sg69
(lp1478
S':'
asbag62
(g83
g64
NtRp1479
(dp1480
g67
(dp1481
sg76
g1466
sg69
(lp1482
g62
(g63
g64
NtRp1483
(dp1484
g67
(dp1485
g75
I4
ssg76
g1479
sg69
(lp1486
g874
asbasbasbag62
(g78
g64
NtRp1487
(dp1488
g67
(dp1489
sg76
g827
sg69
(lp1490
g62
(g83
g64
NtRp1491
(dp1492
g67
(dp1493
g87
g88
ssg76
g1487
sg69
(lp1494
S'web2py_version'
p1495
asbag62
(g83
g64
NtRp1496
(dp1497
g67
(dp1498
g94
g95
ssg76
g1487
sg69
(lp1499
S':'
asbag62
(g83
g64
NtRp1500
(dp1501
g67
(dp1502
sg76
g1487
sg69
(lp1503
g62
(g63
g64
NtRp1504
(dp1505
g67
(dp1506
g75
I4
ssg76
g1500
sg69
(lp1507
g62
(g71
g64
NtRp1508
(dp1509
g67
(dp1510
g75
I3
ssg76
Nsg69
(lp1511
g62
(g78
g64
NtRp1512
(dp1513
g67
(dp1514
sg76
g1508
sg69
(lp1515
g62
(g83
g64
NtRp1516
(dp1517
g67
(dp1518
sg76
g1512
sg69
(lp1519
g62
(g63
g64
NtRp1520
(dp1521
g67
(dp1522
g75
I3
ssg76
g1516
sg69
(lp1523
S'1'
asbasbasbag62
(g78
g64
NtRp1524
(dp1525
g67
(dp1526
sg76
g1508
sg69
(lp1527
g62
(g83
g64
NtRp1528
(dp1529
g67
(dp1530
sg76
g1524
sg69
(lp1531
g62
(g63
g64
NtRp1532
(dp1533
g67
(dp1534
g75
I3
ssg76
g1528
sg69
(lp1535
S'99'
p1536
asbasbasbag62
(g78
g64
NtRp1537
(dp1538
g67
(dp1539
sg76
g1508
sg69
(lp1540
g62
(g83
g64
NtRp1541
(dp1542
g67
(dp1543
sg76
g1537
sg69
(lp1544
g62
(g63
g64
NtRp1545
(dp1546
g67
(dp1547
g75
I3
ssg76
g1541
sg69
(lp1548
S'7'
asbasbasbag62
(g78
g64
NtRp1549
(dp1550
g67
(dp1551
sg76
g1508
sg69
(lp1552
g62
(g83
g64
NtRp1553
(dp1554
g67
(dp1555
sg76
g1549
sg69
(lp1556
g62
(g63
g64
NtRp1557
(dp1558
g67
(dp1559
g75
I3
ssg76
g1553
sg69
(lp1560
S'datetime.datetime(2012, 3, 4, 22, 12, 8)'
p1561
asbasbasbag62
(g78
g64
NtRp1562
(dp1563
g67
(dp1564
sg76
g1508
sg69
(lp1565
g62
(g83
g64
NtRp1566
(dp1567
g67
(dp1568
sg76
g1562
sg69
(lp1569
g62
(g63
g64
NtRp1570
(dp1571
g67
(dp1572
g75
I3
ssg76
g1566
sg69
(lp1573
S'stable'
p1574
asbasbasbasbasbasbasbag62
(g78
g64
NtRp1575
(dp1576
g67
(dp1577
sg76
g827
sg69
(lp1578
g62
(g83
g64
NtRp1579
(dp1580
g67
(dp1581
g87
g88
ssg76
g1575
sg69
(lp1582
S'wsgi_errors'
p1583
asbag62
(g83
g64
NtRp1584
(dp1585
g67
(dp1586
g94
g95
ssg76
g1575
sg69
(lp1587
S':'
asbag62
(g83
g64
NtRp1588
(dp1589
g67
(dp1590
sg76
g1575
sg69
(lp1591
g62
(g63
g64
NtRp1592
(dp1593
g67
(dp1594
g75
I4
ssg76
g1588
sg69
(lp1595
S"<open file '<stderr>', mode 'w' at 0xb74190d0>"
p1596
asbasbasbag62
(g78
g64
NtRp1597
(dp1598
g67
(dp1599
sg76
g827
sg69
(lp1600
g62
(g83
g64
NtRp1601
(dp1602
g67
(dp1603
g87
g88
ssg76
g1597
sg69
(lp1604
S'wsgi_file_wrapper'
p1605
asbag62
(g83
g64
NtRp1606
(dp1607
g67
(dp1608
g94
g95
ssg76
g1597
sg69
(lp1609
S':'
asbag62
(g83
g64
NtRp1610
(dp1611
g67
(dp1612
sg76
g1597
sg69
(lp1613
g62
(g63
g64
NtRp1614
(dp1615
g67
(dp1616
g75
I4
ssg76
g1610
sg69
(lp1617
S'<class wsgiref.util.FileWrapper at 0x9231f5c>'
p1618
asbasbasbag62
(g78
g64
NtRp1619
(dp1620
g67
(dp1621
sg76
g827
sg69
(lp1622
g62
(g83
g64
NtRp1623
(dp1624
g67
(dp1625
g87
g88
ssg76
g1619
sg69
(lp1626
S'wsgi_input'
p1627
asbag62
(g83
g64
NtRp1628
(dp1629
g67
(dp1630
g94
g95
ssg76
g1619
sg69
(lp1631
S':'
asbag62
(g83
g64
NtRp1632
(dp1633
g67
(dp1634
sg76
g1619
sg69
(lp1635
g62
(g63
g64
NtRp1636
(dp1637
g67
(dp1638
g75
I4
ssg76
g1632
sg69
(lp1639
S'<socket._fileobject object at 0x97248ec>'
p1640
asbasbasbag62
(g78
g64
NtRp1641
(dp1642
g67
(dp1643
sg76
g827
sg69
(lp1644
g62
(g83
g64
NtRp1645
(dp1646
g67
(dp1647
g87
g88
ssg76
g1641
sg69
(lp1648
S'wsgi_multiprocess'
p1649
asbag62
(g83
g64
NtRp1650
(dp1651
g67
(dp1652
g94
g95
ssg76
g1641
sg69
(lp1653
S':'
asbag62
(g83
g64
NtRp1654
(dp1655
g67
(dp1656
sg76
g1641
sg69
(lp1657
g62
(g63
g64
NtRp1658
(dp1659
g67
(dp1660
g75
I4
ssg76
g1654
sg69
(lp1661
g105
asbasbasbag62
(g78
g64
NtRp1662
(dp1663
g67
(dp1664
sg76
g827
sg69
(lp1665
g62
(g83
g64
NtRp1666
(dp1667
g67
(dp1668
g87
g88
ssg76
g1662
sg69
(lp1669
S'wsgi_multithread'
p1670
asbag62
(g83
g64
NtRp1671
(dp1672
g67
(dp1673
g94
g95
ssg76
g1662
sg69
(lp1674
S':'
asbag62
(g83
g64
NtRp1675
(dp1676
g67
(dp1677
sg76
g1662
sg69
(lp1678
g62
(g63
g64
NtRp1679
(dp1680
g67
(dp1681
g75
I4
ssg76
g1675
sg69
(lp1682
S'True'
p1683
asbasbasbag62
(g78
g64
NtRp1684
(dp1685
g67
(dp1686
sg76
g827
sg69
(lp1687
g62
(g83
g64
NtRp1688
(dp1689
g67
(dp1690
g87
g88
ssg76
g1684
sg69
(lp1691
S'wsgi_run_once'
p1692
asbag62
(g83
g64
NtRp1693
(dp1694
g67
(dp1695
g94
g95
ssg76
g1684
sg69
(lp1696
S':'
asbag62
(g83
g64
NtRp1697
(dp1698
g67
(dp1699
sg76
g1684
sg69
(lp1700
g62
(g63
g64
NtRp1701
(dp1702
g67
(dp1703
g75
I4
ssg76
g1697
sg69
(lp1704
g105
asbasbasbag62
(g78
g64
NtRp1705
(dp1706
g67
(dp1707
sg76
g827
sg69
(lp1708
g62
(g83
g64
NtRp1709
(dp1710
g67
(dp1711
g87
g88
ssg76
g1705
sg69
(lp1712
S'wsgi_url_scheme'
p1713
asbag62
(g83
g64
NtRp1714
(dp1715
g67
(dp1716
g94
g95
ssg76
g1705
sg69
(lp1717
S':'
asbag62
(g83
g64
NtRp1718
(dp1719
g67
(dp1720
sg76
g1705
sg69
(lp1721
g62
(g63
g64
NtRp1722
(dp1723
g67
(dp1724
g75
I4
ssg76
g1718
sg69
(lp1725
S'http'
p1726
asbasbasbag62
(g78
g64
NtRp1727
(dp1728
g67
(dp1729
sg76
g827
sg69
(lp1730
g62
(g83
g64
NtRp1731
(dp1732
g67
(dp1733
g87
g88
ssg76
g1727
sg69
(lp1734
S'wsgi_version'
p1735
asbag62
(g83
g64
NtRp1736
(dp1737
g67
(dp1738
g94
g95
ssg76
g1727
sg69
(lp1739
S':'
asbag62
(g83
g64
NtRp1740
(dp1741
g67
(dp1742
sg76
g1727
sg69
(lp1743
g62
(g63
g64
NtRp1744
(dp1745
g67
(dp1746
g75
I4
ssg76
g1740
sg69
(lp1747
g62
(g71
g64
NtRp1748
(dp1749
g67
(dp1750
g75
I3
ssg76
Nsg69
(lp1751
g62
(g78
g64
NtRp1752
(dp1753
g67
(dp1754
sg76
g1748
sg69
(lp1755
g62
(g83
g64
NtRp1756
(dp1757
g67
(dp1758
sg76
g1752
sg69
(lp1759
g62
(g63
g64
NtRp1760
(dp1761
g67
(dp1762
g75
I3
ssg76
g1756
sg69
(lp1763
S'1'
asbasbasbag62
(g78
g64
NtRp1764
(dp1765
g67
(dp1766
sg76
g1748
sg69
(lp1767
g62
(g83
g64
NtRp1768
(dp1769
g67
(dp1770
sg76
g1764
sg69
(lp1771
g62
(g63
g64
NtRp1772
(dp1773
g67
(dp1774
g75
I3
ssg76
g1768
sg69
(lp1775
S'0'
asbasbasbasbasbasbasbasbasbasbasbag62
(g78
g64
NtRp1776
(dp1777
g67
(dp1778
sg76
g72
sg69
(lp1779
g62
(g83
g64
NtRp1780
(dp1781
g67
(dp1782
g87
g88
ssg76
g1776
sg69
(lp1783
S'extension'
p1784
asbag62
(g83
g64
NtRp1785
(dp1786
g67
(dp1787
g94
g95
ssg76
g1776
sg69
(lp1788
S':'
asbag62
(g83
g64
NtRp1789
(dp1790
g67
(dp1791
sg76
g1776
sg69
(lp1792
g62
(g63
g64
NtRp1793
(dp1794
g67
(dp1795
g75
I5
ssg76
g1789
sg69
(lp1796
S'html'
p1797
asbasbasbag62
(g78
g64
NtRp1798
(dp1799
g67
(dp1800
sg76
g72
sg69
(lp1801
g62
(g83
g64
NtRp1802
(dp1803
g67
(dp1804
g87
g88
ssg76
g1798
sg69
(lp1805
S'folder'
p1806
asbag62
(g83
g64
NtRp1807
(dp1808
g67
(dp1809
g94
g95
ssg76
g1798
sg69
(lp1810
S':'
asbag62
(g83
g64
NtRp1811
(dp1812
g67
(dp1813
sg76
g1798
sg69
(lp1814
g62
(g63
g64
NtRp1815
(dp1816
g67
(dp1817
g75
I5
ssg76
g1811
sg69
(lp1818
S'/home/arpita/courses/sem3/ssad/web2py/applications/project/'
p1819
asbasbasbag62
(g78
g64
NtRp1820
(dp1821
g67
(dp1822
sg76
g72
sg69
(lp1823
g62
(g83
g64
NtRp1824
(dp1825
g67
(dp1826
g87
g88
ssg76
g1820
sg69
(lp1827
S'function'
p1828
asbag62
(g83
g64
NtRp1829
(dp1830
g67
(dp1831
g94
g95
ssg76
g1820
sg69
(lp1832
S':'
asbag62
(g83
g64
NtRp1833
(dp1834
g67
(dp1835
sg76
g1820
sg69
(lp1836
g62
(g63
g64
NtRp1837
(dp1838
g67
(dp1839
g75
I5
ssg76
g1833
sg69
(lp1840
S'kruskal'
p1841
asbasbasbag62
(g78
g64
NtRp1842
(dp1843
g67
(dp1844
sg76
g72
sg69
(lp1845
g62
(g83
g64
NtRp1846
(dp1847
g67
(dp1848
g87
g88
ssg76
g1842
sg69
(lp1849
S'get_vars'
p1850
asbag62
(g83
g64
NtRp1851
(dp1852
g67
(dp1853
g94
g95
ssg76
g1842
sg69
(lp1854
S':'
asbag62
(g83
g64
NtRp1855
(dp1856
g67
(dp1857
sg76
g1842
sg69
(lp1858
g62
(g63
g64
NtRp1859
(dp1860
g67
(dp1861
g75
I5
ssg76
g1855
sg69
(lp1862
g62
(g71
g64
NtRp1863
(dp1864
g67
(dp1865
g75
I4
ssg76
Nsg69
(lp1866
sbasbasbasbag62
(g78
g64
NtRp1867
(dp1868
g67
(dp1869
sg76
g72
sg69
(lp1870
g62
(g83
g64
NtRp1871
(dp1872
g67
(dp1873
g87
g88
ssg76
g1867
sg69
(lp1874
S'global_settings'
p1875
asbag62
(g83
g64
NtRp1876
(dp1877
g67
(dp1878
g94
g95
ssg76
g1867
sg69
(lp1879
S':'
asbag62
(g83
g64
NtRp1880
(dp1881
g67
(dp1882
sg76
g1867
sg69
(lp1883
g62
(g63
g64
NtRp1884
(dp1885
g67
(dp1886
g75
I5
ssg76
g1880
sg69
(lp1887
g62
(g71
g64
NtRp1888
(dp1889
g67
(dp1890
g75
I4
ssg76
Nsg69
(lp1891
g62
(g78
g64
NtRp1892
(dp1893
g67
(dp1894
sg76
g1888
sg69
(lp1895
g62
(g83
g64
NtRp1896
(dp1897
g67
(dp1898
g87
g88
ssg76
g1892
sg69
(lp1899
g839
asbag62
(g83
g64
NtRp1900
(dp1901
g67
(dp1902
g94
g95
ssg76
g1892
sg69
(lp1903
S':'
asbag62
(g83
g64
NtRp1904
(dp1905
g67
(dp1906
sg76
g1892
sg69
(lp1907
g62
(g63
g64
NtRp1908
(dp1909
g67
(dp1910
g75
I4
ssg76
g1904
sg69
(lp1911
S"set(['/home/arpita/courses/sem3/ssad/web2py/applications/admin/', '/home/arpita/courses/sem3/ssad/web2py/applications/project/', '/home/arpita/courses/sem3/ssad/web2py/applications/welcome/'])"
p1912
asbasbasbag62
(g78
g64
NtRp1913
(dp1914
g67
(dp1915
sg76
g1888
sg69
(lp1916
g62
(g83
g64
NtRp1917
(dp1918
g67
(dp1919
g87
g88
ssg76
g1913
sg69
(lp1920
g861
asbag62
(g83
g64
NtRp1921
(dp1922
g67
(dp1923
g94
g95
ssg76
g1913
sg69
(lp1924
S':'
asbag62
(g83
g64
NtRp1925
(dp1926
g67
(dp1927
sg76
g1913
sg69
(lp1928
g62
(g63
g64
NtRp1929
(dp1930
g67
(dp1931
g75
I4
ssg76
g1925
sg69
(lp1932
g874
asbasbasbag62
(g78
g64
NtRp1933
(dp1934
g67
(dp1935
sg76
g1888
sg69
(lp1936
g62
(g83
g64
NtRp1937
(dp1938
g67
(dp1939
g87
g88
ssg76
g1933
sg69
(lp1940
g883
asbag62
(g83
g64
NtRp1941
(dp1942
g67
(dp1943
g94
g95
ssg76
g1933
sg69
(lp1944
S':'
asbag62
(g83
g64
NtRp1945
(dp1946
g67
(dp1947
sg76
g1933
sg69
(lp1948
g62
(g63
g64
NtRp1949
(dp1950
g67
(dp1951
g75
I4
ssg76
g1945
sg69
(lp1952
g62
(g71
g64
NtRp1953
(dp1954
g67
(dp1955
g75
I3
ssg76
Nsg69
(lp1956
sbasbasbasbag62
(g78
g64
NtRp1957
(dp1958
g67
(dp1959
sg76
g1888
sg69
(lp1960
g62
(g83
g64
NtRp1961
(dp1962
g67
(dp1963
g87
g88
ssg76
g1957
sg69
(lp1964
g908
asbag62
(g83
g64
NtRp1965
(dp1966
g67
(dp1967
g94
g95
ssg76
g1957
sg69
(lp1968
S':'
asbag62
(g83
g64
NtRp1969
(dp1970
g67
(dp1971
sg76
g1957
sg69
(lp1972
g62
(g63
g64
NtRp1973
(dp1974
g67
(dp1975
g75
I4
ssg76
g1969
sg69
(lp1976
S"<Values at 0x928e3cc: {'verbose': False, 'ip': '127.0.0.1', 'shutdown_timeout': 5, 'taskbar': False, 'nocron': False, 'pid_filename': 'httpserver.pid', 'maxthreads': None, 'softcron': False, 'server_name': 'arpita-HP-630-Notebook-PC', 'bpython': False, 'nogui': False, 'port': 8000, 'extcron': False, 'debuglevel': 30, 'test': None, 'folder': '/home/arpita/courses/sem3/ssad/web2py', 'config': '', 'import_models': False, 'winservice': '', 'shell': None, 'run': '', 'log_filename': 'httpserver.log', 'args': [''], 'socket_timeout': 5, 'ssl_ca_certificate': None, 'scheduler': None, 'profiler_filename': None, 'ssl_private_key': '', 'password': 'arpita', 'request_queue_size': 5, 'ssl_certificate': '', 'cronjob': False, 'numthreads': None, 'quiet': False, 'interfaces': None, 'minthreads': None, 'timeout': 10, 'plain': False, 'nobanner': False}>"
p1977
asbasbasbag62
(g78
g64
NtRp1978
(dp1979
g67
(dp1980
sg76
g1888
sg69
(lp1981
g62
(g83
g64
NtRp1982
(dp1983
g67
(dp1984
g87
g88
ssg76
g1978
sg69
(lp1985
g930
asbag62
(g83
g64
NtRp1986
(dp1987
g67
(dp1988
g94
g95
ssg76
g1978
sg69
(lp1989
S':'
asbag62
(g83
g64
NtRp1990
(dp1991
g67
(dp1992
sg76
g1978
sg69
(lp1993
g62
(g63
g64
NtRp1994
(dp1995
g67
(dp1996
g75
I4
ssg76
g1990
sg69
(lp1997
S'set([])'
p1998
asbasbasbag62
(g78
g64
NtRp1999
(dp2000
g67
(dp2001
sg76
g1888
sg69
(lp2002
g62
(g83
g64
NtRp2003
(dp2004
g67
(dp2005
g87
g88
ssg76
g1999
sg69
(lp2006
g952
asbag62
(g83
g64
NtRp2007
(dp2008
g67
(dp2009
g94
g95
ssg76
g1999
sg69
(lp2010
S':'
asbag62
(g83
g64
NtRp2011
(dp2012
g67
(dp2013
sg76
g1999
sg69
(lp2014
g62
(g63
g64
NtRp2015
(dp2016
g67
(dp2017
g75
I4
ssg76
g2011
sg69
(lp2018
g105
asbasbasbag62
(g78
g64
NtRp2019
(dp2020
g67
(dp2021
sg76
g1888
sg69
(lp2022
g62
(g83
g64
NtRp2023
(dp2024
g67
(dp2025
g87
g88
ssg76
g2019
sg69
(lp2026
g973
asbag62
(g83
g64
NtRp2027
(dp2028
g67
(dp2029
g94
g95
ssg76
g2019
sg69
(lp2030
S':'
asbag62
(g83
g64
NtRp2031
(dp2032
g67
(dp2033
sg76
g2019
sg69
(lp2034
g62
(g63
g64
NtRp2035
(dp2036
g67
(dp2037
g75
I4
ssg76
g2031
sg69
(lp2038
g986
asbasbasbag62
(g78
g64
NtRp2039
(dp2040
g67
(dp2041
sg76
g1888
sg69
(lp2042
g62
(g83
g64
NtRp2043
(dp2044
g67
(dp2045
g87
g88
ssg76
g2039
sg69
(lp2046
g1193
asbag62
(g83
g64
NtRp2047
(dp2048
g67
(dp2049
g94
g95
ssg76
g2039
sg69
(lp2050
S':'
asbag62
(g83
g64
NtRp2051
(dp2052
g67
(dp2053
sg76
g2039
sg69
(lp2054
g62
(g63
g64
NtRp2055
(dp2056
g67
(dp2057
g75
I4
ssg76
g2051
sg69
(lp2058
g105
asbasbasbag62
(g78
g64
NtRp2059
(dp2060
g67
(dp2061
sg76
g1888
sg69
(lp2062
g62
(g83
g64
NtRp2063
(dp2064
g67
(dp2065
g87
g88
ssg76
g2059
sg69
(lp2066
g1214
asbag62
(g83
g64
NtRp2067
(dp2068
g67
(dp2069
g94
g95
ssg76
g2059
sg69
(lp2070
S':'
asbag62
(g83
g64
NtRp2071
(dp2072
g67
(dp2073
sg76
g2059
sg69
(lp2074
g62
(g63
g64
NtRp2075
(dp2076
g67
(dp2077
g75
I4
ssg76
g2071
sg69
(lp2078
g105
asbasbasbag62
(g78
g64
NtRp2079
(dp2080
g67
(dp2081
sg76
g1888
sg69
(lp2082
g62
(g83
g64
NtRp2083
(dp2084
g67
(dp2085
g87
g88
ssg76
g2079
sg69
(lp2086
g1452
asbag62
(g83
g64
NtRp2087
(dp2088
g67
(dp2089
g94
g95
ssg76
g2079
sg69
(lp2090
S':'
asbag62
(g83
g64
NtRp2091
(dp2092
g67
(dp2093
sg76
g2079
sg69
(lp2094
g62
(g63
g64
NtRp2095
(dp2096
g67
(dp2097
g75
I4
ssg76
g2091
sg69
(lp2098
g1465
asbasbasbag62
(g78
g64
NtRp2099
(dp2100
g67
(dp2101
sg76
g1888
sg69
(lp2102
g62
(g83
g64
NtRp2103
(dp2104
g67
(dp2105
g87
g88
ssg76
g2099
sg69
(lp2106
g1495
asbag62
(g83
g64
NtRp2107
(dp2108
g67
(dp2109
g94
g95
ssg76
g2099
sg69
(lp2110
S':'
asbag62
(g83
g64
NtRp2111
(dp2112
g67
(dp2113
sg76
g2099
sg69
(lp2114
g62
(g63
g64
NtRp2115
(dp2116
g67
(dp2117
g75
I4
ssg76
g2111
sg69
(lp2118
g62
(g71
g64
NtRp2119
(dp2120
g67
(dp2121
g75
I3
ssg76
Nsg69
(lp2122
g62
(g78
g64
NtRp2123
(dp2124
g67
(dp2125
sg76
g2119
sg69
(lp2126
g62
(g83
g64
NtRp2127
(dp2128
g67
(dp2129
sg76
g2123
sg69
(lp2130
g62
(g63
g64
NtRp2131
(dp2132
g67
(dp2133
g75
I3
ssg76
g2127
sg69
(lp2134
S'1'
asbasbasbag62
(g78
g64
NtRp2135
(dp2136
g67
(dp2137
sg76
g2119
sg69
(lp2138
g62
(g83
g64
NtRp2139
(dp2140
g67
(dp2141
sg76
g2135
sg69
(lp2142
g62
(g63
g64
NtRp2143
(dp2144
g67
(dp2145
g75
I3
ssg76
g2139
sg69
(lp2146
S'99'
p2147
asbasbasbag62
(g78
g64
NtRp2148
(dp2149
g67
(dp2150
sg76
g2119
sg69
(lp2151
g62
(g83
g64
NtRp2152
(dp2153
g67
(dp2154
sg76
g2148
sg69
(lp2155
g62
(g63
g64
NtRp2156
(dp2157
g67
(dp2158
g75
I3
ssg76
g2152
sg69
(lp2159
S'7'
asbasbasbag62
(g78
g64
NtRp2160
(dp2161
g67
(dp2162
sg76
g2119
sg69
(lp2163
g62
(g83
g64
NtRp2164
(dp2165
g67
(dp2166
sg76
g2160
sg69
(lp2167
g62
(g63
g64
NtRp2168
(dp2169
g67
(dp2170
g75
I3
ssg76
g2164
sg69
(lp2171
S'datetime.datetime(2012, 3, 4, 22, 12, 8)'
p2172
asbasbasbag62
(g78
g64
NtRp2173
(dp2174
g67
(dp2175
sg76
g2119
sg69
(lp2176
g62
(g83
g64
NtRp2177
(dp2178
g67
(dp2179
sg76
g2173
sg69
(lp2180
g62
(g63
g64
NtRp2181
(dp2182
g67
(dp2183
g75
I3
ssg76
g2177
sg69
(lp2184
g1574
asbasbasbasbasbasbasbasbasbasbasbag62
(g78
g64
NtRp2185
(dp2186
g67
(dp2187
sg76
g72
sg69
(lp2188
g62
(g83
g64
NtRp2189
(dp2190
g67
(dp2191
g87
g88
ssg76
g2185
sg69
(lp2192
S'is_https'
p2193
asbag62
(g83
g64
NtRp2194
(dp2195
g67
(dp2196
g94
g95
ssg76
g2185
sg69
(lp2197
S':'
asbag62
(g83
g64
NtRp2198
(dp2199
g67
(dp2200
sg76
g2185
sg69
(lp2201
g62
(g63
g64
NtRp2202
(dp2203
g67
(dp2204
g75
I5
ssg76
g2198
sg69
(lp2205
g105
asbasbasbag62
(g78
g64
NtRp2206
(dp2207
g67
(dp2208
sg76
g72
sg69
(lp2209
g62
(g83
g64
NtRp2210
(dp2211
g67
(dp2212
g87
g88
ssg76
g2206
sg69
(lp2213
S'is_local'
p2214
asbag62
(g83
g64
NtRp2215
(dp2216
g67
(dp2217
g94
g95
ssg76
g2206
sg69
(lp2218
S':'
asbag62
(g83
g64
NtRp2219
(dp2220
g67
(dp2221
sg76
g2206
sg69
(lp2222
g62
(g63
g64
NtRp2223
(dp2224
g67
(dp2225
g75
I5
ssg76
g2219
sg69
(lp2226
g1683
asbasbasbag62
(g78
g64
NtRp2227
(dp2228
g67
(dp2229
sg76
g72
sg69
(lp2230
g62
(g83
g64
NtRp2231
(dp2232
g67
(dp2233
g87
g88
ssg76
g2227
sg69
(lp2234
S'is_restful'
p2235
asbag62
(g83
g64
NtRp2236
(dp2237
g67
(dp2238
g94
g95
ssg76
g2227
sg69
(lp2239
S':'
asbag62
(g83
g64
NtRp2240
(dp2241
g67
(dp2242
sg76
g2227
sg69
(lp2243
g62
(g63
g64
NtRp2244
(dp2245
g67
(dp2246
g75
I5
ssg76
g2240
sg69
(lp2247
g105
asbasbasbag62
(g78
g64
NtRp2248
(dp2249
g67
(dp2250
sg76
g72
sg69
(lp2251
g62
(g83
g64
NtRp2252
(dp2253
g67
(dp2254
g87
g88
ssg76
g2248
sg69
(lp2255
S'now'
p2256
asbag62
(g83
g64
NtRp2257
(dp2258
g67
(dp2259
g94
g95
ssg76
g2248
sg69
(lp2260
S':'
asbag62
(g83
g64
NtRp2261
(dp2262
g67
(dp2263
sg76
g2248
sg69
(lp2264
g62
(g63
g64
NtRp2265
(dp2266
g67
(dp2267
g75
I5
ssg76
g2261
sg69
(lp2268
S'datetime.datetime(2012, 11, 6, 6, 0, 36, 927543)'
p2269
asbasbasbag62
(g78
g64
NtRp2270
(dp2271
g67
(dp2272
sg76
g72
sg69
(lp2273
g62
(g83
g64
NtRp2274
(dp2275
g67
(dp2276
g87
g88
ssg76
g2270
sg69
(lp2277
S'post_vars'
p2278
asbag62
(g83
g64
NtRp2279
(dp2280
g67
(dp2281
g94
g95
ssg76
g2270
sg69
(lp2282
S':'
asbag62
(g83
g64
NtRp2283
(dp2284
g67
(dp2285
sg76
g2270
sg69
(lp2286
g62
(g63
g64
NtRp2287
(dp2288
g67
(dp2289
g75
I5
ssg76
g2283
sg69
(lp2290
g62
(g71
g64
NtRp2291
(dp2292
g67
(dp2293
g75
I4
ssg76
Nsg69
(lp2294
sbasbasbasbag62
(g78
g64
NtRp2295
(dp2296
g67
(dp2297
sg76
g72
sg69
(lp2298
g62
(g83
g64
NtRp2299
(dp2300
g67
(dp2301
g87
g88
ssg76
g2295
sg69
(lp2302
S'url'
p2303
asbag62
(g83
g64
NtRp2304
(dp2305
g67
(dp2306
g94
g95
ssg76
g2295
sg69
(lp2307
S':'
asbag62
(g83
g64
NtRp2308
(dp2309
g67
(dp2310
sg76
g2295
sg69
(lp2311
g62
(g63
g64
NtRp2312
(dp2313
g67
(dp2314
g75
I5
ssg76
g2308
sg69
(lp2315
S'/project/default/kruskal'
p2316
asbasbasbag62
(g78
g64
NtRp2317
(dp2318
g67
(dp2319
sg76
g72
sg69
(lp2320
g62
(g83
g64
NtRp2321
(dp2322
g67
(dp2323
g87
g88
ssg76
g2317
sg69
(lp2324
S'utcnow'
p2325
asbag62
(g83
g64
NtRp2326
(dp2327
g67
(dp2328
g94
g95
ssg76
g2317
sg69
(lp2329
S':'
asbag62
(g83
g64
NtRp2330
(dp2331
g67
(dp2332
sg76
g2317
sg69
(lp2333
g62
(g63
g64
NtRp2334
(dp2335
g67
(dp2336
g75
I5
ssg76
g2330
sg69
(lp2337
S'datetime.datetime(2012, 11, 6, 0, 30, 36, 927597)'
p2338
asbasbasbag62
(g78
g64
NtRp2339
(dp2340
g67
(dp2341
sg76
g72
sg69
(lp2342
g62
(g83
g64
NtRp2343
(dp2344
g67
(dp2345
g87
g88
ssg76
g2339
sg69
(lp2346
S'uuid'
p2347
asbag62
(g83
g64
NtRp2348
(dp2349
g67
(dp2350
g94
g95
ssg76
g2339
sg69
(lp2351
S':'
asbag62
(g83
g64
NtRp2352
(dp2353
g67
(dp2354
sg76
g2339
sg69
(lp2355
g62
(g63
g64
NtRp2356
(dp2357
g67
(dp2358
g75
I5
ssg76
g2352
sg69
(lp2359
S'project/127.0.0.1.2012-11-06.06-00-36.b7920460-1dba-468a-91ec-3837a9af94b2'
p2360
asbasbasbag62
(g78
g64
NtRp2361
(dp2362
g67
(dp2363
sg76
g72
sg69
(lp2364
g62
(g83
g64
NtRp2365
(dp2366
g67
(dp2367
g87
g88
ssg76
g2361
sg69
(lp2368
S'vars'
p2369
asbag62
(g83
g64
NtRp2370
(dp2371
g67
(dp2372
g94
g95
ssg76
g2361
sg69
(lp2373
S':'
asbag62
(g83
g64
NtRp2374
(dp2375
g67
(dp2376
sg76
g2361
sg69
(lp2377
g62
(g63
g64
NtRp2378
(dp2379
g67
(dp2380
g75
I5
ssg76
g2374
sg69
(lp2381
g62
(g71
g64
NtRp2382
(dp2383
g67
(dp2384
g75
I4
ssg76
Nsg69
(lp2385
sbasbasbasbag62
(g78
g64
NtRp2386
(dp2387
g67
(dp2388
sg76
g72
sg69
(lp2389
g62
(g83
g64
NtRp2390
(dp2391
g67
(dp2392
g87
g88
ssg76
g2386
sg69
(lp2393
S'wsgi'
p2394
asbag62
(g83
g64
NtRp2395
(dp2396
g67
(dp2397
g94
g95
ssg76
g2386
sg69
(lp2398
S':'
asbag62
(g83
g64
NtRp2399
(dp2400
g67
(dp2401
sg76
g2386
sg69
(lp2402
g62
(g63
g64
NtRp2403
(dp2404
g67
(dp2405
g75
I5
ssg76
g2399
sg69
(lp2406
g62
(g71
g64
NtRp2407
(dp2408
g67
(dp2409
g75
I4
ssg76
Nsg69
(lp2410
g62
(g78
g64
NtRp2411
(dp2412
g67
(dp2413
sg76
g2407
sg69
(lp2414
g62
(g83
g64
NtRp2415
(dp2416
g67
(dp2417
g87
g88
ssg76
g2411
sg69
(lp2418
S'environ'
p2419
asbag62
(g83
g64
NtRp2420
(dp2421
g67
(dp2422
g94
g95
ssg76
g2411
sg69
(lp2423
S':'
asbag62
(g83
g64
NtRp2424
(dp2425
g67
(dp2426
sg76
g2411
sg69
(lp2427
g62
(g63
g64
NtRp2428
(dp2429
g67
(dp2430
g75
I4
ssg76
g2424
sg69
(lp2431
g62
(g71
g64
NtRp2432
(dp2433
g67
(dp2434
g75
I3
ssg76
Nsg69
(lp2435
g62
(g78
g64
NtRp2436
(dp2437
g67
(dp2438
sg76
g2432
sg69
(lp2439
g62
(g83
g64
NtRp2440
(dp2441
g67
(dp2442
g87
g88
ssg76
g2436
sg69
(lp2443
S'HTTP_ACCEPT'
p2444
asbag62
(g83
g64
NtRp2445
(dp2446
g67
(dp2447
g94
g95
ssg76
g2436
sg69
(lp2448
S':'
asbag62
(g83
g64
NtRp2449
(dp2450
g67
(dp2451
sg76
g2436
sg69
(lp2452
g62
(g63
g64
NtRp2453
(dp2454
g67
(dp2455
g75
I3
ssg76
g2449
sg69
(lp2456
g1008
asbasbasbag62
(g78
g64
NtRp2457
(dp2458
g67
(dp2459
sg76
g2432
sg69
(lp2460
g62
(g83
g64
NtRp2461
(dp2462
g67
(dp2463
g87
g88
ssg76
g2457
sg69
(lp2464
S'HTTP_ACCEPT_CHARSET'
p2465
asbag62
(g83
g64
NtRp2466
(dp2467
g67
(dp2468
g94
g95
ssg76
g2457
sg69
(lp2469
S':'
asbag62
(g83
g64
NtRp2470
(dp2471
g67
(dp2472
sg76
g2457
sg69
(lp2473
g62
(g63
g64
NtRp2474
(dp2475
g67
(dp2476
g75
I3
ssg76
g2470
sg69
(lp2477
g1030
asbasbasbag62
(g78
g64
NtRp2478
(dp2479
g67
(dp2480
sg76
g2432
sg69
(lp2481
g62
(g83
g64
NtRp2482
(dp2483
g67
(dp2484
g87
g88
ssg76
g2478
sg69
(lp2485
S'HTTP_ACCEPT_ENCODING'
p2486
asbag62
(g83
g64
NtRp2487
(dp2488
g67
(dp2489
g94
g95
ssg76
g2478
sg69
(lp2490
S':'
asbag62
(g83
g64
NtRp2491
(dp2492
g67
(dp2493
sg76
g2478
sg69
(lp2494
g62
(g63
g64
NtRp2495
(dp2496
g67
(dp2497
g75
I3
ssg76
g2491
sg69
(lp2498
g1052
asbasbasbag62
(g78
g64
NtRp2499
(dp2500
g67
(dp2501
sg76
g2432
sg69
(lp2502
g62
(g83
g64
NtRp2503
(dp2504
g67
(dp2505
g87
g88
ssg76
g2499
sg69
(lp2506
S'HTTP_ACCEPT_LANGUAGE'
p2507
asbag62
(g83
g64
NtRp2508
(dp2509
g67
(dp2510
g94
g95
ssg76
g2499
sg69
(lp2511
S':'
asbag62
(g83
g64
NtRp2512
(dp2513
g67
(dp2514
sg76
g2499
sg69
(lp2515
g62
(g63
g64
NtRp2516
(dp2517
g67
(dp2518
g75
I3
ssg76
g2512
sg69
(lp2519
g1074
asbasbasbag62
(g78
g64
NtRp2520
(dp2521
g67
(dp2522
sg76
g2432
sg69
(lp2523
g62
(g83
g64
NtRp2524
(dp2525
g67
(dp2526
g87
g88
ssg76
g2520
sg69
(lp2527
S'HTTP_CONNECTION'
p2528
asbag62
(g83
g64
NtRp2529
(dp2530
g67
(dp2531
g94
g95
ssg76
g2520
sg69
(lp2532
S':'
asbag62
(g83
g64
NtRp2533
(dp2534
g67
(dp2535
sg76
g2520
sg69
(lp2536
g62
(g63
g64
NtRp2537
(dp2538
g67
(dp2539
g75
I3
ssg76
g2533
sg69
(lp2540
g1096
asbasbasbag62
(g78
g64
NtRp2541
(dp2542
g67
(dp2543
sg76
g2432
sg69
(lp2544
g62
(g83
g64
NtRp2545
(dp2546
g67
(dp2547
g87
g88
ssg76
g2541
sg69
(lp2548
S'HTTP_COOKIE'
p2549
asbag62
(g83
g64
NtRp2550
(dp2551
g67
(dp2552
g94
g95
ssg76
g2541
sg69
(lp2553
S':'
asbag62
(g83
g64
NtRp2554
(dp2555
g67
(dp2556
sg76
g2541
sg69
(lp2557
g62
(g63
g64
NtRp2558
(dp2559
g67
(dp2560
g75
I3
ssg76
g2554
sg69
(lp2561
g1118
asbasbasbag62
(g78
g64
NtRp2562
(dp2563
g67
(dp2564
sg76
g2432
sg69
(lp2565
g62
(g83
g64
NtRp2566
(dp2567
g67
(dp2568
g87
g88
ssg76
g2562
sg69
(lp2569
S'HTTP_HOST'
p2570
asbag62
(g83
g64
NtRp2571
(dp2572
g67
(dp2573
g94
g95
ssg76
g2562
sg69
(lp2574
S':'
asbag62
(g83
g64
NtRp2575
(dp2576
g67
(dp2577
sg76
g2562
sg69
(lp2578
g62
(g63
g64
NtRp2579
(dp2580
g67
(dp2581
g75
I3
ssg76
g2575
sg69
(lp2582
g1140
asbasbasbag62
(g78
g64
NtRp2583
(dp2584
g67
(dp2585
sg76
g2432
sg69
(lp2586
g62
(g83
g64
NtRp2587
(dp2588
g67
(dp2589
g87
g88
ssg76
g2583
sg69
(lp2590
S'HTTP_REFERER'
p2591
asbag62
(g83
g64
NtRp2592
(dp2593
g67
(dp2594
g94
g95
ssg76
g2583
sg69
(lp2595
S':'
asbag62
(g83
g64
NtRp2596
(dp2597
g67
(dp2598
sg76
g2583
sg69
(lp2599
g62
(g63
g64
NtRp2600
(dp2601
g67
(dp2602
g75
I3
ssg76
g2596
sg69
(lp2603
g1162
asbasbasbag62
(g78
g64
NtRp2604
(dp2605
g67
(dp2606
sg76
g2432
sg69
(lp2607
g62
(g83
g64
NtRp2608
(dp2609
g67
(dp2610
g87
g88
ssg76
g2604
sg69
(lp2611
S'HTTP_USER_AGENT'
p2612
asbag62
(g83
g64
NtRp2613
(dp2614
g67
(dp2615
g94
g95
ssg76
g2604
sg69
(lp2616
S':'
asbag62
(g83
g64
NtRp2617
(dp2618
g67
(dp2619
sg76
g2604
sg69
(lp2620
g62
(g63
g64
NtRp2621
(dp2622
g67
(dp2623
g75
I3
ssg76
g2617
sg69
(lp2624
g1184
asbasbasbag62
(g78
g64
NtRp2625
(dp2626
g67
(dp2627
sg76
g2432
sg69
(lp2628
g62
(g83
g64
NtRp2629
(dp2630
g67
(dp2631
g87
g88
ssg76
g2625
sg69
(lp2632
S'PATH_INFO'
p2633
asbag62
(g83
g64
NtRp2634
(dp2635
g67
(dp2636
g94
g95
ssg76
g2625
sg69
(lp2637
S':'
asbag62
(g83
g64
NtRp2638
(dp2639
g67
(dp2640
sg76
g2625
sg69
(lp2641
g62
(g63
g64
NtRp2642
(dp2643
g67
(dp2644
g75
I3
ssg76
g2638
sg69
(lp2645
g1248
asbasbasbag62
(g78
g64
NtRp2646
(dp2647
g67
(dp2648
sg76
g2432
sg69
(lp2649
g62
(g83
g64
NtRp2650
(dp2651
g67
(dp2652
g87
g88
ssg76
g2646
sg69
(lp2653
S'QUERY_STRING'
p2654
asbag62
(g83
g64
NtRp2655
(dp2656
g67
(dp2657
g94
g95
ssg76
g2646
sg69
(lp2658
S':'
asbag62
(g83
g64
NtRp2659
(dp2660
g67
(dp2661
sg76
g2646
sg69
(lp2662
g62
(g63
g64
NtRp2663
(dp2664
g67
(dp2665
g75
I3
ssg76
g2659
sg69
(lp2666
S''
asbasbasbag62
(g78
g64
NtRp2667
(dp2668
g67
(dp2669
sg76
g2432
sg69
(lp2670
g62
(g83
g64
NtRp2671
(dp2672
g67
(dp2673
g87
g88
ssg76
g2667
sg69
(lp2674
S'REMOTE_ADDR'
p2675
asbag62
(g83
g64
NtRp2676
(dp2677
g67
(dp2678
g94
g95
ssg76
g2667
sg69
(lp2679
S':'
asbag62
(g83
g64
NtRp2680
(dp2681
g67
(dp2682
sg76
g2667
sg69
(lp2683
g62
(g63
g64
NtRp2684
(dp2685
g67
(dp2686
g75
I3
ssg76
g2680
sg69
(lp2687
g195
asbasbasbag62
(g78
g64
NtRp2688
(dp2689
g67
(dp2690
sg76
g2432
sg69
(lp2691
g62
(g83
g64
NtRp2692
(dp2693
g67
(dp2694
g87
g88
ssg76
g2688
sg69
(lp2695
S'REMOTE_PORT'
p2696
asbag62
(g83
g64
NtRp2697
(dp2698
g67
(dp2699
g94
g95
ssg76
g2688
sg69
(lp2700
S':'
asbag62
(g83
g64
NtRp2701
(dp2702
g67
(dp2703
sg76
g2688
sg69
(lp2704
g62
(g63
g64
NtRp2705
(dp2706
g67
(dp2707
g75
I3
ssg76
g2701
sg69
(lp2708
g1312
asbasbasbag62
(g78
g64
NtRp2709
(dp2710
g67
(dp2711
sg76
g2432
sg69
(lp2712
g62
(g83
g64
NtRp2713
(dp2714
g67
(dp2715
g87
g88
ssg76
g2709
sg69
(lp2716
S'REQUEST_METHOD'
p2717
asbag62
(g83
g64
NtRp2718
(dp2719
g67
(dp2720
g94
g95
ssg76
g2709
sg69
(lp2721
S':'
asbag62
(g83
g64
NtRp2722
(dp2723
g67
(dp2724
sg76
g2709
sg69
(lp2725
g62
(g63
g64
NtRp2726
(dp2727
g67
(dp2728
g75
I3
ssg76
g2722
sg69
(lp2729
g1334
asbasbasbag62
(g78
g64
NtRp2730
(dp2731
g67
(dp2732
sg76
g2432
sg69
(lp2733
g62
(g83
g64
NtRp2734
(dp2735
g67
(dp2736
g87
g88
ssg76
g2730
sg69
(lp2737
S'SCRIPT_NAME'
p2738
asbag62
(g83
g64
NtRp2739
(dp2740
g67
(dp2741
g94
g95
ssg76
g2730
sg69
(lp2742
S':'
asbag62
(g83
g64
NtRp2743
(dp2744
g67
(dp2745
sg76
g2730
sg69
(lp2746
g62
(g63
g64
NtRp2747
(dp2748
g67
(dp2749
g75
I3
ssg76
g2743
sg69
(lp2750
S''
asbasbasbag62
(g78
g64
NtRp2751
(dp2752
g67
(dp2753
sg76
g2432
sg69
(lp2754
g62
(g83
g64
NtRp2755
(dp2756
g67
(dp2757
g87
g88
ssg76
g2751
sg69
(lp2758
S'SERVER_NAME'
p2759
asbag62
(g83
g64
NtRp2760
(dp2761
g67
(dp2762
g94
g95
ssg76
g2751
sg69
(lp2763
S':'
asbag62
(g83
g64
NtRp2764
(dp2765
g67
(dp2766
sg76
g2751
sg69
(lp2767
g62
(g63
g64
NtRp2768
(dp2769
g67
(dp2770
g75
I3
ssg76
g2764
sg69
(lp2771
g1377
asbasbasbag62
(g78
g64
NtRp2772
(dp2773
g67
(dp2774
sg76
g2432
sg69
(lp2775
g62
(g83
g64
NtRp2776
(dp2777
g67
(dp2778
g87
g88
ssg76
g2772
sg69
(lp2779
S'SERVER_PORT'
p2780
asbag62
(g83
g64
NtRp2781
(dp2782
g67
(dp2783
g94
g95
ssg76
g2772
sg69
(lp2784
S':'
asbag62
(g83
g64
NtRp2785
(dp2786
g67
(dp2787
sg76
g2772
sg69
(lp2788
g62
(g63
g64
NtRp2789
(dp2790
g67
(dp2791
g75
I3
ssg76
g2785
sg69
(lp2792
g1399
asbasbasbag62
(g78
g64
NtRp2793
(dp2794
g67
(dp2795
sg76
g2432
sg69
(lp2796
g62
(g83
g64
NtRp2797
(dp2798
g67
(dp2799
g87
g88
ssg76
g2793
sg69
(lp2800
S'SERVER_PROTOCOL'
p2801
asbag62
(g83
g64
NtRp2802
(dp2803
g67
(dp2804
g94
g95
ssg76
g2793
sg69
(lp2805
S':'
asbag62
(g83
g64
NtRp2806
(dp2807
g67
(dp2808
sg76
g2793
sg69
(lp2809
g62
(g63
g64
NtRp2810
(dp2811
g67
(dp2812
g75
I3
ssg76
g2806
sg69
(lp2813
g1421
asbasbasbag62
(g78
g64
NtRp2814
(dp2815
g67
(dp2816
sg76
g2432
sg69
(lp2817
g62
(g83
g64
NtRp2818
(dp2819
g67
(dp2820
g87
g88
ssg76
g2814
sg69
(lp2821
S'SERVER_SOFTWARE'
p2822
asbag62
(g83
g64
NtRp2823
(dp2824
g67
(dp2825
g94
g95
ssg76
g2814
sg69
(lp2826
S':'
asbag62
(g83
g64
NtRp2827
(dp2828
g67
(dp2829
sg76
g2814
sg69
(lp2830
g62
(g63
g64
NtRp2831
(dp2832
g67
(dp2833
g75
I3
ssg76
g2827
sg69
(lp2834
g1443
asbasbasbag62
(g78
g64
NtRp2835
(dp2836
g67
(dp2837
sg76
g2432
sg69
(lp2838
g62
(g83
g64
NtRp2839
(dp2840
g67
(dp2841
g87
g88
ssg76
g2835
sg69
(lp2842
S'wsgi.errors'
p2843
asbag62
(g83
g64
NtRp2844
(dp2845
g67
(dp2846
g94
g95
ssg76
g2835
sg69
(lp2847
S':'
asbag62
(g83
g64
NtRp2848
(dp2849
g67
(dp2850
sg76
g2835
sg69
(lp2851
g62
(g63
g64
NtRp2852
(dp2853
g67
(dp2854
g75
I3
ssg76
g2848
sg69
(lp2855
S"<open file '<stderr>', mode 'w' at 0xb74190d0>"
p2856
asbasbasbag62
(g78
g64
NtRp2857
(dp2858
g67
(dp2859
sg76
g2432
sg69
(lp2860
g62
(g83
g64
NtRp2861
(dp2862
g67
(dp2863
g87
g88
ssg76
g2857
sg69
(lp2864
S'wsgi.file_wrapper'
p2865
asbag62
(g83
g64
NtRp2866
(dp2867
g67
(dp2868
g94
g95
ssg76
g2857
sg69
(lp2869
S':'
asbag62
(g83
g64
NtRp2870
(dp2871
g67
(dp2872
sg76
g2857
sg69
(lp2873
g62
(g63
g64
NtRp2874
(dp2875
g67
(dp2876
g75
I3
ssg76
g2870
sg69
(lp2877
S'<class wsgiref.util.FileWrapper at 0x9231f5c>'
p2878
asbasbasbag62
(g78
g64
NtRp2879
(dp2880
g67
(dp2881
sg76
g2432
sg69
(lp2882
g62
(g83
g64
NtRp2883
(dp2884
g67
(dp2885
g87
g88
ssg76
g2879
sg69
(lp2886
S'wsgi.input'
p2887
asbag62
(g83
g64
NtRp2888
(dp2889
g67
(dp2890
g94
g95
ssg76
g2879
sg69
(lp2891
S':'
asbag62
(g83
g64
NtRp2892
(dp2893
g67
(dp2894
sg76
g2879
sg69
(lp2895
g62
(g63
g64
NtRp2896
(dp2897
g67
(dp2898
g75
I3
ssg76
g2892
sg69
(lp2899
S'<cStringIO.StringO object at 0x9604620>'
p2900
asbasbasbag62
(g78
g64
NtRp2901
(dp2902
g67
(dp2903
sg76
g2432
sg69
(lp2904
g62
(g83
g64
NtRp2905
(dp2906
g67
(dp2907
g87
g88
ssg76
g2901
sg69
(lp2908
S'wsgi.multiprocess'
p2909
asbag62
(g83
g64
NtRp2910
(dp2911
g67
(dp2912
g94
g95
ssg76
g2901
sg69
(lp2913
S':'
asbag62
(g83
g64
NtRp2914
(dp2915
g67
(dp2916
sg76
g2901
sg69
(lp2917
g62
(g63
g64
NtRp2918
(dp2919
g67
(dp2920
g75
I3
ssg76
g2914
sg69
(lp2921
g105
asbasbasbag62
(g78
g64
NtRp2922
(dp2923
g67
(dp2924
sg76
g2432
sg69
(lp2925
g62
(g83
g64
NtRp2926
(dp2927
g67
(dp2928
g87
g88
ssg76
g2922
sg69
(lp2929
S'wsgi.multithread'
p2930
asbag62
(g83
g64
NtRp2931
(dp2932
g67
(dp2933
g94
g95
ssg76
g2922
sg69
(lp2934
S':'
asbag62
(g83
g64
NtRp2935
(dp2936
g67
(dp2937
sg76
g2922
sg69
(lp2938
g62
(g63
g64
NtRp2939
(dp2940
g67
(dp2941
g75
I3
ssg76
g2935
sg69
(lp2942
g1683
asbasbasbag62
(g78
g64
NtRp2943
(dp2944
g67
(dp2945
sg76
g2432
sg69
(lp2946
g62
(g83
g64
NtRp2947
(dp2948
g67
(dp2949
g87
g88
ssg76
g2943
sg69
(lp2950
S'wsgi.run_once'
p2951
asbag62
(g83
g64
NtRp2952
(dp2953
g67
(dp2954
g94
g95
ssg76
g2943
sg69
(lp2955
S':'
asbag62
(g83
g64
NtRp2956
(dp2957
g67
(dp2958
sg76
g2943
sg69
(lp2959
g62
(g63
g64
NtRp2960
(dp2961
g67
(dp2962
g75
I3
ssg76
g2956
sg69
(lp2963
g105
asbasbasbag62
(g78
g64
NtRp2964
(dp2965
g67
(dp2966
sg76
g2432
sg69
(lp2967
g62
(g83
g64
NtRp2968
(dp2969
g67
(dp2970
g87
g88
ssg76
g2964
sg69
(lp2971
S'wsgi.url_scheme'
p2972
asbag62
(g83
g64
NtRp2973
(dp2974
g67
(dp2975
g94
g95
ssg76
g2964
sg69
(lp2976
S':'
asbag62
(g83
g64
NtRp2977
(dp2978
g67
(dp2979
sg76
g2964
sg69
(lp2980
g62
(g63
g64
NtRp2981
(dp2982
g67
(dp2983
g75
I3
ssg76
g2977
sg69
(lp2984
g1726
asbasbasbag62
(g78
g64
NtRp2985
(dp2986
g67
(dp2987
sg76
g2432
sg69
(lp2988
g62
(g83
g64
NtRp2989
(dp2990
g67
(dp2991
g87
g88
ssg76
g2985
sg69
(lp2992
S'wsgi.version'
p2993
asbag62
(g83
g64
NtRp2994
(dp2995
g67
(dp2996
g94
g95
ssg76
g2985
sg69
(lp2997
S':'
asbag62
(g83
g64
NtRp2998
(dp2999
g67
(dp3000
sg76
g2985
sg69
(lp3001
g62
(g63
g64
NtRp3002
(dp3003
g67
(dp3004
g75
I3
ssg76
g2998
sg69
(lp3005
S'1'
asbasbasbasbasbasbasbasbasbasbasbasbasbsS'frames'
p3006
(lp3007
(dp3008
S'file'
p3009
S'/home/arpita/courses/sem3/ssad/web2py/gluon/restricted.py'
p3010
sS'dump'
p3011
(dp3012
S'environment'
p3013
S"{'A': <class 'gluon.html.A'>, 'Auth': <class 'gluon.tools.Auth'>, 'B': <class 'gluon.html.B'>, 'BEAUTIFY': <class 'gluon.html.BEAUTIFY'>, 'BODY': <class 'gluon.html.BODY'>, 'BR': <class 'gluon.html.BR'>, 'BUTTON': <class 'gluon.html.BUTTON'>, 'CAT': <class 'gluon.html.CAT'>, 'CENTER': <class 'gluon.html.CENTER'>, 'CLEANUP': <class 'gluon.validators.CLEANUP'>, ...}"
p3014
sS'ccode'
p3015
S'<code object <module> at 0x9ee5188, file "/home/...cations/project/controllers/default.py", line 11>'
p3016
ssS'lnum'
p3017
I205
sS'lines'
p3018
(dp3019
I200
S'    try:'
p3020
sI201
S'        if type(code) == types.CodeType:'
p3021
sI202
S'            ccode = code'
p3022
sI203
S'        else:'
p3023
sI204
S'            ccode = compile2(code,layer)'
p3024
sI205
S'        exec ccode in environment'
p3025
sI206
S'    except HTTP:'
p3026
sI207
S'        raise'
p3027
sI208
S'    except RestrictedError:'
p3028
sI209
S'        # do not encapsulate (obfuscate) the original RestrictedError'
p3029
ssS'call'
p3030
S"(code='# -*- coding: utf-8 -*-\\n# this file is released ...p,q=q)\\n\\nresponse._vars=response._caller(kruskal)\\n', environment={'A': <class 'gluon.html.A'>, 'Auth': <class 'gluon.tools.Auth'>, 'B': <class 'gluon.html.B'>, 'BEAUTIFY': <class 'gluon.html.BEAUTIFY'>, 'BODY': <class 'gluon.html.BODY'>, 'BR': <class 'gluon.html.BR'>, 'BUTTON': <class 'gluon.html.BUTTON'>, 'CAT': <class 'gluon.html.CAT'>, 'CENTER': <class 'gluon.html.CENTER'>, 'CLEANUP': <class 'gluon.validators.CLEANUP'>, ...}, layer='/home/arpita/courses/sem3/ssad/web2py/applications/project/controllers/default.py')"
p3031
sS'func'
p3032
S'restricted'
p3033
sa(dp3034
g3009
S'/home/arpita/courses/sem3/ssad/web2py/applications/project/controllers/default.py'
p3035
sg3011
(dp3036
sg3017
I142
sg3018
(dp3037
I131
S'        for i in xrange(counts+1):'
p3038
sI132
S'                for j in xrange(counts+1):'
p3039
sI133
S'                      if ed[i][j]==1:'
p3040
sI134
S'                           p[k]=i'
p3041
sI135
S'                           q[k]=j'
p3042
sI136
S'                           k=k+1'
p3043
sI137
S"    file = open('applications/project/controller/myfile.txt','w')"
p3044
sI138
S"    file.write('hello world')"
p3045
sI139
S'    file.close()'
p3046
sI140
S'    return dict(p=p,q=q)'
p3047
ssg3030
S'()'
p3048
sg3032
S'<module>'
p3049
sa(dp3050
g3009
S'/home/arpita/courses/sem3/ssad/web2py/gluon/globals.py'
p3051
sg3011
(dp3052
S'self'
p3053
S'undefined'
p3054
sS'f'
S'<function kruskal>'
p3055
ssg3017
I173
sg3018
(dp3056
I168
S'        self.menu = []             # used by the default view layout'
p3057
sI169
S'        self.files = []            # used by web2py_ajax.html'
p3058
sI170
S'        self.generic_patterns = [] # patterns to allow generic views'
p3059
sI171
S"        self.delimiters = ('{{','}}')"
p3060
sI172
S'        self._vars = None'
p3061
sI173
S'        self._caller = lambda f: f()'
p3062
sI174
S'        self._view_environment = None'
p3063
sI175
S'        self._custom_commit = None'
p3064
sI176
S'        self._custom_rollback = None'
p3065
sI177
S''
ssg3030
S'(f=<function kruskal>)'
p3066
sg3032
S'<lambda>'
p3067
sa(dp3068
g3009
S'/home/arpita/courses/sem3/ssad/web2py/applications/project/controllers/default.py'
p3069
sg3011
(dp3070
S'builtinfile'
p3071
S"<type 'file'>"
p3072
sS'builtinopen'
p3073
S'<built-in function open>'
p3074
ssg3017
I137
sg3018
(dp3075
I131
S'        for i in xrange(counts+1):'
p3076
sI132
S'                for j in xrange(counts+1):'
p3077
sI133
S'                      if ed[i][j]==1:'
p3078
sI134
S'                           p[k]=i'
p3079
sI135
S'                           q[k]=j'
p3080
sI136
S'                           k=k+1'
p3081
sI137
S"    file = open('applications/project/controller/myfile.txt','w')"
p3082
sI138
S"    file.write('hello world')"
p3083
sI139
S'    file.close()'
p3084
sI140
S'    return dict(p=p,q=q)'
p3085
ssg3030
S'()'
p3086
sg3032
S'kruskal'
p3087
sasS'pyver'
p3088
S'Python 2.7.2+: /usr/bin/python'
p3089
sS'session'
p3090
g62
(g63
g64
NtRp3091
(dp3092
g67
(dp3093
sg69
(lp3094
g62
(g71
g64
NtRp3095
(dp3096
g67
(dp3097
g75
I5
ssg76
Nsg69
(lp3098
g62
(g78
g64
NtRp3099
(dp3100
g67
(dp3101
sg76
g3095
sg69
(lp3102
g62
(g83
g64
NtRp3103
(dp3104
g67
(dp3105
g87
g88
ssg76
g3099
sg69
(lp3106
S'auth'
p3107
asbag62
(g83
g64
NtRp3108
(dp3109
g67
(dp3110
g94
g95
ssg76
g3099
sg69
(lp3111
S':'
asbag62
(g83
g64
NtRp3112
(dp3113
g67
(dp3114
sg76
g3099
sg69
(lp3115
g62
(g63
g64
NtRp3116
(dp3117
g67
(dp3118
g75
I5
ssg76
g3112
sg69
(lp3119
g62
(g71
g64
NtRp3120
(dp3121
g67
(dp3122
g75
I4
ssg76
Nsg69
(lp3123
g62
(g78
g64
NtRp3124
(dp3125
g67
(dp3126
sg76
g3120
sg69
(lp3127
g62
(g83
g64
NtRp3128
(dp3129
g67
(dp3130
g87
g88
ssg76
g3124
sg69
(lp3131
S'expiration'
p3132
asbag62
(g83
g64
NtRp3133
(dp3134
g67
(dp3135
g94
g95
ssg76
g3124
sg69
(lp3136
S':'
asbag62
(g83
g64
NtRp3137
(dp3138
g67
(dp3139
sg76
g3124
sg69
(lp3140
g62
(g63
g64
NtRp3141
(dp3142
g67
(dp3143
g75
I4
ssg76
g3137
sg69
(lp3144
S'3600'
p3145
asbasbasbag62
(g78
g64
NtRp3146
(dp3147
g67
(dp3148
sg76
g3120
sg69
(lp3149
g62
(g83
g64
NtRp3150
(dp3151
g67
(dp3152
g87
g88
ssg76
g3146
sg69
(lp3153
S'hmac_key'
p3154
asbag62
(g83
g64
NtRp3155
(dp3156
g67
(dp3157
g94
g95
ssg76
g3146
sg69
(lp3158
S':'
asbag62
(g83
g64
NtRp3159
(dp3160
g67
(dp3161
sg76
g3146
sg69
(lp3162
g62
(g63
g64
NtRp3163
(dp3164
g67
(dp3165
g75
I4
ssg76
g3159
sg69
(lp3166
S'676ea9e4-8900-4be2-b220-93cae2b5f302'
p3167
asbasbasbag62
(g78
g64
NtRp3168
(dp3169
g67
(dp3170
sg76
g3120
sg69
(lp3171
g62
(g83
g64
NtRp3172
(dp3173
g67
(dp3174
g87
g88
ssg76
g3168
sg69
(lp3175
S'last_visit'
p3176
asbag62
(g83
g64
NtRp3177
(dp3178
g67
(dp3179
g94
g95
ssg76
g3168
sg69
(lp3180
S':'
asbag62
(g83
g64
NtRp3181
(dp3182
g67
(dp3183
sg76
g3168
sg69
(lp3184
g62
(g63
g64
NtRp3185
(dp3186
g67
(dp3187
g75
I4
ssg76
g3181
sg69
(lp3188
S'datetime.datetime(2012, 11, 6, 6, 0, 31, 370496)'
p3189
asbasbasbag62
(g78
g64
NtRp3190
(dp3191
g67
(dp3192
sg76
g3120
sg69
(lp3193
g62
(g83
g64
NtRp3194
(dp3195
g67
(dp3196
g87
g88
ssg76
g3190
sg69
(lp3197
S'remember'
p3198
asbag62
(g83
g64
NtRp3199
(dp3200
g67
(dp3201
g94
g95
ssg76
g3190
sg69
(lp3202
S':'
asbag62
(g83
g64
NtRp3203
(dp3204
g67
(dp3205
sg76
g3190
sg69
(lp3206
g62
(g63
g64
NtRp3207
(dp3208
g67
(dp3209
g75
I4
ssg76
g3203
sg69
(lp3210
g105
asbasbasbag62
(g78
g64
NtRp3211
(dp3212
g67
(dp3213
sg76
g3120
sg69
(lp3214
g62
(g83
g64
NtRp3215
(dp3216
g67
(dp3217
g87
g88
ssg76
g3211
sg69
(lp3218
S'user'
p3219
asbag62
(g83
g64
NtRp3220
(dp3221
g67
(dp3222
g94
g95
ssg76
g3211
sg69
(lp3223
S':'
asbag62
(g83
g64
NtRp3224
(dp3225
g67
(dp3226
sg76
g3211
sg69
(lp3227
g62
(g63
g64
NtRp3228
(dp3229
g67
(dp3230
g75
I4
ssg76
g3224
sg69
(lp3231
g62
(g71
g64
NtRp3232
(dp3233
g67
(dp3234
g75
I3
ssg76
Nsg69
(lp3235
g62
(g78
g64
NtRp3236
(dp3237
g67
(dp3238
sg76
g3232
sg69
(lp3239
g62
(g83
g64
NtRp3240
(dp3241
g67
(dp3242
g87
g88
ssg76
g3236
sg69
(lp3243
S'email'
p3244
asbag62
(g83
g64
NtRp3245
(dp3246
g67
(dp3247
g94
g95
ssg76
g3236
sg69
(lp3248
S':'
asbag62
(g83
g64
NtRp3249
(dp3250
g67
(dp3251
sg76
g3236
sg69
(lp3252
g62
(g63
g64
NtRp3253
(dp3254
g67
(dp3255
g75
I3
ssg76
g3249
sg69
(lp3256
S'rammurthy@faculty.iiit.ac.in'
p3257
asbasbasbag62
(g78
g64
NtRp3258
(dp3259
g67
(dp3260
sg76
g3232
sg69
(lp3261
g62
(g83
g64
NtRp3262
(dp3263
g67
(dp3264
g87
g88
ssg76
g3258
sg69
(lp3265
S'first_name'
p3266
asbag62
(g83
g64
NtRp3267
(dp3268
g67
(dp3269
g94
g95
ssg76
g3258
sg69
(lp3270
S':'
asbag62
(g83
g64
NtRp3271
(dp3272
g67
(dp3273
sg76
g3258
sg69
(lp3274
g62
(g63
g64
NtRp3275
(dp3276
g67
(dp3277
g75
I3
ssg76
g3271
sg69
(lp3278
S'rammurthy'
p3279
asbasbasbag62
(g78
g64
NtRp3280
(dp3281
g67
(dp3282
sg76
g3232
sg69
(lp3283
g62
(g83
g64
NtRp3284
(dp3285
g67
(dp3286
g87
g88
ssg76
g3280
sg69
(lp3287
S'id'
p3288
asbag62
(g83
g64
NtRp3289
(dp3290
g67
(dp3291
g94
g95
ssg76
g3280
sg69
(lp3292
S':'
asbag62
(g83
g64
NtRp3293
(dp3294
g67
(dp3295
sg76
g3280
sg69
(lp3296
g62
(g63
g64
NtRp3297
(dp3298
g67
(dp3299
g75
I3
ssg76
g3293
sg69
(lp3300
S'1'
asbasbasbag62
(g78
g64
NtRp3301
(dp3302
g67
(dp3303
sg76
g3232
sg69
(lp3304
g62
(g83
g64
NtRp3305
(dp3306
g67
(dp3307
g87
g88
ssg76
g3301
sg69
(lp3308
S'last_name'
p3309
asbag62
(g83
g64
NtRp3310
(dp3311
g67
(dp3312
g94
g95
ssg76
g3301
sg69
(lp3313
S':'
asbag62
(g83
g64
NtRp3314
(dp3315
g67
(dp3316
sg76
g3301
sg69
(lp3317
g62
(g63
g64
NtRp3318
(dp3319
g67
(dp3320
g75
I3
ssg76
g3314
sg69
(lp3321
S'sir'
p3322
asbasbasbag62
(g78
g64
NtRp3323
(dp3324
g67
(dp3325
sg76
g3232
sg69
(lp3326
g62
(g83
g64
NtRp3327
(dp3328
g67
(dp3329
g87
g88
ssg76
g3323
sg69
(lp3330
S'password'
p3331
asbag62
(g83
g64
NtRp3332
(dp3333
g67
(dp3334
g94
g95
ssg76
g3323
sg69
(lp3335
S':'
asbag62
(g83
g64
NtRp3336
(dp3337
g67
(dp3338
sg76
g3323
sg69
(lp3339
g62
(g63
g64
NtRp3340
(dp3341
g67
(dp3342
g75
I3
ssg76
g3336
sg69
(lp3343
S'9da56e6636f0f89c2a2b7b54a400c423'
p3344
asbasbasbag62
(g78
g64
NtRp3345
(dp3346
g67
(dp3347
sg76
g3232
sg69
(lp3348
g62
(g83
g64
NtRp3349
(dp3350
g67
(dp3351
g87
g88
ssg76
g3345
sg69
(lp3352
S'registration_id'
p3353
asbag62
(g83
g64
NtRp3354
(dp3355
g67
(dp3356
g94
g95
ssg76
g3345
sg69
(lp3357
S':'
asbag62
(g83
g64
NtRp3358
(dp3359
g67
(dp3360
sg76
g3345
sg69
(lp3361
g62
(g63
g64
NtRp3362
(dp3363
g67
(dp3364
g75
I3
ssg76
g3358
sg69
(lp3365
S''
asbasbasbag62
(g78
g64
NtRp3366
(dp3367
g67
(dp3368
sg76
g3232
sg69
(lp3369
g62
(g83
g64
NtRp3370
(dp3371
g67
(dp3372
g87
g88
ssg76
g3366
sg69
(lp3373
S'registration_key'
p3374
asbag62
(g83
g64
NtRp3375
(dp3376
g67
(dp3377
g94
g95
ssg76
g3366
sg69
(lp3378
S':'
asbag62
(g83
g64
NtRp3379
(dp3380
g67
(dp3381
sg76
g3366
sg69
(lp3382
g62
(g63
g64
NtRp3383
(dp3384
g67
(dp3385
g75
I3
ssg76
g3379
sg69
(lp3386
S''
asbasbasbag62
(g78
g64
NtRp3387
(dp3388
g67
(dp3389
sg76
g3232
sg69
(lp3390
g62
(g83
g64
NtRp3391
(dp3392
g67
(dp3393
g87
g88
ssg76
g3387
sg69
(lp3394
S'reset_password_key'
p3395
asbag62
(g83
g64
NtRp3396
(dp3397
g67
(dp3398
g94
g95
ssg76
g3387
sg69
(lp3399
S':'
asbag62
(g83
g64
NtRp3400
(dp3401
g67
(dp3402
sg76
g3387
sg69
(lp3403
g62
(g63
g64
NtRp3404
(dp3405
g67
(dp3406
g75
I3
ssg76
g3400
sg69
(lp3407
S''
asbasbasbasbasbasbasbag62
(g78
g64
NtRp3408
(dp3409
g67
(dp3410
sg76
g3120
sg69
(lp3411
g62
(g83
g64
NtRp3412
(dp3413
g67
(dp3414
g87
g88
ssg76
g3408
sg69
(lp3415
S'user_groups'
p3416
asbag62
(g83
g64
NtRp3417
(dp3418
g67
(dp3419
g94
g95
ssg76
g3408
sg69
(lp3420
S':'
asbag62
(g83
g64
NtRp3421
(dp3422
g67
(dp3423
sg76
g3408
sg69
(lp3424
g62
(g63
g64
NtRp3425
(dp3426
g67
(dp3427
g75
I4
ssg76
g3421
sg69
(lp3428
g62
(g71
g64
NtRp3429
(dp3430
g67
(dp3431
g75
I3
ssg76
Nsg69
(lp3432
g62
(g78
g64
NtRp3433
(dp3434
g67
(dp3435
sg76
g3429
sg69
(lp3436
g62
(g83
g64
NtRp3437
(dp3438
g67
(dp3439
g87
g88
ssg76
g3433
sg69
(lp3440
S'1'
asbag62
(g83
g64
NtRp3441
(dp3442
g67
(dp3443
g94
g95
ssg76
g3433
sg69
(lp3444
S':'
asbag62
(g83
g64
NtRp3445
(dp3446
g67
(dp3447
sg76
g3433
sg69
(lp3448
g62
(g63
g64
NtRp3449
(dp3450
g67
(dp3451
g75
I3
ssg76
g3445
sg69
(lp3452
S'user_1'
p3453
asbasbasbag62
(g78
g64
NtRp3454
(dp3455
g67
(dp3456
sg76
g3429
sg69
(lp3457
g62
(g83
g64
NtRp3458
(dp3459
g67
(dp3460
g87
g88
ssg76
g3454
sg69
(lp3461
S'2'
asbag62
(g83
g64
NtRp3462
(dp3463
g67
(dp3464
g94
g95
ssg76
g3454
sg69
(lp3465
S':'
asbag62
(g83
g64
NtRp3466
(dp3467
g67
(dp3468
sg76
g3454
sg69
(lp3469
g62
(g63
g64
NtRp3470
(dp3471
g67
(dp3472
g75
I3
ssg76
g3466
sg69
(lp3473
S'Administrator'
p3474
asbasbasbasbasbasbasbasbasbasbasbasbasbsS'etype'
p3475
S"<type 'exceptions.IOError'>"
p3476
sS'date'
p3477
S'Tue Nov  6 06:00:37 2012'
p3478
sS'response'
p3479
g62
(g63
g64
NtRp3480
(dp3481
g67
(dp3482
sg69
(lp3483
g62
(g71
g64
NtRp3484
(dp3485
g67
(dp3486
g75
I5
ssg76
Nsg69
(lp3487
g62
(g78
g64
NtRp3488
(dp3489
g67
(dp3490
sg76
g3484
sg69
(lp3491
g62
(g83
g64
NtRp3492
(dp3493
g67
(dp3494
g87
g88
ssg76
g3488
sg69
(lp3495
g160
asbag62
(g83
g64
NtRp3496
(dp3497
g67
(dp3498
g94
g95
ssg76
g3488
sg69
(lp3499
S':'
asbag62
(g83
g64
NtRp3500
(dp3501
g67
(dp3502
sg76
g3488
sg69
(lp3503
g62
(g63
g64
NtRp3504
(dp3505
g67
(dp3506
g75
I5
ssg76
g3500
sg69
(lp3507
S'<cStringIO.StringO object at 0x9754a20>'
p3508
asbasbasbag62
(g78
g64
NtRp3509
(dp3510
g67
(dp3511
sg76
g3484
sg69
(lp3512
g62
(g83
g64
NtRp3513
(dp3514
g67
(dp3515
g87
g88
ssg76
g3509
sg69
(lp3516
g226
asbag62
(g83
g64
NtRp3517
(dp3518
g67
(dp3519
g94
g95
ssg76
g3509
sg69
(lp3520
S':'
asbag62
(g83
g64
NtRp3521
(dp3522
g67
(dp3523
sg76
g3509
sg69
(lp3524
g62
(g63
g64
NtRp3525
(dp3526
g67
(dp3527
g75
I5
ssg76
g3521
sg69
(lp3528
g62
(g71
g64
NtRp3529
(dp3530
g67
(dp3531
g75
I4
ssg76
Nsg69
(lp3532
g62
(g78
g64
NtRp3533
(dp3534
g67
(dp3535
sg76
g3529
sg69
(lp3536
g62
(g83
g64
NtRp3537
(dp3538
g67
(dp3539
g87
g88
ssg76
g3533
sg69
(lp3540
S'session_id_project'
p3541
asbag62
(g83
g64
NtRp3542
(dp3543
g67
(dp3544
g94
g95
ssg76
g3533
sg69
(lp3545
S':'
asbag62
(g83
g64
NtRp3546
(dp3547
g67
(dp3548
sg76
g3533
sg69
(lp3549
g62
(g63
g64
NtRp3550
(dp3551
g67
(dp3552
g75
I4
ssg76
g3546
sg69
(lp3553
g62
(g71
g64
NtRp3554
(dp3555
g67
(dp3556
g75
I3
ssg76
Nsg69
(lp3557
g62
(g78
g64
NtRp3558
(dp3559
g67
(dp3560
sg76
g3554
sg69
(lp3561
g62
(g83
g64
NtRp3562
(dp3563
g67
(dp3564
g87
g88
ssg76
g3558
sg69
(lp3565
g276
asbag62
(g83
g64
NtRp3566
(dp3567
g67
(dp3568
g94
g95
ssg76
g3558
sg69
(lp3569
S':'
asbag62
(g83
g64
NtRp3570
(dp3571
g67
(dp3572
sg76
g3558
sg69
(lp3573
g62
(g63
g64
NtRp3574
(dp3575
g67
(dp3576
g75
I3
ssg76
g3570
sg69
(lp3577
S''
asbasbasbag62
(g78
g64
NtRp3578
(dp3579
g67
(dp3580
sg76
g3554
sg69
(lp3581
g62
(g83
g64
NtRp3582
(dp3583
g67
(dp3584
g87
g88
ssg76
g3578
sg69
(lp3585
g297
asbag62
(g83
g64
NtRp3586
(dp3587
g67
(dp3588
g94
g95
ssg76
g3578
sg69
(lp3589
S':'
asbag62
(g83
g64
NtRp3590
(dp3591
g67
(dp3592
sg76
g3578
sg69
(lp3593
g62
(g63
g64
NtRp3594
(dp3595
g67
(dp3596
g75
I3
ssg76
g3590
sg69
(lp3597
S''
asbasbasbag62
(g78
g64
NtRp3598
(dp3599
g67
(dp3600
sg76
g3554
sg69
(lp3601
g62
(g83
g64
NtRp3602
(dp3603
g67
(dp3604
g87
g88
ssg76
g3598
sg69
(lp3605
g318
asbag62
(g83
g64
NtRp3606
(dp3607
g67
(dp3608
g94
g95
ssg76
g3598
sg69
(lp3609
S':'
asbag62
(g83
g64
NtRp3610
(dp3611
g67
(dp3612
sg76
g3598
sg69
(lp3613
g62
(g63
g64
NtRp3614
(dp3615
g67
(dp3616
g75
I3
ssg76
g3610
sg69
(lp3617
S''
asbasbasbag62
(g78
g64
NtRp3618
(dp3619
g67
(dp3620
sg76
g3554
sg69
(lp3621
g62
(g83
g64
NtRp3622
(dp3623
g67
(dp3624
g87
g88
ssg76
g3618
sg69
(lp3625
g339
asbag62
(g83
g64
NtRp3626
(dp3627
g67
(dp3628
g94
g95
ssg76
g3618
sg69
(lp3629
S':'
asbag62
(g83
g64
NtRp3630
(dp3631
g67
(dp3632
sg76
g3618
sg69
(lp3633
g62
(g63
g64
NtRp3634
(dp3635
g67
(dp3636
g75
I3
ssg76
g3630
sg69
(lp3637
S''
asbasbasbag62
(g78
g64
NtRp3638
(dp3639
g67
(dp3640
sg76
g3554
sg69
(lp3641
g62
(g83
g64
NtRp3642
(dp3643
g67
(dp3644
g87
g88
ssg76
g3638
sg69
(lp3645
g360
asbag62
(g83
g64
NtRp3646
(dp3647
g67
(dp3648
g94
g95
ssg76
g3638
sg69
(lp3649
S':'
asbag62
(g83
g64
NtRp3650
(dp3651
g67
(dp3652
sg76
g3638
sg69
(lp3653
g62
(g63
g64
NtRp3654
(dp3655
g67
(dp3656
g75
I3
ssg76
g3650
sg69
(lp3657
S''
asbasbasbag62
(g78
g64
NtRp3658
(dp3659
g67
(dp3660
sg76
g3554
sg69
(lp3661
g62
(g83
g64
NtRp3662
(dp3663
g67
(dp3664
g87
g88
ssg76
g3658
sg69
(lp3665
g381
asbag62
(g83
g64
NtRp3666
(dp3667
g67
(dp3668
g94
g95
ssg76
g3658
sg69
(lp3669
S':'
asbag62
(g83
g64
NtRp3670
(dp3671
g67
(dp3672
sg76
g3658
sg69
(lp3673
g62
(g63
g64
NtRp3674
(dp3675
g67
(dp3676
g75
I3
ssg76
g3670
sg69
(lp3677
S'/'
asbasbasbag62
(g78
g64
NtRp3678
(dp3679
g67
(dp3680
sg76
g3554
sg69
(lp3681
g62
(g83
g64
NtRp3682
(dp3683
g67
(dp3684
g87
g88
ssg76
g3678
sg69
(lp3685
g402
asbag62
(g83
g64
NtRp3686
(dp3687
g67
(dp3688
g94
g95
ssg76
g3678
sg69
(lp3689
S':'
asbag62
(g83
g64
NtRp3690
(dp3691
g67
(dp3692
sg76
g3678
sg69
(lp3693
g62
(g63
g64
NtRp3694
(dp3695
g67
(dp3696
g75
I3
ssg76
g3690
sg69
(lp3697
S''
asbasbasbag62
(g78
g64
NtRp3698
(dp3699
g67
(dp3700
sg76
g3554
sg69
(lp3701
g62
(g83
g64
NtRp3702
(dp3703
g67
(dp3704
g87
g88
ssg76
g3698
sg69
(lp3705
g423
asbag62
(g83
g64
NtRp3706
(dp3707
g67
(dp3708
g94
g95
ssg76
g3698
sg69
(lp3709
S':'
asbag62
(g83
g64
NtRp3710
(dp3711
g67
(dp3712
sg76
g3698
sg69
(lp3713
g62
(g63
g64
NtRp3714
(dp3715
g67
(dp3716
g75
I3
ssg76
g3710
sg69
(lp3717
S''
asbasbasbasbasbasbasbasbasbasbasbag62
(g78
g64
NtRp3718
(dp3719
g67
(dp3720
sg76
g3484
sg69
(lp3721
g62
(g83
g64
NtRp3722
(dp3723
g67
(dp3724
g87
g88
ssg76
g3718
sg69
(lp3725
S'delimiters'
p3726
asbag62
(g83
g64
NtRp3727
(dp3728
g67
(dp3729
g94
g95
ssg76
g3718
sg69
(lp3730
S':'
asbag62
(g83
g64
NtRp3731
(dp3732
g67
(dp3733
sg76
g3718
sg69
(lp3734
g62
(g63
g64
NtRp3735
(dp3736
g67
(dp3737
g75
I5
ssg76
g3731
sg69
(lp3738
g62
(g71
g64
NtRp3739
(dp3740
g67
(dp3741
g75
I4
ssg76
Nsg69
(lp3742
g62
(g78
g64
NtRp3743
(dp3744
g67
(dp3745
sg76
g3739
sg69
(lp3746
g62
(g83
g64
NtRp3747
(dp3748
g67
(dp3749
sg76
g3743
sg69
(lp3750
g62
(g63
g64
NtRp3751
(dp3752
g67
(dp3753
g75
I4
ssg76
g3747
sg69
(lp3754
S'{{'
p3755
asbasbasbag62
(g78
g64
NtRp3756
(dp3757
g67
(dp3758
sg76
g3739
sg69
(lp3759
g62
(g83
g64
NtRp3760
(dp3761
g67
(dp3762
sg76
g3756
sg69
(lp3763
g62
(g63
g64
NtRp3764
(dp3765
g67
(dp3766
g75
I4
ssg76
g3760
sg69
(lp3767
S'}}'
p3768
asbasbasbasbasbasbasbag62
(g78
g64
NtRp3769
(dp3770
g67
(dp3771
sg76
g3484
sg69
(lp3772
g62
(g83
g64
NtRp3773
(dp3774
g67
(dp3775
g87
g88
ssg76
g3769
sg69
(lp3776
S'files'
p3777
asbag62
(g83
g64
NtRp3778
(dp3779
g67
(dp3780
g94
g95
ssg76
g3769
sg69
(lp3781
S':'
asbag62
(g83
g64
NtRp3782
(dp3783
g67
(dp3784
sg76
g3769
sg69
(lp3785
g62
(g63
g64
NtRp3786
(dp3787
g67
(dp3788
g75
I5
ssg76
g3782
sg69
(lp3789
g62
(g71
g64
NtRp3790
(dp3791
g67
(dp3792
g75
I4
ssg76
Nsg69
(lp3793
sbasbasbasbag62
(g78
g64
NtRp3794
(dp3795
g67
(dp3796
sg76
g3484
sg69
(lp3797
g62
(g83
g64
NtRp3798
(dp3799
g67
(dp3800
g87
g88
ssg76
g3794
sg69
(lp3801
S'flash'
p3802
asbag62
(g83
g64
NtRp3803
(dp3804
g67
(dp3805
g94
g95
ssg76
g3794
sg69
(lp3806
S':'
asbag62
(g83
g64
NtRp3807
(dp3808
g67
(dp3809
sg76
g3794
sg69
(lp3810
g62
(g63
g64
NtRp3811
(dp3812
g67
(dp3813
g75
I5
ssg76
g3807
sg69
(lp3814
S''
asbasbasbag62
(g78
g64
NtRp3815
(dp3816
g67
(dp3817
sg76
g3484
sg69
(lp3818
g62
(g83
g64
NtRp3819
(dp3820
g67
(dp3821
g87
g88
ssg76
g3815
sg69
(lp3822
S'generic_patterns'
p3823
asbag62
(g83
g64
NtRp3824
(dp3825
g67
(dp3826
g94
g95
ssg76
g3815
sg69
(lp3827
S':'
asbag62
(g83
g64
NtRp3828
(dp3829
g67
(dp3830
sg76
g3815
sg69
(lp3831
g62
(g63
g64
NtRp3832
(dp3833
g67
(dp3834
g75
I5
ssg76
g3828
sg69
(lp3835
g62
(g71
g64
NtRp3836
(dp3837
g67
(dp3838
g75
I4
ssg76
Nsg69
(lp3839
g62
(g78
g64
NtRp3840
(dp3841
g67
(dp3842
sg76
g3836
sg69
(lp3843
g62
(g83
g64
NtRp3844
(dp3845
g67
(dp3846
sg76
g3840
sg69
(lp3847
g62
(g63
g64
NtRp3848
(dp3849
g67
(dp3850
g75
I4
ssg76
g3844
sg69
(lp3851
S'*'
asbasbasbasbasbasbasbag62
(g78
g64
NtRp3852
(dp3853
g67
(dp3854
sg76
g3484
sg69
(lp3855
g62
(g83
g64
NtRp3856
(dp3857
g67
(dp3858
g87
g88
ssg76
g3852
sg69
(lp3859
S'headers'
p3860
asbag62
(g83
g64
NtRp3861
(dp3862
g67
(dp3863
g94
g95
ssg76
g3852
sg69
(lp3864
S':'
asbag62
(g83
g64
NtRp3865
(dp3866
g67
(dp3867
sg76
g3852
sg69
(lp3868
g62
(g63
g64
NtRp3869
(dp3870
g67
(dp3871
g75
I5
ssg76
g3865
sg69
(lp3872
g62
(g71
g64
NtRp3873
(dp3874
g67
(dp3875
g75
I4
ssg76
Nsg69
(lp3876
g62
(g78
g64
NtRp3877
(dp3878
g67
(dp3879
sg76
g3873
sg69
(lp3880
g62
(g83
g64
NtRp3881
(dp3882
g67
(dp3883
g87
g88
ssg76
g3877
sg69
(lp3884
S'Cache-Control'
p3885
asbag62
(g83
g64
NtRp3886
(dp3887
g67
(dp3888
g94
g95
ssg76
g3877
sg69
(lp3889
S':'
asbag62
(g83
g64
NtRp3890
(dp3891
g67
(dp3892
sg76
g3877
sg69
(lp3893
g62
(g63
g64
NtRp3894
(dp3895
g67
(dp3896
g75
I4
ssg76
g3890
sg69
(lp3897
S'no-store, no-cache, must-revalidate, post-check=0, pre-check=0'
p3898
asbasbasbag62
(g78
g64
NtRp3899
(dp3900
g67
(dp3901
sg76
g3873
sg69
(lp3902
g62
(g83
g64
NtRp3903
(dp3904
g67
(dp3905
g87
g88
ssg76
g3899
sg69
(lp3906
S'Content-Type'
p3907
asbag62
(g83
g64
NtRp3908
(dp3909
g67
(dp3910
g94
g95
ssg76
g3899
sg69
(lp3911
S':'
asbag62
(g83
g64
NtRp3912
(dp3913
g67
(dp3914
sg76
g3899
sg69
(lp3915
g62
(g63
g64
NtRp3916
(dp3917
g67
(dp3918
g75
I4
ssg76
g3912
sg69
(lp3919
S'text/html; charset=utf-8'
p3920
asbasbasbag62
(g78
g64
NtRp3921
(dp3922
g67
(dp3923
sg76
g3873
sg69
(lp3924
g62
(g83
g64
NtRp3925
(dp3926
g67
(dp3927
g87
g88
ssg76
g3921
sg69
(lp3928
S'Expires'
p3929
asbag62
(g83
g64
NtRp3930
(dp3931
g67
(dp3932
g94
g95
ssg76
g3921
sg69
(lp3933
S':'
asbag62
(g83
g64
NtRp3934
(dp3935
g67
(dp3936
sg76
g3921
sg69
(lp3937
g62
(g63
g64
NtRp3938
(dp3939
g67
(dp3940
g75
I4
ssg76
g3934
sg69
(lp3941
S'Tue, 06 Nov 2012 00:30:36 GMT'
p3942
asbasbasbag62
(g78
g64
NtRp3943
(dp3944
g67
(dp3945
sg76
g3873
sg69
(lp3946
g62
(g83
g64
NtRp3947
(dp3948
g67
(dp3949
g87
g88
ssg76
g3943
sg69
(lp3950
S'Pragma'
p3951
asbag62
(g83
g64
NtRp3952
(dp3953
g67
(dp3954
g94
g95
ssg76
g3943
sg69
(lp3955
S':'
asbag62
(g83
g64
NtRp3956
(dp3957
g67
(dp3958
sg76
g3943
sg69
(lp3959
g62
(g63
g64
NtRp3960
(dp3961
g67
(dp3962
g75
I4
ssg76
g3956
sg69
(lp3963
S'no-cache'
p3964
asbasbasbag62
(g78
g64
NtRp3965
(dp3966
g67
(dp3967
sg76
g3873
sg69
(lp3968
g62
(g83
g64
NtRp3969
(dp3970
g67
(dp3971
g87
g88
ssg76
g3965
sg69
(lp3972
S'X-Powered-By'
p3973
asbag62
(g83
g64
NtRp3974
(dp3975
g67
(dp3976
g94
g95
ssg76
g3965
sg69
(lp3977
S':'
asbag62
(g83
g64
NtRp3978
(dp3979
g67
(dp3980
sg76
g3965
sg69
(lp3981
g62
(g63
g64
NtRp3982
(dp3983
g67
(dp3984
g75
I4
ssg76
g3978
sg69
(lp3985
S'web2py'
p3986
asbasbasbasbasbasbasbag62
(g78
g64
NtRp3987
(dp3988
g67
(dp3989
sg76
g3484
sg69
(lp3990
g62
(g83
g64
NtRp3991
(dp3992
g67
(dp3993
g87
g88
ssg76
g3987
sg69
(lp3994
S'menu'
p3995
asbag62
(g83
g64
NtRp3996
(dp3997
g67
(dp3998
g94
g95
ssg76
g3987
sg69
(lp3999
S':'
asbag62
(g83
g64
NtRp4000
(dp4001
g67
(dp4002
sg76
g3987
sg69
(lp4003
g62
(g63
g64
NtRp4004
(dp4005
g67
(dp4006
g75
I5
ssg76
g4000
sg69
(lp4007
g62
(g71
g64
NtRp4008
(dp4009
g67
(dp4010
g75
I4
ssg76
Nsg69
(lp4011
g62
(g78
g64
NtRp4012
(dp4013
g67
(dp4014
sg76
g4008
sg69
(lp4015
g62
(g83
g64
NtRp4016
(dp4017
g67
(dp4018
sg76
g4012
sg69
(lp4019
g62
(g63
g64
NtRp4020
(dp4021
g67
(dp4022
g75
I4
ssg76
g4016
sg69
(lp4023
g62
(g71
g64
NtRp4024
(dp4025
g67
(dp4026
g75
I3
ssg76
Nsg69
(lp4027
g62
(g78
g64
NtRp4028
(dp4029
g67
(dp4030
sg76
g4024
sg69
(lp4031
g62
(g83
g64
NtRp4032
(dp4033
g67
(dp4034
sg76
g4028
sg69
(lp4035
g62
(g63
g64
NtRp4036
(dp4037
g67
(dp4038
g75
I3
ssg76
g4032
sg69
(lp4039
cgluon.languages
lazyT_unpickle
p4040
(S't\x04\x00\x00\x00Home'
tRp4041
asbasbasbag62
(g78
g64
NtRp4042
(dp4043
g67
(dp4044
sg76
g4024
sg69
(lp4045
g62
(g83
g64
NtRp4046
(dp4047
g67
(dp4048
sg76
g4042
sg69
(lp4049
g62
(g63
g64
NtRp4050
(dp4051
g67
(dp4052
g75
I3
ssg76
g4046
sg69
(lp4053
g105
asbasbasbag62
(g78
g64
NtRp4054
(dp4055
g67
(dp4056
sg76
g4024
sg69
(lp4057
g62
(g83
g64
NtRp4058
(dp4059
g67
(dp4060
sg76
g4054
sg69
(lp4061
g62
(g63
g64
NtRp4062
(dp4063
g67
(dp4064
g75
I3
ssg76
g4058
sg69
(lp4065
S'/project/default/index'
p4066
asbasbasbag62
(g78
g64
NtRp4067
(dp4068
g67
(dp4069
sg76
g4024
sg69
(lp4070
g62
(g83
g64
NtRp4071
(dp4072
g67
(dp4073
sg76
g4067
sg69
(lp4074
g62
(g63
g64
NtRp4075
(dp4076
g67
(dp4077
g75
I3
ssg76
g4071
sg69
(lp4078
g62
(g71
g64
NtRp4079
(dp4080
g67
(dp4081
g75
I2
ssg76
Nsg69
(lp4082
sbasbasbasbasbasbasbasbag62
(g78
g64
NtRp4083
(dp4084
g67
(dp4085
sg76
g4008
sg69
(lp4086
g62
(g83
g64
NtRp4087
(dp4088
g67
(dp4089
sg76
g4083
sg69
(lp4090
g62
(g63
g64
NtRp4091
(dp4092
g67
(dp4093
g75
I4
ssg76
g4087
sg69
(lp4094
g62
(g71
g64
NtRp4095
(dp4096
g67
(dp4097
g75
I3
ssg76
Nsg69
(lp4098
g62
(g78
g64
NtRp4099
(dp4100
g67
(dp4101
sg76
g4095
sg69
(lp4102
g62
(g83
g64
NtRp4103
(dp4104
g67
(dp4105
sg76
g4099
sg69
(lp4106
g62
(g63
g64
NtRp4107
(dp4108
g67
(dp4109
g75
I3
ssg76
g4103
sg69
(lp4110
g62
(cgluon.html
SPAN
p4111
g64
NtRp4112
(dp4113
g67
(dp4114
g87
S'color:yellow'
p4115
ssg76
Nsg69
(lp4116
g3986
asbasbasbasbag62
(g78
g64
NtRp4117
(dp4118
g67
(dp4119
sg76
g4095
sg69
(lp4120
g62
(g83
g64
NtRp4121
(dp4122
g67
(dp4123
sg76
g4117
sg69
(lp4124
g62
(g63
g64
NtRp4125
(dp4126
g67
(dp4127
g75
I3
ssg76
g4121
sg69
(lp4128
g105
asbasbasbag62
(g78
g64
NtRp4129
(dp4130
g67
(dp4131
sg76
g4095
sg69
(lp4132
g62
(g83
g64
NtRp4133
(dp4134
g67
(dp4135
sg76
g4129
sg69
(lp4136
g62
(g63
g64
NtRp4137
(dp4138
g67
(dp4139
g75
I3
ssg76
g4133
sg69
(lp4140
S'None'
p4141
asbasbasbag62
(g78
g64
NtRp4142
(dp4143
g67
(dp4144
sg76
g4095
sg69
(lp4145
g62
(g83
g64
NtRp4146
(dp4147
g67
(dp4148
sg76
g4142
sg69
(lp4149
g62
(g63
g64
NtRp4150
(dp4151
g67
(dp4152
g75
I3
ssg76
g4146
sg69
(lp4153
g62
(g71
g64
NtRp4154
(dp4155
g67
(dp4156
g75
I2
ssg76
Nsg69
(lp4157
g62
(g78
g64
NtRp4158
(dp4159
g67
(dp4160
sg76
g4154
sg69
(lp4161
g62
(g83
g64
NtRp4162
(dp4163
g67
(dp4164
sg76
g4158
sg69
(lp4165
g62
(g63
g64
NtRp4166
(dp4167
g67
(dp4168
g75
I2
ssg76
g4162
sg69
(lp4169
g62
(g71
g64
NtRp4170
(dp4171
g67
(dp4172
g75
I1
ssg76
Nsg69
(lp4173
g62
(g78
g64
NtRp4174
(dp4175
g67
(dp4176
sg76
g4170
sg69
(lp4177
g62
(g83
g64
NtRp4178
(dp4179
g67
(dp4180
sg76
g4174
sg69
(lp4181
g62
(g63
g64
NtRp4182
(dp4183
g67
(dp4184
g75
I1
ssg76
g4178
sg69
(lp4185
g4040
(S's\x08\x00\x00\x00My Sites'
tRp4186
asbasbasbag62
(g78
g64
NtRp4187
(dp4188
g67
(dp4189
sg76
g4170
sg69
(lp4190
g62
(g83
g64
NtRp4191
(dp4192
g67
(dp4193
sg76
g4187
sg69
(lp4194
g62
(g63
g64
NtRp4195
(dp4196
g67
(dp4197
g75
I1
ssg76
g4191
sg69
(lp4198
I00
asbasbasbag62
(g78
g64
NtRp4199
(dp4200
g67
(dp4201
sg76
g4170
sg69
(lp4202
g62
(g83
g64
NtRp4203
(dp4204
g67
(dp4205
sg76
g4199
sg69
(lp4206
g62
(g63
g64
NtRp4207
(dp4208
g67
(dp4209
g75
I1
ssg76
g4203
sg69
(lp4210
S'/admin/default/site'
p4211
asbasbasbasbasbasbasbag62
(g78
g64
NtRp4212
(dp4213
g67
(dp4214
sg76
g4154
sg69
(lp4215
g62
(g83
g64
NtRp4216
(dp4217
g67
(dp4218
sg76
g4212
sg69
(lp4219
g62
(g63
g64
NtRp4220
(dp4221
g67
(dp4222
g75
I2
ssg76
g4216
sg69
(lp4223
g62
(g71
g64
NtRp4224
(dp4225
g67
(dp4226
g75
I1
ssg76
Nsg69
(lp4227
g62
(g78
g64
NtRp4228
(dp4229
g67
(dp4230
sg76
g4224
sg69
(lp4231
g62
(g83
g64
NtRp4232
(dp4233
g67
(dp4234
sg76
g4228
sg69
(lp4235
g62
(g63
g64
NtRp4236
(dp4237
g67
(dp4238
g75
I1
ssg76
g4232
sg69
(lp4239
g4040
(S's\x08\x00\x00\x00This App'
tRp4240
asbasbasbag62
(g78
g64
NtRp4241
(dp4242
g67
(dp4243
sg76
g4224
sg69
(lp4244
g62
(g83
g64
NtRp4245
(dp4246
g67
(dp4247
sg76
g4241
sg69
(lp4248
g62
(g63
g64
NtRp4249
(dp4250
g67
(dp4251
g75
I1
ssg76
g4245
sg69
(lp4252
I00
asbasbasbag62
(g78
g64
NtRp4253
(dp4254
g67
(dp4255
sg76
g4224
sg69
(lp4256
g62
(g83
g64
NtRp4257
(dp4258
g67
(dp4259
sg76
g4253
sg69
(lp4260
g62
(g63
g64
NtRp4261
(dp4262
g67
(dp4263
g75
I1
ssg76
g4257
sg69
(lp4264
S'/admin/default/design/project'
p4265
asbasbasbag62
(g78
g64
NtRp4266
(dp4267
g67
(dp4268
sg76
g4224
sg69
(lp4269
g62
(g83
g64
NtRp4270
(dp4271
g67
(dp4272
sg76
g4266
sg69
(lp4273
g62
(g63
g64
NtRp4274
(dp4275
g67
(dp4276
g75
I1
ssg76
g4270
sg69
(lp4277
(lp4278
(g4040
(S't\n\x00\x00\x00Controller'
tRp4279
I00
S'/admin/default/edit/project/controllers/default.py'
tp4280
a(g4040
(S't\x04\x00\x00\x00View'
tRp4281
I00
S'/admin/default/edit/project/views/default/kruskal.html'
tp4282
a(g4040
(S't\x06\x00\x00\x00Layout'
tRp4283
I00
S'/admin/default/edit/project/views/layout.html'
tp4284
a(g4040
(S't\n\x00\x00\x00Stylesheet'
tRp4285
I00
S'/admin/default/edit/project/static/css/web2py.css'
tp4286
a(g4040
(S's\x08\x00\x00\x00DB Model'
tRp4287
I00
S'/admin/default/edit/project/models/db.py'
tp4288
a(g4040
(S's\n\x00\x00\x00Menu Model'
tRp4289
I00
S'/admin/default/edit/project/models/menu.py'
tp4290
a(g4040
(S't\x08\x00\x00\x00Database'
tRp4291
I00
S'/project/appadmin/index'
tp4292
a(g4040
(S't\x06\x00\x00\x00Errors'
tRp4293
I00
S'/admin/default/errors/project'
tp4294
a(g4040
(S't\x05\x00\x00\x00About'
tRp4295
I00
S'/admin/default/about/project'
tp4296
aasbasbasbasbasbasbasbag62
(g78
g64
NtRp4297
(dp4298
g67
(dp4299
sg76
g4154
sg69
(lp4300
g62
(g83
g64
NtRp4301
(dp4302
g67
(dp4303
sg76
g4297
sg69
(lp4304
g62
(g63
g64
NtRp4305
(dp4306
g67
(dp4307
g75
I2
ssg76
g4301
sg69
(lp4308
g62
(g71
g64
NtRp4309
(dp4310
g67
(dp4311
g75
I1
ssg76
Nsg69
(lp4312
g62
(g78
g64
NtRp4313
(dp4314
g67
(dp4315
sg76
g4309
sg69
(lp4316
g62
(g83
g64
NtRp4317
(dp4318
g67
(dp4319
sg76
g4313
sg69
(lp4320
g62
(g63
g64
NtRp4321
(dp4322
g67
(dp4323
g75
I1
ssg76
g4317
sg69
(lp4324
S'web2py.com'
p4325
asbasbasbag62
(g78
g64
NtRp4326
(dp4327
g67
(dp4328
sg76
g4309
sg69
(lp4329
g62
(g83
g64
NtRp4330
(dp4331
g67
(dp4332
sg76
g4326
sg69
(lp4333
g62
(g63
g64
NtRp4334
(dp4335
g67
(dp4336
g75
I1
ssg76
g4330
sg69
(lp4337
I00
asbasbasbag62
(g78
g64
NtRp4338
(dp4339
g67
(dp4340
sg76
g4309
sg69
(lp4341
g62
(g83
g64
NtRp4342
(dp4343
g67
(dp4344
sg76
g4338
sg69
(lp4345
g62
(g63
g64
NtRp4346
(dp4347
g67
(dp4348
g75
I1
ssg76
g4342
sg69
(lp4349
S'http://www.web2py.com'
p4350
asbasbasbag62
(g78
g64
NtRp4351
(dp4352
g67
(dp4353
sg76
g4309
sg69
(lp4354
g62
(g83
g64
NtRp4355
(dp4356
g67
(dp4357
sg76
g4351
sg69
(lp4358
g62
(g63
g64
NtRp4359
(dp4360
g67
(dp4361
g75
I1
ssg76
g4355
sg69
(lp4362
(lp4363
(g4040
(S't\x08\x00\x00\x00Download'
tRp4364
I00
S'http://www.web2py.com/examples/default/download'
p4365
tp4366
a(g4040
(S't\x07\x00\x00\x00Support'
tRp4367
I00
S'http://www.web2py.com/examples/default/support'
p4368
tp4369
a(g4040
(S't\x04\x00\x00\x00Demo'
tRp4370
I00
S'http://web2py.com/demo_admin'
p4371
tp4372
a(g4040
(S's\x0e\x00\x00\x00Quick Examples'
tRp4373
I00
S'http://web2py.com/examples/default/examples'
p4374
tp4375
a(g4040
(S't\x03\x00\x00\x00FAQ'
tRp4376
I00
S'http://web2py.com/AlterEgo'
p4377
tp4378
a(g4040
(S't\x06\x00\x00\x00Videos'
tRp4379
I00
S'http://www.web2py.com/examples/default/videos/'
p4380
tp4381
a(g4040
(S's\x11\x00\x00\x00Free Applications'
tRp4382
I00
S'http://web2py.com/appliances'
p4383
tp4384
a(g4040
(S't\x07\x00\x00\x00Plugins'
tRp4385
I00
S'http://web2py.com/plugins'
p4386
tp4387
a(g4040
(S't\x07\x00\x00\x00Layouts'
tRp4388
I00
S'http://web2py.com/layouts'
p4389
tp4390
a(g4040
(S't\x07\x00\x00\x00Recipes'
tRp4391
I00
S'http://web2pyslices.com/'
p4392
tp4393
a(g4040
(S't\x08\x00\x00\x00Semantic'
tRp4394
I00
S'http://web2py.com/semantic'
p4395
tp4396
aasbasbasbasbasbasbasbag62
(g78
g64
NtRp4397
(dp4398
g67
(dp4399
sg76
g4154
sg69
(lp4400
g62
(g83
g64
NtRp4401
(dp4402
g67
(dp4403
sg76
g4397
sg69
(lp4404
g62
(g63
g64
NtRp4405
(dp4406
g67
(dp4407
g75
I2
ssg76
g4401
sg69
(lp4408
g62
(g71
g64
NtRp4409
(dp4410
g67
(dp4411
g75
I1
ssg76
Nsg69
(lp4412
g62
(g78
g64
NtRp4413
(dp4414
g67
(dp4415
sg76
g4409
sg69
(lp4416
g62
(g83
g64
NtRp4417
(dp4418
g67
(dp4419
sg76
g4413
sg69
(lp4420
g62
(g63
g64
NtRp4421
(dp4422
g67
(dp4423
g75
I1
ssg76
g4417
sg69
(lp4424
g4040
(S't\r\x00\x00\x00Documentation'
tRp4425
asbasbasbag62
(g78
g64
NtRp4426
(dp4427
g67
(dp4428
sg76
g4409
sg69
(lp4429
g62
(g83
g64
NtRp4430
(dp4431
g67
(dp4432
sg76
g4426
sg69
(lp4433
g62
(g63
g64
NtRp4434
(dp4435
g67
(dp4436
g75
I1
ssg76
g4430
sg69
(lp4437
I00
asbasbasbag62
(g78
g64
NtRp4438
(dp4439
g67
(dp4440
sg76
g4409
sg69
(lp4441
g62
(g83
g64
NtRp4442
(dp4443
g67
(dp4444
sg76
g4438
sg69
(lp4445
g62
(g63
g64
NtRp4446
(dp4447
g67
(dp4448
g75
I1
ssg76
g4442
sg69
(lp4449
S'http://www.web2py.com/book'
p4450
asbasbasbag62
(g78
g64
NtRp4451
(dp4452
g67
(dp4453
sg76
g4409
sg69
(lp4454
g62
(g83
g64
NtRp4455
(dp4456
g67
(dp4457
sg76
g4451
sg69
(lp4458
g62
(g63
g64
NtRp4459
(dp4460
g67
(dp4461
g75
I1
ssg76
g4455
sg69
(lp4462
(lp4463
(g4040
(S't\x07\x00\x00\x00Preface'
tRp4464
I00
S'http://www.web2py.com/book/default/chapter/00'
p4465
tp4466
a(g4040
(S't\x0c\x00\x00\x00Introduction'
tRp4467
I00
S'http://www.web2py.com/book/default/chapter/01'
p4468
tp4469
a(g4040
(S't\x06\x00\x00\x00Python'
tRp4470
I00
S'http://www.web2py.com/book/default/chapter/02'
p4471
tp4472
a(g4040
(S't\x08\x00\x00\x00Overview'
tRp4473
I00
S'http://www.web2py.com/book/default/chapter/03'
p4474
tp4475
a(g4040
(S's\x08\x00\x00\x00The Core'
tRp4476
I00
S'http://www.web2py.com/book/default/chapter/04'
p4477
tp4478
a(g4040
(S's\t\x00\x00\x00The Views'
tRp4479
I00
S'http://www.web2py.com/book/default/chapter/05'
p4480
tp4481
a(g4040
(S't\x08\x00\x00\x00Database'
tRp4482
I00
S'http://www.web2py.com/book/default/chapter/06'
p4483
tp4484
a(g4040
(S's\x14\x00\x00\x00Forms and Validators'
tRp4485
I00
S'http://www.web2py.com/book/default/chapter/07'
p4486
tp4487
a(g4040
(S's\r\x00\x00\x00Email and SMS'
tRp4488
I00
S'http://www.web2py.com/book/default/chapter/08'
p4489
tp4490
a(g4040
(S's\x0e\x00\x00\x00Access Control'
tRp4491
I00
S'http://www.web2py.com/book/default/chapter/09'
p4492
tp4493
a(g4040
(S't\x08\x00\x00\x00Services'
tRp4494
I00
S'http://www.web2py.com/book/default/chapter/10'
p4495
tp4496
a(g4040
(S's\x0c\x00\x00\x00Ajax Recipes'
tRp4497
I00
S'http://www.web2py.com/book/default/chapter/11'
p4498
tp4499
a(g4040
(S's\x16\x00\x00\x00Components and Plugins'
tRp4500
I00
S'http://www.web2py.com/book/default/chapter/12'
p4501
tp4502
a(g4040
(S's\x12\x00\x00\x00Deployment Recipes'
tRp4503
I00
S'http://www.web2py.com/book/default/chapter/13'
p4504
tp4505
a(g4040
(S's\r\x00\x00\x00Other Recipes'
tRp4506
I00
S'http://www.web2py.com/book/default/chapter/14'
p4507
tp4508
a(g4040
(S's\r\x00\x00\x00Buy this book'
tRp4509
I00
S'http://stores.lulu.com/web2py'
p4510
tp4511
aasbasbasbasbasbasbasbag62
(g78
g64
NtRp4512
(dp4513
g67
(dp4514
sg76
g4154
sg69
(lp4515
g62
(g83
g64
NtRp4516
(dp4517
g67
(dp4518
sg76
g4512
sg69
(lp4519
g62
(g63
g64
NtRp4520
(dp4521
g67
(dp4522
g75
I2
ssg76
g4516
sg69
(lp4523
g62
(g71
g64
NtRp4524
(dp4525
g67
(dp4526
g75
I1
ssg76
Nsg69
(lp4527
g62
(g78
g64
NtRp4528
(dp4529
g67
(dp4530
sg76
g4524
sg69
(lp4531
g62
(g83
g64
NtRp4532
(dp4533
g67
(dp4534
sg76
g4528
sg69
(lp4535
g62
(g63
g64
NtRp4536
(dp4537
g67
(dp4538
g75
I1
ssg76
g4532
sg69
(lp4539
g4040
(S't\t\x00\x00\x00Community'
tRp4540
asbasbasbag62
(g78
g64
NtRp4541
(dp4542
g67
(dp4543
sg76
g4524
sg69
(lp4544
g62
(g83
g64
NtRp4545
(dp4546
g67
(dp4547
sg76
g4541
sg69
(lp4548
g62
(g63
g64
NtRp4549
(dp4550
g67
(dp4551
g75
I1
ssg76
g4545
sg69
(lp4552
I00
asbasbasbag62
(g78
g64
NtRp4553
(dp4554
g67
(dp4555
sg76
g4524
sg69
(lp4556
g62
(g83
g64
NtRp4557
(dp4558
g67
(dp4559
sg76
g4553
sg69
(lp4560
g62
(g63
g64
NtRp4561
(dp4562
g67
(dp4563
g75
I1
ssg76
g4557
sg69
(lp4564
Nasbasbasbag62
(g78
g64
NtRp4565
(dp4566
g67
(dp4567
sg76
g4524
sg69
(lp4568
g62
(g83
g64
NtRp4569
(dp4570
g67
(dp4571
sg76
g4565
sg69
(lp4572
g62
(g63
g64
NtRp4573
(dp4574
g67
(dp4575
g75
I1
ssg76
g4569
sg69
(lp4576
(lp4577
(g4040
(S't\x06\x00\x00\x00Groups'
tRp4578
I00
S'http://www.web2py.com/examples/default/usergroups'
p4579
tp4580
a(g4040
(S't\x07\x00\x00\x00Twitter'
tRp4581
I00
S'http://twitter.com/web2py'
p4582
tp4583
a(g4040
(S's\t\x00\x00\x00Live Chat'
tRp4584
I00
S'http://webchat.freenode.net/?channels=web2py'
p4585
tp4586
aasbasbasbasbasbasbasbag62
(g78
g64
NtRp4587
(dp4588
g67
(dp4589
sg76
g4154
sg69
(lp4590
g62
(g83
g64
NtRp4591
(dp4592
g67
(dp4593
sg76
g4587
sg69
(lp4594
g62
(g63
g64
NtRp4595
(dp4596
g67
(dp4597
g75
I2
ssg76
g4591
sg69
(lp4598
g62
(g71
g64
NtRp4599
(dp4600
g67
(dp4601
g75
I1
ssg76
Nsg69
(lp4602
g62
(g78
g64
NtRp4603
(dp4604
g67
(dp4605
sg76
g4599
sg69
(lp4606
g62
(g83
g64
NtRp4607
(dp4608
g67
(dp4609
sg76
g4603
sg69
(lp4610
g62
(g63
g64
NtRp4611
(dp4612
g67
(dp4613
g75
I1
ssg76
g4607
sg69
(lp4614
g4040
(S't\x07\x00\x00\x00Plugins'
tRp4615
asbasbasbag62
(g78
g64
NtRp4616
(dp4617
g67
(dp4618
sg76
g4599
sg69
(lp4619
g62
(g83
g64
NtRp4620
(dp4621
g67
(dp4622
sg76
g4616
sg69
(lp4623
g62
(g63
g64
NtRp4624
(dp4625
g67
(dp4626
g75
I1
ssg76
g4620
sg69
(lp4627
I00
asbasbasbag62
(g78
g64
NtRp4628
(dp4629
g67
(dp4630
sg76
g4599
sg69
(lp4631
g62
(g83
g64
NtRp4632
(dp4633
g67
(dp4634
sg76
g4628
sg69
(lp4635
g62
(g63
g64
NtRp4636
(dp4637
g67
(dp4638
g75
I1
ssg76
g4632
sg69
(lp4639
Nasbasbasbag62
(g78
g64
NtRp4640
(dp4641
g67
(dp4642
sg76
g4599
sg69
(lp4643
g62
(g83
g64
NtRp4644
(dp4645
g67
(dp4646
sg76
g4640
sg69
(lp4647
g62
(g63
g64
NtRp4648
(dp4649
g67
(dp4650
g75
I1
ssg76
g4644
sg69
(lp4651
(lp4652
(S'plugin_wiki'
p4653
I00
S'http://web2py.com/examples/default/download'
p4654
tp4655
a(g4040
(S's\r\x00\x00\x00Other Plugins'
tRp4656
I00
g4386
tp4657
a(g4040
(S's\x0e\x00\x00\x00Layout Plugins'
tRp4658
I00
g4389
tp4659
aasbasbasbasbasbasbasbasbasbasbasbasbasbasbasbasbasbasbasbag62
(g78
g64
NtRp4660
(dp4661
g67
(dp4662
sg76
g3484
sg69
(lp4663
g62
(g83
g64
NtRp4664
(dp4665
g67
(dp4666
g87
g88
ssg76
g4660
sg69
(lp4667
S'meta'
p4668
asbag62
(g83
g64
NtRp4669
(dp4670
g67
(dp4671
g94
g95
ssg76
g4660
sg69
(lp4672
S':'
asbag62
(g83
g64
NtRp4673
(dp4674
g67
(dp4675
sg76
g4660
sg69
(lp4676
g62
(g63
g64
NtRp4677
(dp4678
g67
(dp4679
g75
I5
ssg76
g4673
sg69
(lp4680
g62
(g71
g64
NtRp4681
(dp4682
g67
(dp4683
g75
I4
ssg76
Nsg69
(lp4684
g62
(g78
g64
NtRp4685
(dp4686
g67
(dp4687
sg76
g4681
sg69
(lp4688
g62
(g83
g64
NtRp4689
(dp4690
g67
(dp4691
g87
g88
ssg76
g4685
sg69
(lp4692
S'author'
p4693
asbag62
(g83
g64
NtRp4694
(dp4695
g67
(dp4696
g94
g95
ssg76
g4685
sg69
(lp4697
S':'
asbag62
(g83
g64
NtRp4698
(dp4699
g67
(dp4700
sg76
g4685
sg69
(lp4701
g62
(g63
g64
NtRp4702
(dp4703
g67
(dp4704
g75
I4
ssg76
g4698
sg69
(lp4705
S'Your Name <you@example.com>'
p4706
asbasbasbag62
(g78
g64
NtRp4707
(dp4708
g67
(dp4709
sg76
g4681
sg69
(lp4710
g62
(g83
g64
NtRp4711
(dp4712
g67
(dp4713
g87
g88
ssg76
g4707
sg69
(lp4714
S'copyright'
p4715
asbag62
(g83
g64
NtRp4716
(dp4717
g67
(dp4718
g94
g95
ssg76
g4707
sg69
(lp4719
S':'
asbag62
(g83
g64
NtRp4720
(dp4721
g67
(dp4722
sg76
g4707
sg69
(lp4723
g62
(g63
g64
NtRp4724
(dp4725
g67
(dp4726
g75
I4
ssg76
g4720
sg69
(lp4727
S'Copyright 2011'
p4728
asbasbasbag62
(g78
g64
NtRp4729
(dp4730
g67
(dp4731
sg76
g4681
sg69
(lp4732
g62
(g83
g64
NtRp4733
(dp4734
g67
(dp4735
g87
g88
ssg76
g4729
sg69
(lp4736
S'description'
p4737
asbag62
(g83
g64
NtRp4738
(dp4739
g67
(dp4740
g94
g95
ssg76
g4729
sg69
(lp4741
S':'
asbag62
(g83
g64
NtRp4742
(dp4743
g67
(dp4744
sg76
g4729
sg69
(lp4745
g62
(g63
g64
NtRp4746
(dp4747
g67
(dp4748
g75
I4
ssg76
g4742
sg69
(lp4749
S'a cool new app'
p4750
asbasbasbag62
(g78
g64
NtRp4751
(dp4752
g67
(dp4753
sg76
g4681
sg69
(lp4754
g62
(g83
g64
NtRp4755
(dp4756
g67
(dp4757
g87
g88
ssg76
g4751
sg69
(lp4758
S'generator'
p4759
asbag62
(g83
g64
NtRp4760
(dp4761
g67
(dp4762
g94
g95
ssg76
g4751
sg69
(lp4763
S':'
asbag62
(g83
g64
NtRp4764
(dp4765
g67
(dp4766
sg76
g4751
sg69
(lp4767
g62
(g63
g64
NtRp4768
(dp4769
g67
(dp4770
g75
I4
ssg76
g4764
sg69
(lp4771
S'Web2py Web Framework'
p4772
asbasbasbag62
(g78
g64
NtRp4773
(dp4774
g67
(dp4775
sg76
g4681
sg69
(lp4776
g62
(g83
g64
NtRp4777
(dp4778
g67
(dp4779
g87
g88
ssg76
g4773
sg69
(lp4780
S'keywords'
p4781
asbag62
(g83
g64
NtRp4782
(dp4783
g67
(dp4784
g94
g95
ssg76
g4773
sg69
(lp4785
S':'
asbag62
(g83
g64
NtRp4786
(dp4787
g67
(dp4788
sg76
g4773
sg69
(lp4789
g62
(g63
g64
NtRp4790
(dp4791
g67
(dp4792
g75
I4
ssg76
g4786
sg69
(lp4793
S'web2py, python, framework'
p4794
asbasbasbasbasbasbasbag62
(g78
g64
NtRp4795
(dp4796
g67
(dp4797
sg76
g3484
sg69
(lp4798
g62
(g83
g64
NtRp4799
(dp4800
g67
(dp4801
g87
g88
ssg76
g4795
sg69
(lp4802
S'postprocessing'
p4803
asbag62
(g83
g64
NtRp4804
(dp4805
g67
(dp4806
g94
g95
ssg76
g4795
sg69
(lp4807
S':'
asbag62
(g83
g64
NtRp4808
(dp4809
g67
(dp4810
sg76
g4795
sg69
(lp4811
g62
(g63
g64
NtRp4812
(dp4813
g67
(dp4814
g75
I5
ssg76
g4808
sg69
(lp4815
g62
(g71
g64
NtRp4816
(dp4817
g67
(dp4818
g75
I4
ssg76
Nsg69
(lp4819
sbasbasbasbag62
(g78
g64
NtRp4820
(dp4821
g67
(dp4822
sg76
g3484
sg69
(lp4823
g62
(g83
g64
NtRp4824
(dp4825
g67
(dp4826
g87
g88
ssg76
g4820
sg69
(lp4827
S'session_file'
p4828
asbag62
(g83
g64
NtRp4829
(dp4830
g67
(dp4831
g94
g95
ssg76
g4820
sg69
(lp4832
S':'
asbag62
(g83
g64
NtRp4833
(dp4834
g67
(dp4835
sg76
g4820
sg69
(lp4836
g62
(g63
g64
NtRp4837
(dp4838
g67
(dp4839
g75
I5
ssg76
g4833
sg69
(lp4840
S"<open file '/home/arpita/courses/sem3/ssad/web2py/applications/project/sessions/127.0.0.1-b6115b3d-9b4c-4cde-b209-d74130608881', mode 'rb+' at 0x9c9ab20>"
p4841
asbasbasbag62
(g78
g64
NtRp4842
(dp4843
g67
(dp4844
sg76
g3484
sg69
(lp4845
g62
(g83
g64
NtRp4846
(dp4847
g67
(dp4848
g87
g88
ssg76
g4842
sg69
(lp4849
S'session_filename'
p4850
asbag62
(g83
g64
NtRp4851
(dp4852
g67
(dp4853
g94
g95
ssg76
g4842
sg69
(lp4854
S':'
asbag62
(g83
g64
NtRp4855
(dp4856
g67
(dp4857
sg76
g4842
sg69
(lp4858
g62
(g63
g64
NtRp4859
(dp4860
g67
(dp4861
g75
I5
ssg76
g4855
sg69
(lp4862
S'/home/arpita/courses/sem3/ssad/web2py/applications/project/sessions/127.0.0.1-b6115b3d-9b4c-4cde-b209-d74130608881'
p4863
asbasbasbag62
(g78
g64
NtRp4864
(dp4865
g67
(dp4866
sg76
g3484
sg69
(lp4867
g62
(g83
g64
NtRp4868
(dp4869
g67
(dp4870
g87
g88
ssg76
g4864
sg69
(lp4871
S'session_id'
p4872
asbag62
(g83
g64
NtRp4873
(dp4874
g67
(dp4875
g94
g95
ssg76
g4864
sg69
(lp4876
S':'
asbag62
(g83
g64
NtRp4877
(dp4878
g67
(dp4879
sg76
g4864
sg69
(lp4880
g62
(g63
g64
NtRp4881
(dp4882
g67
(dp4883
g75
I5
ssg76
g4877
sg69
(lp4884
S'127.0.0.1-b6115b3d-9b4c-4cde-b209-d74130608881'
p4885
asbasbasbag62
(g78
g64
NtRp4886
(dp4887
g67
(dp4888
sg76
g3484
sg69
(lp4889
g62
(g83
g64
NtRp4890
(dp4891
g67
(dp4892
g87
g88
ssg76
g4886
sg69
(lp4893
S'session_id_name'
p4894
asbag62
(g83
g64
NtRp4895
(dp4896
g67
(dp4897
g94
g95
ssg76
g4886
sg69
(lp4898
S':'
asbag62
(g83
g64
NtRp4899
(dp4900
g67
(dp4901
sg76
g4886
sg69
(lp4902
g62
(g63
g64
NtRp4903
(dp4904
g67
(dp4905
g75
I5
ssg76
g4899
sg69
(lp4906
g3541
asbasbasbag62
(g78
g64
NtRp4907
(dp4908
g67
(dp4909
sg76
g3484
sg69
(lp4910
g62
(g83
g64
NtRp4911
(dp4912
g67
(dp4913
g87
g88
ssg76
g4907
sg69
(lp4914
S'session_locked'
p4915
asbag62
(g83
g64
NtRp4916
(dp4917
g67
(dp4918
g94
g95
ssg76
g4907
sg69
(lp4919
S':'
asbag62
(g83
g64
NtRp4920
(dp4921
g67
(dp4922
sg76
g4907
sg69
(lp4923
g62
(g63
g64
NtRp4924
(dp4925
g67
(dp4926
g75
I5
ssg76
g4920
sg69
(lp4927
g1683
asbasbasbag62
(g78
g64
NtRp4928
(dp4929
g67
(dp4930
sg76
g3484
sg69
(lp4931
g62
(g83
g64
NtRp4932
(dp4933
g67
(dp4934
g87
g88
ssg76
g4928
sg69
(lp4935
S'session_new'
p4936
asbag62
(g83
g64
NtRp4937
(dp4938
g67
(dp4939
g94
g95
ssg76
g4928
sg69
(lp4940
S':'
asbag62
(g83
g64
NtRp4941
(dp4942
g67
(dp4943
sg76
g4928
sg69
(lp4944
g62
(g63
g64
NtRp4945
(dp4946
g67
(dp4947
g75
I5
ssg76
g4941
sg69
(lp4948
g105
asbasbasbag62
(g78
g64
NtRp4949
(dp4950
g67
(dp4951
sg76
g3484
sg69
(lp4952
g62
(g83
g64
NtRp4953
(dp4954
g67
(dp4955
g87
g88
ssg76
g4949
sg69
(lp4956
S'status'
p4957
asbag62
(g83
g64
NtRp4958
(dp4959
g67
(dp4960
g94
g95
ssg76
g4949
sg69
(lp4961
S':'
asbag62
(g83
g64
NtRp4962
(dp4963
g67
(dp4964
sg76
g4949
sg69
(lp4965
g62
(g63
g64
NtRp4966
(dp4967
g67
(dp4968
g75
I5
ssg76
g4962
sg69
(lp4969
S'200'
p4970
asbasbasbag62
(g78
g64
NtRp4971
(dp4972
g67
(dp4973
sg76
g3484
sg69
(lp4974
g62
(g83
g64
NtRp4975
(dp4976
g67
(dp4977
g87
g88
ssg76
g4971
sg69
(lp4978
S'subtitle'
p4979
asbag62
(g83
g64
NtRp4980
(dp4981
g67
(dp4982
g94
g95
ssg76
g4971
sg69
(lp4983
S':'
asbag62
(g83
g64
NtRp4984
(dp4985
g67
(dp4986
sg76
g4971
sg69
(lp4987
g62
(g63
g64
NtRp4988
(dp4989
g67
(dp4990
g75
I5
ssg76
g4984
sg69
(lp4991
g4040
(S's\r\x00\x00\x00customize me!'
tRp4992
asbasbasbag62
(g78
g64
NtRp4993
(dp4994
g67
(dp4995
sg76
g3484
sg69
(lp4996
g62
(g83
g64
NtRp4997
(dp4998
g67
(dp4999
g87
g88
ssg76
g4993
sg69
(lp5000
S'title'
p5001
asbag62
(g83
g64
NtRp5002
(dp5003
g67
(dp5004
g94
g95
ssg76
g4993
sg69
(lp5005
S':'
asbag62
(g83
g64
NtRp5006
(dp5007
g67
(dp5008
sg76
g4993
sg69
(lp5009
g62
(g63
g64
NtRp5010
(dp5011
g67
(dp5012
g75
I5
ssg76
g5006
sg69
(lp5013
S'Project'
p5014
asbasbasbag62
(g78
g64
NtRp5015
(dp5016
g67
(dp5017
sg76
g3484
sg69
(lp5018
g62
(g83
g64
NtRp5019
(dp5020
g67
(dp5021
g87
g88
ssg76
g5015
sg69
(lp5022
g2347
asbag62
(g83
g64
NtRp5023
(dp5024
g67
(dp5025
g94
g95
ssg76
g5015
sg69
(lp5026
S':'
asbag62
(g83
g64
NtRp5027
(dp5028
g67
(dp5029
sg76
g5015
sg69
(lp5030
g62
(g63
g64
NtRp5031
(dp5032
g67
(dp5033
g75
I5
ssg76
g5027
sg69
(lp5034
g2360
asbasbasbag62
(g78
g64
NtRp5035
(dp5036
g67
(dp5037
sg76
g3484
sg69
(lp5038
g62
(g83
g64
NtRp5039
(dp5040
g67
(dp5041
g87
g88
ssg76
g5035
sg69
(lp5042
S'view'
p5043
asbag62
(g83
g64
NtRp5044
(dp5045
g67
(dp5046
g94
g95
ssg76
g5035
sg69
(lp5047
S':'
asbag62
(g83
g64
NtRp5048
(dp5049
g67
(dp5050
sg76
g5035
sg69
(lp5051
g62
(g63
g64
NtRp5052
(dp5053
g67
(dp5054
g75
I5
ssg76
g5048
sg69
(lp5055
S'default/kruskal.html'
p5056
asbasbasbasbasbsS'locals'
p5057
(dp5058
S'a'
S'7'
sS'b'
S'5'
sS'cou'
p5059
S'9'
sS'min'
p5060
S'100'
p5061
sS'i'
S'9'
sS'k'
S'8'
sS'j'
S'9'
sS'li'
p5062
S"<Row {'update_record': <function <lambda> at 0x9... <function <lambda> at 0x9efcca4>, 'Emp2_id': 5}>"
p5063
sS'emp'
p5064
S'<gluon.dal.Rows object>'
p5065
sS'lis'
p5066
S'<gluon.dal.Rows object>'
p5067
sS'count1'
p5068
S'1'
sS'counts'
p5069
S'9'
sS'count2'
p5070
S'8'
sssS'traceback'
p5071
S'Traceback (most recent call last):\n  File "/home/arpita/courses/sem3/ssad/web2py/gluon/restricted.py", line 205, in restricted\n    exec ccode in environment\n  File "/home/arpita/courses/sem3/ssad/web2py/applications/project/controllers/default.py", line 142, in <module>\n  File "/home/arpita/courses/sem3/ssad/web2py/gluon/globals.py", line 173, in <lambda>\n    self._caller = lambda f: f()\n  File "/home/arpita/courses/sem3/ssad/web2py/applications/project/controllers/default.py", line 137, in kruskal\n    file = open(\'applications/project/controller/myfile.txt\',\'w\')\nIOError: [Errno 2] No such file or directory: \'applications/project/controller/myfile.txt\'\n'
p5072
s.