(dp1
S'output'
p2
S"<type 'exceptions.AttributeError'> 'str' object has no attribute 'Name'"
p3
sS'layer'
p4
S'/home/arpita/courses/sem3/ssad/web2py/applications/project/views/default/graph.html'
p5
sS'code'
p6
S'response.write(\'<!DOCTYPE html PUBLIC "-//W3C//DTD XHTML 1.0 Strict//EN" "http://www.w3.org/TR/xhtml1/DTD/xhtml1-strict.dtd">\\n<!-- Template Design by TheWebhub.com | http://www.thewebhub.com | Released for free under a Creative Commons Attribution-Share Alike 3.0 Philippines -->\\n<html xmlns="http://www.w3.org/1999/xhtml">\\n <head>\\n  <title>\\n   \', escape=False)\nresponse.write(response.title or request.application)\nresponse.write(\'\\n  </title>\\n  \', escape=False)\nresponse.files.append(URL(request.application,\'static\',\'plugin_layouts/layouts/CorporateOffice/style.css\'))\nresponse.write(\'\\n  \', escape=False)\nresponse.files.append(URL(\'static\',\'plugin_layouts/superfish.js\'))\nresponse.write(\'\\n  \', escape=False)\nresponse.write(\'<script type="text/javascript"><!--\\n    // These variables are used by the web2py_ajax_init function in web2py_ajax.js (which is loaded below).\\n    var w2p_ajax_confirm_message = "\', escape=False)\nresponse.write(T(\'Are you sure you want to delete this object?\'))\nresponse.write(\'";\\n    var w2p_ajax_date_format = "\', escape=False)\nresponse.write(T(\'%Y-%m-%d\'))\nresponse.write(\'";\\n    var w2p_ajax_datetime_format = "\', escape=False)\nresponse.write(T(\'%Y-%m-%d %H:%M:%S\'))\nresponse.write(\'";\\n    //--></script>\\n\', escape=False)\nresponse.files.insert(0,URL(\'static\',\'js/jquery.js\'))\nresponse.files.insert(1,URL(\'static\',\'css/calendar.css\'))\nresponse.files.insert(2,URL(\'static\',\'js/calendar.js\'))\nresponse.files.insert(3,URL(\'static\',\'js/web2py.js\'))\nresponse.include_meta()\nresponse.include_files()\nresponse.write(\'\\n\', escape=False)\nresponse.write(\'\\n  <style>\\nul.web2py-menu-vertical { width: 150px; position: relative; top:1em; left:1em;  z-index:30; border:0; margin:0; padding: 0; list-style: none; text-decoration: none;}\\nul.web2py-menu-vertical li { margin:0; padding:0; border:0; width: 150px; background: black; text-align:left;}\\nul.web2py-menu-vertical li a { margin:0; padding: 1px 3px 1px 3px; border:0; width: 144px; color: white; font-size:12px;}\\ndiv.flash { position: fixed; float: right; padding: 10px; top: 10px; right: 30px; opacity: 0.75; margin: 10px 10px 10px 10px; text-align: center; clear: both; color: #fff; font-size: 11pt; text-align: center; vertical-align: middle; cursor: pointer; background: black; border: 2px solid #fff; -moz-border-radius: 5px; -webkit-border-radius: 5px; z-index: 2; }\\ndiv.error { background-color: red; color: white; padding: 3px; }\\n.auth_navbar { text-align:right; z-index:20; position: absolute; top: 2px; right:30px; border:0; padding:0 }\\n  </style>\\n </head>\\n <body>\\n  <!-- start header -->\\n  \', escape=False)\ntry:\n    response.write(auth.navbar(action=URL(\'default\',\'user\')))\nexcept:pass\nresponse.write(\'\\n\\n  <div id="wrapper">\\n  <div id="header"> \\n    <h1>\\n    Hierarchy Generator\\n    </h1>\\n  <!--  <h2>\\n     \', escape=False)\nresponse.write(response.subtitle or \'=response.subtitle\')\nresponse.write(\'\\n    </h2> -->\\n   </div>\\n  <!-- <div id="menu">\\n    \', escape=False)\nresponse.write(MENU(response.menu,_class=\'web2py-menu\'))\nresponse.write(\'\\n    <script>\\n      jQuery(document).ready(function(){jQuery(\\\'ul.web2py-menu\\\').superfish({delay:400});});\\n    </script>\\n   </div> -->\\n   <div id="content">\\n    <div class="flash">\', escape=False)\nresponse.write(response.flash or \'\')\nresponse.write(\'</div>\\n    \', escape=False)\nresponse.write(\'\\n<a href="index">Home</a>\\n<br>\\n<h3>Employee Information</h3>\\n</br>\\n\', escape=False)\nfor empls in empl:\n    response.write(\'\\n\', escape=False)\n    response.write(empls.Name)\n    response.write(\'\\n\', escape=False)\n    response.write(empls.Designation)\n    response.write(\'\\n\', escape=False)\n    pass\nresponse.write(\'\\n\', escape=False)\nresponse.write(BEAUTIFY(response._vars))\nresponse.write(\'\\n\', escape=False)\nresponse.write(\'\\n   </div> \\n <!--  <div id="footer">\\n    <p class="copyright">\\n     Copyright &copy; 2006 Sitename.com. Template Designed by\\n     <a href="http://www.thewebhub.com/">\\n      TheWebHub.com\\n     </a>\\n     &nbsp;&nbsp;&nbsp;Free Icons by\\n     <a href="http://famfamfam.com/">\\n      FAMFAMFAM\\n     </a>\\n    </p>\\n    <p class="links">\\n     <a href="http://validator.w3.org/check/referer" class="xhtml">\\n      Valid XHTML\\n     </a>\\n     &nbsp;&nbsp;&nbsp;\\n     <a href="http://jigsaw.w3.org/css-validator/check/referer" class="css">\\n      Valid CSS\\n     </a>\\n    </p>\\n   </div>\\n  </div> -->\\n </body>\\n</html>\\n\', escape=False)'
p7
sS'snapshot'
p8
(dp9
S'exception'
p10
(dp11
S'__hash__'
p12
S"<method-wrapper '__hash__' of exceptions.AttributeError object>"
p13
sS'__setattr__'
p14
S"<method-wrapper '__setattr__' of exceptions.AttributeError object>"
p15
sS'__reduce_ex__'
p16
S'<built-in method __reduce_ex__ of exceptions.AttributeError object>'
p17
sS'__getslice__'
p18
S"<method-wrapper '__getslice__' of exceptions.AttributeError object>"
p19
sS'__getitem__'
p20
S"<method-wrapper '__getitem__' of exceptions.AttributeError object>"
p21
sS'__setstate__'
p22
S'<built-in method __setstate__ of exceptions.AttributeError object>'
p23
sS'__reduce__'
p24
S'<built-in method __reduce__ of exceptions.AttributeError object>'
p25
sS'__str__'
p26
S"<method-wrapper '__str__' of exceptions.AttributeError object>"
p27
sS'__format__'
p28
S'<built-in method __format__ of exceptions.AttributeError object>'
p29
sS'__getattribute__'
p30
S"<method-wrapper '__getattribute__' of exceptions.AttributeError object>"
p31
sS'__class__'
p32
S"<type 'exceptions.AttributeError'>"
p33
sS'__unicode__'
p34
S'<built-in method __unicode__ of exceptions.AttributeError object>'
p35
sS'__delattr__'
p36
S"<method-wrapper '__delattr__' of exceptions.AttributeError object>"
p37
sS'__subclasshook__'
p38
S'<built-in method __subclasshook__ of type object>'
p39
sS'__repr__'
p40
S"<method-wrapper '__repr__' of exceptions.AttributeError object>"
p41
sS'args'
p42
S'("\'str\' object has no attribute \'Name\'",)'
p43
sS'__dict__'
p44
S'{}'
p45
sS'__sizeof__'
p46
S'<built-in method __sizeof__ of exceptions.AttributeError object>'
p47
sS'__doc__'
p48
S"'Attribute not found.'"
p49
sS'__init__'
p50
S"<method-wrapper '__init__' of exceptions.AttributeError object>"
p51
sS'__new__'
p52
S'<built-in method __new__ of type object>'
p53
ssS'evalue'
p54
S"'str' object has no attribute 'Name'"
p55
sS'request'
p56
ccopy_reg
_reconstructor
p57
(cgluon.html
BEAUTIFY
p58
c__builtin__
object
p59
NtRp60
(dp61
S'attributes'
p62
(dp63
sS'components'
p64
(lp65
g57
(cgluon.html
TABLE
p66
g59
NtRp67
(dp68
g62
(dp69
S'level'
p70
I5
ssS'parent'
p71
Nsg64
(lp72
g57
(cgluon.html
TR
p73
g59
NtRp74
(dp75
g62
(dp76
sg71
g67
sg64
(lp77
g57
(cgluon.html
TD
p78
g59
NtRp79
(dp80
g62
(dp81
S'_style'
p82
S'font-weight:bold;vertical-align:top'
p83
ssg71
g74
sg64
(lp84
S'ajax'
p85
asbag57
(g78
g59
NtRp86
(dp87
g62
(dp88
S'_valign'
p89
S'top'
p90
ssg71
g74
sg64
(lp91
S':'
asbag57
(g78
g59
NtRp92
(dp93
g62
(dp94
sg71
g74
sg64
(lp95
g57
(g58
g59
NtRp96
(dp97
g62
(dp98
g70
I5
ssg71
g92
sg64
(lp99
S'False'
p100
asbasbasbag57
(g73
g59
NtRp101
(dp102
g62
(dp103
sg71
g67
sg64
(lp104
g57
(g78
g59
NtRp105
(dp106
g62
(dp107
g82
g83
ssg71
g101
sg64
(lp108
S'application'
p109
asbag57
(g78
g59
NtRp110
(dp111
g62
(dp112
g89
g90
ssg71
g101
sg64
(lp113
S':'
asbag57
(g78
g59
NtRp114
(dp115
g62
(dp116
sg71
g101
sg64
(lp117
g57
(g58
g59
NtRp118
(dp119
g62
(dp120
g70
I5
ssg71
g114
sg64
(lp121
S'project'
p122
asbasbasbag57
(g73
g59
NtRp123
(dp124
g62
(dp125
sg71
g67
sg64
(lp126
g57
(g78
g59
NtRp127
(dp128
g62
(dp129
g82
g83
ssg71
g123
sg64
(lp130
g42
asbag57
(g78
g59
NtRp131
(dp132
g62
(dp133
g89
g90
ssg71
g123
sg64
(lp134
S':'
asbag57
(g78
g59
NtRp135
(dp136
g62
(dp137
sg71
g123
sg64
(lp138
g57
(g58
g59
NtRp139
(dp140
g62
(dp141
g70
I5
ssg71
g135
sg64
(lp142
g57
(g66
g59
NtRp143
(dp144
g62
(dp145
g70
I4
ssg71
Nsg64
(lp146
g57
(g73
g59
NtRp147
(dp148
g62
(dp149
sg71
g143
sg64
(lp150
g57
(g78
g59
NtRp151
(dp152
g62
(dp153
sg71
g147
sg64
(lp154
g57
(g58
g59
NtRp155
(dp156
g62
(dp157
g70
I4
ssg71
g151
sg64
(lp158
S'11'
p159
asbasbasbasbasbasbasbag57
(g73
g59
NtRp160
(dp161
g62
(dp162
sg71
g67
sg64
(lp163
g57
(g78
g59
NtRp164
(dp165
g62
(dp166
g82
g83
ssg71
g160
sg64
(lp167
S'body'
p168
asbag57
(g78
g59
NtRp169
(dp170
g62
(dp171
g89
g90
ssg71
g160
sg64
(lp172
S':'
asbag57
(g78
g59
NtRp173
(dp174
g62
(dp175
sg71
g160
sg64
(lp176
g57
(g58
g59
NtRp177
(dp178
g62
(dp179
g70
I5
ssg71
g173
sg64
(lp180
S'<cStringIO.StringO object at 0x9079d40>'
p181
asbasbasbag57
(g73
g59
NtRp182
(dp183
g62
(dp184
sg71
g67
sg64
(lp185
g57
(g78
g59
NtRp186
(dp187
g62
(dp188
g82
g83
ssg71
g182
sg64
(lp189
S'client'
p190
asbag57
(g78
g59
NtRp191
(dp192
g62
(dp193
g89
g90
ssg71
g182
sg64
(lp194
S':'
asbag57
(g78
g59
NtRp195
(dp196
g62
(dp197
sg71
g182
sg64
(lp198
g57
(g58
g59
NtRp199
(dp200
g62
(dp201
g70
I5
ssg71
g195
sg64
(lp202
S'127.0.0.1'
p203
asbasbasbag57
(g73
g59
NtRp204
(dp205
g62
(dp206
sg71
g67
sg64
(lp207
g57
(g78
g59
NtRp208
(dp209
g62
(dp210
g82
g83
ssg71
g204
sg64
(lp211
S'controller'
p212
asbag57
(g78
g59
NtRp213
(dp214
g62
(dp215
g89
g90
ssg71
g204
sg64
(lp216
S':'
asbag57
(g78
g59
NtRp217
(dp218
g62
(dp219
sg71
g204
sg64
(lp220
g57
(g58
g59
NtRp221
(dp222
g62
(dp223
g70
I5
ssg71
g217
sg64
(lp224
S'default'
p225
asbasbasbag57
(g73
g59
NtRp226
(dp227
g62
(dp228
sg71
g67
sg64
(lp229
g57
(g78
g59
NtRp230
(dp231
g62
(dp232
g82
g83
ssg71
g226
sg64
(lp233
S'cookies'
p234
asbag57
(g78
g59
NtRp235
(dp236
g62
(dp237
g89
g90
ssg71
g226
sg64
(lp238
S':'
asbag57
(g78
g59
NtRp239
(dp240
g62
(dp241
sg71
g226
sg64
(lp242
g57
(g58
g59
NtRp243
(dp244
g62
(dp245
g70
I5
ssg71
g239
sg64
(lp246
g57
(g66
g59
NtRp247
(dp248
g62
(dp249
g70
I4
ssg71
Nsg64
(lp250
g57
(g73
g59
NtRp251
(dp252
g62
(dp253
sg71
g247
sg64
(lp254
g57
(g78
g59
NtRp255
(dp256
g62
(dp257
g82
g83
ssg71
g251
sg64
(lp258
S'session_id_admin'
p259
asbag57
(g78
g59
NtRp260
(dp261
g62
(dp262
g89
g90
ssg71
g251
sg64
(lp263
S':'
asbag57
(g78
g59
NtRp264
(dp265
g62
(dp266
sg71
g251
sg64
(lp267
g57
(g58
g59
NtRp268
(dp269
g62
(dp270
g70
I4
ssg71
g264
sg64
(lp271
g57
(g66
g59
NtRp272
(dp273
g62
(dp274
g70
I3
ssg71
Nsg64
(lp275
g57
(g73
g59
NtRp276
(dp277
g62
(dp278
sg71
g272
sg64
(lp279
g57
(g78
g59
NtRp280
(dp281
g62
(dp282
g82
g83
ssg71
g276
sg64
(lp283
S'comment'
p284
asbag57
(g78
g59
NtRp285
(dp286
g62
(dp287
g89
g90
ssg71
g276
sg64
(lp288
S':'
asbag57
(g78
g59
NtRp289
(dp290
g62
(dp291
sg71
g276
sg64
(lp292
g57
(g58
g59
NtRp293
(dp294
g62
(dp295
g70
I3
ssg71
g289
sg64
(lp296
S''
asbasbasbag57
(g73
g59
NtRp297
(dp298
g62
(dp299
sg71
g272
sg64
(lp300
g57
(g78
g59
NtRp301
(dp302
g62
(dp303
g82
g83
ssg71
g297
sg64
(lp304
S'domain'
p305
asbag57
(g78
g59
NtRp306
(dp307
g62
(dp308
g89
g90
ssg71
g297
sg64
(lp309
S':'
asbag57
(g78
g59
NtRp310
(dp311
g62
(dp312
sg71
g297
sg64
(lp313
g57
(g58
g59
NtRp314
(dp315
g62
(dp316
g70
I3
ssg71
g310
sg64
(lp317
S''
asbasbasbag57
(g73
g59
NtRp318
(dp319
g62
(dp320
sg71
g272
sg64
(lp321
g57
(g78
g59
NtRp322
(dp323
g62
(dp324
g82
g83
ssg71
g318
sg64
(lp325
S'expires'
p326
asbag57
(g78
g59
NtRp327
(dp328
g62
(dp329
g89
g90
ssg71
g318
sg64
(lp330
S':'
asbag57
(g78
g59
NtRp331
(dp332
g62
(dp333
sg71
g318
sg64
(lp334
g57
(g58
g59
NtRp335
(dp336
g62
(dp337
g70
I3
ssg71
g331
sg64
(lp338
S''
asbasbasbag57
(g73
g59
NtRp339
(dp340
g62
(dp341
sg71
g272
sg64
(lp342
g57
(g78
g59
NtRp343
(dp344
g62
(dp345
g82
g83
ssg71
g339
sg64
(lp346
S'httponly'
p347
asbag57
(g78
g59
NtRp348
(dp349
g62
(dp350
g89
g90
ssg71
g339
sg64
(lp351
S':'
asbag57
(g78
g59
NtRp352
(dp353
g62
(dp354
sg71
g339
sg64
(lp355
g57
(g58
g59
NtRp356
(dp357
g62
(dp358
g70
I3
ssg71
g352
sg64
(lp359
S''
asbasbasbag57
(g73
g59
NtRp360
(dp361
g62
(dp362
sg71
g272
sg64
(lp363
g57
(g78
g59
NtRp364
(dp365
g62
(dp366
g82
g83
ssg71
g360
sg64
(lp367
S'max-age'
p368
asbag57
(g78
g59
NtRp369
(dp370
g62
(dp371
g89
g90
ssg71
g360
sg64
(lp372
S':'
asbag57
(g78
g59
NtRp373
(dp374
g62
(dp375
sg71
g360
sg64
(lp376
g57
(g58
g59
NtRp377
(dp378
g62
(dp379
g70
I3
ssg71
g373
sg64
(lp380
S''
asbasbasbag57
(g73
g59
NtRp381
(dp382
g62
(dp383
sg71
g272
sg64
(lp384
g57
(g78
g59
NtRp385
(dp386
g62
(dp387
g82
g83
ssg71
g381
sg64
(lp388
S'path'
p389
asbag57
(g78
g59
NtRp390
(dp391
g62
(dp392
g89
g90
ssg71
g381
sg64
(lp393
S':'
asbag57
(g78
g59
NtRp394
(dp395
g62
(dp396
sg71
g381
sg64
(lp397
g57
(g58
g59
NtRp398
(dp399
g62
(dp400
g70
I3
ssg71
g394
sg64
(lp401
S''
asbasbasbag57
(g73
g59
NtRp402
(dp403
g62
(dp404
sg71
g272
sg64
(lp405
g57
(g78
g59
NtRp406
(dp407
g62
(dp408
g82
g83
ssg71
g402
sg64
(lp409
S'secure'
p410
asbag57
(g78
g59
NtRp411
(dp412
g62
(dp413
g89
g90
ssg71
g402
sg64
(lp414
S':'
asbag57
(g78
g59
NtRp415
(dp416
g62
(dp417
sg71
g402
sg64
(lp418
g57
(g58
g59
NtRp419
(dp420
g62
(dp421
g70
I3
ssg71
g415
sg64
(lp422
S''
asbasbasbag57
(g73
g59
NtRp423
(dp424
g62
(dp425
sg71
g272
sg64
(lp426
g57
(g78
g59
NtRp427
(dp428
g62
(dp429
g82
g83
ssg71
g423
sg64
(lp430
S'version'
p431
asbag57
(g78
g59
NtRp432
(dp433
g62
(dp434
g89
g90
ssg71
g423
sg64
(lp435
S':'
asbag57
(g78
g59
NtRp436
(dp437
g62
(dp438
sg71
g423
sg64
(lp439
g57
(g58
g59
NtRp440
(dp441
g62
(dp442
g70
I3
ssg71
g436
sg64
(lp443
S''
asbasbasbasbasbasbasbag57
(g73
g59
NtRp444
(dp445
g62
(dp446
sg71
g247
sg64
(lp447
g57
(g78
g59
NtRp448
(dp449
g62
(dp450
g82
g83
ssg71
g444
sg64
(lp451
S'session_id_project'
p452
asbag57
(g78
g59
NtRp453
(dp454
g62
(dp455
g89
g90
ssg71
g444
sg64
(lp456
S':'
asbag57
(g78
g59
NtRp457
(dp458
g62
(dp459
sg71
g444
sg64
(lp460
g57
(g58
g59
NtRp461
(dp462
g62
(dp463
g70
I4
ssg71
g457
sg64
(lp464
g57
(g66
g59
NtRp465
(dp466
g62
(dp467
g70
I3
ssg71
Nsg64
(lp468
g57
(g73
g59
NtRp469
(dp470
g62
(dp471
sg71
g465
sg64
(lp472
g57
(g78
g59
NtRp473
(dp474
g62
(dp475
g82
g83
ssg71
g469
sg64
(lp476
g284
asbag57
(g78
g59
NtRp477
(dp478
g62
(dp479
g89
g90
ssg71
g469
sg64
(lp480
S':'
asbag57
(g78
g59
NtRp481
(dp482
g62
(dp483
sg71
g469
sg64
(lp484
g57
(g58
g59
NtRp485
(dp486
g62
(dp487
g70
I3
ssg71
g481
sg64
(lp488
S''
asbasbasbag57
(g73
g59
NtRp489
(dp490
g62
(dp491
sg71
g465
sg64
(lp492
g57
(g78
g59
NtRp493
(dp494
g62
(dp495
g82
g83
ssg71
g489
sg64
(lp496
g305
asbag57
(g78
g59
NtRp497
(dp498
g62
(dp499
g89
g90
ssg71
g489
sg64
(lp500
S':'
asbag57
(g78
g59
NtRp501
(dp502
g62
(dp503
sg71
g489
sg64
(lp504
g57
(g58
g59
NtRp505
(dp506
g62
(dp507
g70
I3
ssg71
g501
sg64
(lp508
S''
asbasbasbag57
(g73
g59
NtRp509
(dp510
g62
(dp511
sg71
g465
sg64
(lp512
g57
(g78
g59
NtRp513
(dp514
g62
(dp515
g82
g83
ssg71
g509
sg64
(lp516
g326
asbag57
(g78
g59
NtRp517
(dp518
g62
(dp519
g89
g90
ssg71
g509
sg64
(lp520
S':'
asbag57
(g78
g59
NtRp521
(dp522
g62
(dp523
sg71
g509
sg64
(lp524
g57
(g58
g59
NtRp525
(dp526
g62
(dp527
g70
I3
ssg71
g521
sg64
(lp528
S''
asbasbasbag57
(g73
g59
NtRp529
(dp530
g62
(dp531
sg71
g465
sg64
(lp532
g57
(g78
g59
NtRp533
(dp534
g62
(dp535
g82
g83
ssg71
g529
sg64
(lp536
g347
asbag57
(g78
g59
NtRp537
(dp538
g62
(dp539
g89
g90
ssg71
g529
sg64
(lp540
S':'
asbag57
(g78
g59
NtRp541
(dp542
g62
(dp543
sg71
g529
sg64
(lp544
g57
(g58
g59
NtRp545
(dp546
g62
(dp547
g70
I3
ssg71
g541
sg64
(lp548
S''
asbasbasbag57
(g73
g59
NtRp549
(dp550
g62
(dp551
sg71
g465
sg64
(lp552
g57
(g78
g59
NtRp553
(dp554
g62
(dp555
g82
g83
ssg71
g549
sg64
(lp556
g368
asbag57
(g78
g59
NtRp557
(dp558
g62
(dp559
g89
g90
ssg71
g549
sg64
(lp560
S':'
asbag57
(g78
g59
NtRp561
(dp562
g62
(dp563
sg71
g549
sg64
(lp564
g57
(g58
g59
NtRp565
(dp566
g62
(dp567
g70
I3
ssg71
g561
sg64
(lp568
S''
asbasbasbag57
(g73
g59
NtRp569
(dp570
g62
(dp571
sg71
g465
sg64
(lp572
g57
(g78
g59
NtRp573
(dp574
g62
(dp575
g82
g83
ssg71
g569
sg64
(lp576
g389
asbag57
(g78
g59
NtRp577
(dp578
g62
(dp579
g89
g90
ssg71
g569
sg64
(lp580
S':'
asbag57
(g78
g59
NtRp581
(dp582
g62
(dp583
sg71
g569
sg64
(lp584
g57
(g58
g59
NtRp585
(dp586
g62
(dp587
g70
I3
ssg71
g581
sg64
(lp588
S''
asbasbasbag57
(g73
g59
NtRp589
(dp590
g62
(dp591
sg71
g465
sg64
(lp592
g57
(g78
g59
NtRp593
(dp594
g62
(dp595
g82
g83
ssg71
g589
sg64
(lp596
g410
asbag57
(g78
g59
NtRp597
(dp598
g62
(dp599
g89
g90
ssg71
g589
sg64
(lp600
S':'
asbag57
(g78
g59
NtRp601
(dp602
g62
(dp603
sg71
g589
sg64
(lp604
g57
(g58
g59
NtRp605
(dp606
g62
(dp607
g70
I3
ssg71
g601
sg64
(lp608
S''
asbasbasbag57
(g73
g59
NtRp609
(dp610
g62
(dp611
sg71
g465
sg64
(lp612
g57
(g78
g59
NtRp613
(dp614
g62
(dp615
g82
g83
ssg71
g609
sg64
(lp616
g431
asbag57
(g78
g59
NtRp617
(dp618
g62
(dp619
g89
g90
ssg71
g609
sg64
(lp620
S':'
asbag57
(g78
g59
NtRp621
(dp622
g62
(dp623
sg71
g609
sg64
(lp624
g57
(g58
g59
NtRp625
(dp626
g62
(dp627
g70
I3
ssg71
g621
sg64
(lp628
S''
asbasbasbasbasbasbasbag57
(g73
g59
NtRp629
(dp630
g62
(dp631
sg71
g247
sg64
(lp632
g57
(g78
g59
NtRp633
(dp634
g62
(dp635
g82
g83
ssg71
g629
sg64
(lp636
S'session_id_welcome'
p637
asbag57
(g78
g59
NtRp638
(dp639
g62
(dp640
g89
g90
ssg71
g629
sg64
(lp641
S':'
asbag57
(g78
g59
NtRp642
(dp643
g62
(dp644
sg71
g629
sg64
(lp645
g57
(g58
g59
NtRp646
(dp647
g62
(dp648
g70
I4
ssg71
g642
sg64
(lp649
g57
(g66
g59
NtRp650
(dp651
g62
(dp652
g70
I3
ssg71
Nsg64
(lp653
g57
(g73
g59
NtRp654
(dp655
g62
(dp656
sg71
g650
sg64
(lp657
g57
(g78
g59
NtRp658
(dp659
g62
(dp660
g82
g83
ssg71
g654
sg64
(lp661
g284
asbag57
(g78
g59
NtRp662
(dp663
g62
(dp664
g89
g90
ssg71
g654
sg64
(lp665
S':'
asbag57
(g78
g59
NtRp666
(dp667
g62
(dp668
sg71
g654
sg64
(lp669
g57
(g58
g59
NtRp670
(dp671
g62
(dp672
g70
I3
ssg71
g666
sg64
(lp673
S''
asbasbasbag57
(g73
g59
NtRp674
(dp675
g62
(dp676
sg71
g650
sg64
(lp677
g57
(g78
g59
NtRp678
(dp679
g62
(dp680
g82
g83
ssg71
g674
sg64
(lp681
g305
asbag57
(g78
g59
NtRp682
(dp683
g62
(dp684
g89
g90
ssg71
g674
sg64
(lp685
S':'
asbag57
(g78
g59
NtRp686
(dp687
g62
(dp688
sg71
g674
sg64
(lp689
g57
(g58
g59
NtRp690
(dp691
g62
(dp692
g70
I3
ssg71
g686
sg64
(lp693
S''
asbasbasbag57
(g73
g59
NtRp694
(dp695
g62
(dp696
sg71
g650
sg64
(lp697
g57
(g78
g59
NtRp698
(dp699
g62
(dp700
g82
g83
ssg71
g694
sg64
(lp701
g326
asbag57
(g78
g59
NtRp702
(dp703
g62
(dp704
g89
g90
ssg71
g694
sg64
(lp705
S':'
asbag57
(g78
g59
NtRp706
(dp707
g62
(dp708
sg71
g694
sg64
(lp709
g57
(g58
g59
NtRp710
(dp711
g62
(dp712
g70
I3
ssg71
g706
sg64
(lp713
S''
asbasbasbag57
(g73
g59
NtRp714
(dp715
g62
(dp716
sg71
g650
sg64
(lp717
g57
(g78
g59
NtRp718
(dp719
g62
(dp720
g82
g83
ssg71
g714
sg64
(lp721
g347
asbag57
(g78
g59
NtRp722
(dp723
g62
(dp724
g89
g90
ssg71
g714
sg64
(lp725
S':'
asbag57
(g78
g59
NtRp726
(dp727
g62
(dp728
sg71
g714
sg64
(lp729
g57
(g58
g59
NtRp730
(dp731
g62
(dp732
g70
I3
ssg71
g726
sg64
(lp733
S''
asbasbasbag57
(g73
g59
NtRp734
(dp735
g62
(dp736
sg71
g650
sg64
(lp737
g57
(g78
g59
NtRp738
(dp739
g62
(dp740
g82
g83
ssg71
g734
sg64
(lp741
g368
asbag57
(g78
g59
NtRp742
(dp743
g62
(dp744
g89
g90
ssg71
g734
sg64
(lp745
S':'
asbag57
(g78
g59
NtRp746
(dp747
g62
(dp748
sg71
g734
sg64
(lp749
g57
(g58
g59
NtRp750
(dp751
g62
(dp752
g70
I3
ssg71
g746
sg64
(lp753
S''
asbasbasbag57
(g73
g59
NtRp754
(dp755
g62
(dp756
sg71
g650
sg64
(lp757
g57
(g78
g59
NtRp758
(dp759
g62
(dp760
g82
g83
ssg71
g754
sg64
(lp761
g389
asbag57
(g78
g59
NtRp762
(dp763
g62
(dp764
g89
g90
ssg71
g754
sg64
(lp765
S':'
asbag57
(g78
g59
NtRp766
(dp767
g62
(dp768
sg71
g754
sg64
(lp769
g57
(g58
g59
NtRp770
(dp771
g62
(dp772
g70
I3
ssg71
g766
sg64
(lp773
S''
asbasbasbag57
(g73
g59
NtRp774
(dp775
g62
(dp776
sg71
g650
sg64
(lp777
g57
(g78
g59
NtRp778
(dp779
g62
(dp780
g82
g83
ssg71
g774
sg64
(lp781
g410
asbag57
(g78
g59
NtRp782
(dp783
g62
(dp784
g89
g90
ssg71
g774
sg64
(lp785
S':'
asbag57
(g78
g59
NtRp786
(dp787
g62
(dp788
sg71
g774
sg64
(lp789
g57
(g58
g59
NtRp790
(dp791
g62
(dp792
g70
I3
ssg71
g786
sg64
(lp793
S''
asbasbasbag57
(g73
g59
NtRp794
(dp795
g62
(dp796
sg71
g650
sg64
(lp797
g57
(g78
g59
NtRp798
(dp799
g62
(dp800
g82
g83
ssg71
g794
sg64
(lp801
g431
asbag57
(g78
g59
NtRp802
(dp803
g62
(dp804
g89
g90
ssg71
g794
sg64
(lp805
S':'
asbag57
(g78
g59
NtRp806
(dp807
g62
(dp808
sg71
g794
sg64
(lp809
g57
(g58
g59
NtRp810
(dp811
g62
(dp812
g70
I3
ssg71
g806
sg64
(lp813
S''
asbasbasbasbasbasbasbasbasbasbasbag57
(g73
g59
NtRp814
(dp815
g62
(dp816
sg71
g67
sg64
(lp817
g57
(g78
g59
NtRp818
(dp819
g62
(dp820
g82
g83
ssg71
g814
sg64
(lp821
S'env'
p822
asbag57
(g78
g59
NtRp823
(dp824
g62
(dp825
g89
g90
ssg71
g814
sg64
(lp826
S':'
asbag57
(g78
g59
NtRp827
(dp828
g62
(dp829
sg71
g814
sg64
(lp830
g57
(g58
g59
NtRp831
(dp832
g62
(dp833
g70
I5
ssg71
g827
sg64
(lp834
g57
(g66
g59
NtRp835
(dp836
g62
(dp837
g70
I4
ssg71
Nsg64
(lp838
g57
(g73
g59
NtRp839
(dp840
g62
(dp841
sg71
g835
sg64
(lp842
g57
(g78
g59
NtRp843
(dp844
g62
(dp845
g82
g83
ssg71
g839
sg64
(lp846
S'app_folders'
p847
asbag57
(g78
g59
NtRp848
(dp849
g62
(dp850
g89
g90
ssg71
g839
sg64
(lp851
S':'
asbag57
(g78
g59
NtRp852
(dp853
g62
(dp854
sg71
g839
sg64
(lp855
g57
(g58
g59
NtRp856
(dp857
g62
(dp858
g70
I4
ssg71
g852
sg64
(lp859
S"set(['/home/arpita/courses/sem3/ssad/web2py/applications/admin/', '/home/arpita/courses/sem3/ssad/web2py/applications/project/', '/home/arpita/courses/sem3/ssad/web2py/applications/welcome/'])"
p860
asbasbasbag57
(g73
g59
NtRp861
(dp862
g62
(dp863
sg71
g835
sg64
(lp864
g57
(g78
g59
NtRp865
(dp866
g62
(dp867
g82
g83
ssg71
g861
sg64
(lp868
S'applications_parent'
p869
asbag57
(g78
g59
NtRp870
(dp871
g62
(dp872
g89
g90
ssg71
g861
sg64
(lp873
S':'
asbag57
(g78
g59
NtRp874
(dp875
g62
(dp876
sg71
g861
sg64
(lp877
g57
(g58
g59
NtRp878
(dp879
g62
(dp880
g70
I4
ssg71
g874
sg64
(lp881
S'/home/arpita/courses/sem3/ssad/web2py'
p882
asbasbasbag57
(g73
g59
NtRp883
(dp884
g62
(dp885
sg71
g835
sg64
(lp886
g57
(g78
g59
NtRp887
(dp888
g62
(dp889
g82
g83
ssg71
g883
sg64
(lp890
S'cmd_args'
p891
asbag57
(g78
g59
NtRp892
(dp893
g62
(dp894
g89
g90
ssg71
g883
sg64
(lp895
S':'
asbag57
(g78
g59
NtRp896
(dp897
g62
(dp898
sg71
g883
sg64
(lp899
g57
(g58
g59
NtRp900
(dp901
g62
(dp902
g70
I4
ssg71
g896
sg64
(lp903
g57
(g66
g59
NtRp904
(dp905
g62
(dp906
g70
I3
ssg71
Nsg64
(lp907
sbasbasbasbag57
(g73
g59
NtRp908
(dp909
g62
(dp910
sg71
g835
sg64
(lp911
g57
(g78
g59
NtRp912
(dp913
g62
(dp914
g82
g83
ssg71
g908
sg64
(lp915
S'cmd_options'
p916
asbag57
(g78
g59
NtRp917
(dp918
g62
(dp919
g89
g90
ssg71
g908
sg64
(lp920
S':'
asbag57
(g78
g59
NtRp921
(dp922
g62
(dp923
sg71
g908
sg64
(lp924
g57
(g58
g59
NtRp925
(dp926
g62
(dp927
g70
I4
ssg71
g921
sg64
(lp928
S"<Values at 0x8d173cc: {'verbose': False, 'ip': '127.0.0.1', 'shutdown_timeout': 5, 'taskbar': False, 'nocron': False, 'pid_filename': 'httpserver.pid', 'maxthreads': None, 'softcron': False, 'server_name': 'arpita-HP-630-Notebook-PC', 'bpython': False, 'nogui': False, 'port': 8000, 'extcron': False, 'debuglevel': 30, 'test': None, 'folder': '/home/arpita/courses/sem3/ssad/web2py', 'config': '', 'import_models': False, 'winservice': '', 'shell': None, 'run': '', 'log_filename': 'httpserver.log', 'args': [''], 'socket_timeout': 5, 'ssl_ca_certificate': None, 'scheduler': None, 'profiler_filename': None, 'ssl_private_key': '', 'password': 'arpita', 'request_queue_size': 5, 'ssl_certificate': '', 'cronjob': False, 'numthreads': None, 'quiet': False, 'interfaces': None, 'minthreads': None, 'timeout': 10, 'plain': False, 'nobanner': False}>"
p929
asbasbasbag57
(g73
g59
NtRp930
(dp931
g62
(dp932
sg71
g835
sg64
(lp933
g57
(g78
g59
NtRp934
(dp935
g62
(dp936
g82
g83
ssg71
g930
sg64
(lp937
S'db_sessions'
p938
asbag57
(g78
g59
NtRp939
(dp940
g62
(dp941
g89
g90
ssg71
g930
sg64
(lp942
S':'
asbag57
(g78
g59
NtRp943
(dp944
g62
(dp945
sg71
g930
sg64
(lp946
g57
(g58
g59
NtRp947
(dp948
g62
(dp949
g70
I4
ssg71
g943
sg64
(lp950
S'set([])'
p951
asbasbasbag57
(g73
g59
NtRp952
(dp953
g62
(dp954
sg71
g835
sg64
(lp955
g57
(g78
g59
NtRp956
(dp957
g62
(dp958
g82
g83
ssg71
g952
sg64
(lp959
S'debugging'
p960
asbag57
(g78
g59
NtRp961
(dp962
g62
(dp963
g89
g90
ssg71
g952
sg64
(lp964
S':'
asbag57
(g78
g59
NtRp965
(dp966
g62
(dp967
sg71
g952
sg64
(lp968
g57
(g58
g59
NtRp969
(dp970
g62
(dp971
g70
I4
ssg71
g965
sg64
(lp972
g100
asbasbasbag57
(g73
g59
NtRp973
(dp974
g62
(dp975
sg71
g835
sg64
(lp976
g57
(g78
g59
NtRp977
(dp978
g62
(dp979
g82
g83
ssg71
g973
sg64
(lp980
S'gluon_parent'
p981
asbag57
(g78
g59
NtRp982
(dp983
g62
(dp984
g89
g90
ssg71
g973
sg64
(lp985
S':'
asbag57
(g78
g59
NtRp986
(dp987
g62
(dp988
sg71
g973
sg64
(lp989
g57
(g58
g59
NtRp990
(dp991
g62
(dp992
g70
I4
ssg71
g986
sg64
(lp993
S'/home/arpita/courses/sem3/ssad/web2py'
p994
asbasbasbag57
(g73
g59
NtRp995
(dp996
g62
(dp997
sg71
g835
sg64
(lp998
g57
(g78
g59
NtRp999
(dp1000
g62
(dp1001
g82
g83
ssg71
g995
sg64
(lp1002
S'http_accept'
p1003
asbag57
(g78
g59
NtRp1004
(dp1005
g62
(dp1006
g89
g90
ssg71
g995
sg64
(lp1007
S':'
asbag57
(g78
g59
NtRp1008
(dp1009
g62
(dp1010
sg71
g995
sg64
(lp1011
g57
(g58
g59
NtRp1012
(dp1013
g62
(dp1014
g70
I4
ssg71
g1008
sg64
(lp1015
S'text/html,application/xhtml+xml,application/xml;q=0.9,*/*;q=0.8'
p1016
asbasbasbag57
(g73
g59
NtRp1017
(dp1018
g62
(dp1019
sg71
g835
sg64
(lp1020
g57
(g78
g59
NtRp1021
(dp1022
g62
(dp1023
g82
g83
ssg71
g1017
sg64
(lp1024
S'http_accept_charset'
p1025
asbag57
(g78
g59
NtRp1026
(dp1027
g62
(dp1028
g89
g90
ssg71
g1017
sg64
(lp1029
S':'
asbag57
(g78
g59
NtRp1030
(dp1031
g62
(dp1032
sg71
g1017
sg64
(lp1033
g57
(g58
g59
NtRp1034
(dp1035
g62
(dp1036
g70
I4
ssg71
g1030
sg64
(lp1037
S'ISO-8859-1,utf-8;q=0.7,*;q=0.7'
p1038
asbasbasbag57
(g73
g59
NtRp1039
(dp1040
g62
(dp1041
sg71
g835
sg64
(lp1042
g57
(g78
g59
NtRp1043
(dp1044
g62
(dp1045
g82
g83
ssg71
g1039
sg64
(lp1046
S'http_accept_encoding'
p1047
asbag57
(g78
g59
NtRp1048
(dp1049
g62
(dp1050
g89
g90
ssg71
g1039
sg64
(lp1051
S':'
asbag57
(g78
g59
NtRp1052
(dp1053
g62
(dp1054
sg71
g1039
sg64
(lp1055
g57
(g58
g59
NtRp1056
(dp1057
g62
(dp1058
g70
I4
ssg71
g1052
sg64
(lp1059
S'gzip, deflate'
p1060
asbasbasbag57
(g73
g59
NtRp1061
(dp1062
g62
(dp1063
sg71
g835
sg64
(lp1064
g57
(g78
g59
NtRp1065
(dp1066
g62
(dp1067
g82
g83
ssg71
g1061
sg64
(lp1068
S'http_accept_language'
p1069
asbag57
(g78
g59
NtRp1070
(dp1071
g62
(dp1072
g89
g90
ssg71
g1061
sg64
(lp1073
S':'
asbag57
(g78
g59
NtRp1074
(dp1075
g62
(dp1076
sg71
g1061
sg64
(lp1077
g57
(g58
g59
NtRp1078
(dp1079
g62
(dp1080
g70
I4
ssg71
g1074
sg64
(lp1081
S'en-us,en;q=0.5'
p1082
asbasbasbag57
(g73
g59
NtRp1083
(dp1084
g62
(dp1085
sg71
g835
sg64
(lp1086
g57
(g78
g59
NtRp1087
(dp1088
g62
(dp1089
g82
g83
ssg71
g1083
sg64
(lp1090
S'http_cache_control'
p1091
asbag57
(g78
g59
NtRp1092
(dp1093
g62
(dp1094
g89
g90
ssg71
g1083
sg64
(lp1095
S':'
asbag57
(g78
g59
NtRp1096
(dp1097
g62
(dp1098
sg71
g1083
sg64
(lp1099
g57
(g58
g59
NtRp1100
(dp1101
g62
(dp1102
g70
I4
ssg71
g1096
sg64
(lp1103
S'max-age=0'
p1104
asbasbasbag57
(g73
g59
NtRp1105
(dp1106
g62
(dp1107
sg71
g835
sg64
(lp1108
g57
(g78
g59
NtRp1109
(dp1110
g62
(dp1111
g82
g83
ssg71
g1105
sg64
(lp1112
S'http_connection'
p1113
asbag57
(g78
g59
NtRp1114
(dp1115
g62
(dp1116
g89
g90
ssg71
g1105
sg64
(lp1117
S':'
asbag57
(g78
g59
NtRp1118
(dp1119
g62
(dp1120
sg71
g1105
sg64
(lp1121
g57
(g58
g59
NtRp1122
(dp1123
g62
(dp1124
g70
I4
ssg71
g1118
sg64
(lp1125
S'keep-alive'
p1126
asbasbasbag57
(g73
g59
NtRp1127
(dp1128
g62
(dp1129
sg71
g835
sg64
(lp1130
g57
(g78
g59
NtRp1131
(dp1132
g62
(dp1133
g82
g83
ssg71
g1127
sg64
(lp1134
S'http_cookie'
p1135
asbag57
(g78
g59
NtRp1136
(dp1137
g62
(dp1138
g89
g90
ssg71
g1127
sg64
(lp1139
S':'
asbag57
(g78
g59
NtRp1140
(dp1141
g62
(dp1142
sg71
g1127
sg64
(lp1143
g57
(g58
g59
NtRp1144
(dp1145
g62
(dp1146
g70
I4
ssg71
g1140
sg64
(lp1147
S'session_id_welcome=127.0.0.1-dcafacfb-f078-4749-854e-541d20290a9c; session_id_admin=127.0.0.1-68a2ac7b-76bf-44dc-a326-e5fb497932ee; session_id_project=127.0.0.1-f0cc31e8-8802-4f0d-b4a4-10d1092fbff4'
p1148
asbasbasbag57
(g73
g59
NtRp1149
(dp1150
g62
(dp1151
sg71
g835
sg64
(lp1152
g57
(g78
g59
NtRp1153
(dp1154
g62
(dp1155
g82
g83
ssg71
g1149
sg64
(lp1156
S'http_host'
p1157
asbag57
(g78
g59
NtRp1158
(dp1159
g62
(dp1160
g89
g90
ssg71
g1149
sg64
(lp1161
S':'
asbag57
(g78
g59
NtRp1162
(dp1163
g62
(dp1164
sg71
g1149
sg64
(lp1165
g57
(g58
g59
NtRp1166
(dp1167
g62
(dp1168
g70
I4
ssg71
g1162
sg64
(lp1169
S'127.0.0.1:8000'
p1170
asbasbasbag57
(g73
g59
NtRp1171
(dp1172
g62
(dp1173
sg71
g835
sg64
(lp1174
g57
(g78
g59
NtRp1175
(dp1176
g62
(dp1177
g82
g83
ssg71
g1171
sg64
(lp1178
S'http_referer'
p1179
asbag57
(g78
g59
NtRp1180
(dp1181
g62
(dp1182
g89
g90
ssg71
g1171
sg64
(lp1183
S':'
asbag57
(g78
g59
NtRp1184
(dp1185
g62
(dp1186
sg71
g1171
sg64
(lp1187
g57
(g58
g59
NtRp1188
(dp1189
g62
(dp1190
g70
I4
ssg71
g1184
sg64
(lp1191
S'http://127.0.0.1:8000/project/default/index'
p1192
asbasbasbag57
(g73
g59
NtRp1193
(dp1194
g62
(dp1195
sg71
g835
sg64
(lp1196
g57
(g78
g59
NtRp1197
(dp1198
g62
(dp1199
g82
g83
ssg71
g1193
sg64
(lp1200
S'http_user_agent'
p1201
asbag57
(g78
g59
NtRp1202
(dp1203
g62
(dp1204
g89
g90
ssg71
g1193
sg64
(lp1205
S':'
asbag57
(g78
g59
NtRp1206
(dp1207
g62
(dp1208
sg71
g1193
sg64
(lp1209
g57
(g58
g59
NtRp1210
(dp1211
g62
(dp1212
g70
I4
ssg71
g1206
sg64
(lp1213
S'Mozilla/5.0 (X11; Linux i686; rv:7.0.1) Gecko/20100101 Firefox/7.0.1'
p1214
asbasbasbag57
(g73
g59
NtRp1215
(dp1216
g62
(dp1217
sg71
g835
sg64
(lp1218
g57
(g78
g59
NtRp1219
(dp1220
g62
(dp1221
g82
g83
ssg71
g1215
sg64
(lp1222
S'is_jython'
p1223
asbag57
(g78
g59
NtRp1224
(dp1225
g62
(dp1226
g89
g90
ssg71
g1215
sg64
(lp1227
S':'
asbag57
(g78
g59
NtRp1228
(dp1229
g62
(dp1230
sg71
g1215
sg64
(lp1231
g57
(g58
g59
NtRp1232
(dp1233
g62
(dp1234
g70
I4
ssg71
g1228
sg64
(lp1235
g100
asbasbasbag57
(g73
g59
NtRp1236
(dp1237
g62
(dp1238
sg71
g835
sg64
(lp1239
g57
(g78
g59
NtRp1240
(dp1241
g62
(dp1242
g82
g83
ssg71
g1236
sg64
(lp1243
S'is_pypy'
p1244
asbag57
(g78
g59
NtRp1245
(dp1246
g62
(dp1247
g89
g90
ssg71
g1236
sg64
(lp1248
S':'
asbag57
(g78
g59
NtRp1249
(dp1250
g62
(dp1251
sg71
g1236
sg64
(lp1252
g57
(g58
g59
NtRp1253
(dp1254
g62
(dp1255
g70
I4
ssg71
g1249
sg64
(lp1256
g100
asbasbasbag57
(g73
g59
NtRp1257
(dp1258
g62
(dp1259
sg71
g835
sg64
(lp1260
g57
(g78
g59
NtRp1261
(dp1262
g62
(dp1263
g82
g83
ssg71
g1257
sg64
(lp1264
S'path_info'
p1265
asbag57
(g78
g59
NtRp1266
(dp1267
g62
(dp1268
g89
g90
ssg71
g1257
sg64
(lp1269
S':'
asbag57
(g78
g59
NtRp1270
(dp1271
g62
(dp1272
sg71
g1257
sg64
(lp1273
g57
(g58
g59
NtRp1274
(dp1275
g62
(dp1276
g70
I4
ssg71
g1270
sg64
(lp1277
S'/project/default/graph/11'
p1278
asbasbasbag57
(g73
g59
NtRp1279
(dp1280
g62
(dp1281
sg71
g835
sg64
(lp1282
g57
(g78
g59
NtRp1283
(dp1284
g62
(dp1285
g82
g83
ssg71
g1279
sg64
(lp1286
S'query_string'
p1287
asbag57
(g78
g59
NtRp1288
(dp1289
g62
(dp1290
g89
g90
ssg71
g1279
sg64
(lp1291
S':'
asbag57
(g78
g59
NtRp1292
(dp1293
g62
(dp1294
sg71
g1279
sg64
(lp1295
g57
(g58
g59
NtRp1296
(dp1297
g62
(dp1298
g70
I4
ssg71
g1292
sg64
(lp1299
S''
asbasbasbag57
(g73
g59
NtRp1300
(dp1301
g62
(dp1302
sg71
g835
sg64
(lp1303
g57
(g78
g59
NtRp1304
(dp1305
g62
(dp1306
g82
g83
ssg71
g1300
sg64
(lp1307
S'remote_addr'
p1308
asbag57
(g78
g59
NtRp1309
(dp1310
g62
(dp1311
g89
g90
ssg71
g1300
sg64
(lp1312
S':'
asbag57
(g78
g59
NtRp1313
(dp1314
g62
(dp1315
sg71
g1300
sg64
(lp1316
g57
(g58
g59
NtRp1317
(dp1318
g62
(dp1319
g70
I4
ssg71
g1313
sg64
(lp1320
g203
asbasbasbag57
(g73
g59
NtRp1321
(dp1322
g62
(dp1323
sg71
g835
sg64
(lp1324
g57
(g78
g59
NtRp1325
(dp1326
g62
(dp1327
g82
g83
ssg71
g1321
sg64
(lp1328
S'remote_port'
p1329
asbag57
(g78
g59
NtRp1330
(dp1331
g62
(dp1332
g89
g90
ssg71
g1321
sg64
(lp1333
S':'
asbag57
(g78
g59
NtRp1334
(dp1335
g62
(dp1336
sg71
g1321
sg64
(lp1337
g57
(g58
g59
NtRp1338
(dp1339
g62
(dp1340
g70
I4
ssg71
g1334
sg64
(lp1341
S'60941'
p1342
asbasbasbag57
(g73
g59
NtRp1343
(dp1344
g62
(dp1345
sg71
g835
sg64
(lp1346
g57
(g78
g59
NtRp1347
(dp1348
g62
(dp1349
g82
g83
ssg71
g1343
sg64
(lp1350
S'request_method'
p1351
asbag57
(g78
g59
NtRp1352
(dp1353
g62
(dp1354
g89
g90
ssg71
g1343
sg64
(lp1355
S':'
asbag57
(g78
g59
NtRp1356
(dp1357
g62
(dp1358
sg71
g1343
sg64
(lp1359
g57
(g58
g59
NtRp1360
(dp1361
g62
(dp1362
g70
I4
ssg71
g1356
sg64
(lp1363
S'GET'
p1364
asbasbasbag57
(g73
g59
NtRp1365
(dp1366
g62
(dp1367
sg71
g835
sg64
(lp1368
g57
(g78
g59
NtRp1369
(dp1370
g62
(dp1371
g82
g83
ssg71
g1365
sg64
(lp1372
S'script_name'
p1373
asbag57
(g78
g59
NtRp1374
(dp1375
g62
(dp1376
g89
g90
ssg71
g1365
sg64
(lp1377
S':'
asbag57
(g78
g59
NtRp1378
(dp1379
g62
(dp1380
sg71
g1365
sg64
(lp1381
g57
(g58
g59
NtRp1382
(dp1383
g62
(dp1384
g70
I4
ssg71
g1378
sg64
(lp1385
S''
asbasbasbag57
(g73
g59
NtRp1386
(dp1387
g62
(dp1388
sg71
g835
sg64
(lp1389
g57
(g78
g59
NtRp1390
(dp1391
g62
(dp1392
g82
g83
ssg71
g1386
sg64
(lp1393
S'server_name'
p1394
asbag57
(g78
g59
NtRp1395
(dp1396
g62
(dp1397
g89
g90
ssg71
g1386
sg64
(lp1398
S':'
asbag57
(g78
g59
NtRp1399
(dp1400
g62
(dp1401
sg71
g1386
sg64
(lp1402
g57
(g58
g59
NtRp1403
(dp1404
g62
(dp1405
g70
I4
ssg71
g1399
sg64
(lp1406
S'arpita-HP-630-Notebook-PC'
p1407
asbasbasbag57
(g73
g59
NtRp1408
(dp1409
g62
(dp1410
sg71
g835
sg64
(lp1411
g57
(g78
g59
NtRp1412
(dp1413
g62
(dp1414
g82
g83
ssg71
g1408
sg64
(lp1415
S'server_port'
p1416
asbag57
(g78
g59
NtRp1417
(dp1418
g62
(dp1419
g89
g90
ssg71
g1408
sg64
(lp1420
S':'
asbag57
(g78
g59
NtRp1421
(dp1422
g62
(dp1423
sg71
g1408
sg64
(lp1424
g57
(g58
g59
NtRp1425
(dp1426
g62
(dp1427
g70
I4
ssg71
g1421
sg64
(lp1428
S'8000'
p1429
asbasbasbag57
(g73
g59
NtRp1430
(dp1431
g62
(dp1432
sg71
g835
sg64
(lp1433
g57
(g78
g59
NtRp1434
(dp1435
g62
(dp1436
g82
g83
ssg71
g1430
sg64
(lp1437
S'server_protocol'
p1438
asbag57
(g78
g59
NtRp1439
(dp1440
g62
(dp1441
g89
g90
ssg71
g1430
sg64
(lp1442
S':'
asbag57
(g78
g59
NtRp1443
(dp1444
g62
(dp1445
sg71
g1430
sg64
(lp1446
g57
(g58
g59
NtRp1447
(dp1448
g62
(dp1449
g70
I4
ssg71
g1443
sg64
(lp1450
S'HTTP/1.1'
p1451
asbasbasbag57
(g73
g59
NtRp1452
(dp1453
g62
(dp1454
sg71
g835
sg64
(lp1455
g57
(g78
g59
NtRp1456
(dp1457
g62
(dp1458
g82
g83
ssg71
g1452
sg64
(lp1459
S'server_software'
p1460
asbag57
(g78
g59
NtRp1461
(dp1462
g62
(dp1463
g89
g90
ssg71
g1452
sg64
(lp1464
S':'
asbag57
(g78
g59
NtRp1465
(dp1466
g62
(dp1467
sg71
g1452
sg64
(lp1468
g57
(g58
g59
NtRp1469
(dp1470
g62
(dp1471
g70
I4
ssg71
g1465
sg64
(lp1472
S'Rocket 1.2.4'
p1473
asbasbasbag57
(g73
g59
NtRp1474
(dp1475
g62
(dp1476
sg71
g835
sg64
(lp1477
g57
(g78
g59
NtRp1478
(dp1479
g62
(dp1480
g82
g83
ssg71
g1474
sg64
(lp1481
S'web2py_crontype'
p1482
asbag57
(g78
g59
NtRp1483
(dp1484
g62
(dp1485
g89
g90
ssg71
g1474
sg64
(lp1486
S':'
asbag57
(g78
g59
NtRp1487
(dp1488
g62
(dp1489
sg71
g1474
sg64
(lp1490
g57
(g58
g59
NtRp1491
(dp1492
g62
(dp1493
g70
I4
ssg71
g1487
sg64
(lp1494
S'hard'
p1495
asbasbasbag57
(g73
g59
NtRp1496
(dp1497
g62
(dp1498
sg71
g835
sg64
(lp1499
g57
(g78
g59
NtRp1500
(dp1501
g62
(dp1502
g82
g83
ssg71
g1496
sg64
(lp1503
S'web2py_path'
p1504
asbag57
(g78
g59
NtRp1505
(dp1506
g62
(dp1507
g89
g90
ssg71
g1496
sg64
(lp1508
S':'
asbag57
(g78
g59
NtRp1509
(dp1510
g62
(dp1511
sg71
g1496
sg64
(lp1512
g57
(g58
g59
NtRp1513
(dp1514
g62
(dp1515
g70
I4
ssg71
g1509
sg64
(lp1516
g882
asbasbasbag57
(g73
g59
NtRp1517
(dp1518
g62
(dp1519
sg71
g835
sg64
(lp1520
g57
(g78
g59
NtRp1521
(dp1522
g62
(dp1523
g82
g83
ssg71
g1517
sg64
(lp1524
S'web2py_version'
p1525
asbag57
(g78
g59
NtRp1526
(dp1527
g62
(dp1528
g89
g90
ssg71
g1517
sg64
(lp1529
S':'
asbag57
(g78
g59
NtRp1530
(dp1531
g62
(dp1532
sg71
g1517
sg64
(lp1533
g57
(g58
g59
NtRp1534
(dp1535
g62
(dp1536
g70
I4
ssg71
g1530
sg64
(lp1537
g57
(g66
g59
NtRp1538
(dp1539
g62
(dp1540
g70
I3
ssg71
Nsg64
(lp1541
g57
(g73
g59
NtRp1542
(dp1543
g62
(dp1544
sg71
g1538
sg64
(lp1545
g57
(g78
g59
NtRp1546
(dp1547
g62
(dp1548
sg71
g1542
sg64
(lp1549
g57
(g58
g59
NtRp1550
(dp1551
g62
(dp1552
g70
I3
ssg71
g1546
sg64
(lp1553
S'1'
asbasbasbag57
(g73
g59
NtRp1554
(dp1555
g62
(dp1556
sg71
g1538
sg64
(lp1557
g57
(g78
g59
NtRp1558
(dp1559
g62
(dp1560
sg71
g1554
sg64
(lp1561
g57
(g58
g59
NtRp1562
(dp1563
g62
(dp1564
g70
I3
ssg71
g1558
sg64
(lp1565
S'99'
p1566
asbasbasbag57
(g73
g59
NtRp1567
(dp1568
g62
(dp1569
sg71
g1538
sg64
(lp1570
g57
(g78
g59
NtRp1571
(dp1572
g62
(dp1573
sg71
g1567
sg64
(lp1574
g57
(g58
g59
NtRp1575
(dp1576
g62
(dp1577
g70
I3
ssg71
g1571
sg64
(lp1578
S'7'
asbasbasbag57
(g73
g59
NtRp1579
(dp1580
g62
(dp1581
sg71
g1538
sg64
(lp1582
g57
(g78
g59
NtRp1583
(dp1584
g62
(dp1585
sg71
g1579
sg64
(lp1586
g57
(g58
g59
NtRp1587
(dp1588
g62
(dp1589
g70
I3
ssg71
g1583
sg64
(lp1590
S'datetime.datetime(2012, 3, 4, 22, 12, 8)'
p1591
asbasbasbag57
(g73
g59
NtRp1592
(dp1593
g62
(dp1594
sg71
g1538
sg64
(lp1595
g57
(g78
g59
NtRp1596
(dp1597
g62
(dp1598
sg71
g1592
sg64
(lp1599
g57
(g58
g59
NtRp1600
(dp1601
g62
(dp1602
g70
I3
ssg71
g1596
sg64
(lp1603
S'stable'
p1604
asbasbasbasbasbasbasbag57
(g73
g59
NtRp1605
(dp1606
g62
(dp1607
sg71
g835
sg64
(lp1608
g57
(g78
g59
NtRp1609
(dp1610
g62
(dp1611
g82
g83
ssg71
g1605
sg64
(lp1612
S'wsgi_errors'
p1613
asbag57
(g78
g59
NtRp1614
(dp1615
g62
(dp1616
g89
g90
ssg71
g1605
sg64
(lp1617
S':'
asbag57
(g78
g59
NtRp1618
(dp1619
g62
(dp1620
sg71
g1605
sg64
(lp1621
g57
(g58
g59
NtRp1622
(dp1623
g62
(dp1624
g70
I4
ssg71
g1618
sg64
(lp1625
S"<open file '<stderr>', mode 'w' at 0xb734d0d0>"
p1626
asbasbasbag57
(g73
g59
NtRp1627
(dp1628
g62
(dp1629
sg71
g835
sg64
(lp1630
g57
(g78
g59
NtRp1631
(dp1632
g62
(dp1633
g82
g83
ssg71
g1627
sg64
(lp1634
S'wsgi_file_wrapper'
p1635
asbag57
(g78
g59
NtRp1636
(dp1637
g62
(dp1638
g89
g90
ssg71
g1627
sg64
(lp1639
S':'
asbag57
(g78
g59
NtRp1640
(dp1641
g62
(dp1642
sg71
g1627
sg64
(lp1643
g57
(g58
g59
NtRp1644
(dp1645
g62
(dp1646
g70
I4
ssg71
g1640
sg64
(lp1647
S'<class wsgiref.util.FileWrapper at 0x8cbaf2c>'
p1648
asbasbasbag57
(g73
g59
NtRp1649
(dp1650
g62
(dp1651
sg71
g835
sg64
(lp1652
g57
(g78
g59
NtRp1653
(dp1654
g62
(dp1655
g82
g83
ssg71
g1649
sg64
(lp1656
S'wsgi_input'
p1657
asbag57
(g78
g59
NtRp1658
(dp1659
g62
(dp1660
g89
g90
ssg71
g1649
sg64
(lp1661
S':'
asbag57
(g78
g59
NtRp1662
(dp1663
g62
(dp1664
sg71
g1649
sg64
(lp1665
g57
(g58
g59
NtRp1666
(dp1667
g62
(dp1668
g70
I4
ssg71
g1662
sg64
(lp1669
S'<socket._fileobject object at 0x8ef0aec>'
p1670
asbasbasbag57
(g73
g59
NtRp1671
(dp1672
g62
(dp1673
sg71
g835
sg64
(lp1674
g57
(g78
g59
NtRp1675
(dp1676
g62
(dp1677
g82
g83
ssg71
g1671
sg64
(lp1678
S'wsgi_multiprocess'
p1679
asbag57
(g78
g59
NtRp1680
(dp1681
g62
(dp1682
g89
g90
ssg71
g1671
sg64
(lp1683
S':'
asbag57
(g78
g59
NtRp1684
(dp1685
g62
(dp1686
sg71
g1671
sg64
(lp1687
g57
(g58
g59
NtRp1688
(dp1689
g62
(dp1690
g70
I4
ssg71
g1684
sg64
(lp1691
g100
asbasbasbag57
(g73
g59
NtRp1692
(dp1693
g62
(dp1694
sg71
g835
sg64
(lp1695
g57
(g78
g59
NtRp1696
(dp1697
g62
(dp1698
g82
g83
ssg71
g1692
sg64
(lp1699
S'wsgi_multithread'
p1700
asbag57
(g78
g59
NtRp1701
(dp1702
g62
(dp1703
g89
g90
ssg71
g1692
sg64
(lp1704
S':'
asbag57
(g78
g59
NtRp1705
(dp1706
g62
(dp1707
sg71
g1692
sg64
(lp1708
g57
(g58
g59
NtRp1709
(dp1710
g62
(dp1711
g70
I4
ssg71
g1705
sg64
(lp1712
S'True'
p1713
asbasbasbag57
(g73
g59
NtRp1714
(dp1715
g62
(dp1716
sg71
g835
sg64
(lp1717
g57
(g78
g59
NtRp1718
(dp1719
g62
(dp1720
g82
g83
ssg71
g1714
sg64
(lp1721
S'wsgi_run_once'
p1722
asbag57
(g78
g59
NtRp1723
(dp1724
g62
(dp1725
g89
g90
ssg71
g1714
sg64
(lp1726
S':'
asbag57
(g78
g59
NtRp1727
(dp1728
g62
(dp1729
sg71
g1714
sg64
(lp1730
g57
(g58
g59
NtRp1731
(dp1732
g62
(dp1733
g70
I4
ssg71
g1727
sg64
(lp1734
g100
asbasbasbag57
(g73
g59
NtRp1735
(dp1736
g62
(dp1737
sg71
g835
sg64
(lp1738
g57
(g78
g59
NtRp1739
(dp1740
g62
(dp1741
g82
g83
ssg71
g1735
sg64
(lp1742
S'wsgi_url_scheme'
p1743
asbag57
(g78
g59
NtRp1744
(dp1745
g62
(dp1746
g89
g90
ssg71
g1735
sg64
(lp1747
S':'
asbag57
(g78
g59
NtRp1748
(dp1749
g62
(dp1750
sg71
g1735
sg64
(lp1751
g57
(g58
g59
NtRp1752
(dp1753
g62
(dp1754
g70
I4
ssg71
g1748
sg64
(lp1755
S'http'
p1756
asbasbasbag57
(g73
g59
NtRp1757
(dp1758
g62
(dp1759
sg71
g835
sg64
(lp1760
g57
(g78
g59
NtRp1761
(dp1762
g62
(dp1763
g82
g83
ssg71
g1757
sg64
(lp1764
S'wsgi_version'
p1765
asbag57
(g78
g59
NtRp1766
(dp1767
g62
(dp1768
g89
g90
ssg71
g1757
sg64
(lp1769
S':'
asbag57
(g78
g59
NtRp1770
(dp1771
g62
(dp1772
sg71
g1757
sg64
(lp1773
g57
(g58
g59
NtRp1774
(dp1775
g62
(dp1776
g70
I4
ssg71
g1770
sg64
(lp1777
g57
(g66
g59
NtRp1778
(dp1779
g62
(dp1780
g70
I3
ssg71
Nsg64
(lp1781
g57
(g73
g59
NtRp1782
(dp1783
g62
(dp1784
sg71
g1778
sg64
(lp1785
g57
(g78
g59
NtRp1786
(dp1787
g62
(dp1788
sg71
g1782
sg64
(lp1789
g57
(g58
g59
NtRp1790
(dp1791
g62
(dp1792
g70
I3
ssg71
g1786
sg64
(lp1793
S'1'
asbasbasbag57
(g73
g59
NtRp1794
(dp1795
g62
(dp1796
sg71
g1778
sg64
(lp1797
g57
(g78
g59
NtRp1798
(dp1799
g62
(dp1800
sg71
g1794
sg64
(lp1801
g57
(g58
g59
NtRp1802
(dp1803
g62
(dp1804
g70
I3
ssg71
g1798
sg64
(lp1805
S'0'
asbasbasbasbasbasbasbasbasbasbasbag57
(g73
g59
NtRp1806
(dp1807
g62
(dp1808
sg71
g67
sg64
(lp1809
g57
(g78
g59
NtRp1810
(dp1811
g62
(dp1812
g82
g83
ssg71
g1806
sg64
(lp1813
S'extension'
p1814
asbag57
(g78
g59
NtRp1815
(dp1816
g62
(dp1817
g89
g90
ssg71
g1806
sg64
(lp1818
S':'
asbag57
(g78
g59
NtRp1819
(dp1820
g62
(dp1821
sg71
g1806
sg64
(lp1822
g57
(g58
g59
NtRp1823
(dp1824
g62
(dp1825
g70
I5
ssg71
g1819
sg64
(lp1826
S'html'
p1827
asbasbasbag57
(g73
g59
NtRp1828
(dp1829
g62
(dp1830
sg71
g67
sg64
(lp1831
g57
(g78
g59
NtRp1832
(dp1833
g62
(dp1834
g82
g83
ssg71
g1828
sg64
(lp1835
S'folder'
p1836
asbag57
(g78
g59
NtRp1837
(dp1838
g62
(dp1839
g89
g90
ssg71
g1828
sg64
(lp1840
S':'
asbag57
(g78
g59
NtRp1841
(dp1842
g62
(dp1843
sg71
g1828
sg64
(lp1844
g57
(g58
g59
NtRp1845
(dp1846
g62
(dp1847
g70
I5
ssg71
g1841
sg64
(lp1848
S'/home/arpita/courses/sem3/ssad/web2py/applications/project/'
p1849
asbasbasbag57
(g73
g59
NtRp1850
(dp1851
g62
(dp1852
sg71
g67
sg64
(lp1853
g57
(g78
g59
NtRp1854
(dp1855
g62
(dp1856
g82
g83
ssg71
g1850
sg64
(lp1857
S'function'
p1858
asbag57
(g78
g59
NtRp1859
(dp1860
g62
(dp1861
g89
g90
ssg71
g1850
sg64
(lp1862
S':'
asbag57
(g78
g59
NtRp1863
(dp1864
g62
(dp1865
sg71
g1850
sg64
(lp1866
g57
(g58
g59
NtRp1867
(dp1868
g62
(dp1869
g70
I5
ssg71
g1863
sg64
(lp1870
S'graph'
p1871
asbasbasbag57
(g73
g59
NtRp1872
(dp1873
g62
(dp1874
sg71
g67
sg64
(lp1875
g57
(g78
g59
NtRp1876
(dp1877
g62
(dp1878
g82
g83
ssg71
g1872
sg64
(lp1879
S'get_vars'
p1880
asbag57
(g78
g59
NtRp1881
(dp1882
g62
(dp1883
g89
g90
ssg71
g1872
sg64
(lp1884
S':'
asbag57
(g78
g59
NtRp1885
(dp1886
g62
(dp1887
sg71
g1872
sg64
(lp1888
g57
(g58
g59
NtRp1889
(dp1890
g62
(dp1891
g70
I5
ssg71
g1885
sg64
(lp1892
g57
(g66
g59
NtRp1893
(dp1894
g62
(dp1895
g70
I4
ssg71
Nsg64
(lp1896
sbasbasbasbag57
(g73
g59
NtRp1897
(dp1898
g62
(dp1899
sg71
g67
sg64
(lp1900
g57
(g78
g59
NtRp1901
(dp1902
g62
(dp1903
g82
g83
ssg71
g1897
sg64
(lp1904
S'global_settings'
p1905
asbag57
(g78
g59
NtRp1906
(dp1907
g62
(dp1908
g89
g90
ssg71
g1897
sg64
(lp1909
S':'
asbag57
(g78
g59
NtRp1910
(dp1911
g62
(dp1912
sg71
g1897
sg64
(lp1913
g57
(g58
g59
NtRp1914
(dp1915
g62
(dp1916
g70
I5
ssg71
g1910
sg64
(lp1917
g57
(g66
g59
NtRp1918
(dp1919
g62
(dp1920
g70
I4
ssg71
Nsg64
(lp1921
g57
(g73
g59
NtRp1922
(dp1923
g62
(dp1924
sg71
g1918
sg64
(lp1925
g57
(g78
g59
NtRp1926
(dp1927
g62
(dp1928
g82
g83
ssg71
g1922
sg64
(lp1929
g847
asbag57
(g78
g59
NtRp1930
(dp1931
g62
(dp1932
g89
g90
ssg71
g1922
sg64
(lp1933
S':'
asbag57
(g78
g59
NtRp1934
(dp1935
g62
(dp1936
sg71
g1922
sg64
(lp1937
g57
(g58
g59
NtRp1938
(dp1939
g62
(dp1940
g70
I4
ssg71
g1934
sg64
(lp1941
S"set(['/home/arpita/courses/sem3/ssad/web2py/applications/admin/', '/home/arpita/courses/sem3/ssad/web2py/applications/project/', '/home/arpita/courses/sem3/ssad/web2py/applications/welcome/'])"
p1942
asbasbasbag57
(g73
g59
NtRp1943
(dp1944
g62
(dp1945
sg71
g1918
sg64
(lp1946
g57
(g78
g59
NtRp1947
(dp1948
g62
(dp1949
g82
g83
ssg71
g1943
sg64
(lp1950
g869
asbag57
(g78
g59
NtRp1951
(dp1952
g62
(dp1953
g89
g90
ssg71
g1943
sg64
(lp1954
S':'
asbag57
(g78
g59
NtRp1955
(dp1956
g62
(dp1957
sg71
g1943
sg64
(lp1958
g57
(g58
g59
NtRp1959
(dp1960
g62
(dp1961
g70
I4
ssg71
g1955
sg64
(lp1962
g882
asbasbasbag57
(g73
g59
NtRp1963
(dp1964
g62
(dp1965
sg71
g1918
sg64
(lp1966
g57
(g78
g59
NtRp1967
(dp1968
g62
(dp1969
g82
g83
ssg71
g1963
sg64
(lp1970
g891
asbag57
(g78
g59
NtRp1971
(dp1972
g62
(dp1973
g89
g90
ssg71
g1963
sg64
(lp1974
S':'
asbag57
(g78
g59
NtRp1975
(dp1976
g62
(dp1977
sg71
g1963
sg64
(lp1978
g57
(g58
g59
NtRp1979
(dp1980
g62
(dp1981
g70
I4
ssg71
g1975
sg64
(lp1982
g57
(g66
g59
NtRp1983
(dp1984
g62
(dp1985
g70
I3
ssg71
Nsg64
(lp1986
sbasbasbasbag57
(g73
g59
NtRp1987
(dp1988
g62
(dp1989
sg71
g1918
sg64
(lp1990
g57
(g78
g59
NtRp1991
(dp1992
g62
(dp1993
g82
g83
ssg71
g1987
sg64
(lp1994
g916
asbag57
(g78
g59
NtRp1995
(dp1996
g62
(dp1997
g89
g90
ssg71
g1987
sg64
(lp1998
S':'
asbag57
(g78
g59
NtRp1999
(dp2000
g62
(dp2001
sg71
g1987
sg64
(lp2002
g57
(g58
g59
NtRp2003
(dp2004
g62
(dp2005
g70
I4
ssg71
g1999
sg64
(lp2006
S"<Values at 0x8d173cc: {'verbose': False, 'ip': '127.0.0.1', 'shutdown_timeout': 5, 'taskbar': False, 'nocron': False, 'pid_filename': 'httpserver.pid', 'maxthreads': None, 'softcron': False, 'server_name': 'arpita-HP-630-Notebook-PC', 'bpython': False, 'nogui': False, 'port': 8000, 'extcron': False, 'debuglevel': 30, 'test': None, 'folder': '/home/arpita/courses/sem3/ssad/web2py', 'config': '', 'import_models': False, 'winservice': '', 'shell': None, 'run': '', 'log_filename': 'httpserver.log', 'args': [''], 'socket_timeout': 5, 'ssl_ca_certificate': None, 'scheduler': None, 'profiler_filename': None, 'ssl_private_key': '', 'password': 'arpita', 'request_queue_size': 5, 'ssl_certificate': '', 'cronjob': False, 'numthreads': None, 'quiet': False, 'interfaces': None, 'minthreads': None, 'timeout': 10, 'plain': False, 'nobanner': False}>"
p2007
asbasbasbag57
(g73
g59
NtRp2008
(dp2009
g62
(dp2010
sg71
g1918
sg64
(lp2011
g57
(g78
g59
NtRp2012
(dp2013
g62
(dp2014
g82
g83
ssg71
g2008
sg64
(lp2015
g938
asbag57
(g78
g59
NtRp2016
(dp2017
g62
(dp2018
g89
g90
ssg71
g2008
sg64
(lp2019
S':'
asbag57
(g78
g59
NtRp2020
(dp2021
g62
(dp2022
sg71
g2008
sg64
(lp2023
g57
(g58
g59
NtRp2024
(dp2025
g62
(dp2026
g70
I4
ssg71
g2020
sg64
(lp2027
S'set([])'
p2028
asbasbasbag57
(g73
g59
NtRp2029
(dp2030
g62
(dp2031
sg71
g1918
sg64
(lp2032
g57
(g78
g59
NtRp2033
(dp2034
g62
(dp2035
g82
g83
ssg71
g2029
sg64
(lp2036
g960
asbag57
(g78
g59
NtRp2037
(dp2038
g62
(dp2039
g89
g90
ssg71
g2029
sg64
(lp2040
S':'
asbag57
(g78
g59
NtRp2041
(dp2042
g62
(dp2043
sg71
g2029
sg64
(lp2044
g57
(g58
g59
NtRp2045
(dp2046
g62
(dp2047
g70
I4
ssg71
g2041
sg64
(lp2048
g100
asbasbasbag57
(g73
g59
NtRp2049
(dp2050
g62
(dp2051
sg71
g1918
sg64
(lp2052
g57
(g78
g59
NtRp2053
(dp2054
g62
(dp2055
g82
g83
ssg71
g2049
sg64
(lp2056
g981
asbag57
(g78
g59
NtRp2057
(dp2058
g62
(dp2059
g89
g90
ssg71
g2049
sg64
(lp2060
S':'
asbag57
(g78
g59
NtRp2061
(dp2062
g62
(dp2063
sg71
g2049
sg64
(lp2064
g57
(g58
g59
NtRp2065
(dp2066
g62
(dp2067
g70
I4
ssg71
g2061
sg64
(lp2068
g994
asbasbasbag57
(g73
g59
NtRp2069
(dp2070
g62
(dp2071
sg71
g1918
sg64
(lp2072
g57
(g78
g59
NtRp2073
(dp2074
g62
(dp2075
g82
g83
ssg71
g2069
sg64
(lp2076
g1223
asbag57
(g78
g59
NtRp2077
(dp2078
g62
(dp2079
g89
g90
ssg71
g2069
sg64
(lp2080
S':'
asbag57
(g78
g59
NtRp2081
(dp2082
g62
(dp2083
sg71
g2069
sg64
(lp2084
g57
(g58
g59
NtRp2085
(dp2086
g62
(dp2087
g70
I4
ssg71
g2081
sg64
(lp2088
g100
asbasbasbag57
(g73
g59
NtRp2089
(dp2090
g62
(dp2091
sg71
g1918
sg64
(lp2092
g57
(g78
g59
NtRp2093
(dp2094
g62
(dp2095
g82
g83
ssg71
g2089
sg64
(lp2096
g1244
asbag57
(g78
g59
NtRp2097
(dp2098
g62
(dp2099
g89
g90
ssg71
g2089
sg64
(lp2100
S':'
asbag57
(g78
g59
NtRp2101
(dp2102
g62
(dp2103
sg71
g2089
sg64
(lp2104
g57
(g58
g59
NtRp2105
(dp2106
g62
(dp2107
g70
I4
ssg71
g2101
sg64
(lp2108
g100
asbasbasbag57
(g73
g59
NtRp2109
(dp2110
g62
(dp2111
sg71
g1918
sg64
(lp2112
g57
(g78
g59
NtRp2113
(dp2114
g62
(dp2115
g82
g83
ssg71
g2109
sg64
(lp2116
g1482
asbag57
(g78
g59
NtRp2117
(dp2118
g62
(dp2119
g89
g90
ssg71
g2109
sg64
(lp2120
S':'
asbag57
(g78
g59
NtRp2121
(dp2122
g62
(dp2123
sg71
g2109
sg64
(lp2124
g57
(g58
g59
NtRp2125
(dp2126
g62
(dp2127
g70
I4
ssg71
g2121
sg64
(lp2128
g1495
asbasbasbag57
(g73
g59
NtRp2129
(dp2130
g62
(dp2131
sg71
g1918
sg64
(lp2132
g57
(g78
g59
NtRp2133
(dp2134
g62
(dp2135
g82
g83
ssg71
g2129
sg64
(lp2136
g1525
asbag57
(g78
g59
NtRp2137
(dp2138
g62
(dp2139
g89
g90
ssg71
g2129
sg64
(lp2140
S':'
asbag57
(g78
g59
NtRp2141
(dp2142
g62
(dp2143
sg71
g2129
sg64
(lp2144
g57
(g58
g59
NtRp2145
(dp2146
g62
(dp2147
g70
I4
ssg71
g2141
sg64
(lp2148
g57
(g66
g59
NtRp2149
(dp2150
g62
(dp2151
g70
I3
ssg71
Nsg64
(lp2152
g57
(g73
g59
NtRp2153
(dp2154
g62
(dp2155
sg71
g2149
sg64
(lp2156
g57
(g78
g59
NtRp2157
(dp2158
g62
(dp2159
sg71
g2153
sg64
(lp2160
g57
(g58
g59
NtRp2161
(dp2162
g62
(dp2163
g70
I3
ssg71
g2157
sg64
(lp2164
S'1'
asbasbasbag57
(g73
g59
NtRp2165
(dp2166
g62
(dp2167
sg71
g2149
sg64
(lp2168
g57
(g78
g59
NtRp2169
(dp2170
g62
(dp2171
sg71
g2165
sg64
(lp2172
g57
(g58
g59
NtRp2173
(dp2174
g62
(dp2175
g70
I3
ssg71
g2169
sg64
(lp2176
S'99'
p2177
asbasbasbag57
(g73
g59
NtRp2178
(dp2179
g62
(dp2180
sg71
g2149
sg64
(lp2181
g57
(g78
g59
NtRp2182
(dp2183
g62
(dp2184
sg71
g2178
sg64
(lp2185
g57
(g58
g59
NtRp2186
(dp2187
g62
(dp2188
g70
I3
ssg71
g2182
sg64
(lp2189
S'7'
asbasbasbag57
(g73
g59
NtRp2190
(dp2191
g62
(dp2192
sg71
g2149
sg64
(lp2193
g57
(g78
g59
NtRp2194
(dp2195
g62
(dp2196
sg71
g2190
sg64
(lp2197
g57
(g58
g59
NtRp2198
(dp2199
g62
(dp2200
g70
I3
ssg71
g2194
sg64
(lp2201
S'datetime.datetime(2012, 3, 4, 22, 12, 8)'
p2202
asbasbasbag57
(g73
g59
NtRp2203
(dp2204
g62
(dp2205
sg71
g2149
sg64
(lp2206
g57
(g78
g59
NtRp2207
(dp2208
g62
(dp2209
sg71
g2203
sg64
(lp2210
g57
(g58
g59
NtRp2211
(dp2212
g62
(dp2213
g70
I3
ssg71
g2207
sg64
(lp2214
g1604
asbasbasbasbasbasbasbasbasbasbasbag57
(g73
g59
NtRp2215
(dp2216
g62
(dp2217
sg71
g67
sg64
(lp2218
g57
(g78
g59
NtRp2219
(dp2220
g62
(dp2221
g82
g83
ssg71
g2215
sg64
(lp2222
S'is_https'
p2223
asbag57
(g78
g59
NtRp2224
(dp2225
g62
(dp2226
g89
g90
ssg71
g2215
sg64
(lp2227
S':'
asbag57
(g78
g59
NtRp2228
(dp2229
g62
(dp2230
sg71
g2215
sg64
(lp2231
g57
(g58
g59
NtRp2232
(dp2233
g62
(dp2234
g70
I5
ssg71
g2228
sg64
(lp2235
g100
asbasbasbag57
(g73
g59
NtRp2236
(dp2237
g62
(dp2238
sg71
g67
sg64
(lp2239
g57
(g78
g59
NtRp2240
(dp2241
g62
(dp2242
g82
g83
ssg71
g2236
sg64
(lp2243
S'is_local'
p2244
asbag57
(g78
g59
NtRp2245
(dp2246
g62
(dp2247
g89
g90
ssg71
g2236
sg64
(lp2248
S':'
asbag57
(g78
g59
NtRp2249
(dp2250
g62
(dp2251
sg71
g2236
sg64
(lp2252
g57
(g58
g59
NtRp2253
(dp2254
g62
(dp2255
g70
I5
ssg71
g2249
sg64
(lp2256
g1713
asbasbasbag57
(g73
g59
NtRp2257
(dp2258
g62
(dp2259
sg71
g67
sg64
(lp2260
g57
(g78
g59
NtRp2261
(dp2262
g62
(dp2263
g82
g83
ssg71
g2257
sg64
(lp2264
S'is_restful'
p2265
asbag57
(g78
g59
NtRp2266
(dp2267
g62
(dp2268
g89
g90
ssg71
g2257
sg64
(lp2269
S':'
asbag57
(g78
g59
NtRp2270
(dp2271
g62
(dp2272
sg71
g2257
sg64
(lp2273
g57
(g58
g59
NtRp2274
(dp2275
g62
(dp2276
g70
I5
ssg71
g2270
sg64
(lp2277
g100
asbasbasbag57
(g73
g59
NtRp2278
(dp2279
g62
(dp2280
sg71
g67
sg64
(lp2281
g57
(g78
g59
NtRp2282
(dp2283
g62
(dp2284
g82
g83
ssg71
g2278
sg64
(lp2285
S'now'
p2286
asbag57
(g78
g59
NtRp2287
(dp2288
g62
(dp2289
g89
g90
ssg71
g2278
sg64
(lp2290
S':'
asbag57
(g78
g59
NtRp2291
(dp2292
g62
(dp2293
sg71
g2278
sg64
(lp2294
g57
(g58
g59
NtRp2295
(dp2296
g62
(dp2297
g70
I5
ssg71
g2291
sg64
(lp2298
S'datetime.datetime(2012, 10, 15, 10, 31, 46, 690948)'
p2299
asbasbasbag57
(g73
g59
NtRp2300
(dp2301
g62
(dp2302
sg71
g67
sg64
(lp2303
g57
(g78
g59
NtRp2304
(dp2305
g62
(dp2306
g82
g83
ssg71
g2300
sg64
(lp2307
S'post_vars'
p2308
asbag57
(g78
g59
NtRp2309
(dp2310
g62
(dp2311
g89
g90
ssg71
g2300
sg64
(lp2312
S':'
asbag57
(g78
g59
NtRp2313
(dp2314
g62
(dp2315
sg71
g2300
sg64
(lp2316
g57
(g58
g59
NtRp2317
(dp2318
g62
(dp2319
g70
I5
ssg71
g2313
sg64
(lp2320
g57
(g66
g59
NtRp2321
(dp2322
g62
(dp2323
g70
I4
ssg71
Nsg64
(lp2324
sbasbasbasbag57
(g73
g59
NtRp2325
(dp2326
g62
(dp2327
sg71
g67
sg64
(lp2328
g57
(g78
g59
NtRp2329
(dp2330
g62
(dp2331
g82
g83
ssg71
g2325
sg64
(lp2332
S'raw_args'
p2333
asbag57
(g78
g59
NtRp2334
(dp2335
g62
(dp2336
g89
g90
ssg71
g2325
sg64
(lp2337
S':'
asbag57
(g78
g59
NtRp2338
(dp2339
g62
(dp2340
sg71
g2325
sg64
(lp2341
g57
(g58
g59
NtRp2342
(dp2343
g62
(dp2344
g70
I5
ssg71
g2338
sg64
(lp2345
g159
asbasbasbag57
(g73
g59
NtRp2346
(dp2347
g62
(dp2348
sg71
g67
sg64
(lp2349
g57
(g78
g59
NtRp2350
(dp2351
g62
(dp2352
g82
g83
ssg71
g2346
sg64
(lp2353
S'url'
p2354
asbag57
(g78
g59
NtRp2355
(dp2356
g62
(dp2357
g89
g90
ssg71
g2346
sg64
(lp2358
S':'
asbag57
(g78
g59
NtRp2359
(dp2360
g62
(dp2361
sg71
g2346
sg64
(lp2362
g57
(g58
g59
NtRp2363
(dp2364
g62
(dp2365
g70
I5
ssg71
g2359
sg64
(lp2366
S'/project/default/graph/11'
p2367
asbasbasbag57
(g73
g59
NtRp2368
(dp2369
g62
(dp2370
sg71
g67
sg64
(lp2371
g57
(g78
g59
NtRp2372
(dp2373
g62
(dp2374
g82
g83
ssg71
g2368
sg64
(lp2375
S'utcnow'
p2376
asbag57
(g78
g59
NtRp2377
(dp2378
g62
(dp2379
g89
g90
ssg71
g2368
sg64
(lp2380
S':'
asbag57
(g78
g59
NtRp2381
(dp2382
g62
(dp2383
sg71
g2368
sg64
(lp2384
g57
(g58
g59
NtRp2385
(dp2386
g62
(dp2387
g70
I5
ssg71
g2381
sg64
(lp2388
S'datetime.datetime(2012, 10, 15, 5, 1, 46, 691002)'
p2389
asbasbasbag57
(g73
g59
NtRp2390
(dp2391
g62
(dp2392
sg71
g67
sg64
(lp2393
g57
(g78
g59
NtRp2394
(dp2395
g62
(dp2396
g82
g83
ssg71
g2390
sg64
(lp2397
S'uuid'
p2398
asbag57
(g78
g59
NtRp2399
(dp2400
g62
(dp2401
g89
g90
ssg71
g2390
sg64
(lp2402
S':'
asbag57
(g78
g59
NtRp2403
(dp2404
g62
(dp2405
sg71
g2390
sg64
(lp2406
g57
(g58
g59
NtRp2407
(dp2408
g62
(dp2409
g70
I5
ssg71
g2403
sg64
(lp2410
S'project/127.0.0.1.2012-10-15.10-31-46.c817a0ec-f0a5-432b-b663-d5857e7bf13c'
p2411
asbasbasbag57
(g73
g59
NtRp2412
(dp2413
g62
(dp2414
sg71
g67
sg64
(lp2415
g57
(g78
g59
NtRp2416
(dp2417
g62
(dp2418
g82
g83
ssg71
g2412
sg64
(lp2419
S'vars'
p2420
asbag57
(g78
g59
NtRp2421
(dp2422
g62
(dp2423
g89
g90
ssg71
g2412
sg64
(lp2424
S':'
asbag57
(g78
g59
NtRp2425
(dp2426
g62
(dp2427
sg71
g2412
sg64
(lp2428
g57
(g58
g59
NtRp2429
(dp2430
g62
(dp2431
g70
I5
ssg71
g2425
sg64
(lp2432
g57
(g66
g59
NtRp2433
(dp2434
g62
(dp2435
g70
I4
ssg71
Nsg64
(lp2436
sbasbasbasbag57
(g73
g59
NtRp2437
(dp2438
g62
(dp2439
sg71
g67
sg64
(lp2440
g57
(g78
g59
NtRp2441
(dp2442
g62
(dp2443
g82
g83
ssg71
g2437
sg64
(lp2444
S'wsgi'
p2445
asbag57
(g78
g59
NtRp2446
(dp2447
g62
(dp2448
g89
g90
ssg71
g2437
sg64
(lp2449
S':'
asbag57
(g78
g59
NtRp2450
(dp2451
g62
(dp2452
sg71
g2437
sg64
(lp2453
g57
(g58
g59
NtRp2454
(dp2455
g62
(dp2456
g70
I5
ssg71
g2450
sg64
(lp2457
g57
(g66
g59
NtRp2458
(dp2459
g62
(dp2460
g70
I4
ssg71
Nsg64
(lp2461
g57
(g73
g59
NtRp2462
(dp2463
g62
(dp2464
sg71
g2458
sg64
(lp2465
g57
(g78
g59
NtRp2466
(dp2467
g62
(dp2468
g82
g83
ssg71
g2462
sg64
(lp2469
S'environ'
p2470
asbag57
(g78
g59
NtRp2471
(dp2472
g62
(dp2473
g89
g90
ssg71
g2462
sg64
(lp2474
S':'
asbag57
(g78
g59
NtRp2475
(dp2476
g62
(dp2477
sg71
g2462
sg64
(lp2478
g57
(g58
g59
NtRp2479
(dp2480
g62
(dp2481
g70
I4
ssg71
g2475
sg64
(lp2482
g57
(g66
g59
NtRp2483
(dp2484
g62
(dp2485
g70
I3
ssg71
Nsg64
(lp2486
g57
(g73
g59
NtRp2487
(dp2488
g62
(dp2489
sg71
g2483
sg64
(lp2490
g57
(g78
g59
NtRp2491
(dp2492
g62
(dp2493
g82
g83
ssg71
g2487
sg64
(lp2494
S'HTTP_ACCEPT'
p2495
asbag57
(g78
g59
NtRp2496
(dp2497
g62
(dp2498
g89
g90
ssg71
g2487
sg64
(lp2499
S':'
asbag57
(g78
g59
NtRp2500
(dp2501
g62
(dp2502
sg71
g2487
sg64
(lp2503
g57
(g58
g59
NtRp2504
(dp2505
g62
(dp2506
g70
I3
ssg71
g2500
sg64
(lp2507
g1016
asbasbasbag57
(g73
g59
NtRp2508
(dp2509
g62
(dp2510
sg71
g2483
sg64
(lp2511
g57
(g78
g59
NtRp2512
(dp2513
g62
(dp2514
g82
g83
ssg71
g2508
sg64
(lp2515
S'HTTP_ACCEPT_CHARSET'
p2516
asbag57
(g78
g59
NtRp2517
(dp2518
g62
(dp2519
g89
g90
ssg71
g2508
sg64
(lp2520
S':'
asbag57
(g78
g59
NtRp2521
(dp2522
g62
(dp2523
sg71
g2508
sg64
(lp2524
g57
(g58
g59
NtRp2525
(dp2526
g62
(dp2527
g70
I3
ssg71
g2521
sg64
(lp2528
g1038
asbasbasbag57
(g73
g59
NtRp2529
(dp2530
g62
(dp2531
sg71
g2483
sg64
(lp2532
g57
(g78
g59
NtRp2533
(dp2534
g62
(dp2535
g82
g83
ssg71
g2529
sg64
(lp2536
S'HTTP_ACCEPT_ENCODING'
p2537
asbag57
(g78
g59
NtRp2538
(dp2539
g62
(dp2540
g89
g90
ssg71
g2529
sg64
(lp2541
S':'
asbag57
(g78
g59
NtRp2542
(dp2543
g62
(dp2544
sg71
g2529
sg64
(lp2545
g57
(g58
g59
NtRp2546
(dp2547
g62
(dp2548
g70
I3
ssg71
g2542
sg64
(lp2549
g1060
asbasbasbag57
(g73
g59
NtRp2550
(dp2551
g62
(dp2552
sg71
g2483
sg64
(lp2553
g57
(g78
g59
NtRp2554
(dp2555
g62
(dp2556
g82
g83
ssg71
g2550
sg64
(lp2557
S'HTTP_ACCEPT_LANGUAGE'
p2558
asbag57
(g78
g59
NtRp2559
(dp2560
g62
(dp2561
g89
g90
ssg71
g2550
sg64
(lp2562
S':'
asbag57
(g78
g59
NtRp2563
(dp2564
g62
(dp2565
sg71
g2550
sg64
(lp2566
g57
(g58
g59
NtRp2567
(dp2568
g62
(dp2569
g70
I3
ssg71
g2563
sg64
(lp2570
g1082
asbasbasbag57
(g73
g59
NtRp2571
(dp2572
g62
(dp2573
sg71
g2483
sg64
(lp2574
g57
(g78
g59
NtRp2575
(dp2576
g62
(dp2577
g82
g83
ssg71
g2571
sg64
(lp2578
S'HTTP_CACHE_CONTROL'
p2579
asbag57
(g78
g59
NtRp2580
(dp2581
g62
(dp2582
g89
g90
ssg71
g2571
sg64
(lp2583
S':'
asbag57
(g78
g59
NtRp2584
(dp2585
g62
(dp2586
sg71
g2571
sg64
(lp2587
g57
(g58
g59
NtRp2588
(dp2589
g62
(dp2590
g70
I3
ssg71
g2584
sg64
(lp2591
g1104
asbasbasbag57
(g73
g59
NtRp2592
(dp2593
g62
(dp2594
sg71
g2483
sg64
(lp2595
g57
(g78
g59
NtRp2596
(dp2597
g62
(dp2598
g82
g83
ssg71
g2592
sg64
(lp2599
S'HTTP_CONNECTION'
p2600
asbag57
(g78
g59
NtRp2601
(dp2602
g62
(dp2603
g89
g90
ssg71
g2592
sg64
(lp2604
S':'
asbag57
(g78
g59
NtRp2605
(dp2606
g62
(dp2607
sg71
g2592
sg64
(lp2608
g57
(g58
g59
NtRp2609
(dp2610
g62
(dp2611
g70
I3
ssg71
g2605
sg64
(lp2612
g1126
asbasbasbag57
(g73
g59
NtRp2613
(dp2614
g62
(dp2615
sg71
g2483
sg64
(lp2616
g57
(g78
g59
NtRp2617
(dp2618
g62
(dp2619
g82
g83
ssg71
g2613
sg64
(lp2620
S'HTTP_COOKIE'
p2621
asbag57
(g78
g59
NtRp2622
(dp2623
g62
(dp2624
g89
g90
ssg71
g2613
sg64
(lp2625
S':'
asbag57
(g78
g59
NtRp2626
(dp2627
g62
(dp2628
sg71
g2613
sg64
(lp2629
g57
(g58
g59
NtRp2630
(dp2631
g62
(dp2632
g70
I3
ssg71
g2626
sg64
(lp2633
g1148
asbasbasbag57
(g73
g59
NtRp2634
(dp2635
g62
(dp2636
sg71
g2483
sg64
(lp2637
g57
(g78
g59
NtRp2638
(dp2639
g62
(dp2640
g82
g83
ssg71
g2634
sg64
(lp2641
S'HTTP_HOST'
p2642
asbag57
(g78
g59
NtRp2643
(dp2644
g62
(dp2645
g89
g90
ssg71
g2634
sg64
(lp2646
S':'
asbag57
(g78
g59
NtRp2647
(dp2648
g62
(dp2649
sg71
g2634
sg64
(lp2650
g57
(g58
g59
NtRp2651
(dp2652
g62
(dp2653
g70
I3
ssg71
g2647
sg64
(lp2654
g1170
asbasbasbag57
(g73
g59
NtRp2655
(dp2656
g62
(dp2657
sg71
g2483
sg64
(lp2658
g57
(g78
g59
NtRp2659
(dp2660
g62
(dp2661
g82
g83
ssg71
g2655
sg64
(lp2662
S'HTTP_REFERER'
p2663
asbag57
(g78
g59
NtRp2664
(dp2665
g62
(dp2666
g89
g90
ssg71
g2655
sg64
(lp2667
S':'
asbag57
(g78
g59
NtRp2668
(dp2669
g62
(dp2670
sg71
g2655
sg64
(lp2671
g57
(g58
g59
NtRp2672
(dp2673
g62
(dp2674
g70
I3
ssg71
g2668
sg64
(lp2675
g1192
asbasbasbag57
(g73
g59
NtRp2676
(dp2677
g62
(dp2678
sg71
g2483
sg64
(lp2679
g57
(g78
g59
NtRp2680
(dp2681
g62
(dp2682
g82
g83
ssg71
g2676
sg64
(lp2683
S'HTTP_USER_AGENT'
p2684
asbag57
(g78
g59
NtRp2685
(dp2686
g62
(dp2687
g89
g90
ssg71
g2676
sg64
(lp2688
S':'
asbag57
(g78
g59
NtRp2689
(dp2690
g62
(dp2691
sg71
g2676
sg64
(lp2692
g57
(g58
g59
NtRp2693
(dp2694
g62
(dp2695
g70
I3
ssg71
g2689
sg64
(lp2696
g1214
asbasbasbag57
(g73
g59
NtRp2697
(dp2698
g62
(dp2699
sg71
g2483
sg64
(lp2700
g57
(g78
g59
NtRp2701
(dp2702
g62
(dp2703
g82
g83
ssg71
g2697
sg64
(lp2704
S'PATH_INFO'
p2705
asbag57
(g78
g59
NtRp2706
(dp2707
g62
(dp2708
g89
g90
ssg71
g2697
sg64
(lp2709
S':'
asbag57
(g78
g59
NtRp2710
(dp2711
g62
(dp2712
sg71
g2697
sg64
(lp2713
g57
(g58
g59
NtRp2714
(dp2715
g62
(dp2716
g70
I3
ssg71
g2710
sg64
(lp2717
g1278
asbasbasbag57
(g73
g59
NtRp2718
(dp2719
g62
(dp2720
sg71
g2483
sg64
(lp2721
g57
(g78
g59
NtRp2722
(dp2723
g62
(dp2724
g82
g83
ssg71
g2718
sg64
(lp2725
S'QUERY_STRING'
p2726
asbag57
(g78
g59
NtRp2727
(dp2728
g62
(dp2729
g89
g90
ssg71
g2718
sg64
(lp2730
S':'
asbag57
(g78
g59
NtRp2731
(dp2732
g62
(dp2733
sg71
g2718
sg64
(lp2734
g57
(g58
g59
NtRp2735
(dp2736
g62
(dp2737
g70
I3
ssg71
g2731
sg64
(lp2738
S''
asbasbasbag57
(g73
g59
NtRp2739
(dp2740
g62
(dp2741
sg71
g2483
sg64
(lp2742
g57
(g78
g59
NtRp2743
(dp2744
g62
(dp2745
g82
g83
ssg71
g2739
sg64
(lp2746
S'REMOTE_ADDR'
p2747
asbag57
(g78
g59
NtRp2748
(dp2749
g62
(dp2750
g89
g90
ssg71
g2739
sg64
(lp2751
S':'
asbag57
(g78
g59
NtRp2752
(dp2753
g62
(dp2754
sg71
g2739
sg64
(lp2755
g57
(g58
g59
NtRp2756
(dp2757
g62
(dp2758
g70
I3
ssg71
g2752
sg64
(lp2759
g203
asbasbasbag57
(g73
g59
NtRp2760
(dp2761
g62
(dp2762
sg71
g2483
sg64
(lp2763
g57
(g78
g59
NtRp2764
(dp2765
g62
(dp2766
g82
g83
ssg71
g2760
sg64
(lp2767
S'REMOTE_PORT'
p2768
asbag57
(g78
g59
NtRp2769
(dp2770
g62
(dp2771
g89
g90
ssg71
g2760
sg64
(lp2772
S':'
asbag57
(g78
g59
NtRp2773
(dp2774
g62
(dp2775
sg71
g2760
sg64
(lp2776
g57
(g58
g59
NtRp2777
(dp2778
g62
(dp2779
g70
I3
ssg71
g2773
sg64
(lp2780
g1342
asbasbasbag57
(g73
g59
NtRp2781
(dp2782
g62
(dp2783
sg71
g2483
sg64
(lp2784
g57
(g78
g59
NtRp2785
(dp2786
g62
(dp2787
g82
g83
ssg71
g2781
sg64
(lp2788
S'REQUEST_METHOD'
p2789
asbag57
(g78
g59
NtRp2790
(dp2791
g62
(dp2792
g89
g90
ssg71
g2781
sg64
(lp2793
S':'
asbag57
(g78
g59
NtRp2794
(dp2795
g62
(dp2796
sg71
g2781
sg64
(lp2797
g57
(g58
g59
NtRp2798
(dp2799
g62
(dp2800
g70
I3
ssg71
g2794
sg64
(lp2801
g1364
asbasbasbag57
(g73
g59
NtRp2802
(dp2803
g62
(dp2804
sg71
g2483
sg64
(lp2805
g57
(g78
g59
NtRp2806
(dp2807
g62
(dp2808
g82
g83
ssg71
g2802
sg64
(lp2809
S'SCRIPT_NAME'
p2810
asbag57
(g78
g59
NtRp2811
(dp2812
g62
(dp2813
g89
g90
ssg71
g2802
sg64
(lp2814
S':'
asbag57
(g78
g59
NtRp2815
(dp2816
g62
(dp2817
sg71
g2802
sg64
(lp2818
g57
(g58
g59
NtRp2819
(dp2820
g62
(dp2821
g70
I3
ssg71
g2815
sg64
(lp2822
S''
asbasbasbag57
(g73
g59
NtRp2823
(dp2824
g62
(dp2825
sg71
g2483
sg64
(lp2826
g57
(g78
g59
NtRp2827
(dp2828
g62
(dp2829
g82
g83
ssg71
g2823
sg64
(lp2830
S'SERVER_NAME'
p2831
asbag57
(g78
g59
NtRp2832
(dp2833
g62
(dp2834
g89
g90
ssg71
g2823
sg64
(lp2835
S':'
asbag57
(g78
g59
NtRp2836
(dp2837
g62
(dp2838
sg71
g2823
sg64
(lp2839
g57
(g58
g59
NtRp2840
(dp2841
g62
(dp2842
g70
I3
ssg71
g2836
sg64
(lp2843
g1407
asbasbasbag57
(g73
g59
NtRp2844
(dp2845
g62
(dp2846
sg71
g2483
sg64
(lp2847
g57
(g78
g59
NtRp2848
(dp2849
g62
(dp2850
g82
g83
ssg71
g2844
sg64
(lp2851
S'SERVER_PORT'
p2852
asbag57
(g78
g59
NtRp2853
(dp2854
g62
(dp2855
g89
g90
ssg71
g2844
sg64
(lp2856
S':'
asbag57
(g78
g59
NtRp2857
(dp2858
g62
(dp2859
sg71
g2844
sg64
(lp2860
g57
(g58
g59
NtRp2861
(dp2862
g62
(dp2863
g70
I3
ssg71
g2857
sg64
(lp2864
g1429
asbasbasbag57
(g73
g59
NtRp2865
(dp2866
g62
(dp2867
sg71
g2483
sg64
(lp2868
g57
(g78
g59
NtRp2869
(dp2870
g62
(dp2871
g82
g83
ssg71
g2865
sg64
(lp2872
S'SERVER_PROTOCOL'
p2873
asbag57
(g78
g59
NtRp2874
(dp2875
g62
(dp2876
g89
g90
ssg71
g2865
sg64
(lp2877
S':'
asbag57
(g78
g59
NtRp2878
(dp2879
g62
(dp2880
sg71
g2865
sg64
(lp2881
g57
(g58
g59
NtRp2882
(dp2883
g62
(dp2884
g70
I3
ssg71
g2878
sg64
(lp2885
g1451
asbasbasbag57
(g73
g59
NtRp2886
(dp2887
g62
(dp2888
sg71
g2483
sg64
(lp2889
g57
(g78
g59
NtRp2890
(dp2891
g62
(dp2892
g82
g83
ssg71
g2886
sg64
(lp2893
S'SERVER_SOFTWARE'
p2894
asbag57
(g78
g59
NtRp2895
(dp2896
g62
(dp2897
g89
g90
ssg71
g2886
sg64
(lp2898
S':'
asbag57
(g78
g59
NtRp2899
(dp2900
g62
(dp2901
sg71
g2886
sg64
(lp2902
g57
(g58
g59
NtRp2903
(dp2904
g62
(dp2905
g70
I3
ssg71
g2899
sg64
(lp2906
g1473
asbasbasbag57
(g73
g59
NtRp2907
(dp2908
g62
(dp2909
sg71
g2483
sg64
(lp2910
g57
(g78
g59
NtRp2911
(dp2912
g62
(dp2913
g82
g83
ssg71
g2907
sg64
(lp2914
S'wsgi.errors'
p2915
asbag57
(g78
g59
NtRp2916
(dp2917
g62
(dp2918
g89
g90
ssg71
g2907
sg64
(lp2919
S':'
asbag57
(g78
g59
NtRp2920
(dp2921
g62
(dp2922
sg71
g2907
sg64
(lp2923
g57
(g58
g59
NtRp2924
(dp2925
g62
(dp2926
g70
I3
ssg71
g2920
sg64
(lp2927
S"<open file '<stderr>', mode 'w' at 0xb734d0d0>"
p2928
asbasbasbag57
(g73
g59
NtRp2929
(dp2930
g62
(dp2931
sg71
g2483
sg64
(lp2932
g57
(g78
g59
NtRp2933
(dp2934
g62
(dp2935
g82
g83
ssg71
g2929
sg64
(lp2936
S'wsgi.file_wrapper'
p2937
asbag57
(g78
g59
NtRp2938
(dp2939
g62
(dp2940
g89
g90
ssg71
g2929
sg64
(lp2941
S':'
asbag57
(g78
g59
NtRp2942
(dp2943
g62
(dp2944
sg71
g2929
sg64
(lp2945
g57
(g58
g59
NtRp2946
(dp2947
g62
(dp2948
g70
I3
ssg71
g2942
sg64
(lp2949
S'<class wsgiref.util.FileWrapper at 0x8cbaf2c>'
p2950
asbasbasbag57
(g73
g59
NtRp2951
(dp2952
g62
(dp2953
sg71
g2483
sg64
(lp2954
g57
(g78
g59
NtRp2955
(dp2956
g62
(dp2957
g82
g83
ssg71
g2951
sg64
(lp2958
S'wsgi.input'
p2959
asbag57
(g78
g59
NtRp2960
(dp2961
g62
(dp2962
g89
g90
ssg71
g2951
sg64
(lp2963
S':'
asbag57
(g78
g59
NtRp2964
(dp2965
g62
(dp2966
sg71
g2951
sg64
(lp2967
g57
(g58
g59
NtRp2968
(dp2969
g62
(dp2970
g70
I3
ssg71
g2964
sg64
(lp2971
S'<cStringIO.StringO object at 0x9079d40>'
p2972
asbasbasbag57
(g73
g59
NtRp2973
(dp2974
g62
(dp2975
sg71
g2483
sg64
(lp2976
g57
(g78
g59
NtRp2977
(dp2978
g62
(dp2979
g82
g83
ssg71
g2973
sg64
(lp2980
S'wsgi.multiprocess'
p2981
asbag57
(g78
g59
NtRp2982
(dp2983
g62
(dp2984
g89
g90
ssg71
g2973
sg64
(lp2985
S':'
asbag57
(g78
g59
NtRp2986
(dp2987
g62
(dp2988
sg71
g2973
sg64
(lp2989
g57
(g58
g59
NtRp2990
(dp2991
g62
(dp2992
g70
I3
ssg71
g2986
sg64
(lp2993
g100
asbasbasbag57
(g73
g59
NtRp2994
(dp2995
g62
(dp2996
sg71
g2483
sg64
(lp2997
g57
(g78
g59
NtRp2998
(dp2999
g62
(dp3000
g82
g83
ssg71
g2994
sg64
(lp3001
S'wsgi.multithread'
p3002
asbag57
(g78
g59
NtRp3003
(dp3004
g62
(dp3005
g89
g90
ssg71
g2994
sg64
(lp3006
S':'
asbag57
(g78
g59
NtRp3007
(dp3008
g62
(dp3009
sg71
g2994
sg64
(lp3010
g57
(g58
g59
NtRp3011
(dp3012
g62
(dp3013
g70
I3
ssg71
g3007
sg64
(lp3014
g1713
asbasbasbag57
(g73
g59
NtRp3015
(dp3016
g62
(dp3017
sg71
g2483
sg64
(lp3018
g57
(g78
g59
NtRp3019
(dp3020
g62
(dp3021
g82
g83
ssg71
g3015
sg64
(lp3022
S'wsgi.run_once'
p3023
asbag57
(g78
g59
NtRp3024
(dp3025
g62
(dp3026
g89
g90
ssg71
g3015
sg64
(lp3027
S':'
asbag57
(g78
g59
NtRp3028
(dp3029
g62
(dp3030
sg71
g3015
sg64
(lp3031
g57
(g58
g59
NtRp3032
(dp3033
g62
(dp3034
g70
I3
ssg71
g3028
sg64
(lp3035
g100
asbasbasbag57
(g73
g59
NtRp3036
(dp3037
g62
(dp3038
sg71
g2483
sg64
(lp3039
g57
(g78
g59
NtRp3040
(dp3041
g62
(dp3042
g82
g83
ssg71
g3036
sg64
(lp3043
S'wsgi.url_scheme'
p3044
asbag57
(g78
g59
NtRp3045
(dp3046
g62
(dp3047
g89
g90
ssg71
g3036
sg64
(lp3048
S':'
asbag57
(g78
g59
NtRp3049
(dp3050
g62
(dp3051
sg71
g3036
sg64
(lp3052
g57
(g58
g59
NtRp3053
(dp3054
g62
(dp3055
g70
I3
ssg71
g3049
sg64
(lp3056
g1756
asbasbasbag57
(g73
g59
NtRp3057
(dp3058
g62
(dp3059
sg71
g2483
sg64
(lp3060
g57
(g78
g59
NtRp3061
(dp3062
g62
(dp3063
g82
g83
ssg71
g3057
sg64
(lp3064
S'wsgi.version'
p3065
asbag57
(g78
g59
NtRp3066
(dp3067
g62
(dp3068
g89
g90
ssg71
g3057
sg64
(lp3069
S':'
asbag57
(g78
g59
NtRp3070
(dp3071
g62
(dp3072
sg71
g3057
sg64
(lp3073
g57
(g58
g59
NtRp3074
(dp3075
g62
(dp3076
g70
I3
ssg71
g3070
sg64
(lp3077
S'1'
asbasbasbasbasbasbasbasbasbasbasbasbasbsS'frames'
p3078
(lp3079
(dp3080
S'file'
p3081
S'/home/arpita/courses/sem3/ssad/web2py/gluon/restricted.py'
p3082
sS'dump'
p3083
(dp3084
S'environment'
p3085
S"{'A': <class 'gluon.html.A'>, 'Auth': <class 'gluon.tools.Auth'>, 'B': <class 'gluon.html.B'>, 'BEAUTIFY': <class 'gluon.html.BEAUTIFY'>, 'BODY': <class 'gluon.html.BODY'>, 'BR': <class 'gluon.html.BR'>, 'BUTTON': <class 'gluon.html.BUTTON'>, 'CAT': <class 'gluon.html.CAT'>, 'CENTER': <class 'gluon.html.CENTER'>, 'CLEANUP': <class 'gluon.validators.CLEANUP'>, ...}"
p3086
sS'ccode'
p3087
S'<code object <module> at 0x907ed10, file "/home/...ations/project/views/default/graph.html", line 1>'
p3088
ssS'lnum'
p3089
I205
sS'lines'
p3090
(dp3091
I200
S'    try:'
p3092
sI201
S'        if type(code) == types.CodeType:'
p3093
sI202
S'            ccode = code'
p3094
sI203
S'        else:'
p3095
sI204
S'            ccode = compile2(code,layer)'
p3096
sI205
S'        exec ccode in environment'
p3097
sI206
S'    except HTTP:'
p3098
sI207
S'        raise'
p3099
sI208
S'    except RestrictedError:'
p3100
sI209
S'        # do not encapsulate (obfuscate) the original RestrictedError'
p3101
ssS'call'
p3102
S'(code=\'response.write(\\\'<!DOCTYPE html PUBLIC "-//W3C//D...  </div> -->\\\\n </body>\\\\n</html>\\\\n\\\', escape=False)\', environment={\'A\': <class \'gluon.html.A\'>, \'Auth\': <class \'gluon.tools.Auth\'>, \'B\': <class \'gluon.html.B\'>, \'BEAUTIFY\': <class \'gluon.html.BEAUTIFY\'>, \'BODY\': <class \'gluon.html.BODY\'>, \'BR\': <class \'gluon.html.BR\'>, \'BUTTON\': <class \'gluon.html.BUTTON\'>, \'CAT\': <class \'gluon.html.CAT\'>, \'CENTER\': <class \'gluon.html.CENTER\'>, \'CLEANUP\': <class \'gluon.validators.CLEANUP\'>, ...}, layer=\'/home/arpita/courses/sem3/ssad/web2py/applications/project/views/default/graph.html\')'
p3103
sS'func'
p3104
S'restricted'
p3105
sa(dp3106
g3081
S'/home/arpita/courses/sem3/ssad/web2py/applications/project/views/default/graph.html'
p3107
sg3083
(dp3108
sg3089
I36
sg3090
(dp3109
I32
S"response.write('</div>\\n    ', escape=False)"
p3110
sI33
S'response.write(\'\\n<a href="index">Home</a>\\n<br>\\n<h3>Employee Information</h3>\\n</br>\\n\', escape=False)'
p3111
sI34
S'for empls in empl:'
p3112
sI35
S"    response.write('\\n', escape=False)"
p3113
sI36
S'    response.write(empls.Name)'
p3114
sI37
S"    response.write('\\n', escape=False)"
p3115
sI38
S'    response.write(empls.Designation)'
p3116
sI39
S"    response.write('\\n', escape=False)"
p3117
sI40
S'    pass'
p3118
sI41
S"response.write('\\n', escape=False)"
p3119
sI42
S'response.write(BEAUTIFY(response._vars))'
p3120
sI43
S"response.write('\\n', escape=False)"
p3121
sI44
S'response.write(\'\\n   </div> \\n <!--  <div id="footer">\\n    <p class="copyright">\\n     Copyright &copy; 2006 Sitename.com. Template Designed by\\n     <a href="http://www.thewebhub.com/">\\n      TheWebHub.com\\n     </a>\\n     &nbsp;&nbsp;&nbsp;Free Icons by\\n     <a href="http://famfamfam.com/">\\n      FAMFAMFAM\\n     </a>\\n    </p>\\n    <p class="links">\\n     <a href="http://validator.w3.org/check/referer" class="xhtml">\\n      Valid XHTML\\n     </a>\\n     &nbsp;&nbsp;&nbsp;\\n     <a href="http://jigsaw.w3.org/css-validator/check/referer" class="css">\\n      Valid CSS\\n     </a>\\n    </p>\\n   </div>\\n  </div> -->\\n </body>\\n</html>\\n\', escape=False)'
p3122
sI27
S"response.write(response.subtitle or '=response.subtitle')"
p3123
sI28
S'response.write(\'\\n    </h2> -->\\n   </div>\\n  <!-- <div id="menu">\\n    \', escape=False)'
p3124
sI29
S"response.write(MENU(response.menu,_class='web2py-menu'))"
p3125
sI30
S'response.write(\'\\n    <script>\\n      jQuery(document).ready(function(){jQuery(\\\'ul.web2py-menu\\\').superfish({delay:400});});\\n    </script>\\n   </div> -->\\n   <div id="content">\\n    <div class="flash">\', escape=False)'
p3126
sI31
S"response.write(response.flash or '')"
p3127
ssg3102
S'()'
p3128
sg3104
S'<module>'
p3129
sasS'pyver'
p3130
S'Python 2.7.2+: /usr/bin/python'
p3131
sS'session'
p3132
g57
(g58
g59
NtRp3133
(dp3134
g62
(dp3135
sg64
(lp3136
g57
(g66
g59
NtRp3137
(dp3138
g62
(dp3139
g70
I5
ssg71
Nsg64
(lp3140
g57
(g73
g59
NtRp3141
(dp3142
g62
(dp3143
sg71
g3137
sg64
(lp3144
g57
(g78
g59
NtRp3145
(dp3146
g62
(dp3147
g82
g83
ssg71
g3141
sg64
(lp3148
S'auth'
p3149
asbag57
(g78
g59
NtRp3150
(dp3151
g62
(dp3152
g89
g90
ssg71
g3141
sg64
(lp3153
S':'
asbag57
(g78
g59
NtRp3154
(dp3155
g62
(dp3156
sg71
g3141
sg64
(lp3157
g57
(g58
g59
NtRp3158
(dp3159
g62
(dp3160
g70
I5
ssg71
g3154
sg64
(lp3161
g57
(g66
g59
NtRp3162
(dp3163
g62
(dp3164
g70
I4
ssg71
Nsg64
(lp3165
g57
(g73
g59
NtRp3166
(dp3167
g62
(dp3168
sg71
g3162
sg64
(lp3169
g57
(g78
g59
NtRp3170
(dp3171
g62
(dp3172
g82
g83
ssg71
g3166
sg64
(lp3173
S'expiration'
p3174
asbag57
(g78
g59
NtRp3175
(dp3176
g62
(dp3177
g89
g90
ssg71
g3166
sg64
(lp3178
S':'
asbag57
(g78
g59
NtRp3179
(dp3180
g62
(dp3181
sg71
g3166
sg64
(lp3182
g57
(g58
g59
NtRp3183
(dp3184
g62
(dp3185
g70
I4
ssg71
g3179
sg64
(lp3186
S'3600'
p3187
asbasbasbag57
(g73
g59
NtRp3188
(dp3189
g62
(dp3190
sg71
g3162
sg64
(lp3191
g57
(g78
g59
NtRp3192
(dp3193
g62
(dp3194
g82
g83
ssg71
g3188
sg64
(lp3195
S'hmac_key'
p3196
asbag57
(g78
g59
NtRp3197
(dp3198
g62
(dp3199
g89
g90
ssg71
g3188
sg64
(lp3200
S':'
asbag57
(g78
g59
NtRp3201
(dp3202
g62
(dp3203
sg71
g3188
sg64
(lp3204
g57
(g58
g59
NtRp3205
(dp3206
g62
(dp3207
g70
I4
ssg71
g3201
sg64
(lp3208
S'79238308-b17d-4cb0-b6c2-47c2c96fc966'
p3209
asbasbasbag57
(g73
g59
NtRp3210
(dp3211
g62
(dp3212
sg71
g3162
sg64
(lp3213
g57
(g78
g59
NtRp3214
(dp3215
g62
(dp3216
g82
g83
ssg71
g3210
sg64
(lp3217
S'last_visit'
p3218
asbag57
(g78
g59
NtRp3219
(dp3220
g62
(dp3221
g89
g90
ssg71
g3210
sg64
(lp3222
S':'
asbag57
(g78
g59
NtRp3223
(dp3224
g62
(dp3225
sg71
g3210
sg64
(lp3226
g57
(g58
g59
NtRp3227
(dp3228
g62
(dp3229
g70
I4
ssg71
g3223
sg64
(lp3230
S'datetime.datetime(2012, 10, 15, 10, 29, 3, 574256)'
p3231
asbasbasbag57
(g73
g59
NtRp3232
(dp3233
g62
(dp3234
sg71
g3162
sg64
(lp3235
g57
(g78
g59
NtRp3236
(dp3237
g62
(dp3238
g82
g83
ssg71
g3232
sg64
(lp3239
S'remember'
p3240
asbag57
(g78
g59
NtRp3241
(dp3242
g62
(dp3243
g89
g90
ssg71
g3232
sg64
(lp3244
S':'
asbag57
(g78
g59
NtRp3245
(dp3246
g62
(dp3247
sg71
g3232
sg64
(lp3248
g57
(g58
g59
NtRp3249
(dp3250
g62
(dp3251
g70
I4
ssg71
g3245
sg64
(lp3252
g100
asbasbasbag57
(g73
g59
NtRp3253
(dp3254
g62
(dp3255
sg71
g3162
sg64
(lp3256
g57
(g78
g59
NtRp3257
(dp3258
g62
(dp3259
g82
g83
ssg71
g3253
sg64
(lp3260
S'user'
p3261
asbag57
(g78
g59
NtRp3262
(dp3263
g62
(dp3264
g89
g90
ssg71
g3253
sg64
(lp3265
S':'
asbag57
(g78
g59
NtRp3266
(dp3267
g62
(dp3268
sg71
g3253
sg64
(lp3269
g57
(g58
g59
NtRp3270
(dp3271
g62
(dp3272
g70
I4
ssg71
g3266
sg64
(lp3273
g57
(g66
g59
NtRp3274
(dp3275
g62
(dp3276
g70
I3
ssg71
Nsg64
(lp3277
g57
(g73
g59
NtRp3278
(dp3279
g62
(dp3280
sg71
g3274
sg64
(lp3281
g57
(g78
g59
NtRp3282
(dp3283
g62
(dp3284
g82
g83
ssg71
g3278
sg64
(lp3285
S'email'
p3286
asbag57
(g78
g59
NtRp3287
(dp3288
g62
(dp3289
g89
g90
ssg71
g3278
sg64
(lp3290
S':'
asbag57
(g78
g59
NtRp3291
(dp3292
g62
(dp3293
sg71
g3278
sg64
(lp3294
g57
(g58
g59
NtRp3295
(dp3296
g62
(dp3297
g70
I3
ssg71
g3291
sg64
(lp3298
S'rammurthy@faculty.iiit.ac.in'
p3299
asbasbasbag57
(g73
g59
NtRp3300
(dp3301
g62
(dp3302
sg71
g3274
sg64
(lp3303
g57
(g78
g59
NtRp3304
(dp3305
g62
(dp3306
g82
g83
ssg71
g3300
sg64
(lp3307
S'first_name'
p3308
asbag57
(g78
g59
NtRp3309
(dp3310
g62
(dp3311
g89
g90
ssg71
g3300
sg64
(lp3312
S':'
asbag57
(g78
g59
NtRp3313
(dp3314
g62
(dp3315
sg71
g3300
sg64
(lp3316
g57
(g58
g59
NtRp3317
(dp3318
g62
(dp3319
g70
I3
ssg71
g3313
sg64
(lp3320
S'rammurthy'
p3321
asbasbasbag57
(g73
g59
NtRp3322
(dp3323
g62
(dp3324
sg71
g3274
sg64
(lp3325
g57
(g78
g59
NtRp3326
(dp3327
g62
(dp3328
g82
g83
ssg71
g3322
sg64
(lp3329
S'id'
p3330
asbag57
(g78
g59
NtRp3331
(dp3332
g62
(dp3333
g89
g90
ssg71
g3322
sg64
(lp3334
S':'
asbag57
(g78
g59
NtRp3335
(dp3336
g62
(dp3337
sg71
g3322
sg64
(lp3338
g57
(g58
g59
NtRp3339
(dp3340
g62
(dp3341
g70
I3
ssg71
g3335
sg64
(lp3342
S'1'
asbasbasbag57
(g73
g59
NtRp3343
(dp3344
g62
(dp3345
sg71
g3274
sg64
(lp3346
g57
(g78
g59
NtRp3347
(dp3348
g62
(dp3349
g82
g83
ssg71
g3343
sg64
(lp3350
S'last_name'
p3351
asbag57
(g78
g59
NtRp3352
(dp3353
g62
(dp3354
g89
g90
ssg71
g3343
sg64
(lp3355
S':'
asbag57
(g78
g59
NtRp3356
(dp3357
g62
(dp3358
sg71
g3343
sg64
(lp3359
g57
(g58
g59
NtRp3360
(dp3361
g62
(dp3362
g70
I3
ssg71
g3356
sg64
(lp3363
S'sir'
p3364
asbasbasbag57
(g73
g59
NtRp3365
(dp3366
g62
(dp3367
sg71
g3274
sg64
(lp3368
g57
(g78
g59
NtRp3369
(dp3370
g62
(dp3371
g82
g83
ssg71
g3365
sg64
(lp3372
S'password'
p3373
asbag57
(g78
g59
NtRp3374
(dp3375
g62
(dp3376
g89
g90
ssg71
g3365
sg64
(lp3377
S':'
asbag57
(g78
g59
NtRp3378
(dp3379
g62
(dp3380
sg71
g3365
sg64
(lp3381
g57
(g58
g59
NtRp3382
(dp3383
g62
(dp3384
g70
I3
ssg71
g3378
sg64
(lp3385
S'9da56e6636f0f89c2a2b7b54a400c423'
p3386
asbasbasbag57
(g73
g59
NtRp3387
(dp3388
g62
(dp3389
sg71
g3274
sg64
(lp3390
g57
(g78
g59
NtRp3391
(dp3392
g62
(dp3393
g82
g83
ssg71
g3387
sg64
(lp3394
S'registration_id'
p3395
asbag57
(g78
g59
NtRp3396
(dp3397
g62
(dp3398
g89
g90
ssg71
g3387
sg64
(lp3399
S':'
asbag57
(g78
g59
NtRp3400
(dp3401
g62
(dp3402
sg71
g3387
sg64
(lp3403
g57
(g58
g59
NtRp3404
(dp3405
g62
(dp3406
g70
I3
ssg71
g3400
sg64
(lp3407
S''
asbasbasbag57
(g73
g59
NtRp3408
(dp3409
g62
(dp3410
sg71
g3274
sg64
(lp3411
g57
(g78
g59
NtRp3412
(dp3413
g62
(dp3414
g82
g83
ssg71
g3408
sg64
(lp3415
S'registration_key'
p3416
asbag57
(g78
g59
NtRp3417
(dp3418
g62
(dp3419
g89
g90
ssg71
g3408
sg64
(lp3420
S':'
asbag57
(g78
g59
NtRp3421
(dp3422
g62
(dp3423
sg71
g3408
sg64
(lp3424
g57
(g58
g59
NtRp3425
(dp3426
g62
(dp3427
g70
I3
ssg71
g3421
sg64
(lp3428
S''
asbasbasbag57
(g73
g59
NtRp3429
(dp3430
g62
(dp3431
sg71
g3274
sg64
(lp3432
g57
(g78
g59
NtRp3433
(dp3434
g62
(dp3435
g82
g83
ssg71
g3429
sg64
(lp3436
S'reset_password_key'
p3437
asbag57
(g78
g59
NtRp3438
(dp3439
g62
(dp3440
g89
g90
ssg71
g3429
sg64
(lp3441
S':'
asbag57
(g78
g59
NtRp3442
(dp3443
g62
(dp3444
sg71
g3429
sg64
(lp3445
g57
(g58
g59
NtRp3446
(dp3447
g62
(dp3448
g70
I3
ssg71
g3442
sg64
(lp3449
S''
asbasbasbasbasbasbasbag57
(g73
g59
NtRp3450
(dp3451
g62
(dp3452
sg71
g3162
sg64
(lp3453
g57
(g78
g59
NtRp3454
(dp3455
g62
(dp3456
g82
g83
ssg71
g3450
sg64
(lp3457
S'user_groups'
p3458
asbag57
(g78
g59
NtRp3459
(dp3460
g62
(dp3461
g89
g90
ssg71
g3450
sg64
(lp3462
S':'
asbag57
(g78
g59
NtRp3463
(dp3464
g62
(dp3465
sg71
g3450
sg64
(lp3466
g57
(g58
g59
NtRp3467
(dp3468
g62
(dp3469
g70
I4
ssg71
g3463
sg64
(lp3470
g57
(g66
g59
NtRp3471
(dp3472
g62
(dp3473
g70
I3
ssg71
Nsg64
(lp3474
g57
(g73
g59
NtRp3475
(dp3476
g62
(dp3477
sg71
g3471
sg64
(lp3478
g57
(g78
g59
NtRp3479
(dp3480
g62
(dp3481
g82
g83
ssg71
g3475
sg64
(lp3482
S'1'
asbag57
(g78
g59
NtRp3483
(dp3484
g62
(dp3485
g89
g90
ssg71
g3475
sg64
(lp3486
S':'
asbag57
(g78
g59
NtRp3487
(dp3488
g62
(dp3489
sg71
g3475
sg64
(lp3490
g57
(g58
g59
NtRp3491
(dp3492
g62
(dp3493
g70
I3
ssg71
g3487
sg64
(lp3494
S'user_1'
p3495
asbasbasbag57
(g73
g59
NtRp3496
(dp3497
g62
(dp3498
sg71
g3471
sg64
(lp3499
g57
(g78
g59
NtRp3500
(dp3501
g62
(dp3502
g82
g83
ssg71
g3496
sg64
(lp3503
S'2'
asbag57
(g78
g59
NtRp3504
(dp3505
g62
(dp3506
g89
g90
ssg71
g3496
sg64
(lp3507
S':'
asbag57
(g78
g59
NtRp3508
(dp3509
g62
(dp3510
sg71
g3496
sg64
(lp3511
g57
(g58
g59
NtRp3512
(dp3513
g62
(dp3514
g70
I3
ssg71
g3508
sg64
(lp3515
S'Administrator'
p3516
asbasbasbasbasbasbasbasbasbasbasbag57
(g73
g59
NtRp3517
(dp3518
g62
(dp3519
sg71
g3137
sg64
(lp3520
g57
(g78
g59
NtRp3521
(dp3522
g62
(dp3523
g82
g83
ssg71
g3517
sg64
(lp3524
S'last_query'
p3525
asbag57
(g78
g59
NtRp3526
(dp3527
g62
(dp3528
g89
g90
ssg71
g3517
sg64
(lp3529
S':'
asbag57
(g78
g59
NtRp3530
(dp3531
g62
(dp3532
sg71
g3517
sg64
(lp3533
g57
(g58
g59
NtRp3534
(dp3535
g62
(dp3536
g70
I5
ssg71
g3530
sg64
(lp3537
S'db.Employee.id>0'
p3538
asbasbasbasbasbsS'etype'
p3539
S"<type 'exceptions.AttributeError'>"
p3540
sS'date'
p3541
S'Mon Oct 15 10:31:46 2012'
p3542
sS'response'
p3543
g57
(g58
g59
NtRp3544
(dp3545
g62
(dp3546
sg64
(lp3547
g57
(g66
g59
NtRp3548
(dp3549
g62
(dp3550
g70
I5
ssg71
Nsg64
(lp3551
g57
(g73
g59
NtRp3552
(dp3553
g62
(dp3554
sg71
g3548
sg64
(lp3555
g57
(g78
g59
NtRp3556
(dp3557
g62
(dp3558
g82
g83
ssg71
g3552
sg64
(lp3559
g168
asbag57
(g78
g59
NtRp3560
(dp3561
g62
(dp3562
g89
g90
ssg71
g3552
sg64
(lp3563
S':'
asbag57
(g78
g59
NtRp3564
(dp3565
g62
(dp3566
sg71
g3552
sg64
(lp3567
g57
(g58
g59
NtRp3568
(dp3569
g62
(dp3570
g70
I5
ssg71
g3564
sg64
(lp3571
S'<cStringIO.StringO object at 0x90835a0>'
p3572
asbasbasbag57
(g73
g59
NtRp3573
(dp3574
g62
(dp3575
sg71
g3548
sg64
(lp3576
g57
(g78
g59
NtRp3577
(dp3578
g62
(dp3579
g82
g83
ssg71
g3573
sg64
(lp3580
g234
asbag57
(g78
g59
NtRp3581
(dp3582
g62
(dp3583
g89
g90
ssg71
g3573
sg64
(lp3584
S':'
asbag57
(g78
g59
NtRp3585
(dp3586
g62
(dp3587
sg71
g3573
sg64
(lp3588
g57
(g58
g59
NtRp3589
(dp3590
g62
(dp3591
g70
I5
ssg71
g3585
sg64
(lp3592
g57
(g66
g59
NtRp3593
(dp3594
g62
(dp3595
g70
I4
ssg71
Nsg64
(lp3596
g57
(g73
g59
NtRp3597
(dp3598
g62
(dp3599
sg71
g3593
sg64
(lp3600
g57
(g78
g59
NtRp3601
(dp3602
g62
(dp3603
g82
g83
ssg71
g3597
sg64
(lp3604
S'session_id_project'
p3605
asbag57
(g78
g59
NtRp3606
(dp3607
g62
(dp3608
g89
g90
ssg71
g3597
sg64
(lp3609
S':'
asbag57
(g78
g59
NtRp3610
(dp3611
g62
(dp3612
sg71
g3597
sg64
(lp3613
g57
(g58
g59
NtRp3614
(dp3615
g62
(dp3616
g70
I4
ssg71
g3610
sg64
(lp3617
g57
(g66
g59
NtRp3618
(dp3619
g62
(dp3620
g70
I3
ssg71
Nsg64
(lp3621
g57
(g73
g59
NtRp3622
(dp3623
g62
(dp3624
sg71
g3618
sg64
(lp3625
g57
(g78
g59
NtRp3626
(dp3627
g62
(dp3628
g82
g83
ssg71
g3622
sg64
(lp3629
g284
asbag57
(g78
g59
NtRp3630
(dp3631
g62
(dp3632
g89
g90
ssg71
g3622
sg64
(lp3633
S':'
asbag57
(g78
g59
NtRp3634
(dp3635
g62
(dp3636
sg71
g3622
sg64
(lp3637
g57
(g58
g59
NtRp3638
(dp3639
g62
(dp3640
g70
I3
ssg71
g3634
sg64
(lp3641
S''
asbasbasbag57
(g73
g59
NtRp3642
(dp3643
g62
(dp3644
sg71
g3618
sg64
(lp3645
g57
(g78
g59
NtRp3646
(dp3647
g62
(dp3648
g82
g83
ssg71
g3642
sg64
(lp3649
g305
asbag57
(g78
g59
NtRp3650
(dp3651
g62
(dp3652
g89
g90
ssg71
g3642
sg64
(lp3653
S':'
asbag57
(g78
g59
NtRp3654
(dp3655
g62
(dp3656
sg71
g3642
sg64
(lp3657
g57
(g58
g59
NtRp3658
(dp3659
g62
(dp3660
g70
I3
ssg71
g3654
sg64
(lp3661
S''
asbasbasbag57
(g73
g59
NtRp3662
(dp3663
g62
(dp3664
sg71
g3618
sg64
(lp3665
g57
(g78
g59
NtRp3666
(dp3667
g62
(dp3668
g82
g83
ssg71
g3662
sg64
(lp3669
g326
asbag57
(g78
g59
NtRp3670
(dp3671
g62
(dp3672
g89
g90
ssg71
g3662
sg64
(lp3673
S':'
asbag57
(g78
g59
NtRp3674
(dp3675
g62
(dp3676
sg71
g3662
sg64
(lp3677
g57
(g58
g59
NtRp3678
(dp3679
g62
(dp3680
g70
I3
ssg71
g3674
sg64
(lp3681
S''
asbasbasbag57
(g73
g59
NtRp3682
(dp3683
g62
(dp3684
sg71
g3618
sg64
(lp3685
g57
(g78
g59
NtRp3686
(dp3687
g62
(dp3688
g82
g83
ssg71
g3682
sg64
(lp3689
g347
asbag57
(g78
g59
NtRp3690
(dp3691
g62
(dp3692
g89
g90
ssg71
g3682
sg64
(lp3693
S':'
asbag57
(g78
g59
NtRp3694
(dp3695
g62
(dp3696
sg71
g3682
sg64
(lp3697
g57
(g58
g59
NtRp3698
(dp3699
g62
(dp3700
g70
I3
ssg71
g3694
sg64
(lp3701
S''
asbasbasbag57
(g73
g59
NtRp3702
(dp3703
g62
(dp3704
sg71
g3618
sg64
(lp3705
g57
(g78
g59
NtRp3706
(dp3707
g62
(dp3708
g82
g83
ssg71
g3702
sg64
(lp3709
g368
asbag57
(g78
g59
NtRp3710
(dp3711
g62
(dp3712
g89
g90
ssg71
g3702
sg64
(lp3713
S':'
asbag57
(g78
g59
NtRp3714
(dp3715
g62
(dp3716
sg71
g3702
sg64
(lp3717
g57
(g58
g59
NtRp3718
(dp3719
g62
(dp3720
g70
I3
ssg71
g3714
sg64
(lp3721
S''
asbasbasbag57
(g73
g59
NtRp3722
(dp3723
g62
(dp3724
sg71
g3618
sg64
(lp3725
g57
(g78
g59
NtRp3726
(dp3727
g62
(dp3728
g82
g83
ssg71
g3722
sg64
(lp3729
g389
asbag57
(g78
g59
NtRp3730
(dp3731
g62
(dp3732
g89
g90
ssg71
g3722
sg64
(lp3733
S':'
asbag57
(g78
g59
NtRp3734
(dp3735
g62
(dp3736
sg71
g3722
sg64
(lp3737
g57
(g58
g59
NtRp3738
(dp3739
g62
(dp3740
g70
I3
ssg71
g3734
sg64
(lp3741
S'/'
asbasbasbag57
(g73
g59
NtRp3742
(dp3743
g62
(dp3744
sg71
g3618
sg64
(lp3745
g57
(g78
g59
NtRp3746
(dp3747
g62
(dp3748
g82
g83
ssg71
g3742
sg64
(lp3749
g410
asbag57
(g78
g59
NtRp3750
(dp3751
g62
(dp3752
g89
g90
ssg71
g3742
sg64
(lp3753
S':'
asbag57
(g78
g59
NtRp3754
(dp3755
g62
(dp3756
sg71
g3742
sg64
(lp3757
g57
(g58
g59
NtRp3758
(dp3759
g62
(dp3760
g70
I3
ssg71
g3754
sg64
(lp3761
S''
asbasbasbag57
(g73
g59
NtRp3762
(dp3763
g62
(dp3764
sg71
g3618
sg64
(lp3765
g57
(g78
g59
NtRp3766
(dp3767
g62
(dp3768
g82
g83
ssg71
g3762
sg64
(lp3769
g431
asbag57
(g78
g59
NtRp3770
(dp3771
g62
(dp3772
g89
g90
ssg71
g3762
sg64
(lp3773
S':'
asbag57
(g78
g59
NtRp3774
(dp3775
g62
(dp3776
sg71
g3762
sg64
(lp3777
g57
(g58
g59
NtRp3778
(dp3779
g62
(dp3780
g70
I3
ssg71
g3774
sg64
(lp3781
S''
asbasbasbasbasbasbasbasbasbasbasbag57
(g73
g59
NtRp3782
(dp3783
g62
(dp3784
sg71
g3548
sg64
(lp3785
g57
(g78
g59
NtRp3786
(dp3787
g62
(dp3788
g82
g83
ssg71
g3782
sg64
(lp3789
S'delimiters'
p3790
asbag57
(g78
g59
NtRp3791
(dp3792
g62
(dp3793
g89
g90
ssg71
g3782
sg64
(lp3794
S':'
asbag57
(g78
g59
NtRp3795
(dp3796
g62
(dp3797
sg71
g3782
sg64
(lp3798
g57
(g58
g59
NtRp3799
(dp3800
g62
(dp3801
g70
I5
ssg71
g3795
sg64
(lp3802
g57
(g66
g59
NtRp3803
(dp3804
g62
(dp3805
g70
I4
ssg71
Nsg64
(lp3806
g57
(g73
g59
NtRp3807
(dp3808
g62
(dp3809
sg71
g3803
sg64
(lp3810
g57
(g78
g59
NtRp3811
(dp3812
g62
(dp3813
sg71
g3807
sg64
(lp3814
g57
(g58
g59
NtRp3815
(dp3816
g62
(dp3817
g70
I4
ssg71
g3811
sg64
(lp3818
S'{{'
p3819
asbasbasbag57
(g73
g59
NtRp3820
(dp3821
g62
(dp3822
sg71
g3803
sg64
(lp3823
g57
(g78
g59
NtRp3824
(dp3825
g62
(dp3826
sg71
g3820
sg64
(lp3827
g57
(g58
g59
NtRp3828
(dp3829
g62
(dp3830
g70
I4
ssg71
g3824
sg64
(lp3831
S'}}'
p3832
asbasbasbasbasbasbasbag57
(g73
g59
NtRp3833
(dp3834
g62
(dp3835
sg71
g3548
sg64
(lp3836
g57
(g78
g59
NtRp3837
(dp3838
g62
(dp3839
g82
g83
ssg71
g3833
sg64
(lp3840
S'files'
p3841
asbag57
(g78
g59
NtRp3842
(dp3843
g62
(dp3844
g89
g90
ssg71
g3833
sg64
(lp3845
S':'
asbag57
(g78
g59
NtRp3846
(dp3847
g62
(dp3848
sg71
g3833
sg64
(lp3849
g57
(g58
g59
NtRp3850
(dp3851
g62
(dp3852
g70
I5
ssg71
g3846
sg64
(lp3853
g57
(g66
g59
NtRp3854
(dp3855
g62
(dp3856
g70
I4
ssg71
Nsg64
(lp3857
g57
(g73
g59
NtRp3858
(dp3859
g62
(dp3860
sg71
g3854
sg64
(lp3861
g57
(g78
g59
NtRp3862
(dp3863
g62
(dp3864
sg71
g3858
sg64
(lp3865
g57
(g58
g59
NtRp3866
(dp3867
g62
(dp3868
g70
I4
ssg71
g3862
sg64
(lp3869
S'/project/static/js/jquery.js'
p3870
asbasbasbag57
(g73
g59
NtRp3871
(dp3872
g62
(dp3873
sg71
g3854
sg64
(lp3874
g57
(g78
g59
NtRp3875
(dp3876
g62
(dp3877
sg71
g3871
sg64
(lp3878
g57
(g58
g59
NtRp3879
(dp3880
g62
(dp3881
g70
I4
ssg71
g3875
sg64
(lp3882
S'/project/static/css/calendar.css'
p3883
asbasbasbag57
(g73
g59
NtRp3884
(dp3885
g62
(dp3886
sg71
g3854
sg64
(lp3887
g57
(g78
g59
NtRp3888
(dp3889
g62
(dp3890
sg71
g3884
sg64
(lp3891
g57
(g58
g59
NtRp3892
(dp3893
g62
(dp3894
g70
I4
ssg71
g3888
sg64
(lp3895
S'/project/static/js/calendar.js'
p3896
asbasbasbag57
(g73
g59
NtRp3897
(dp3898
g62
(dp3899
sg71
g3854
sg64
(lp3900
g57
(g78
g59
NtRp3901
(dp3902
g62
(dp3903
sg71
g3897
sg64
(lp3904
g57
(g58
g59
NtRp3905
(dp3906
g62
(dp3907
g70
I4
ssg71
g3901
sg64
(lp3908
S'/project/static/js/web2py.js'
p3909
asbasbasbag57
(g73
g59
NtRp3910
(dp3911
g62
(dp3912
sg71
g3854
sg64
(lp3913
g57
(g78
g59
NtRp3914
(dp3915
g62
(dp3916
sg71
g3910
sg64
(lp3917
g57
(g58
g59
NtRp3918
(dp3919
g62
(dp3920
g70
I4
ssg71
g3914
sg64
(lp3921
S'/project/static/plugin_layouts/layouts/CorporateOffice/style.css'
p3922
asbasbasbag57
(g73
g59
NtRp3923
(dp3924
g62
(dp3925
sg71
g3854
sg64
(lp3926
g57
(g78
g59
NtRp3927
(dp3928
g62
(dp3929
sg71
g3923
sg64
(lp3930
g57
(g58
g59
NtRp3931
(dp3932
g62
(dp3933
g70
I4
ssg71
g3927
sg64
(lp3934
S'/project/static/plugin_layouts/superfish.js'
p3935
asbasbasbasbasbasbasbag57
(g73
g59
NtRp3936
(dp3937
g62
(dp3938
sg71
g3548
sg64
(lp3939
g57
(g78
g59
NtRp3940
(dp3941
g62
(dp3942
g82
g83
ssg71
g3936
sg64
(lp3943
S'flash'
p3944
asbag57
(g78
g59
NtRp3945
(dp3946
g62
(dp3947
g89
g90
ssg71
g3936
sg64
(lp3948
S':'
asbag57
(g78
g59
NtRp3949
(dp3950
g62
(dp3951
sg71
g3936
sg64
(lp3952
g57
(g58
g59
NtRp3953
(dp3954
g62
(dp3955
g70
I5
ssg71
g3949
sg64
(lp3956
S''
asbasbasbag57
(g73
g59
NtRp3957
(dp3958
g62
(dp3959
sg71
g3548
sg64
(lp3960
g57
(g78
g59
NtRp3961
(dp3962
g62
(dp3963
g82
g83
ssg71
g3957
sg64
(lp3964
S'generic_patterns'
p3965
asbag57
(g78
g59
NtRp3966
(dp3967
g62
(dp3968
g89
g90
ssg71
g3957
sg64
(lp3969
S':'
asbag57
(g78
g59
NtRp3970
(dp3971
g62
(dp3972
sg71
g3957
sg64
(lp3973
g57
(g58
g59
NtRp3974
(dp3975
g62
(dp3976
g70
I5
ssg71
g3970
sg64
(lp3977
g57
(g66
g59
NtRp3978
(dp3979
g62
(dp3980
g70
I4
ssg71
Nsg64
(lp3981
g57
(g73
g59
NtRp3982
(dp3983
g62
(dp3984
sg71
g3978
sg64
(lp3985
g57
(g78
g59
NtRp3986
(dp3987
g62
(dp3988
sg71
g3982
sg64
(lp3989
g57
(g58
g59
NtRp3990
(dp3991
g62
(dp3992
g70
I4
ssg71
g3986
sg64
(lp3993
S'*'
asbasbasbasbasbasbasbag57
(g73
g59
NtRp3994
(dp3995
g62
(dp3996
sg71
g3548
sg64
(lp3997
g57
(g78
g59
NtRp3998
(dp3999
g62
(dp4000
g82
g83
ssg71
g3994
sg64
(lp4001
S'headers'
p4002
asbag57
(g78
g59
NtRp4003
(dp4004
g62
(dp4005
g89
g90
ssg71
g3994
sg64
(lp4006
S':'
asbag57
(g78
g59
NtRp4007
(dp4008
g62
(dp4009
sg71
g3994
sg64
(lp4010
g57
(g58
g59
NtRp4011
(dp4012
g62
(dp4013
g70
I5
ssg71
g4007
sg64
(lp4014
g57
(g66
g59
NtRp4015
(dp4016
g62
(dp4017
g70
I4
ssg71
Nsg64
(lp4018
g57
(g73
g59
NtRp4019
(dp4020
g62
(dp4021
sg71
g4015
sg64
(lp4022
g57
(g78
g59
NtRp4023
(dp4024
g62
(dp4025
g82
g83
ssg71
g4019
sg64
(lp4026
S'Cache-Control'
p4027
asbag57
(g78
g59
NtRp4028
(dp4029
g62
(dp4030
g89
g90
ssg71
g4019
sg64
(lp4031
S':'
asbag57
(g78
g59
NtRp4032
(dp4033
g62
(dp4034
sg71
g4019
sg64
(lp4035
g57
(g58
g59
NtRp4036
(dp4037
g62
(dp4038
g70
I4
ssg71
g4032
sg64
(lp4039
S'no-store, no-cache, must-revalidate, post-check=0, pre-check=0'
p4040
asbasbasbag57
(g73
g59
NtRp4041
(dp4042
g62
(dp4043
sg71
g4015
sg64
(lp4044
g57
(g78
g59
NtRp4045
(dp4046
g62
(dp4047
g82
g83
ssg71
g4041
sg64
(lp4048
S'Content-Type'
p4049
asbag57
(g78
g59
NtRp4050
(dp4051
g62
(dp4052
g89
g90
ssg71
g4041
sg64
(lp4053
S':'
asbag57
(g78
g59
NtRp4054
(dp4055
g62
(dp4056
sg71
g4041
sg64
(lp4057
g57
(g58
g59
NtRp4058
(dp4059
g62
(dp4060
g70
I4
ssg71
g4054
sg64
(lp4061
S'text/html; charset=utf-8'
p4062
asbasbasbag57
(g73
g59
NtRp4063
(dp4064
g62
(dp4065
sg71
g4015
sg64
(lp4066
g57
(g78
g59
NtRp4067
(dp4068
g62
(dp4069
g82
g83
ssg71
g4063
sg64
(lp4070
S'Expires'
p4071
asbag57
(g78
g59
NtRp4072
(dp4073
g62
(dp4074
g89
g90
ssg71
g4063
sg64
(lp4075
S':'
asbag57
(g78
g59
NtRp4076
(dp4077
g62
(dp4078
sg71
g4063
sg64
(lp4079
g57
(g58
g59
NtRp4080
(dp4081
g62
(dp4082
g70
I4
ssg71
g4076
sg64
(lp4083
S'Mon, 15 Oct 2012 05:01:46 GMT'
p4084
asbasbasbag57
(g73
g59
NtRp4085
(dp4086
g62
(dp4087
sg71
g4015
sg64
(lp4088
g57
(g78
g59
NtRp4089
(dp4090
g62
(dp4091
g82
g83
ssg71
g4085
sg64
(lp4092
S'Pragma'
p4093
asbag57
(g78
g59
NtRp4094
(dp4095
g62
(dp4096
g89
g90
ssg71
g4085
sg64
(lp4097
S':'
asbag57
(g78
g59
NtRp4098
(dp4099
g62
(dp4100
sg71
g4085
sg64
(lp4101
g57
(g58
g59
NtRp4102
(dp4103
g62
(dp4104
g70
I4
ssg71
g4098
sg64
(lp4105
S'no-cache'
p4106
asbasbasbag57
(g73
g59
NtRp4107
(dp4108
g62
(dp4109
sg71
g4015
sg64
(lp4110
g57
(g78
g59
NtRp4111
(dp4112
g62
(dp4113
g82
g83
ssg71
g4107
sg64
(lp4114
S'X-Powered-By'
p4115
asbag57
(g78
g59
NtRp4116
(dp4117
g62
(dp4118
g89
g90
ssg71
g4107
sg64
(lp4119
S':'
asbag57
(g78
g59
NtRp4120
(dp4121
g62
(dp4122
sg71
g4107
sg64
(lp4123
g57
(g58
g59
NtRp4124
(dp4125
g62
(dp4126
g70
I4
ssg71
g4120
sg64
(lp4127
S'web2py'
p4128
asbasbasbasbasbasbasbag57
(g73
g59
NtRp4129
(dp4130
g62
(dp4131
sg71
g3548
sg64
(lp4132
g57
(g78
g59
NtRp4133
(dp4134
g62
(dp4135
g82
g83
ssg71
g4129
sg64
(lp4136
S'menu'
p4137
asbag57
(g78
g59
NtRp4138
(dp4139
g62
(dp4140
g89
g90
ssg71
g4129
sg64
(lp4141
S':'
asbag57
(g78
g59
NtRp4142
(dp4143
g62
(dp4144
sg71
g4129
sg64
(lp4145
g57
(g58
g59
NtRp4146
(dp4147
g62
(dp4148
g70
I5
ssg71
g4142
sg64
(lp4149
g57
(g66
g59
NtRp4150
(dp4151
g62
(dp4152
g70
I4
ssg71
Nsg64
(lp4153
g57
(g73
g59
NtRp4154
(dp4155
g62
(dp4156
sg71
g4150
sg64
(lp4157
g57
(g78
g59
NtRp4158
(dp4159
g62
(dp4160
sg71
g4154
sg64
(lp4161
g57
(g58
g59
NtRp4162
(dp4163
g62
(dp4164
g70
I4
ssg71
g4158
sg64
(lp4165
g57
(g66
g59
NtRp4166
(dp4167
g62
(dp4168
g70
I3
ssg71
Nsg64
(lp4169
g57
(g73
g59
NtRp4170
(dp4171
g62
(dp4172
sg71
g4166
sg64
(lp4173
g57
(g78
g59
NtRp4174
(dp4175
g62
(dp4176
sg71
g4170
sg64
(lp4177
g57
(g58
g59
NtRp4178
(dp4179
g62
(dp4180
g70
I3
ssg71
g4174
sg64
(lp4181
cgluon.languages
lazyT_unpickle
p4182
(S't\x04\x00\x00\x00Home'
tRp4183
asbasbasbag57
(g73
g59
NtRp4184
(dp4185
g62
(dp4186
sg71
g4166
sg64
(lp4187
g57
(g78
g59
NtRp4188
(dp4189
g62
(dp4190
sg71
g4184
sg64
(lp4191
g57
(g58
g59
NtRp4192
(dp4193
g62
(dp4194
g70
I3
ssg71
g4188
sg64
(lp4195
g100
asbasbasbag57
(g73
g59
NtRp4196
(dp4197
g62
(dp4198
sg71
g4166
sg64
(lp4199
g57
(g78
g59
NtRp4200
(dp4201
g62
(dp4202
sg71
g4196
sg64
(lp4203
g57
(g58
g59
NtRp4204
(dp4205
g62
(dp4206
g70
I3
ssg71
g4200
sg64
(lp4207
S'/project/default/index'
p4208
asbasbasbag57
(g73
g59
NtRp4209
(dp4210
g62
(dp4211
sg71
g4166
sg64
(lp4212
g57
(g78
g59
NtRp4213
(dp4214
g62
(dp4215
sg71
g4209
sg64
(lp4216
g57
(g58
g59
NtRp4217
(dp4218
g62
(dp4219
g70
I3
ssg71
g4213
sg64
(lp4220
g57
(g66
g59
NtRp4221
(dp4222
g62
(dp4223
g70
I2
ssg71
Nsg64
(lp4224
sbasbasbasbasbasbasbasbag57
(g73
g59
NtRp4225
(dp4226
g62
(dp4227
sg71
g4150
sg64
(lp4228
g57
(g78
g59
NtRp4229
(dp4230
g62
(dp4231
sg71
g4225
sg64
(lp4232
g57
(g58
g59
NtRp4233
(dp4234
g62
(dp4235
g70
I4
ssg71
g4229
sg64
(lp4236
g57
(g66
g59
NtRp4237
(dp4238
g62
(dp4239
g70
I3
ssg71
Nsg64
(lp4240
g57
(g73
g59
NtRp4241
(dp4242
g62
(dp4243
sg71
g4237
sg64
(lp4244
g57
(g78
g59
NtRp4245
(dp4246
g62
(dp4247
sg71
g4241
sg64
(lp4248
g57
(g58
g59
NtRp4249
(dp4250
g62
(dp4251
g70
I3
ssg71
g4245
sg64
(lp4252
g57
(cgluon.html
SPAN
p4253
g59
NtRp4254
(dp4255
g62
(dp4256
g82
S'color:yellow'
p4257
ssg71
g57
(cgluon.html
A
p4258
g59
NtRp4259
(dp4260
g62
(dp4261
S'_onclick'
p4262
S'javascript:void(0);return false;'
p4263
sS'_href'
p4264
S'#'
ssg71
g57
(cgluon.html
LI
p4265
g59
NtRp4266
(dp4267
g62
(dp4268
S'_class'
p4269
S'web2py-menu-expand'
p4270
ssg71
g57
(cgluon.html
UL
p4271
g59
NtRp4272
(dp4273
g62
(dp4274
S'li_class'
p4275
g4270
sS'mobile'
p4276
I00
sg4269
S'web2py-menu'
p4277
sS'ul_class'
p4278
S'web2py-menu-vertical'
p4279
sS'li_active'
p4280
S'web2py-menu-active'
p4281
ssg71
Nsg64
(lp4282
g57
(g4265
g59
NtRp4283
(dp4284
g62
(dp4285
sg71
g4272
sg64
(lp4286
g57
(g4258
g59
NtRp4287
(dp4288
g62
(dp4289
g4264
g4208
ssg71
g4283
sg64
(lp4290
g4183
asbasbag4266
asbsg64
(lp4291
g4259
ag57
(g4271
g59
NtRp4292
(dp4293
g62
(dp4294
g4269
g4279
ssg71
g4266
sg64
(lp4295
g57
(g4265
g59
NtRp4296
(dp4297
g62
(dp4298
sg71
g4292
sg64
(lp4299
g57
(g4258
g59
NtRp4300
(dp4301
g62
(dp4302
g4264
S'/admin/default/site'
p4303
ssg71
g4296
sg64
(lp4304
g4182
(S's\x08\x00\x00\x00My Sites'
tRp4305
asbasbag57
(g4265
g59
NtRp4306
(dp4307
g62
(dp4308
g4269
g4270
ssg71
g4292
sg64
(lp4309
g57
(g4258
g59
NtRp4310
(dp4311
g62
(dp4312
g4264
S'/admin/default/design/project'
p4313
ssg71
g4306
sg64
(lp4314
g4182
(S's\x08\x00\x00\x00This App'
tRp4315
asbag57
(g4271
g59
NtRp4316
(dp4317
g62
(dp4318
g4269
g4279
ssg71
g4306
sg64
(lp4319
g57
(g4265
g59
NtRp4320
(dp4321
g62
(dp4322
sg71
g4316
sg64
(lp4323
g57
(g4258
g59
NtRp4324
(dp4325
g62
(dp4326
g4264
S'/admin/default/edit/project/controllers/default.py'
p4327
ssg71
g4320
sg64
(lp4328
g4182
(S't\n\x00\x00\x00Controller'
tRp4329
asbasbag57
(g4265
g59
NtRp4330
(dp4331
g62
(dp4332
sg71
g4316
sg64
(lp4333
g57
(g4258
g59
NtRp4334
(dp4335
g62
(dp4336
g4264
S'/admin/default/edit/project/views/default/graph.html'
p4337
ssg71
g4330
sg64
(lp4338
g4182
(S't\x04\x00\x00\x00View'
tRp4339
asbasbag57
(g4265
g59
NtRp4340
(dp4341
g62
(dp4342
sg71
g4316
sg64
(lp4343
g57
(g4258
g59
NtRp4344
(dp4345
g62
(dp4346
g4264
S'/admin/default/edit/project/views/layout.html'
p4347
ssg71
g4340
sg64
(lp4348
g4182
(S't\x06\x00\x00\x00Layout'
tRp4349
asbasbag57
(g4265
g59
NtRp4350
(dp4351
g62
(dp4352
sg71
g4316
sg64
(lp4353
g57
(g4258
g59
NtRp4354
(dp4355
g62
(dp4356
g4264
S'/admin/default/edit/project/static/css/web2py.css'
p4357
ssg71
g4350
sg64
(lp4358
g4182
(S't\n\x00\x00\x00Stylesheet'
tRp4359
asbasbag57
(g4265
g59
NtRp4360
(dp4361
g62
(dp4362
sg71
g4316
sg64
(lp4363
g57
(g4258
g59
NtRp4364
(dp4365
g62
(dp4366
g4264
S'/admin/default/edit/project/models/db.py'
p4367
ssg71
g4360
sg64
(lp4368
g4182
(S's\x08\x00\x00\x00DB Model'
tRp4369
asbasbag57
(g4265
g59
NtRp4370
(dp4371
g62
(dp4372
sg71
g4316
sg64
(lp4373
g57
(g4258
g59
NtRp4374
(dp4375
g62
(dp4376
g4264
S'/admin/default/edit/project/models/menu.py'
p4377
ssg71
g4370
sg64
(lp4378
g4182
(S's\n\x00\x00\x00Menu Model'
tRp4379
asbasbag57
(g4265
g59
NtRp4380
(dp4381
g62
(dp4382
sg71
g4316
sg64
(lp4383
g57
(g4258
g59
NtRp4384
(dp4385
g62
(dp4386
g4264
S'/project/appadmin/index'
p4387
ssg71
g4380
sg64
(lp4388
g4182
(S't\x08\x00\x00\x00Database'
tRp4389
asbasbag57
(g4265
g59
NtRp4390
(dp4391
g62
(dp4392
sg71
g4316
sg64
(lp4393
g57
(g4258
g59
NtRp4394
(dp4395
g62
(dp4396
g4264
S'/admin/default/errors/project'
p4397
ssg71
g4390
sg64
(lp4398
g4182
(S't\x06\x00\x00\x00Errors'
tRp4399
asbasbag57
(g4265
g59
NtRp4400
(dp4401
g62
(dp4402
sg71
g4316
sg64
(lp4403
g57
(g4258
g59
NtRp4404
(dp4405
g62
(dp4406
g4264
S'/admin/default/about/project'
p4407
ssg71
g4400
sg64
(lp4408
g4182
(S't\x05\x00\x00\x00About'
tRp4409
asbasbasbasbag57
(g4265
g59
NtRp4410
(dp4411
g62
(dp4412
g4269
g4270
ssg71
g4292
sg64
(lp4413
g57
(g4258
g59
NtRp4414
(dp4415
g62
(dp4416
g4264
S'http://www.web2py.com'
p4417
ssg71
g4410
sg64
(lp4418
S'web2py.com'
p4419
asbag57
(g4271
g59
NtRp4420
(dp4421
g62
(dp4422
g4269
g4279
ssg71
g4410
sg64
(lp4423
g57
(g4265
g59
NtRp4424
(dp4425
g62
(dp4426
sg71
g4420
sg64
(lp4427
g57
(g4258
g59
NtRp4428
(dp4429
g62
(dp4430
g4264
S'http://www.web2py.com/examples/default/download'
p4431
ssg71
g4424
sg64
(lp4432
g4182
(S't\x08\x00\x00\x00Download'
tRp4433
asbasbag57
(g4265
g59
NtRp4434
(dp4435
g62
(dp4436
sg71
g4420
sg64
(lp4437
g57
(g4258
g59
NtRp4438
(dp4439
g62
(dp4440
g4264
S'http://www.web2py.com/examples/default/support'
p4441
ssg71
g4434
sg64
(lp4442
g4182
(S't\x07\x00\x00\x00Support'
tRp4443
asbasbag57
(g4265
g59
NtRp4444
(dp4445
g62
(dp4446
sg71
g4420
sg64
(lp4447
g57
(g4258
g59
NtRp4448
(dp4449
g62
(dp4450
g4264
S'http://web2py.com/demo_admin'
p4451
ssg71
g4444
sg64
(lp4452
g4182
(S't\x04\x00\x00\x00Demo'
tRp4453
asbasbag57
(g4265
g59
NtRp4454
(dp4455
g62
(dp4456
sg71
g4420
sg64
(lp4457
g57
(g4258
g59
NtRp4458
(dp4459
g62
(dp4460
g4264
S'http://web2py.com/examples/default/examples'
p4461
ssg71
g4454
sg64
(lp4462
g4182
(S's\x0e\x00\x00\x00Quick Examples'
tRp4463
asbasbag57
(g4265
g59
NtRp4464
(dp4465
g62
(dp4466
sg71
g4420
sg64
(lp4467
g57
(g4258
g59
NtRp4468
(dp4469
g62
(dp4470
g4264
S'http://web2py.com/AlterEgo'
p4471
ssg71
g4464
sg64
(lp4472
g4182
(S't\x03\x00\x00\x00FAQ'
tRp4473
asbasbag57
(g4265
g59
NtRp4474
(dp4475
g62
(dp4476
sg71
g4420
sg64
(lp4477
g57
(g4258
g59
NtRp4478
(dp4479
g62
(dp4480
g4264
S'http://www.web2py.com/examples/default/videos/'
p4481
ssg71
g4474
sg64
(lp4482
g4182
(S't\x06\x00\x00\x00Videos'
tRp4483
asbasbag57
(g4265
g59
NtRp4484
(dp4485
g62
(dp4486
sg71
g4420
sg64
(lp4487
g57
(g4258
g59
NtRp4488
(dp4489
g62
(dp4490
g4264
S'http://web2py.com/appliances'
p4491
ssg71
g4484
sg64
(lp4492
g4182
(S's\x11\x00\x00\x00Free Applications'
tRp4493
asbasbag57
(g4265
g59
NtRp4494
(dp4495
g62
(dp4496
sg71
g4420
sg64
(lp4497
g57
(g4258
g59
NtRp4498
(dp4499
g62
(dp4500
g4264
S'http://web2py.com/plugins'
p4501
ssg71
g4494
sg64
(lp4502
g4182
(S't\x07\x00\x00\x00Plugins'
tRp4503
asbasbag57
(g4265
g59
NtRp4504
(dp4505
g62
(dp4506
sg71
g4420
sg64
(lp4507
g57
(g4258
g59
NtRp4508
(dp4509
g62
(dp4510
g4264
S'http://web2py.com/layouts'
p4511
ssg71
g4504
sg64
(lp4512
g4182
(S't\x07\x00\x00\x00Layouts'
tRp4513
asbasbag57
(g4265
g59
NtRp4514
(dp4515
g62
(dp4516
sg71
g4420
sg64
(lp4517
g57
(g4258
g59
NtRp4518
(dp4519
g62
(dp4520
g4264
S'http://web2pyslices.com/'
p4521
ssg71
g4514
sg64
(lp4522
g4182
(S't\x07\x00\x00\x00Recipes'
tRp4523
asbasbag57
(g4265
g59
NtRp4524
(dp4525
g62
(dp4526
sg71
g4420
sg64
(lp4527
g57
(g4258
g59
NtRp4528
(dp4529
g62
(dp4530
g4264
S'http://web2py.com/semantic'
p4531
ssg71
g4524
sg64
(lp4532
g4182
(S't\x08\x00\x00\x00Semantic'
tRp4533
asbasbasbasbag57
(g4265
g59
NtRp4534
(dp4535
g62
(dp4536
g4269
g4270
ssg71
g4292
sg64
(lp4537
g57
(g4258
g59
NtRp4538
(dp4539
g62
(dp4540
g4264
S'http://www.web2py.com/book'
p4541
ssg71
g4534
sg64
(lp4542
g4182
(S't\r\x00\x00\x00Documentation'
tRp4543
asbag57
(g4271
g59
NtRp4544
(dp4545
g62
(dp4546
g4269
g4279
ssg71
g4534
sg64
(lp4547
g57
(g4265
g59
NtRp4548
(dp4549
g62
(dp4550
sg71
g4544
sg64
(lp4551
g57
(g4258
g59
NtRp4552
(dp4553
g62
(dp4554
g4264
S'http://www.web2py.com/book/default/chapter/00'
p4555
ssg71
g4548
sg64
(lp4556
g4182
(S't\x07\x00\x00\x00Preface'
tRp4557
asbasbag57
(g4265
g59
NtRp4558
(dp4559
g62
(dp4560
sg71
g4544
sg64
(lp4561
g57
(g4258
g59
NtRp4562
(dp4563
g62
(dp4564
g4264
S'http://www.web2py.com/book/default/chapter/01'
p4565
ssg71
g4558
sg64
(lp4566
g4182
(S't\x0c\x00\x00\x00Introduction'
tRp4567
asbasbag57
(g4265
g59
NtRp4568
(dp4569
g62
(dp4570
sg71
g4544
sg64
(lp4571
g57
(g4258
g59
NtRp4572
(dp4573
g62
(dp4574
g4264
S'http://www.web2py.com/book/default/chapter/02'
p4575
ssg71
g4568
sg64
(lp4576
g4182
(S't\x06\x00\x00\x00Python'
tRp4577
asbasbag57
(g4265
g59
NtRp4578
(dp4579
g62
(dp4580
sg71
g4544
sg64
(lp4581
g57
(g4258
g59
NtRp4582
(dp4583
g62
(dp4584
g4264
S'http://www.web2py.com/book/default/chapter/03'
p4585
ssg71
g4578
sg64
(lp4586
g4182
(S't\x08\x00\x00\x00Overview'
tRp4587
asbasbag57
(g4265
g59
NtRp4588
(dp4589
g62
(dp4590
sg71
g4544
sg64
(lp4591
g57
(g4258
g59
NtRp4592
(dp4593
g62
(dp4594
g4264
S'http://www.web2py.com/book/default/chapter/04'
p4595
ssg71
g4588
sg64
(lp4596
g4182
(S's\x08\x00\x00\x00The Core'
tRp4597
asbasbag57
(g4265
g59
NtRp4598
(dp4599
g62
(dp4600
sg71
g4544
sg64
(lp4601
g57
(g4258
g59
NtRp4602
(dp4603
g62
(dp4604
g4264
S'http://www.web2py.com/book/default/chapter/05'
p4605
ssg71
g4598
sg64
(lp4606
g4182
(S's\t\x00\x00\x00The Views'
tRp4607
asbasbag57
(g4265
g59
NtRp4608
(dp4609
g62
(dp4610
sg71
g4544
sg64
(lp4611
g57
(g4258
g59
NtRp4612
(dp4613
g62
(dp4614
g4264
S'http://www.web2py.com/book/default/chapter/06'
p4615
ssg71
g4608
sg64
(lp4616
g4182
(S't\x08\x00\x00\x00Database'
tRp4617
asbasbag57
(g4265
g59
NtRp4618
(dp4619
g62
(dp4620
sg71
g4544
sg64
(lp4621
g57
(g4258
g59
NtRp4622
(dp4623
g62
(dp4624
g4264
S'http://www.web2py.com/book/default/chapter/07'
p4625
ssg71
g4618
sg64
(lp4626
g4182
(S's\x14\x00\x00\x00Forms and Validators'
tRp4627
asbasbag57
(g4265
g59
NtRp4628
(dp4629
g62
(dp4630
sg71
g4544
sg64
(lp4631
g57
(g4258
g59
NtRp4632
(dp4633
g62
(dp4634
g4264
S'http://www.web2py.com/book/default/chapter/08'
p4635
ssg71
g4628
sg64
(lp4636
g4182
(S's\r\x00\x00\x00Email and SMS'
tRp4637
asbasbag57
(g4265
g59
NtRp4638
(dp4639
g62
(dp4640
sg71
g4544
sg64
(lp4641
g57
(g4258
g59
NtRp4642
(dp4643
g62
(dp4644
g4264
S'http://www.web2py.com/book/default/chapter/09'
p4645
ssg71
g4638
sg64
(lp4646
g4182
(S's\x0e\x00\x00\x00Access Control'
tRp4647
asbasbag57
(g4265
g59
NtRp4648
(dp4649
g62
(dp4650
sg71
g4544
sg64
(lp4651
g57
(g4258
g59
NtRp4652
(dp4653
g62
(dp4654
g4264
S'http://www.web2py.com/book/default/chapter/10'
p4655
ssg71
g4648
sg64
(lp4656
g4182
(S't\x08\x00\x00\x00Services'
tRp4657
asbasbag57
(g4265
g59
NtRp4658
(dp4659
g62
(dp4660
sg71
g4544
sg64
(lp4661
g57
(g4258
g59
NtRp4662
(dp4663
g62
(dp4664
g4264
S'http://www.web2py.com/book/default/chapter/11'
p4665
ssg71
g4658
sg64
(lp4666
g4182
(S's\x0c\x00\x00\x00Ajax Recipes'
tRp4667
asbasbag57
(g4265
g59
NtRp4668
(dp4669
g62
(dp4670
sg71
g4544
sg64
(lp4671
g57
(g4258
g59
NtRp4672
(dp4673
g62
(dp4674
g4264
S'http://www.web2py.com/book/default/chapter/12'
p4675
ssg71
g4668
sg64
(lp4676
g4182
(S's\x16\x00\x00\x00Components and Plugins'
tRp4677
asbasbag57
(g4265
g59
NtRp4678
(dp4679
g62
(dp4680
sg71
g4544
sg64
(lp4681
g57
(g4258
g59
NtRp4682
(dp4683
g62
(dp4684
g4264
S'http://www.web2py.com/book/default/chapter/13'
p4685
ssg71
g4678
sg64
(lp4686
g4182
(S's\x12\x00\x00\x00Deployment Recipes'
tRp4687
asbasbag57
(g4265
g59
NtRp4688
(dp4689
g62
(dp4690
sg71
g4544
sg64
(lp4691
g57
(g4258
g59
NtRp4692
(dp4693
g62
(dp4694
g4264
S'http://www.web2py.com/book/default/chapter/14'
p4695
ssg71
g4688
sg64
(lp4696
g4182
(S's\r\x00\x00\x00Other Recipes'
tRp4697
asbasbag57
(g4265
g59
NtRp4698
(dp4699
g62
(dp4700
sg71
g4544
sg64
(lp4701
g57
(g4258
g59
NtRp4702
(dp4703
g62
(dp4704
g4264
S'http://stores.lulu.com/web2py'
p4705
ssg71
g4698
sg64
(lp4706
g4182
(S's\r\x00\x00\x00Buy this book'
tRp4707
asbasbasbasbag57
(g4265
g59
NtRp4708
(dp4709
g62
(dp4710
g4269
g4270
ssg71
g4292
sg64
(lp4711
g57
(g4258
g59
NtRp4712
(dp4713
g62
(dp4714
g4262
g4263
sg4264
S'#'
ssg71
g4708
sg64
(lp4715
g4182
(S't\t\x00\x00\x00Community'
tRp4716
asbag57
(g4271
g59
NtRp4717
(dp4718
g62
(dp4719
g4269
g4279
ssg71
g4708
sg64
(lp4720
g57
(g4265
g59
NtRp4721
(dp4722
g62
(dp4723
sg71
g4717
sg64
(lp4724
g57
(g4258
g59
NtRp4725
(dp4726
g62
(dp4727
g4264
S'http://www.web2py.com/examples/default/usergroups'
p4728
ssg71
g4721
sg64
(lp4729
g4182
(S't\x06\x00\x00\x00Groups'
tRp4730
asbasbag57
(g4265
g59
NtRp4731
(dp4732
g62
(dp4733
sg71
g4717
sg64
(lp4734
g57
(g4258
g59
NtRp4735
(dp4736
g62
(dp4737
g4264
S'http://twitter.com/web2py'
p4738
ssg71
g4731
sg64
(lp4739
g4182
(S't\x07\x00\x00\x00Twitter'
tRp4740
asbasbag57
(g4265
g59
NtRp4741
(dp4742
g62
(dp4743
sg71
g4717
sg64
(lp4744
g57
(g4258
g59
NtRp4745
(dp4746
g62
(dp4747
g4264
S'http://webchat.freenode.net/?channels=web2py'
p4748
ssg71
g4741
sg64
(lp4749
g4182
(S's\t\x00\x00\x00Live Chat'
tRp4750
asbasbasbasbag57
(g4265
g59
NtRp4751
(dp4752
g62
(dp4753
g4269
g4270
ssg71
g4292
sg64
(lp4754
g57
(g4258
g59
NtRp4755
(dp4756
g62
(dp4757
g4262
g4263
sg4264
S'#'
ssg71
g4751
sg64
(lp4758
g4182
(S't\x07\x00\x00\x00Plugins'
tRp4759
asbag57
(g4271
g59
NtRp4760
(dp4761
g62
(dp4762
g4269
g4279
ssg71
g4751
sg64
(lp4763
g57
(g4265
g59
NtRp4764
(dp4765
g62
(dp4766
sg71
g4760
sg64
(lp4767
g57
(g4258
g59
NtRp4768
(dp4769
g62
(dp4770
g4264
S'http://web2py.com/examples/default/download'
p4771
ssg71
g4764
sg64
(lp4772
S'plugin_wiki'
p4773
asbasbag57
(g4265
g59
NtRp4774
(dp4775
g62
(dp4776
sg71
g4760
sg64
(lp4777
g57
(g4258
g59
NtRp4778
(dp4779
g62
(dp4780
g4264
g4501
ssg71
g4774
sg64
(lp4781
g4182
(S's\r\x00\x00\x00Other Plugins'
tRp4782
asbasbag57
(g4265
g59
NtRp4783
(dp4784
g62
(dp4785
sg71
g4760
sg64
(lp4786
g57
(g4258
g59
NtRp4787
(dp4788
g62
(dp4789
g4264
g4511
ssg71
g4783
sg64
(lp4790
g4182
(S's\x0e\x00\x00\x00Layout Plugins'
tRp4791
asbasbasbasbasbasbsg64
(lp4792
g4254
asbsg64
(lp4793
g4128
asbasbasbasbag57
(g73
g59
NtRp4794
(dp4795
g62
(dp4796
sg71
g4237
sg64
(lp4797
g57
(g78
g59
NtRp4798
(dp4799
g62
(dp4800
sg71
g4794
sg64
(lp4801
g57
(g58
g59
NtRp4802
(dp4803
g62
(dp4804
g70
I3
ssg71
g4798
sg64
(lp4805
g100
asbasbasbag57
(g73
g59
NtRp4806
(dp4807
g62
(dp4808
sg71
g4237
sg64
(lp4809
g57
(g78
g59
NtRp4810
(dp4811
g62
(dp4812
sg71
g4806
sg64
(lp4813
g57
(g58
g59
NtRp4814
(dp4815
g62
(dp4816
g70
I3
ssg71
g4810
sg64
(lp4817
S'None'
p4818
asbasbasbag57
(g73
g59
NtRp4819
(dp4820
g62
(dp4821
sg71
g4237
sg64
(lp4822
g57
(g78
g59
NtRp4823
(dp4824
g62
(dp4825
sg71
g4819
sg64
(lp4826
g57
(g58
g59
NtRp4827
(dp4828
g62
(dp4829
g70
I3
ssg71
g4823
sg64
(lp4830
g57
(g66
g59
NtRp4831
(dp4832
g62
(dp4833
g70
I2
ssg71
Nsg64
(lp4834
g57
(g73
g59
NtRp4835
(dp4836
g62
(dp4837
sg71
g4831
sg64
(lp4838
g57
(g78
g59
NtRp4839
(dp4840
g62
(dp4841
sg71
g4835
sg64
(lp4842
g57
(g58
g59
NtRp4843
(dp4844
g62
(dp4845
g70
I2
ssg71
g4839
sg64
(lp4846
g57
(g66
g59
NtRp4847
(dp4848
g62
(dp4849
g70
I1
ssg71
Nsg64
(lp4850
g57
(g73
g59
NtRp4851
(dp4852
g62
(dp4853
sg71
g4847
sg64
(lp4854
g57
(g78
g59
NtRp4855
(dp4856
g62
(dp4857
sg71
g4851
sg64
(lp4858
g57
(g58
g59
NtRp4859
(dp4860
g62
(dp4861
g70
I1
ssg71
g4855
sg64
(lp4862
g4305
asbasbasbag57
(g73
g59
NtRp4863
(dp4864
g62
(dp4865
sg71
g4847
sg64
(lp4866
g57
(g78
g59
NtRp4867
(dp4868
g62
(dp4869
sg71
g4863
sg64
(lp4870
g57
(g58
g59
NtRp4871
(dp4872
g62
(dp4873
g70
I1
ssg71
g4867
sg64
(lp4874
I00
asbasbasbag57
(g73
g59
NtRp4875
(dp4876
g62
(dp4877
sg71
g4847
sg64
(lp4878
g57
(g78
g59
NtRp4879
(dp4880
g62
(dp4881
sg71
g4875
sg64
(lp4882
g57
(g58
g59
NtRp4883
(dp4884
g62
(dp4885
g70
I1
ssg71
g4879
sg64
(lp4886
g4303
asbasbasbasbasbasbasbag57
(g73
g59
NtRp4887
(dp4888
g62
(dp4889
sg71
g4831
sg64
(lp4890
g57
(g78
g59
NtRp4891
(dp4892
g62
(dp4893
sg71
g4887
sg64
(lp4894
g57
(g58
g59
NtRp4895
(dp4896
g62
(dp4897
g70
I2
ssg71
g4891
sg64
(lp4898
g57
(g66
g59
NtRp4899
(dp4900
g62
(dp4901
g70
I1
ssg71
Nsg64
(lp4902
g57
(g73
g59
NtRp4903
(dp4904
g62
(dp4905
sg71
g4899
sg64
(lp4906
g57
(g78
g59
NtRp4907
(dp4908
g62
(dp4909
sg71
g4903
sg64
(lp4910
g57
(g58
g59
NtRp4911
(dp4912
g62
(dp4913
g70
I1
ssg71
g4907
sg64
(lp4914
g4315
asbasbasbag57
(g73
g59
NtRp4915
(dp4916
g62
(dp4917
sg71
g4899
sg64
(lp4918
g57
(g78
g59
NtRp4919
(dp4920
g62
(dp4921
sg71
g4915
sg64
(lp4922
g57
(g58
g59
NtRp4923
(dp4924
g62
(dp4925
g70
I1
ssg71
g4919
sg64
(lp4926
I00
asbasbasbag57
(g73
g59
NtRp4927
(dp4928
g62
(dp4929
sg71
g4899
sg64
(lp4930
g57
(g78
g59
NtRp4931
(dp4932
g62
(dp4933
sg71
g4927
sg64
(lp4934
g57
(g58
g59
NtRp4935
(dp4936
g62
(dp4937
g70
I1
ssg71
g4931
sg64
(lp4938
g4313
asbasbasbag57
(g73
g59
NtRp4939
(dp4940
g62
(dp4941
sg71
g4899
sg64
(lp4942
g57
(g78
g59
NtRp4943
(dp4944
g62
(dp4945
sg71
g4939
sg64
(lp4946
g57
(g58
g59
NtRp4947
(dp4948
g62
(dp4949
g70
I1
ssg71
g4943
sg64
(lp4950
(lp4951
(g4329
I00
g4327
tp4952
a(g4339
I00
g4337
tp4953
a(g4349
I00
g4347
tp4954
a(g4359
I00
g4357
tp4955
a(g4369
I00
g4367
tp4956
a(g4379
I00
g4377
tp4957
a(g4389
I00
g4387
tp4958
a(g4399
I00
g4397
tp4959
a(g4409
I00
g4407
tp4960
aasbasbasbasbasbasbasbag57
(g73
g59
NtRp4961
(dp4962
g62
(dp4963
sg71
g4831
sg64
(lp4964
g57
(g78
g59
NtRp4965
(dp4966
g62
(dp4967
sg71
g4961
sg64
(lp4968
g57
(g58
g59
NtRp4969
(dp4970
g62
(dp4971
g70
I2
ssg71
g4965
sg64
(lp4972
g57
(g66
g59
NtRp4973
(dp4974
g62
(dp4975
g70
I1
ssg71
Nsg64
(lp4976
g57
(g73
g59
NtRp4977
(dp4978
g62
(dp4979
sg71
g4973
sg64
(lp4980
g57
(g78
g59
NtRp4981
(dp4982
g62
(dp4983
sg71
g4977
sg64
(lp4984
g57
(g58
g59
NtRp4985
(dp4986
g62
(dp4987
g70
I1
ssg71
g4981
sg64
(lp4988
g4419
asbasbasbag57
(g73
g59
NtRp4989
(dp4990
g62
(dp4991
sg71
g4973
sg64
(lp4992
g57
(g78
g59
NtRp4993
(dp4994
g62
(dp4995
sg71
g4989
sg64
(lp4996
g57
(g58
g59
NtRp4997
(dp4998
g62
(dp4999
g70
I1
ssg71
g4993
sg64
(lp5000
I00
asbasbasbag57
(g73
g59
NtRp5001
(dp5002
g62
(dp5003
sg71
g4973
sg64
(lp5004
g57
(g78
g59
NtRp5005
(dp5006
g62
(dp5007
sg71
g5001
sg64
(lp5008
g57
(g58
g59
NtRp5009
(dp5010
g62
(dp5011
g70
I1
ssg71
g5005
sg64
(lp5012
g4417
asbasbasbag57
(g73
g59
NtRp5013
(dp5014
g62
(dp5015
sg71
g4973
sg64
(lp5016
g57
(g78
g59
NtRp5017
(dp5018
g62
(dp5019
sg71
g5013
sg64
(lp5020
g57
(g58
g59
NtRp5021
(dp5022
g62
(dp5023
g70
I1
ssg71
g5017
sg64
(lp5024
(lp5025
(g4433
I00
g4431
tp5026
a(g4443
I00
g4441
tp5027
a(g4453
I00
g4451
tp5028
a(g4463
I00
g4461
tp5029
a(g4473
I00
g4471
tp5030
a(g4483
I00
g4481
tp5031
a(g4493
I00
g4491
tp5032
a(g4503
I00
g4501
tp5033
a(g4513
I00
g4511
tp5034
a(g4523
I00
g4521
tp5035
a(g4533
I00
g4531
tp5036
aasbasbasbasbasbasbasbag57
(g73
g59
NtRp5037
(dp5038
g62
(dp5039
sg71
g4831
sg64
(lp5040
g57
(g78
g59
NtRp5041
(dp5042
g62
(dp5043
sg71
g5037
sg64
(lp5044
g57
(g58
g59
NtRp5045
(dp5046
g62
(dp5047
g70
I2
ssg71
g5041
sg64
(lp5048
g57
(g66
g59
NtRp5049
(dp5050
g62
(dp5051
g70
I1
ssg71
Nsg64
(lp5052
g57
(g73
g59
NtRp5053
(dp5054
g62
(dp5055
sg71
g5049
sg64
(lp5056
g57
(g78
g59
NtRp5057
(dp5058
g62
(dp5059
sg71
g5053
sg64
(lp5060
g57
(g58
g59
NtRp5061
(dp5062
g62
(dp5063
g70
I1
ssg71
g5057
sg64
(lp5064
g4543
asbasbasbag57
(g73
g59
NtRp5065
(dp5066
g62
(dp5067
sg71
g5049
sg64
(lp5068
g57
(g78
g59
NtRp5069
(dp5070
g62
(dp5071
sg71
g5065
sg64
(lp5072
g57
(g58
g59
NtRp5073
(dp5074
g62
(dp5075
g70
I1
ssg71
g5069
sg64
(lp5076
I00
asbasbasbag57
(g73
g59
NtRp5077
(dp5078
g62
(dp5079
sg71
g5049
sg64
(lp5080
g57
(g78
g59
NtRp5081
(dp5082
g62
(dp5083
sg71
g5077
sg64
(lp5084
g57
(g58
g59
NtRp5085
(dp5086
g62
(dp5087
g70
I1
ssg71
g5081
sg64
(lp5088
g4541
asbasbasbag57
(g73
g59
NtRp5089
(dp5090
g62
(dp5091
sg71
g5049
sg64
(lp5092
g57
(g78
g59
NtRp5093
(dp5094
g62
(dp5095
sg71
g5089
sg64
(lp5096
g57
(g58
g59
NtRp5097
(dp5098
g62
(dp5099
g70
I1
ssg71
g5093
sg64
(lp5100
(lp5101
(g4557
I00
g4555
tp5102
a(g4567
I00
g4565
tp5103
a(g4577
I00
g4575
tp5104
a(g4587
I00
g4585
tp5105
a(g4597
I00
g4595
tp5106
a(g4607
I00
g4605
tp5107
a(g4617
I00
g4615
tp5108
a(g4627
I00
g4625
tp5109
a(g4637
I00
g4635
tp5110
a(g4647
I00
g4645
tp5111
a(g4657
I00
g4655
tp5112
a(g4667
I00
g4665
tp5113
a(g4677
I00
g4675
tp5114
a(g4687
I00
g4685
tp5115
a(g4697
I00
g4695
tp5116
a(g4707
I00
g4705
tp5117
aasbasbasbasbasbasbasbag57
(g73
g59
NtRp5118
(dp5119
g62
(dp5120
sg71
g4831
sg64
(lp5121
g57
(g78
g59
NtRp5122
(dp5123
g62
(dp5124
sg71
g5118
sg64
(lp5125
g57
(g58
g59
NtRp5126
(dp5127
g62
(dp5128
g70
I2
ssg71
g5122
sg64
(lp5129
g57
(g66
g59
NtRp5130
(dp5131
g62
(dp5132
g70
I1
ssg71
Nsg64
(lp5133
g57
(g73
g59
NtRp5134
(dp5135
g62
(dp5136
sg71
g5130
sg64
(lp5137
g57
(g78
g59
NtRp5138
(dp5139
g62
(dp5140
sg71
g5134
sg64
(lp5141
g57
(g58
g59
NtRp5142
(dp5143
g62
(dp5144
g70
I1
ssg71
g5138
sg64
(lp5145
g4716
asbasbasbag57
(g73
g59
NtRp5146
(dp5147
g62
(dp5148
sg71
g5130
sg64
(lp5149
g57
(g78
g59
NtRp5150
(dp5151
g62
(dp5152
sg71
g5146
sg64
(lp5153
g57
(g58
g59
NtRp5154
(dp5155
g62
(dp5156
g70
I1
ssg71
g5150
sg64
(lp5157
I00
asbasbasbag57
(g73
g59
NtRp5158
(dp5159
g62
(dp5160
sg71
g5130
sg64
(lp5161
g57
(g78
g59
NtRp5162
(dp5163
g62
(dp5164
sg71
g5158
sg64
(lp5165
g57
(g58
g59
NtRp5166
(dp5167
g62
(dp5168
g70
I1
ssg71
g5162
sg64
(lp5169
Nasbasbasbag57
(g73
g59
NtRp5170
(dp5171
g62
(dp5172
sg71
g5130
sg64
(lp5173
g57
(g78
g59
NtRp5174
(dp5175
g62
(dp5176
sg71
g5170
sg64
(lp5177
g57
(g58
g59
NtRp5178
(dp5179
g62
(dp5180
g70
I1
ssg71
g5174
sg64
(lp5181
(lp5182
(g4730
I00
g4728
tp5183
a(g4740
I00
g4738
tp5184
a(g4750
I00
g4748
tp5185
aasbasbasbasbasbasbasbag57
(g73
g59
NtRp5186
(dp5187
g62
(dp5188
sg71
g4831
sg64
(lp5189
g57
(g78
g59
NtRp5190
(dp5191
g62
(dp5192
sg71
g5186
sg64
(lp5193
g57
(g58
g59
NtRp5194
(dp5195
g62
(dp5196
g70
I2
ssg71
g5190
sg64
(lp5197
g57
(g66
g59
NtRp5198
(dp5199
g62
(dp5200
g70
I1
ssg71
Nsg64
(lp5201
g57
(g73
g59
NtRp5202
(dp5203
g62
(dp5204
sg71
g5198
sg64
(lp5205
g57
(g78
g59
NtRp5206
(dp5207
g62
(dp5208
sg71
g5202
sg64
(lp5209
g57
(g58
g59
NtRp5210
(dp5211
g62
(dp5212
g70
I1
ssg71
g5206
sg64
(lp5213
g4759
asbasbasbag57
(g73
g59
NtRp5214
(dp5215
g62
(dp5216
sg71
g5198
sg64
(lp5217
g57
(g78
g59
NtRp5218
(dp5219
g62
(dp5220
sg71
g5214
sg64
(lp5221
g57
(g58
g59
NtRp5222
(dp5223
g62
(dp5224
g70
I1
ssg71
g5218
sg64
(lp5225
I00
asbasbasbag57
(g73
g59
NtRp5226
(dp5227
g62
(dp5228
sg71
g5198
sg64
(lp5229
g57
(g78
g59
NtRp5230
(dp5231
g62
(dp5232
sg71
g5226
sg64
(lp5233
g57
(g58
g59
NtRp5234
(dp5235
g62
(dp5236
g70
I1
ssg71
g5230
sg64
(lp5237
Nasbasbasbag57
(g73
g59
NtRp5238
(dp5239
g62
(dp5240
sg71
g5198
sg64
(lp5241
g57
(g78
g59
NtRp5242
(dp5243
g62
(dp5244
sg71
g5238
sg64
(lp5245
g57
(g58
g59
NtRp5246
(dp5247
g62
(dp5248
g70
I1
ssg71
g5242
sg64
(lp5249
(lp5250
(g4773
I00
g4771
tp5251
a(g4782
I00
g4501
tp5252
a(g4791
I00
g4511
tp5253
aasbasbasbasbasbasbasbasbasbasbasbasbasbasbasbasbasbasbasbag57
(g73
g59
NtRp5254
(dp5255
g62
(dp5256
sg71
g3548
sg64
(lp5257
g57
(g78
g59
NtRp5258
(dp5259
g62
(dp5260
g82
g83
ssg71
g5254
sg64
(lp5261
S'meta'
p5262
asbag57
(g78
g59
NtRp5263
(dp5264
g62
(dp5265
g89
g90
ssg71
g5254
sg64
(lp5266
S':'
asbag57
(g78
g59
NtRp5267
(dp5268
g62
(dp5269
sg71
g5254
sg64
(lp5270
g57
(g58
g59
NtRp5271
(dp5272
g62
(dp5273
g70
I5
ssg71
g5267
sg64
(lp5274
g57
(g66
g59
NtRp5275
(dp5276
g62
(dp5277
g70
I4
ssg71
Nsg64
(lp5278
g57
(g73
g59
NtRp5279
(dp5280
g62
(dp5281
sg71
g5275
sg64
(lp5282
g57
(g78
g59
NtRp5283
(dp5284
g62
(dp5285
g82
g83
ssg71
g5279
sg64
(lp5286
S'author'
p5287
asbag57
(g78
g59
NtRp5288
(dp5289
g62
(dp5290
g89
g90
ssg71
g5279
sg64
(lp5291
S':'
asbag57
(g78
g59
NtRp5292
(dp5293
g62
(dp5294
sg71
g5279
sg64
(lp5295
g57
(g58
g59
NtRp5296
(dp5297
g62
(dp5298
g70
I4
ssg71
g5292
sg64
(lp5299
S'Your Name <you@example.com>'
p5300
asbasbasbag57
(g73
g59
NtRp5301
(dp5302
g62
(dp5303
sg71
g5275
sg64
(lp5304
g57
(g78
g59
NtRp5305
(dp5306
g62
(dp5307
g82
g83
ssg71
g5301
sg64
(lp5308
S'copyright'
p5309
asbag57
(g78
g59
NtRp5310
(dp5311
g62
(dp5312
g89
g90
ssg71
g5301
sg64
(lp5313
S':'
asbag57
(g78
g59
NtRp5314
(dp5315
g62
(dp5316
sg71
g5301
sg64
(lp5317
g57
(g58
g59
NtRp5318
(dp5319
g62
(dp5320
g70
I4
ssg71
g5314
sg64
(lp5321
S'Copyright 2011'
p5322
asbasbasbag57
(g73
g59
NtRp5323
(dp5324
g62
(dp5325
sg71
g5275
sg64
(lp5326
g57
(g78
g59
NtRp5327
(dp5328
g62
(dp5329
g82
g83
ssg71
g5323
sg64
(lp5330
S'description'
p5331
asbag57
(g78
g59
NtRp5332
(dp5333
g62
(dp5334
g89
g90
ssg71
g5323
sg64
(lp5335
S':'
asbag57
(g78
g59
NtRp5336
(dp5337
g62
(dp5338
sg71
g5323
sg64
(lp5339
g57
(g58
g59
NtRp5340
(dp5341
g62
(dp5342
g70
I4
ssg71
g5336
sg64
(lp5343
S'a cool new app'
p5344
asbasbasbag57
(g73
g59
NtRp5345
(dp5346
g62
(dp5347
sg71
g5275
sg64
(lp5348
g57
(g78
g59
NtRp5349
(dp5350
g62
(dp5351
g82
g83
ssg71
g5345
sg64
(lp5352
S'generator'
p5353
asbag57
(g78
g59
NtRp5354
(dp5355
g62
(dp5356
g89
g90
ssg71
g5345
sg64
(lp5357
S':'
asbag57
(g78
g59
NtRp5358
(dp5359
g62
(dp5360
sg71
g5345
sg64
(lp5361
g57
(g58
g59
NtRp5362
(dp5363
g62
(dp5364
g70
I4
ssg71
g5358
sg64
(lp5365
S'Web2py Web Framework'
p5366
asbasbasbag57
(g73
g59
NtRp5367
(dp5368
g62
(dp5369
sg71
g5275
sg64
(lp5370
g57
(g78
g59
NtRp5371
(dp5372
g62
(dp5373
g82
g83
ssg71
g5367
sg64
(lp5374
S'keywords'
p5375
asbag57
(g78
g59
NtRp5376
(dp5377
g62
(dp5378
g89
g90
ssg71
g5367
sg64
(lp5379
S':'
asbag57
(g78
g59
NtRp5380
(dp5381
g62
(dp5382
sg71
g5367
sg64
(lp5383
g57
(g58
g59
NtRp5384
(dp5385
g62
(dp5386
g70
I4
ssg71
g5380
sg64
(lp5387
S'web2py, python, framework'
p5388
asbasbasbasbasbasbasbag57
(g73
g59
NtRp5389
(dp5390
g62
(dp5391
sg71
g3548
sg64
(lp5392
g57
(g78
g59
NtRp5393
(dp5394
g62
(dp5395
g82
g83
ssg71
g5389
sg64
(lp5396
S'postprocessing'
p5397
asbag57
(g78
g59
NtRp5398
(dp5399
g62
(dp5400
g89
g90
ssg71
g5389
sg64
(lp5401
S':'
asbag57
(g78
g59
NtRp5402
(dp5403
g62
(dp5404
sg71
g5389
sg64
(lp5405
g57
(g58
g59
NtRp5406
(dp5407
g62
(dp5408
g70
I5
ssg71
g5402
sg64
(lp5409
g57
(g66
g59
NtRp5410
(dp5411
g62
(dp5412
g70
I4
ssg71
Nsg64
(lp5413
sbasbasbasbag57
(g73
g59
NtRp5414
(dp5415
g62
(dp5416
sg71
g3548
sg64
(lp5417
g57
(g78
g59
NtRp5418
(dp5419
g62
(dp5420
g82
g83
ssg71
g5414
sg64
(lp5421
S'session_file'
p5422
asbag57
(g78
g59
NtRp5423
(dp5424
g62
(dp5425
g89
g90
ssg71
g5414
sg64
(lp5426
S':'
asbag57
(g78
g59
NtRp5427
(dp5428
g62
(dp5429
sg71
g5414
sg64
(lp5430
g57
(g58
g59
NtRp5431
(dp5432
g62
(dp5433
g70
I5
ssg71
g5427
sg64
(lp5434
S"<open file '/home/arpita/courses/sem3/ssad/web2py/applications/project/sessions/127.0.0.1-f0cc31e8-8802-4f0d-b4a4-10d1092fbff4', mode 'rb+' at 0x93092e0>"
p5435
asbasbasbag57
(g73
g59
NtRp5436
(dp5437
g62
(dp5438
sg71
g3548
sg64
(lp5439
g57
(g78
g59
NtRp5440
(dp5441
g62
(dp5442
g82
g83
ssg71
g5436
sg64
(lp5443
S'session_filename'
p5444
asbag57
(g78
g59
NtRp5445
(dp5446
g62
(dp5447
g89
g90
ssg71
g5436
sg64
(lp5448
S':'
asbag57
(g78
g59
NtRp5449
(dp5450
g62
(dp5451
sg71
g5436
sg64
(lp5452
g57
(g58
g59
NtRp5453
(dp5454
g62
(dp5455
g70
I5
ssg71
g5449
sg64
(lp5456
S'/home/arpita/courses/sem3/ssad/web2py/applications/project/sessions/127.0.0.1-f0cc31e8-8802-4f0d-b4a4-10d1092fbff4'
p5457
asbasbasbag57
(g73
g59
NtRp5458
(dp5459
g62
(dp5460
sg71
g3548
sg64
(lp5461
g57
(g78
g59
NtRp5462
(dp5463
g62
(dp5464
g82
g83
ssg71
g5458
sg64
(lp5465
S'session_id'
p5466
asbag57
(g78
g59
NtRp5467
(dp5468
g62
(dp5469
g89
g90
ssg71
g5458
sg64
(lp5470
S':'
asbag57
(g78
g59
NtRp5471
(dp5472
g62
(dp5473
sg71
g5458
sg64
(lp5474
g57
(g58
g59
NtRp5475
(dp5476
g62
(dp5477
g70
I5
ssg71
g5471
sg64
(lp5478
S'127.0.0.1-f0cc31e8-8802-4f0d-b4a4-10d1092fbff4'
p5479
asbasbasbag57
(g73
g59
NtRp5480
(dp5481
g62
(dp5482
sg71
g3548
sg64
(lp5483
g57
(g78
g59
NtRp5484
(dp5485
g62
(dp5486
g82
g83
ssg71
g5480
sg64
(lp5487
S'session_id_name'
p5488
asbag57
(g78
g59
NtRp5489
(dp5490
g62
(dp5491
g89
g90
ssg71
g5480
sg64
(lp5492
S':'
asbag57
(g78
g59
NtRp5493
(dp5494
g62
(dp5495
sg71
g5480
sg64
(lp5496
g57
(g58
g59
NtRp5497
(dp5498
g62
(dp5499
g70
I5
ssg71
g5493
sg64
(lp5500
g3605
asbasbasbag57
(g73
g59
NtRp5501
(dp5502
g62
(dp5503
sg71
g3548
sg64
(lp5504
g57
(g78
g59
NtRp5505
(dp5506
g62
(dp5507
g82
g83
ssg71
g5501
sg64
(lp5508
S'session_locked'
p5509
asbag57
(g78
g59
NtRp5510
(dp5511
g62
(dp5512
g89
g90
ssg71
g5501
sg64
(lp5513
S':'
asbag57
(g78
g59
NtRp5514
(dp5515
g62
(dp5516
sg71
g5501
sg64
(lp5517
g57
(g58
g59
NtRp5518
(dp5519
g62
(dp5520
g70
I5
ssg71
g5514
sg64
(lp5521
g1713
asbasbasbag57
(g73
g59
NtRp5522
(dp5523
g62
(dp5524
sg71
g3548
sg64
(lp5525
g57
(g78
g59
NtRp5526
(dp5527
g62
(dp5528
g82
g83
ssg71
g5522
sg64
(lp5529
S'session_new'
p5530
asbag57
(g78
g59
NtRp5531
(dp5532
g62
(dp5533
g89
g90
ssg71
g5522
sg64
(lp5534
S':'
asbag57
(g78
g59
NtRp5535
(dp5536
g62
(dp5537
sg71
g5522
sg64
(lp5538
g57
(g58
g59
NtRp5539
(dp5540
g62
(dp5541
g70
I5
ssg71
g5535
sg64
(lp5542
g100
asbasbasbag57
(g73
g59
NtRp5543
(dp5544
g62
(dp5545
sg71
g3548
sg64
(lp5546
g57
(g78
g59
NtRp5547
(dp5548
g62
(dp5549
g82
g83
ssg71
g5543
sg64
(lp5550
S'status'
p5551
asbag57
(g78
g59
NtRp5552
(dp5553
g62
(dp5554
g89
g90
ssg71
g5543
sg64
(lp5555
S':'
asbag57
(g78
g59
NtRp5556
(dp5557
g62
(dp5558
sg71
g5543
sg64
(lp5559
g57
(g58
g59
NtRp5560
(dp5561
g62
(dp5562
g70
I5
ssg71
g5556
sg64
(lp5563
S'200'
p5564
asbasbasbag57
(g73
g59
NtRp5565
(dp5566
g62
(dp5567
sg71
g3548
sg64
(lp5568
g57
(g78
g59
NtRp5569
(dp5570
g62
(dp5571
g82
g83
ssg71
g5565
sg64
(lp5572
S'subtitle'
p5573
asbag57
(g78
g59
NtRp5574
(dp5575
g62
(dp5576
g89
g90
ssg71
g5565
sg64
(lp5577
S':'
asbag57
(g78
g59
NtRp5578
(dp5579
g62
(dp5580
sg71
g5565
sg64
(lp5581
g57
(g58
g59
NtRp5582
(dp5583
g62
(dp5584
g70
I5
ssg71
g5578
sg64
(lp5585
g4182
(S's\r\x00\x00\x00customize me!'
tRp5586
asbasbasbag57
(g73
g59
NtRp5587
(dp5588
g62
(dp5589
sg71
g3548
sg64
(lp5590
g57
(g78
g59
NtRp5591
(dp5592
g62
(dp5593
g82
g83
ssg71
g5587
sg64
(lp5594
S'title'
p5595
asbag57
(g78
g59
NtRp5596
(dp5597
g62
(dp5598
g89
g90
ssg71
g5587
sg64
(lp5599
S':'
asbag57
(g78
g59
NtRp5600
(dp5601
g62
(dp5602
sg71
g5587
sg64
(lp5603
g57
(g58
g59
NtRp5604
(dp5605
g62
(dp5606
g70
I5
ssg71
g5600
sg64
(lp5607
S'Project'
p5608
asbasbasbag57
(g73
g59
NtRp5609
(dp5610
g62
(dp5611
sg71
g3548
sg64
(lp5612
g57
(g78
g59
NtRp5613
(dp5614
g62
(dp5615
g82
g83
ssg71
g5609
sg64
(lp5616
g2398
asbag57
(g78
g59
NtRp5617
(dp5618
g62
(dp5619
g89
g90
ssg71
g5609
sg64
(lp5620
S':'
asbag57
(g78
g59
NtRp5621
(dp5622
g62
(dp5623
sg71
g5609
sg64
(lp5624
g57
(g58
g59
NtRp5625
(dp5626
g62
(dp5627
g70
I5
ssg71
g5621
sg64
(lp5628
g2411
asbasbasbag57
(g73
g59
NtRp5629
(dp5630
g62
(dp5631
sg71
g3548
sg64
(lp5632
g57
(g78
g59
NtRp5633
(dp5634
g62
(dp5635
g82
g83
ssg71
g5629
sg64
(lp5636
S'view'
p5637
asbag57
(g78
g59
NtRp5638
(dp5639
g62
(dp5640
g89
g90
ssg71
g5629
sg64
(lp5641
S':'
asbag57
(g78
g59
NtRp5642
(dp5643
g62
(dp5644
sg71
g5629
sg64
(lp5645
g57
(g58
g59
NtRp5646
(dp5647
g62
(dp5648
g70
I5
ssg71
g5642
sg64
(lp5649
S'default/graph.html'
p5650
asbasbasbasbasbsS'locals'
p5651
(dp5652
S'Service'
p5653
S"<class 'gluon.tools.Service'>"
p5654
sS'OBJECT'
p5655
S"<class 'gluon.html.OBJECT'>"
p5656
sS'SQLDB'
p5657
S"<class 'gluon.dal.DAL'>"
p5658
sg3132
S"<Storage {'_formkey[Employee/None]': '22f3d660-1...login]': '7afefefd-c4ec-4766-903d-c16a447a18a9'}>"
p5659
sS'LINK'
p5660
S"<class 'gluon.html.LINK'>"
p5661
sS'BR'
p5662
S"<class 'gluon.html.BR'>"
p5663
sS'local_import'
p5664
S'<function <lambda>>'
p5665
sS'OPTGROUP'
p5666
S"<class 'gluon.html.OPTGROUP'>"
p5667
sS'__package__'
p5668
S'None'
p5669
sS'PRE'
p5670
S"<class 'gluon.html.PRE'>"
p5671
sS'IS_INT_IN_RANGE'
p5672
S"<class 'gluon.validators.IS_INT_IN_RANGE'>"
p5673
sS'IS_LOWER'
p5674
S"<class 'gluon.validators.IS_LOWER'>"
p5675
sS'IS_STRONG'
p5676
S"<class 'gluon.validators.IS_STRONG'>"
p5677
sS'cache'
p5678
S'<gluon.cache.Cache object>'
p5679
sS'IS_IN_DB'
p5680
S"<class 'gluon.validators.IS_IN_DB'>"
p5681
sS'TAG'
p5682
S'<gluon.html.__TAG__ object>'
p5683
sS'SQLField'
p5684
S"<class 'gluon.dal.Field'>"
p5685
sS'mail'
p5686
S'<gluon.tools.Mail object>'
p5687
sS'BODY'
p5688
S"<class 'gluon.html.BODY'>"
p5689
sS'IS_DATE_IN_RANGE'
p5690
S"<class 'gluon.validators.IS_DATE_IN_RANGE'>"
p5691
sS'TH'
p5692
S"<class 'gluon.html.TH'>"
p5693
sS'URL'
p5694
S'<function URL>'
p5695
sS'__file__'
p5696
S"'/home/arpita/courses/sem3/ssad/web2py/applications/project/views/default/graph.html'"
p5697
sS'db'
p5698
S"<DAL {'auth_event': <Table {'origin': <gluon.dal...n_key': <gluon.dal.Field object at 0x92ecf4c>}>}>"
p5699
sS'auth'
p5700
S'<gluon.tools.Auth object>'
p5701
sS'P'
S"<class 'gluon.html.P'>"
p5702
sS'TFOOT'
p5703
S"<class 'gluon.html.TFOOT'>"
p5704
sS'XHTML'
p5705
S"<class 'gluon.html.XHTML'>"
p5706
sS'ON'
p5707
g1713
sS'OL'
p5708
S"<class 'gluon.html.OL'>"
p5709
sS'TEXTAREA'
p5710
S"<class 'gluon.html.TEXTAREA'>"
p5711
sS'MENU'
p5712
S"<class 'gluon.html.MENU'>"
p5713
sS'LOAD'
p5714
S'<function LOAD>'
p5715
sS'CODE'
p5716
S"<class 'gluon.html.CODE'>"
p5717
sS'HTTP'
p5718
S"<class 'gluon.http.HTTP'>"
p5719
sS'HR'
p5720
S"<class 'gluon.html.HR'>"
p5721
sS'empl'
p5722
S"<Row {'Importance_val': 4, 'Name': 'Ankita', 'De...elete_record': <function <lambda> at 0x90575dc>}>"
p5723
sS'IS_DATETIME'
p5724
S"<class 'gluon.validators.IS_DATETIME'>"
p5725
sS'HEAD'
p5726
S"<class 'gluon.html.HEAD'>"
p5727
sS'LABEL'
p5728
S"<class 'gluon.html.LABEL'>"
p5729
sS'CLEANUP'
p5730
S"<class 'gluon.validators.CLEANUP'>"
p5731
sS'plugins'
p5732
S'<gluon.tools.PluginManager object>'
p5733
sS'SELECT'
p5734
S"<class 'gluon.html.SELECT'>"
p5735
sS'use_janrain'
p5736
S'<function use_janrain>'
p5737
sS'CENTER'
p5738
S"<class 'gluon.html.CENTER'>"
p5739
sS'prettydate'
p5740
S'<function prettydate>'
p5741
sS'Crud'
p5742
S"<class 'gluon.tools.Crud'>"
p5743
sS'Auth'
p5744
S"<class 'gluon.tools.Auth'>"
p5745
sS'__builtins__'
p5746
S"{'ArithmeticError': <type 'exceptions.ArithmeticError'>, 'AssertionError': <type 'exceptions.AssertionError'>, 'AttributeError': <type 'exceptions.AttributeError'>, 'BaseException': <type 'exceptions.BaseException'>, 'BufferError': <type 'exceptions.BufferError'>, 'BytesWarning': <type 'exceptions.BytesWarning'>, 'DeprecationWarning': <type 'exceptions.DeprecationWarning'>, 'EOFError': <type 'exceptions.EOFError'>, 'Ellipsis': Ellipsis, 'EnvironmentError': <type 'exceptions.EnvironmentError'>, ...}"
p5747
sS'HTML'
p5748
S"<class 'gluon.html.HTML'>"
p5749
sS'SQLFORM'
p5750
S"<class 'gluon.sqlhtml.SQLFORM'>"
p5751
sS'EM'
p5752
S"<class 'gluon.html.EM'>"
p5753
sS'redirect'
p5754
S'<function redirect>'
p5755
sS'FIELDSET'
p5756
S"<class 'gluon.html.FIELDSET'>"
p5757
sS'IS_EQUAL_TO'
p5758
S"<class 'gluon.validators.IS_EQUAL_TO'>"
p5759
sS'embed64'
p5760
S'<function embed64>'
p5761
sS'IS_LIST_OF'
p5762
S"<class 'gluon.validators.IS_LIST_OF'>"
p5763
sS'__name__'
p5764
S"'__restricted__'"
p5765
sS'EMBED'
p5766
S"<class 'gluon.html.EMBED'>"
p5767
sS'_'
S'<function _>'
p5768
sS'FORM'
p5769
S"<class 'gluon.html.FORM'>"
p5770
sS'H2'
p5771
S"<class 'gluon.html.H2'>"
p5772
sS'H3'
p5773
S"<class 'gluon.html.H3'>"
p5774
sS'BUTTON'
p5775
S"<class 'gluon.html.BUTTON'>"
p5776
sS'H1'
p5777
S"<class 'gluon.html.H1'>"
p5778
sS'H6'
p5779
S"<class 'gluon.html.H6'>"
p5780
sS'H4'
p5781
S"<class 'gluon.html.H4'>"
p5782
sS'H5'
p5783
S"<class 'gluon.html.H5'>"
p5784
sS'UL'
p5785
S"<class 'gluon.html.UL'>"
p5786
sS'IS_UPPER'
p5787
S"<class 'gluon.validators.IS_UPPER'>"
p5788
sS'xmlescape'
p5789
S'<function xmlescape>'
p5790
sS'IS_TIME'
p5791
S"<class 'gluon.validators.IS_TIME'>"
p5792
sS'OPTION'
p5793
S"<class 'gluon.html.OPTION'>"
p5794
sS'TITLE'
p5795
S"<class 'gluon.html.TITLE'>"
p5796
sS'CRYPT'
p5797
S"<class 'gluon.validators.CRYPT'>"
p5798
sS'IS_EMPTY_OR'
p5799
S"<class 'gluon.validators.IS_EMPTY_OR'>"
p5800
sS'MARKMIN'
p5801
S"<class 'gluon.html.MARKMIN'>"
p5802
sS'INPUT'
p5803
S"<class 'gluon.html.INPUT'>"
p5804
sS'COL'
p5805
S"<class 'gluon.html.COL'>"
p5806
sS'service'
p5807
S'<gluon.tools.Service object>'
p5808
sS'SCRIPT'
p5809
S"<class 'gluon.html.SCRIPT'>"
p5810
sS'TABLE'
p5811
S"<class 'gluon.html.TABLE'>"
p5812
sS'IS_IPV4'
p5813
S"<class 'gluon.validators.IS_IPV4'>"
p5814
sS'IS_LENGTH'
p5815
S"<class 'gluon.validators.IS_LENGTH'>"
p5816
sS'XML'
p5817
S"<class 'gluon.html.XML'>"
p5818
sS'B'
S"<class 'gluon.html.B'>"
p5819
sS'IMG'
p5820
S"<class 'gluon.html.IMG'>"
p5821
sS'SQLTABLE'
p5822
S"<class 'gluon.sqlhtml.SQLTABLE'>"
p5823
sS'IS_MATCH'
p5824
S"<class 'gluon.validators.IS_MATCH'>"
p5825
sS'IS_ALPHANUMERIC'
p5826
S"<class 'gluon.validators.IS_ALPHANUMERIC'>"
p5827
sS'empls'
p5828
S"'Importance_val'"
p5829
sS'SPAN'
p5830
S"<class 'gluon.html.SPAN'>"
p5831
sS'IS_SLUG'
p5832
S"<class 'gluon.validators.IS_SLUG'>"
p5833
sS'BEAUTIFY'
p5834
S"<class 'gluon.html.BEAUTIFY'>"
p5835
sS'META'
p5836
S"<class 'gluon.html.META'>"
p5837
sS'IS_DATE'
p5838
S"<class 'gluon.validators.IS_DATE'>"
p5839
sS'IS_EMAIL'
p5840
S"<class 'gluon.validators.IS_EMAIL'>"
p5841
sS'IS_NOT_EMPTY'
p5842
S"<class 'gluon.validators.IS_NOT_EMPTY'>"
p5843
sS'IS_FLOAT_IN_RANGE'
p5844
S"<class 'gluon.validators.IS_FLOAT_IN_RANGE'>"
p5845
sS'TBODY'
p5846
S"<class 'gluon.html.TBODY'>"
p5847
sS'CAT'
p5848
S"<class 'gluon.html.CAT'>"
p5849
sS'Field'
p5850
S"<class 'gluon.dal.Field'>"
p5851
sS'DIV'
p5852
S"<class 'gluon.html.DIV'>"
p5853
sS'LEGEND'
p5854
S"<class 'gluon.html.LEGEND'>"
p5855
sS'COLGROUP'
p5856
S"<class 'gluon.html.COLGROUP'>"
p5857
sS'DAL'
p5858
S"<class 'gluon.dal.DAL'>"
p5859
sS'TT'
p5860
S"<class 'gluon.html.TT'>"
p5861
sS'TR'
p5862
S"<class 'gluon.html.TR'>"
p5863
sS'LI'
p5864
S"<class 'gluon.html.LI'>"
p5865
sS'IFRAME'
p5866
S"<class 'gluon.html.IFRAME'>"
p5867
sS'TD'
p5868
S"<class 'gluon.html.TD'>"
p5869
sS'PluginManager'
p5870
S"<class 'gluon.tools.PluginManager'>"
p5871
sS'IS_URL'
p5872
S"<class 'gluon.validators.IS_URL'>"
p5873
sS'A'
S"<class 'gluon.html.A'>"
p5874
sS'STYLE'
p5875
S"<class 'gluon.html.STYLE'>"
p5876
sS'IS_DATETIME_IN_RANGE'
p5877
S"<class 'gluon.validators.IS_DATETIME_IN_RANGE'>"
p5878
sS'IS_IMAGE'
p5879
S"<class 'gluon.validators.IS_IMAGE'>"
p5880
sS'I'
S"<class 'gluon.html.I'>"
p5881
sS'crud'
p5882
S'<gluon.tools.Crud object>'
p5883
sS'IS_NOT_IN_DB'
p5884
S"<class 'gluon.validators.IS_NOT_IN_DB'>"
p5885
sg3543
S"<Storage {'body': <cStringIO.StringO object at 0...da> at 0x9058fb4>, 'view': 'default/graph.html'}>"
p5886
sS'THEAD'
p5887
S"<class 'gluon.html.THEAD'>"
p5888
sS'IS_NULL_OR'
p5889
S"<class 'gluon.validators.IS_EMPTY_OR'>"
p5890
sg56
S"<Storage {'body': <cStringIO.StringO object at 0..._vars': <Storage {}>, 'post_vars': <Storage {}>}>"
p5891
sS'IS_EXPR'
p5892
S"<class 'gluon.validators.IS_EXPR'>"
p5893
sS'T'
S'<gluon.languages.translator object>'
p5894
sS'IS_IN_SET'
p5895
S"<class 'gluon.validators.IS_IN_SET'>"
p5896
sS'IS_UPLOAD_FILENAME'
p5897
S"<class 'gluon.validators.IS_UPLOAD_FILENAME'>"
p5898
sS'IS_DECIMAL_IN_RANGE'
p5899
S"<class 'gluon.validators.IS_DECIMAL_IN_RANGE'>"
p5900
sssS'traceback'
p5901
S'Traceback (most recent call last):\n  File "/home/arpita/courses/sem3/ssad/web2py/gluon/restricted.py", line 205, in restricted\n    exec ccode in environment\n  File "/home/arpita/courses/sem3/ssad/web2py/applications/project/views/default/graph.html", line 36, in <module>\nAttributeError: \'str\' object has no attribute \'Name\'\n'
p5902
s.