(dp1
S'output'
p2
S"<class 'sqlite3.OperationalError'> Cannot add a UNIQUE column"
p3
sS'layer'
p4
S'/home/arpita/courses/sem3/ssad/web2py/applications/project/models/db.py'
p5
sS'code'
p6
S"# -*- coding: utf-8 -*-\n\n#########################################################################\n## This scaffolding model makes your app work on Google App Engine too\n## File is released under public domain and you can use without limitations\n#########################################################################\n\n## if SSL/HTTPS is properly configured and you want all HTTP requests to\n## be redirected to HTTPS, uncomment the line below:\n# request.requires_https()\n\nif not request.env.web2py_runtime_gae:\n    ## if NOT running on Google App Engine use SQLite or other DB\n    db = DAL('sqlite://storage.sqlite')\nelse:\n    ## connect to Google BigTable (optional 'google:datastore://namespace')\n    db = DAL('google:datastore')\n    ## store sessions and tickets there\n    session.connect(request, response, db = db)\n    ## or store session in Memcache, Redis, etc.\n    ## from gluon.contrib.memdb import MEMDB\n    ## from google.appengine.api.memcache import Client\n    ## session.connect(request, response, db = MEMDB(Client()))\n\n## by default give a view/generic.extension to all actions from localhost\n## none otherwise. a pattern can be 'controller/function.extension'\nresponse.generic_patterns = ['*'] if request.is_local else []\n## (optional) optimize handling of static files\n# response.optimize_css = 'concat,minify,inline'\n# response.optimize_js = 'concat,minify,inline'\n\n#########################################################################\n## Here is sample code if you need for\n## - email capabilities\n## - authentication (registration, login, logout, ... )\n## - authorization (role based authorization)\n## - services (xml, csv, json, xmlrpc, jsonrpc, amf, rss)\n## - old style crud actions\n## (more options discussed in gluon/tools.py)\n#########################################################################\n\nfrom gluon.tools import Auth, Crud, Service, PluginManager, prettydate\nauth = Auth(db, hmac_key=Auth.get_or_create_key())\ncrud, service, plugins = Crud(db), Service(), PluginManager()\n\n## create all tables needed by auth if not custom tables\nauth.define_tables()\n\n## configure email\nmail=auth.settings.mailer\nmail.settings.server = 'logging' or 'smtp.gmail.com:587'\nmail.settings.sender = 'you@gmail.com'\nmail.settings.login = 'username:password'\n\n## configure auth policy\nauth.settings.registration_requires_verification = False\nauth.settings.registration_requires_approval = False\nauth.settings.reset_password_requires_verification = True\n\n## if you need to use OpenID, Facebook, MySpace, Twitter, Linkedin, etc.\n## register with janrain.com, write your domain:api_key in private/janrain.key\nfrom gluon.contrib.login_methods.rpx_account import use_janrain\nuse_janrain(auth,filename='private/janrain.key')\n\n#########################################################################\n## Define your tables below (or better in another model file) for example\n##\n## >>> db.define_table('mytable',Field('myfield','string'))\n##\n## Fields can be 'string','text','password','integer','double','boolean'\n##       'date','time','datetime','blob','upload', 'reference TABLENAME'\n## There is an implicit 'id integer autoincrement' field\n## Consult manual for more options, validators, etc.\n##\n## More API examples for controllers:\n##\n## >>> db.mytable.insert(myfield='value')\n## >>> rows=db(db.mytable.myfield=='value').select(db.mytable.ALL)\n## >>> for row in rows: print row.id, row.myfield\n#########################################################################\ndb.define_table('Employee',\nField('Name'),\nField('Emp_ID',unique=True))\n"
p7
sS'snapshot'
p8
(dp9
S'exception'
p10
(dp11
S'__module__'
p12
S"'sqlite3'"
p13
sS'__getslice__'
p14
S"<method-wrapper '__getslice__' of OperationalError object>"
p15
sS'__str__'
p16
S"<method-wrapper '__str__' of OperationalError object>"
p17
sS'__reduce__'
p18
S'<built-in method __reduce__ of OperationalError object>'
p19
sS'__dict__'
p20
S'{}'
p21
sS'__sizeof__'
p22
S'<built-in method __sizeof__ of OperationalError object>'
p23
sS'__weakref__'
p24
S'None'
p25
sS'__init__'
p26
S"<method-wrapper '__init__' of OperationalError object>"
p27
sS'__setattr__'
p28
S"<method-wrapper '__setattr__' of OperationalError object>"
p29
sS'__reduce_ex__'
p30
S'<built-in method __reduce_ex__ of OperationalError object>'
p31
sS'__new__'
p32
S'<built-in method __new__ of type object>'
p33
sS'__format__'
p34
S'<built-in method __format__ of OperationalError object>'
p35
sS'__class__'
p36
S"<class 'sqlite3.OperationalError'>"
p37
sS'__doc__'
p38
S'None'
p39
sS'__getitem__'
p40
S"<method-wrapper '__getitem__' of OperationalError object>"
p41
sS'__setstate__'
p42
S'<built-in method __setstate__ of OperationalError object>'
p43
sS'__getattribute__'
p44
S"<method-wrapper '__getattribute__' of OperationalError object>"
p45
sS'args'
p46
S"('Cannot add a UNIQUE column',)"
p47
sS'__subclasshook__'
p48
S'<built-in method __subclasshook__ of type object>'
p49
sS'__unicode__'
p50
S'<built-in method __unicode__ of OperationalError object>'
p51
sS'__delattr__'
p52
S"<method-wrapper '__delattr__' of OperationalError object>"
p53
sS'__repr__'
p54
S"<method-wrapper '__repr__' of OperationalError object>"
p55
sS'__hash__'
p56
S"<method-wrapper '__hash__' of OperationalError object>"
p57
ssS'evalue'
p58
S'Cannot add a UNIQUE column'
p59
sS'request'
p60
ccopy_reg
_reconstructor
p61
(cgluon.html
BEAUTIFY
p62
c__builtin__
object
p63
NtRp64
(dp65
S'attributes'
p66
(dp67
sS'components'
p68
(lp69
g61
(cgluon.html
TABLE
p70
g63
NtRp71
(dp72
g66
(dp73
S'level'
p74
I5
ssS'parent'
p75
Nsg68
(lp76
g61
(cgluon.html
TR
p77
g63
NtRp78
(dp79
g66
(dp80
sg75
g71
sg68
(lp81
g61
(cgluon.html
TD
p82
g63
NtRp83
(dp84
g66
(dp85
S'_style'
p86
S'font-weight:bold;vertical-align:top'
p87
ssg75
g78
sg68
(lp88
S'ajax'
p89
asbag61
(g82
g63
NtRp90
(dp91
g66
(dp92
S'_valign'
p93
S'top'
p94
ssg75
g78
sg68
(lp95
S':'
asbag61
(g82
g63
NtRp96
(dp97
g66
(dp98
sg75
g78
sg68
(lp99
g61
(g62
g63
NtRp100
(dp101
g66
(dp102
g74
I5
ssg75
g96
sg68
(lp103
S'False'
p104
asbasbasbag61
(g77
g63
NtRp105
(dp106
g66
(dp107
sg75
g71
sg68
(lp108
g61
(g82
g63
NtRp109
(dp110
g66
(dp111
g86
g87
ssg75
g105
sg68
(lp112
S'application'
p113
asbag61
(g82
g63
NtRp114
(dp115
g66
(dp116
g93
g94
ssg75
g105
sg68
(lp117
S':'
asbag61
(g82
g63
NtRp118
(dp119
g66
(dp120
sg75
g105
sg68
(lp121
g61
(g62
g63
NtRp122
(dp123
g66
(dp124
g74
I5
ssg75
g118
sg68
(lp125
S'project'
p126
asbasbasbag61
(g77
g63
NtRp127
(dp128
g66
(dp129
sg75
g71
sg68
(lp130
g61
(g82
g63
NtRp131
(dp132
g66
(dp133
g86
g87
ssg75
g127
sg68
(lp134
g46
asbag61
(g82
g63
NtRp135
(dp136
g66
(dp137
g93
g94
ssg75
g127
sg68
(lp138
S':'
asbag61
(g82
g63
NtRp139
(dp140
g66
(dp141
sg75
g127
sg68
(lp142
g61
(g62
g63
NtRp143
(dp144
g66
(dp145
g74
I5
ssg75
g139
sg68
(lp146
g61
(g70
g63
NtRp147
(dp148
g66
(dp149
g74
I4
ssg75
Nsg68
(lp150
sbasbasbasbag61
(g77
g63
NtRp151
(dp152
g66
(dp153
sg75
g71
sg68
(lp154
g61
(g82
g63
NtRp155
(dp156
g66
(dp157
g86
g87
ssg75
g151
sg68
(lp158
S'body'
p159
asbag61
(g82
g63
NtRp160
(dp161
g66
(dp162
g93
g94
ssg75
g151
sg68
(lp163
S':'
asbag61
(g82
g63
NtRp164
(dp165
g66
(dp166
sg75
g151
sg68
(lp167
g61
(g62
g63
NtRp168
(dp169
g66
(dp170
g74
I5
ssg75
g164
sg68
(lp171
S'<cStringIO.StringO object at 0x9ea0980>'
p172
asbasbasbag61
(g77
g63
NtRp173
(dp174
g66
(dp175
sg75
g71
sg68
(lp176
g61
(g82
g63
NtRp177
(dp178
g66
(dp179
g86
g87
ssg75
g173
sg68
(lp180
S'client'
p181
asbag61
(g82
g63
NtRp182
(dp183
g66
(dp184
g93
g94
ssg75
g173
sg68
(lp185
S':'
asbag61
(g82
g63
NtRp186
(dp187
g66
(dp188
sg75
g173
sg68
(lp189
g61
(g62
g63
NtRp190
(dp191
g66
(dp192
g74
I5
ssg75
g186
sg68
(lp193
S'127.0.0.1'
p194
asbasbasbag61
(g77
g63
NtRp195
(dp196
g66
(dp197
sg75
g71
sg68
(lp198
g61
(g82
g63
NtRp199
(dp200
g66
(dp201
g86
g87
ssg75
g195
sg68
(lp202
S'controller'
p203
asbag61
(g82
g63
NtRp204
(dp205
g66
(dp206
g93
g94
ssg75
g195
sg68
(lp207
S':'
asbag61
(g82
g63
NtRp208
(dp209
g66
(dp210
sg75
g195
sg68
(lp211
g61
(g62
g63
NtRp212
(dp213
g66
(dp214
g74
I5
ssg75
g208
sg68
(lp215
S'default'
p216
asbasbasbag61
(g77
g63
NtRp217
(dp218
g66
(dp219
sg75
g71
sg68
(lp220
g61
(g82
g63
NtRp221
(dp222
g66
(dp223
g86
g87
ssg75
g217
sg68
(lp224
S'cookies'
p225
asbag61
(g82
g63
NtRp226
(dp227
g66
(dp228
g93
g94
ssg75
g217
sg68
(lp229
S':'
asbag61
(g82
g63
NtRp230
(dp231
g66
(dp232
sg75
g217
sg68
(lp233
g61
(g62
g63
NtRp234
(dp235
g66
(dp236
g74
I5
ssg75
g230
sg68
(lp237
g61
(g70
g63
NtRp238
(dp239
g66
(dp240
g74
I4
ssg75
Nsg68
(lp241
g61
(g77
g63
NtRp242
(dp243
g66
(dp244
sg75
g238
sg68
(lp245
g61
(g82
g63
NtRp246
(dp247
g66
(dp248
g86
g87
ssg75
g242
sg68
(lp249
S'session_id_admin'
p250
asbag61
(g82
g63
NtRp251
(dp252
g66
(dp253
g93
g94
ssg75
g242
sg68
(lp254
S':'
asbag61
(g82
g63
NtRp255
(dp256
g66
(dp257
sg75
g242
sg68
(lp258
g61
(g62
g63
NtRp259
(dp260
g66
(dp261
g74
I4
ssg75
g255
sg68
(lp262
g61
(g70
g63
NtRp263
(dp264
g66
(dp265
g74
I3
ssg75
Nsg68
(lp266
g61
(g77
g63
NtRp267
(dp268
g66
(dp269
sg75
g263
sg68
(lp270
g61
(g82
g63
NtRp271
(dp272
g66
(dp273
g86
g87
ssg75
g267
sg68
(lp274
S'comment'
p275
asbag61
(g82
g63
NtRp276
(dp277
g66
(dp278
g93
g94
ssg75
g267
sg68
(lp279
S':'
asbag61
(g82
g63
NtRp280
(dp281
g66
(dp282
sg75
g267
sg68
(lp283
g61
(g62
g63
NtRp284
(dp285
g66
(dp286
g74
I3
ssg75
g280
sg68
(lp287
S''
asbasbasbag61
(g77
g63
NtRp288
(dp289
g66
(dp290
sg75
g263
sg68
(lp291
g61
(g82
g63
NtRp292
(dp293
g66
(dp294
g86
g87
ssg75
g288
sg68
(lp295
S'domain'
p296
asbag61
(g82
g63
NtRp297
(dp298
g66
(dp299
g93
g94
ssg75
g288
sg68
(lp300
S':'
asbag61
(g82
g63
NtRp301
(dp302
g66
(dp303
sg75
g288
sg68
(lp304
g61
(g62
g63
NtRp305
(dp306
g66
(dp307
g74
I3
ssg75
g301
sg68
(lp308
S''
asbasbasbag61
(g77
g63
NtRp309
(dp310
g66
(dp311
sg75
g263
sg68
(lp312
g61
(g82
g63
NtRp313
(dp314
g66
(dp315
g86
g87
ssg75
g309
sg68
(lp316
S'expires'
p317
asbag61
(g82
g63
NtRp318
(dp319
g66
(dp320
g93
g94
ssg75
g309
sg68
(lp321
S':'
asbag61
(g82
g63
NtRp322
(dp323
g66
(dp324
sg75
g309
sg68
(lp325
g61
(g62
g63
NtRp326
(dp327
g66
(dp328
g74
I3
ssg75
g322
sg68
(lp329
S''
asbasbasbag61
(g77
g63
NtRp330
(dp331
g66
(dp332
sg75
g263
sg68
(lp333
g61
(g82
g63
NtRp334
(dp335
g66
(dp336
g86
g87
ssg75
g330
sg68
(lp337
S'httponly'
p338
asbag61
(g82
g63
NtRp339
(dp340
g66
(dp341
g93
g94
ssg75
g330
sg68
(lp342
S':'
asbag61
(g82
g63
NtRp343
(dp344
g66
(dp345
sg75
g330
sg68
(lp346
g61
(g62
g63
NtRp347
(dp348
g66
(dp349
g74
I3
ssg75
g343
sg68
(lp350
S''
asbasbasbag61
(g77
g63
NtRp351
(dp352
g66
(dp353
sg75
g263
sg68
(lp354
g61
(g82
g63
NtRp355
(dp356
g66
(dp357
g86
g87
ssg75
g351
sg68
(lp358
S'max-age'
p359
asbag61
(g82
g63
NtRp360
(dp361
g66
(dp362
g93
g94
ssg75
g351
sg68
(lp363
S':'
asbag61
(g82
g63
NtRp364
(dp365
g66
(dp366
sg75
g351
sg68
(lp367
g61
(g62
g63
NtRp368
(dp369
g66
(dp370
g74
I3
ssg75
g364
sg68
(lp371
S''
asbasbasbag61
(g77
g63
NtRp372
(dp373
g66
(dp374
sg75
g263
sg68
(lp375
g61
(g82
g63
NtRp376
(dp377
g66
(dp378
g86
g87
ssg75
g372
sg68
(lp379
S'path'
p380
asbag61
(g82
g63
NtRp381
(dp382
g66
(dp383
g93
g94
ssg75
g372
sg68
(lp384
S':'
asbag61
(g82
g63
NtRp385
(dp386
g66
(dp387
sg75
g372
sg68
(lp388
g61
(g62
g63
NtRp389
(dp390
g66
(dp391
g74
I3
ssg75
g385
sg68
(lp392
S''
asbasbasbag61
(g77
g63
NtRp393
(dp394
g66
(dp395
sg75
g263
sg68
(lp396
g61
(g82
g63
NtRp397
(dp398
g66
(dp399
g86
g87
ssg75
g393
sg68
(lp400
S'secure'
p401
asbag61
(g82
g63
NtRp402
(dp403
g66
(dp404
g93
g94
ssg75
g393
sg68
(lp405
S':'
asbag61
(g82
g63
NtRp406
(dp407
g66
(dp408
sg75
g393
sg68
(lp409
g61
(g62
g63
NtRp410
(dp411
g66
(dp412
g74
I3
ssg75
g406
sg68
(lp413
S''
asbasbasbag61
(g77
g63
NtRp414
(dp415
g66
(dp416
sg75
g263
sg68
(lp417
g61
(g82
g63
NtRp418
(dp419
g66
(dp420
g86
g87
ssg75
g414
sg68
(lp421
S'version'
p422
asbag61
(g82
g63
NtRp423
(dp424
g66
(dp425
g93
g94
ssg75
g414
sg68
(lp426
S':'
asbag61
(g82
g63
NtRp427
(dp428
g66
(dp429
sg75
g414
sg68
(lp430
g61
(g62
g63
NtRp431
(dp432
g66
(dp433
g74
I3
ssg75
g427
sg68
(lp434
S''
asbasbasbasbasbasbasbag61
(g77
g63
NtRp435
(dp436
g66
(dp437
sg75
g238
sg68
(lp438
g61
(g82
g63
NtRp439
(dp440
g66
(dp441
g86
g87
ssg75
g435
sg68
(lp442
S'session_id_hierarchy'
p443
asbag61
(g82
g63
NtRp444
(dp445
g66
(dp446
g93
g94
ssg75
g435
sg68
(lp447
S':'
asbag61
(g82
g63
NtRp448
(dp449
g66
(dp450
sg75
g435
sg68
(lp451
g61
(g62
g63
NtRp452
(dp453
g66
(dp454
g74
I4
ssg75
g448
sg68
(lp455
g61
(g70
g63
NtRp456
(dp457
g66
(dp458
g74
I3
ssg75
Nsg68
(lp459
g61
(g77
g63
NtRp460
(dp461
g66
(dp462
sg75
g456
sg68
(lp463
g61
(g82
g63
NtRp464
(dp465
g66
(dp466
g86
g87
ssg75
g460
sg68
(lp467
g275
asbag61
(g82
g63
NtRp468
(dp469
g66
(dp470
g93
g94
ssg75
g460
sg68
(lp471
S':'
asbag61
(g82
g63
NtRp472
(dp473
g66
(dp474
sg75
g460
sg68
(lp475
g61
(g62
g63
NtRp476
(dp477
g66
(dp478
g74
I3
ssg75
g472
sg68
(lp479
S''
asbasbasbag61
(g77
g63
NtRp480
(dp481
g66
(dp482
sg75
g456
sg68
(lp483
g61
(g82
g63
NtRp484
(dp485
g66
(dp486
g86
g87
ssg75
g480
sg68
(lp487
g296
asbag61
(g82
g63
NtRp488
(dp489
g66
(dp490
g93
g94
ssg75
g480
sg68
(lp491
S':'
asbag61
(g82
g63
NtRp492
(dp493
g66
(dp494
sg75
g480
sg68
(lp495
g61
(g62
g63
NtRp496
(dp497
g66
(dp498
g74
I3
ssg75
g492
sg68
(lp499
S''
asbasbasbag61
(g77
g63
NtRp500
(dp501
g66
(dp502
sg75
g456
sg68
(lp503
g61
(g82
g63
NtRp504
(dp505
g66
(dp506
g86
g87
ssg75
g500
sg68
(lp507
g317
asbag61
(g82
g63
NtRp508
(dp509
g66
(dp510
g93
g94
ssg75
g500
sg68
(lp511
S':'
asbag61
(g82
g63
NtRp512
(dp513
g66
(dp514
sg75
g500
sg68
(lp515
g61
(g62
g63
NtRp516
(dp517
g66
(dp518
g74
I3
ssg75
g512
sg68
(lp519
S''
asbasbasbag61
(g77
g63
NtRp520
(dp521
g66
(dp522
sg75
g456
sg68
(lp523
g61
(g82
g63
NtRp524
(dp525
g66
(dp526
g86
g87
ssg75
g520
sg68
(lp527
g338
asbag61
(g82
g63
NtRp528
(dp529
g66
(dp530
g93
g94
ssg75
g520
sg68
(lp531
S':'
asbag61
(g82
g63
NtRp532
(dp533
g66
(dp534
sg75
g520
sg68
(lp535
g61
(g62
g63
NtRp536
(dp537
g66
(dp538
g74
I3
ssg75
g532
sg68
(lp539
S''
asbasbasbag61
(g77
g63
NtRp540
(dp541
g66
(dp542
sg75
g456
sg68
(lp543
g61
(g82
g63
NtRp544
(dp545
g66
(dp546
g86
g87
ssg75
g540
sg68
(lp547
g359
asbag61
(g82
g63
NtRp548
(dp549
g66
(dp550
g93
g94
ssg75
g540
sg68
(lp551
S':'
asbag61
(g82
g63
NtRp552
(dp553
g66
(dp554
sg75
g540
sg68
(lp555
g61
(g62
g63
NtRp556
(dp557
g66
(dp558
g74
I3
ssg75
g552
sg68
(lp559
S''
asbasbasbag61
(g77
g63
NtRp560
(dp561
g66
(dp562
sg75
g456
sg68
(lp563
g61
(g82
g63
NtRp564
(dp565
g66
(dp566
g86
g87
ssg75
g560
sg68
(lp567
g380
asbag61
(g82
g63
NtRp568
(dp569
g66
(dp570
g93
g94
ssg75
g560
sg68
(lp571
S':'
asbag61
(g82
g63
NtRp572
(dp573
g66
(dp574
sg75
g560
sg68
(lp575
g61
(g62
g63
NtRp576
(dp577
g66
(dp578
g74
I3
ssg75
g572
sg68
(lp579
S''
asbasbasbag61
(g77
g63
NtRp580
(dp581
g66
(dp582
sg75
g456
sg68
(lp583
g61
(g82
g63
NtRp584
(dp585
g66
(dp586
g86
g87
ssg75
g580
sg68
(lp587
g401
asbag61
(g82
g63
NtRp588
(dp589
g66
(dp590
g93
g94
ssg75
g580
sg68
(lp591
S':'
asbag61
(g82
g63
NtRp592
(dp593
g66
(dp594
sg75
g580
sg68
(lp595
g61
(g62
g63
NtRp596
(dp597
g66
(dp598
g74
I3
ssg75
g592
sg68
(lp599
S''
asbasbasbag61
(g77
g63
NtRp600
(dp601
g66
(dp602
sg75
g456
sg68
(lp603
g61
(g82
g63
NtRp604
(dp605
g66
(dp606
g86
g87
ssg75
g600
sg68
(lp607
g422
asbag61
(g82
g63
NtRp608
(dp609
g66
(dp610
g93
g94
ssg75
g600
sg68
(lp611
S':'
asbag61
(g82
g63
NtRp612
(dp613
g66
(dp614
sg75
g600
sg68
(lp615
g61
(g62
g63
NtRp616
(dp617
g66
(dp618
g74
I3
ssg75
g612
sg68
(lp619
S''
asbasbasbasbasbasbasbag61
(g77
g63
NtRp620
(dp621
g66
(dp622
sg75
g238
sg68
(lp623
g61
(g82
g63
NtRp624
(dp625
g66
(dp626
g86
g87
ssg75
g620
sg68
(lp627
S'session_id_images'
p628
asbag61
(g82
g63
NtRp629
(dp630
g66
(dp631
g93
g94
ssg75
g620
sg68
(lp632
S':'
asbag61
(g82
g63
NtRp633
(dp634
g66
(dp635
sg75
g620
sg68
(lp636
g61
(g62
g63
NtRp637
(dp638
g66
(dp639
g74
I4
ssg75
g633
sg68
(lp640
g61
(g70
g63
NtRp641
(dp642
g66
(dp643
g74
I3
ssg75
Nsg68
(lp644
g61
(g77
g63
NtRp645
(dp646
g66
(dp647
sg75
g641
sg68
(lp648
g61
(g82
g63
NtRp649
(dp650
g66
(dp651
g86
g87
ssg75
g645
sg68
(lp652
g275
asbag61
(g82
g63
NtRp653
(dp654
g66
(dp655
g93
g94
ssg75
g645
sg68
(lp656
S':'
asbag61
(g82
g63
NtRp657
(dp658
g66
(dp659
sg75
g645
sg68
(lp660
g61
(g62
g63
NtRp661
(dp662
g66
(dp663
g74
I3
ssg75
g657
sg68
(lp664
S''
asbasbasbag61
(g77
g63
NtRp665
(dp666
g66
(dp667
sg75
g641
sg68
(lp668
g61
(g82
g63
NtRp669
(dp670
g66
(dp671
g86
g87
ssg75
g665
sg68
(lp672
g296
asbag61
(g82
g63
NtRp673
(dp674
g66
(dp675
g93
g94
ssg75
g665
sg68
(lp676
S':'
asbag61
(g82
g63
NtRp677
(dp678
g66
(dp679
sg75
g665
sg68
(lp680
g61
(g62
g63
NtRp681
(dp682
g66
(dp683
g74
I3
ssg75
g677
sg68
(lp684
S''
asbasbasbag61
(g77
g63
NtRp685
(dp686
g66
(dp687
sg75
g641
sg68
(lp688
g61
(g82
g63
NtRp689
(dp690
g66
(dp691
g86
g87
ssg75
g685
sg68
(lp692
g317
asbag61
(g82
g63
NtRp693
(dp694
g66
(dp695
g93
g94
ssg75
g685
sg68
(lp696
S':'
asbag61
(g82
g63
NtRp697
(dp698
g66
(dp699
sg75
g685
sg68
(lp700
g61
(g62
g63
NtRp701
(dp702
g66
(dp703
g74
I3
ssg75
g697
sg68
(lp704
S''
asbasbasbag61
(g77
g63
NtRp705
(dp706
g66
(dp707
sg75
g641
sg68
(lp708
g61
(g82
g63
NtRp709
(dp710
g66
(dp711
g86
g87
ssg75
g705
sg68
(lp712
g338
asbag61
(g82
g63
NtRp713
(dp714
g66
(dp715
g93
g94
ssg75
g705
sg68
(lp716
S':'
asbag61
(g82
g63
NtRp717
(dp718
g66
(dp719
sg75
g705
sg68
(lp720
g61
(g62
g63
NtRp721
(dp722
g66
(dp723
g74
I3
ssg75
g717
sg68
(lp724
S''
asbasbasbag61
(g77
g63
NtRp725
(dp726
g66
(dp727
sg75
g641
sg68
(lp728
g61
(g82
g63
NtRp729
(dp730
g66
(dp731
g86
g87
ssg75
g725
sg68
(lp732
g359
asbag61
(g82
g63
NtRp733
(dp734
g66
(dp735
g93
g94
ssg75
g725
sg68
(lp736
S':'
asbag61
(g82
g63
NtRp737
(dp738
g66
(dp739
sg75
g725
sg68
(lp740
g61
(g62
g63
NtRp741
(dp742
g66
(dp743
g74
I3
ssg75
g737
sg68
(lp744
S''
asbasbasbag61
(g77
g63
NtRp745
(dp746
g66
(dp747
sg75
g641
sg68
(lp748
g61
(g82
g63
NtRp749
(dp750
g66
(dp751
g86
g87
ssg75
g745
sg68
(lp752
g380
asbag61
(g82
g63
NtRp753
(dp754
g66
(dp755
g93
g94
ssg75
g745
sg68
(lp756
S':'
asbag61
(g82
g63
NtRp757
(dp758
g66
(dp759
sg75
g745
sg68
(lp760
g61
(g62
g63
NtRp761
(dp762
g66
(dp763
g74
I3
ssg75
g757
sg68
(lp764
S''
asbasbasbag61
(g77
g63
NtRp765
(dp766
g66
(dp767
sg75
g641
sg68
(lp768
g61
(g82
g63
NtRp769
(dp770
g66
(dp771
g86
g87
ssg75
g765
sg68
(lp772
g401
asbag61
(g82
g63
NtRp773
(dp774
g66
(dp775
g93
g94
ssg75
g765
sg68
(lp776
S':'
asbag61
(g82
g63
NtRp777
(dp778
g66
(dp779
sg75
g765
sg68
(lp780
g61
(g62
g63
NtRp781
(dp782
g66
(dp783
g74
I3
ssg75
g777
sg68
(lp784
S''
asbasbasbag61
(g77
g63
NtRp785
(dp786
g66
(dp787
sg75
g641
sg68
(lp788
g61
(g82
g63
NtRp789
(dp790
g66
(dp791
g86
g87
ssg75
g785
sg68
(lp792
g422
asbag61
(g82
g63
NtRp793
(dp794
g66
(dp795
g93
g94
ssg75
g785
sg68
(lp796
S':'
asbag61
(g82
g63
NtRp797
(dp798
g66
(dp799
sg75
g785
sg68
(lp800
g61
(g62
g63
NtRp801
(dp802
g66
(dp803
g74
I3
ssg75
g797
sg68
(lp804
S''
asbasbasbasbasbasbasbag61
(g77
g63
NtRp805
(dp806
g66
(dp807
sg75
g238
sg68
(lp808
g61
(g82
g63
NtRp809
(dp810
g66
(dp811
g86
g87
ssg75
g805
sg68
(lp812
S'session_id_project'
p813
asbag61
(g82
g63
NtRp814
(dp815
g66
(dp816
g93
g94
ssg75
g805
sg68
(lp817
S':'
asbag61
(g82
g63
NtRp818
(dp819
g66
(dp820
sg75
g805
sg68
(lp821
g61
(g62
g63
NtRp822
(dp823
g66
(dp824
g74
I4
ssg75
g818
sg68
(lp825
g61
(g70
g63
NtRp826
(dp827
g66
(dp828
g74
I3
ssg75
Nsg68
(lp829
g61
(g77
g63
NtRp830
(dp831
g66
(dp832
sg75
g826
sg68
(lp833
g61
(g82
g63
NtRp834
(dp835
g66
(dp836
g86
g87
ssg75
g830
sg68
(lp837
g275
asbag61
(g82
g63
NtRp838
(dp839
g66
(dp840
g93
g94
ssg75
g830
sg68
(lp841
S':'
asbag61
(g82
g63
NtRp842
(dp843
g66
(dp844
sg75
g830
sg68
(lp845
g61
(g62
g63
NtRp846
(dp847
g66
(dp848
g74
I3
ssg75
g842
sg68
(lp849
S''
asbasbasbag61
(g77
g63
NtRp850
(dp851
g66
(dp852
sg75
g826
sg68
(lp853
g61
(g82
g63
NtRp854
(dp855
g66
(dp856
g86
g87
ssg75
g850
sg68
(lp857
g296
asbag61
(g82
g63
NtRp858
(dp859
g66
(dp860
g93
g94
ssg75
g850
sg68
(lp861
S':'
asbag61
(g82
g63
NtRp862
(dp863
g66
(dp864
sg75
g850
sg68
(lp865
g61
(g62
g63
NtRp866
(dp867
g66
(dp868
g74
I3
ssg75
g862
sg68
(lp869
S''
asbasbasbag61
(g77
g63
NtRp870
(dp871
g66
(dp872
sg75
g826
sg68
(lp873
g61
(g82
g63
NtRp874
(dp875
g66
(dp876
g86
g87
ssg75
g870
sg68
(lp877
g317
asbag61
(g82
g63
NtRp878
(dp879
g66
(dp880
g93
g94
ssg75
g870
sg68
(lp881
S':'
asbag61
(g82
g63
NtRp882
(dp883
g66
(dp884
sg75
g870
sg68
(lp885
g61
(g62
g63
NtRp886
(dp887
g66
(dp888
g74
I3
ssg75
g882
sg68
(lp889
S''
asbasbasbag61
(g77
g63
NtRp890
(dp891
g66
(dp892
sg75
g826
sg68
(lp893
g61
(g82
g63
NtRp894
(dp895
g66
(dp896
g86
g87
ssg75
g890
sg68
(lp897
g338
asbag61
(g82
g63
NtRp898
(dp899
g66
(dp900
g93
g94
ssg75
g890
sg68
(lp901
S':'
asbag61
(g82
g63
NtRp902
(dp903
g66
(dp904
sg75
g890
sg68
(lp905
g61
(g62
g63
NtRp906
(dp907
g66
(dp908
g74
I3
ssg75
g902
sg68
(lp909
S''
asbasbasbag61
(g77
g63
NtRp910
(dp911
g66
(dp912
sg75
g826
sg68
(lp913
g61
(g82
g63
NtRp914
(dp915
g66
(dp916
g86
g87
ssg75
g910
sg68
(lp917
g359
asbag61
(g82
g63
NtRp918
(dp919
g66
(dp920
g93
g94
ssg75
g910
sg68
(lp921
S':'
asbag61
(g82
g63
NtRp922
(dp923
g66
(dp924
sg75
g910
sg68
(lp925
g61
(g62
g63
NtRp926
(dp927
g66
(dp928
g74
I3
ssg75
g922
sg68
(lp929
S''
asbasbasbag61
(g77
g63
NtRp930
(dp931
g66
(dp932
sg75
g826
sg68
(lp933
g61
(g82
g63
NtRp934
(dp935
g66
(dp936
g86
g87
ssg75
g930
sg68
(lp937
g380
asbag61
(g82
g63
NtRp938
(dp939
g66
(dp940
g93
g94
ssg75
g930
sg68
(lp941
S':'
asbag61
(g82
g63
NtRp942
(dp943
g66
(dp944
sg75
g930
sg68
(lp945
g61
(g62
g63
NtRp946
(dp947
g66
(dp948
g74
I3
ssg75
g942
sg68
(lp949
S''
asbasbasbag61
(g77
g63
NtRp950
(dp951
g66
(dp952
sg75
g826
sg68
(lp953
g61
(g82
g63
NtRp954
(dp955
g66
(dp956
g86
g87
ssg75
g950
sg68
(lp957
g401
asbag61
(g82
g63
NtRp958
(dp959
g66
(dp960
g93
g94
ssg75
g950
sg68
(lp961
S':'
asbag61
(g82
g63
NtRp962
(dp963
g66
(dp964
sg75
g950
sg68
(lp965
g61
(g62
g63
NtRp966
(dp967
g66
(dp968
g74
I3
ssg75
g962
sg68
(lp969
S''
asbasbasbag61
(g77
g63
NtRp970
(dp971
g66
(dp972
sg75
g826
sg68
(lp973
g61
(g82
g63
NtRp974
(dp975
g66
(dp976
g86
g87
ssg75
g970
sg68
(lp977
g422
asbag61
(g82
g63
NtRp978
(dp979
g66
(dp980
g93
g94
ssg75
g970
sg68
(lp981
S':'
asbag61
(g82
g63
NtRp982
(dp983
g66
(dp984
sg75
g970
sg68
(lp985
g61
(g62
g63
NtRp986
(dp987
g66
(dp988
g74
I3
ssg75
g982
sg68
(lp989
S''
asbasbasbasbasbasbasbag61
(g77
g63
NtRp990
(dp991
g66
(dp992
sg75
g238
sg68
(lp993
g61
(g82
g63
NtRp994
(dp995
g66
(dp996
g86
g87
ssg75
g990
sg68
(lp997
S'session_id_welcome'
p998
asbag61
(g82
g63
NtRp999
(dp1000
g66
(dp1001
g93
g94
ssg75
g990
sg68
(lp1002
S':'
asbag61
(g82
g63
NtRp1003
(dp1004
g66
(dp1005
sg75
g990
sg68
(lp1006
g61
(g62
g63
NtRp1007
(dp1008
g66
(dp1009
g74
I4
ssg75
g1003
sg68
(lp1010
g61
(g70
g63
NtRp1011
(dp1012
g66
(dp1013
g74
I3
ssg75
Nsg68
(lp1014
g61
(g77
g63
NtRp1015
(dp1016
g66
(dp1017
sg75
g1011
sg68
(lp1018
g61
(g82
g63
NtRp1019
(dp1020
g66
(dp1021
g86
g87
ssg75
g1015
sg68
(lp1022
g275
asbag61
(g82
g63
NtRp1023
(dp1024
g66
(dp1025
g93
g94
ssg75
g1015
sg68
(lp1026
S':'
asbag61
(g82
g63
NtRp1027
(dp1028
g66
(dp1029
sg75
g1015
sg68
(lp1030
g61
(g62
g63
NtRp1031
(dp1032
g66
(dp1033
g74
I3
ssg75
g1027
sg68
(lp1034
S''
asbasbasbag61
(g77
g63
NtRp1035
(dp1036
g66
(dp1037
sg75
g1011
sg68
(lp1038
g61
(g82
g63
NtRp1039
(dp1040
g66
(dp1041
g86
g87
ssg75
g1035
sg68
(lp1042
g296
asbag61
(g82
g63
NtRp1043
(dp1044
g66
(dp1045
g93
g94
ssg75
g1035
sg68
(lp1046
S':'
asbag61
(g82
g63
NtRp1047
(dp1048
g66
(dp1049
sg75
g1035
sg68
(lp1050
g61
(g62
g63
NtRp1051
(dp1052
g66
(dp1053
g74
I3
ssg75
g1047
sg68
(lp1054
S''
asbasbasbag61
(g77
g63
NtRp1055
(dp1056
g66
(dp1057
sg75
g1011
sg68
(lp1058
g61
(g82
g63
NtRp1059
(dp1060
g66
(dp1061
g86
g87
ssg75
g1055
sg68
(lp1062
g317
asbag61
(g82
g63
NtRp1063
(dp1064
g66
(dp1065
g93
g94
ssg75
g1055
sg68
(lp1066
S':'
asbag61
(g82
g63
NtRp1067
(dp1068
g66
(dp1069
sg75
g1055
sg68
(lp1070
g61
(g62
g63
NtRp1071
(dp1072
g66
(dp1073
g74
I3
ssg75
g1067
sg68
(lp1074
S''
asbasbasbag61
(g77
g63
NtRp1075
(dp1076
g66
(dp1077
sg75
g1011
sg68
(lp1078
g61
(g82
g63
NtRp1079
(dp1080
g66
(dp1081
g86
g87
ssg75
g1075
sg68
(lp1082
g338
asbag61
(g82
g63
NtRp1083
(dp1084
g66
(dp1085
g93
g94
ssg75
g1075
sg68
(lp1086
S':'
asbag61
(g82
g63
NtRp1087
(dp1088
g66
(dp1089
sg75
g1075
sg68
(lp1090
g61
(g62
g63
NtRp1091
(dp1092
g66
(dp1093
g74
I3
ssg75
g1087
sg68
(lp1094
S''
asbasbasbag61
(g77
g63
NtRp1095
(dp1096
g66
(dp1097
sg75
g1011
sg68
(lp1098
g61
(g82
g63
NtRp1099
(dp1100
g66
(dp1101
g86
g87
ssg75
g1095
sg68
(lp1102
g359
asbag61
(g82
g63
NtRp1103
(dp1104
g66
(dp1105
g93
g94
ssg75
g1095
sg68
(lp1106
S':'
asbag61
(g82
g63
NtRp1107
(dp1108
g66
(dp1109
sg75
g1095
sg68
(lp1110
g61
(g62
g63
NtRp1111
(dp1112
g66
(dp1113
g74
I3
ssg75
g1107
sg68
(lp1114
S''
asbasbasbag61
(g77
g63
NtRp1115
(dp1116
g66
(dp1117
sg75
g1011
sg68
(lp1118
g61
(g82
g63
NtRp1119
(dp1120
g66
(dp1121
g86
g87
ssg75
g1115
sg68
(lp1122
g380
asbag61
(g82
g63
NtRp1123
(dp1124
g66
(dp1125
g93
g94
ssg75
g1115
sg68
(lp1126
S':'
asbag61
(g82
g63
NtRp1127
(dp1128
g66
(dp1129
sg75
g1115
sg68
(lp1130
g61
(g62
g63
NtRp1131
(dp1132
g66
(dp1133
g74
I3
ssg75
g1127
sg68
(lp1134
S''
asbasbasbag61
(g77
g63
NtRp1135
(dp1136
g66
(dp1137
sg75
g1011
sg68
(lp1138
g61
(g82
g63
NtRp1139
(dp1140
g66
(dp1141
g86
g87
ssg75
g1135
sg68
(lp1142
g401
asbag61
(g82
g63
NtRp1143
(dp1144
g66
(dp1145
g93
g94
ssg75
g1135
sg68
(lp1146
S':'
asbag61
(g82
g63
NtRp1147
(dp1148
g66
(dp1149
sg75
g1135
sg68
(lp1150
g61
(g62
g63
NtRp1151
(dp1152
g66
(dp1153
g74
I3
ssg75
g1147
sg68
(lp1154
S''
asbasbasbag61
(g77
g63
NtRp1155
(dp1156
g66
(dp1157
sg75
g1011
sg68
(lp1158
g61
(g82
g63
NtRp1159
(dp1160
g66
(dp1161
g86
g87
ssg75
g1155
sg68
(lp1162
g422
asbag61
(g82
g63
NtRp1163
(dp1164
g66
(dp1165
g93
g94
ssg75
g1155
sg68
(lp1166
S':'
asbag61
(g82
g63
NtRp1167
(dp1168
g66
(dp1169
sg75
g1155
sg68
(lp1170
g61
(g62
g63
NtRp1171
(dp1172
g66
(dp1173
g74
I3
ssg75
g1167
sg68
(lp1174
S''
asbasbasbasbasbasbasbasbasbasbasbag61
(g77
g63
NtRp1175
(dp1176
g66
(dp1177
sg75
g71
sg68
(lp1178
g61
(g82
g63
NtRp1179
(dp1180
g66
(dp1181
g86
g87
ssg75
g1175
sg68
(lp1182
S'env'
p1183
asbag61
(g82
g63
NtRp1184
(dp1185
g66
(dp1186
g93
g94
ssg75
g1175
sg68
(lp1187
S':'
asbag61
(g82
g63
NtRp1188
(dp1189
g66
(dp1190
sg75
g1175
sg68
(lp1191
g61
(g62
g63
NtRp1192
(dp1193
g66
(dp1194
g74
I5
ssg75
g1188
sg68
(lp1195
g61
(g70
g63
NtRp1196
(dp1197
g66
(dp1198
g74
I4
ssg75
Nsg68
(lp1199
g61
(g77
g63
NtRp1200
(dp1201
g66
(dp1202
sg75
g1196
sg68
(lp1203
g61
(g82
g63
NtRp1204
(dp1205
g66
(dp1206
g86
g87
ssg75
g1200
sg68
(lp1207
S'app_folders'
p1208
asbag61
(g82
g63
NtRp1209
(dp1210
g66
(dp1211
g93
g94
ssg75
g1200
sg68
(lp1212
S':'
asbag61
(g82
g63
NtRp1213
(dp1214
g66
(dp1215
sg75
g1200
sg68
(lp1216
g61
(g62
g63
NtRp1217
(dp1218
g66
(dp1219
g74
I4
ssg75
g1213
sg68
(lp1220
S"set(['/home/arpita/courses/sem3/ssad/web2py/applications/examples/', '/home/arpita/courses/sem3/ssad/web2py/applications/welcome/', '/home/arpita/courses/sem3/ssad/web2py/applications/hierarchy/', '/home/arpita/courses/sem3/ssad/web2py/applications/Images/', '/home/arpita/courses/sem3/ssad/web2py/applications/admin/', '/home/arpita/courses/sem3/ssad/web2py/applications/project/'])"
p1221
asbasbasbag61
(g77
g63
NtRp1222
(dp1223
g66
(dp1224
sg75
g1196
sg68
(lp1225
g61
(g82
g63
NtRp1226
(dp1227
g66
(dp1228
g86
g87
ssg75
g1222
sg68
(lp1229
S'applications_parent'
p1230
asbag61
(g82
g63
NtRp1231
(dp1232
g66
(dp1233
g93
g94
ssg75
g1222
sg68
(lp1234
S':'
asbag61
(g82
g63
NtRp1235
(dp1236
g66
(dp1237
sg75
g1222
sg68
(lp1238
g61
(g62
g63
NtRp1239
(dp1240
g66
(dp1241
g74
I4
ssg75
g1235
sg68
(lp1242
S'/home/arpita/courses/sem3/ssad/web2py'
p1243
asbasbasbag61
(g77
g63
NtRp1244
(dp1245
g66
(dp1246
sg75
g1196
sg68
(lp1247
g61
(g82
g63
NtRp1248
(dp1249
g66
(dp1250
g86
g87
ssg75
g1244
sg68
(lp1251
S'cmd_args'
p1252
asbag61
(g82
g63
NtRp1253
(dp1254
g66
(dp1255
g93
g94
ssg75
g1244
sg68
(lp1256
S':'
asbag61
(g82
g63
NtRp1257
(dp1258
g66
(dp1259
sg75
g1244
sg68
(lp1260
g61
(g62
g63
NtRp1261
(dp1262
g66
(dp1263
g74
I4
ssg75
g1257
sg68
(lp1264
g61
(g70
g63
NtRp1265
(dp1266
g66
(dp1267
g74
I3
ssg75
Nsg68
(lp1268
sbasbasbasbag61
(g77
g63
NtRp1269
(dp1270
g66
(dp1271
sg75
g1196
sg68
(lp1272
g61
(g82
g63
NtRp1273
(dp1274
g66
(dp1275
g86
g87
ssg75
g1269
sg68
(lp1276
S'cmd_options'
p1277
asbag61
(g82
g63
NtRp1278
(dp1279
g66
(dp1280
g93
g94
ssg75
g1269
sg68
(lp1281
S':'
asbag61
(g82
g63
NtRp1282
(dp1283
g66
(dp1284
sg75
g1269
sg68
(lp1285
g61
(g62
g63
NtRp1286
(dp1287
g66
(dp1288
g74
I4
ssg75
g1282
sg68
(lp1289
S"<Values at 0x95f73cc: {'verbose': False, 'ip': '127.0.0.1', 'shutdown_timeout': 5, 'taskbar': False, 'nocron': False, 'pid_filename': 'httpserver.pid', 'maxthreads': None, 'softcron': False, 'server_name': 'arpita-HP-630-Notebook-PC', 'bpython': False, 'nogui': False, 'port': 8000, 'extcron': False, 'debuglevel': 30, 'test': None, 'folder': '/home/arpita/courses/sem3/ssad/web2py', 'config': '', 'import_models': False, 'winservice': '', 'shell': None, 'run': '', 'log_filename': 'httpserver.log', 'args': [''], 'socket_timeout': 5, 'ssl_ca_certificate': None, 'scheduler': None, 'profiler_filename': None, 'ssl_private_key': '', 'password': 'arpita', 'request_queue_size': 5, 'ssl_certificate': '', 'cronjob': False, 'numthreads': None, 'quiet': False, 'interfaces': None, 'minthreads': None, 'timeout': 10, 'plain': False, 'nobanner': False}>"
p1290
asbasbasbag61
(g77
g63
NtRp1291
(dp1292
g66
(dp1293
sg75
g1196
sg68
(lp1294
g61
(g82
g63
NtRp1295
(dp1296
g66
(dp1297
g86
g87
ssg75
g1291
sg68
(lp1298
S'db_sessions'
p1299
asbag61
(g82
g63
NtRp1300
(dp1301
g66
(dp1302
g93
g94
ssg75
g1291
sg68
(lp1303
S':'
asbag61
(g82
g63
NtRp1304
(dp1305
g66
(dp1306
sg75
g1291
sg68
(lp1307
g61
(g62
g63
NtRp1308
(dp1309
g66
(dp1310
g74
I4
ssg75
g1304
sg68
(lp1311
S'set([])'
p1312
asbasbasbag61
(g77
g63
NtRp1313
(dp1314
g66
(dp1315
sg75
g1196
sg68
(lp1316
g61
(g82
g63
NtRp1317
(dp1318
g66
(dp1319
g86
g87
ssg75
g1313
sg68
(lp1320
S'debugging'
p1321
asbag61
(g82
g63
NtRp1322
(dp1323
g66
(dp1324
g93
g94
ssg75
g1313
sg68
(lp1325
S':'
asbag61
(g82
g63
NtRp1326
(dp1327
g66
(dp1328
sg75
g1313
sg68
(lp1329
g61
(g62
g63
NtRp1330
(dp1331
g66
(dp1332
g74
I4
ssg75
g1326
sg68
(lp1333
g104
asbasbasbag61
(g77
g63
NtRp1334
(dp1335
g66
(dp1336
sg75
g1196
sg68
(lp1337
g61
(g82
g63
NtRp1338
(dp1339
g66
(dp1340
g86
g87
ssg75
g1334
sg68
(lp1341
S'gluon_parent'
p1342
asbag61
(g82
g63
NtRp1343
(dp1344
g66
(dp1345
g93
g94
ssg75
g1334
sg68
(lp1346
S':'
asbag61
(g82
g63
NtRp1347
(dp1348
g66
(dp1349
sg75
g1334
sg68
(lp1350
g61
(g62
g63
NtRp1351
(dp1352
g66
(dp1353
g74
I4
ssg75
g1347
sg68
(lp1354
S'/home/arpita/courses/sem3/ssad/web2py'
p1355
asbasbasbag61
(g77
g63
NtRp1356
(dp1357
g66
(dp1358
sg75
g1196
sg68
(lp1359
g61
(g82
g63
NtRp1360
(dp1361
g66
(dp1362
g86
g87
ssg75
g1356
sg68
(lp1363
S'http_accept'
p1364
asbag61
(g82
g63
NtRp1365
(dp1366
g66
(dp1367
g93
g94
ssg75
g1356
sg68
(lp1368
S':'
asbag61
(g82
g63
NtRp1369
(dp1370
g66
(dp1371
sg75
g1356
sg68
(lp1372
g61
(g62
g63
NtRp1373
(dp1374
g66
(dp1375
g74
I4
ssg75
g1369
sg68
(lp1376
S'text/html,application/xhtml+xml,application/xml;q=0.9,*/*;q=0.8'
p1377
asbasbasbag61
(g77
g63
NtRp1378
(dp1379
g66
(dp1380
sg75
g1196
sg68
(lp1381
g61
(g82
g63
NtRp1382
(dp1383
g66
(dp1384
g86
g87
ssg75
g1378
sg68
(lp1385
S'http_accept_charset'
p1386
asbag61
(g82
g63
NtRp1387
(dp1388
g66
(dp1389
g93
g94
ssg75
g1378
sg68
(lp1390
S':'
asbag61
(g82
g63
NtRp1391
(dp1392
g66
(dp1393
sg75
g1378
sg68
(lp1394
g61
(g62
g63
NtRp1395
(dp1396
g66
(dp1397
g74
I4
ssg75
g1391
sg68
(lp1398
S'ISO-8859-1,utf-8;q=0.7,*;q=0.7'
p1399
asbasbasbag61
(g77
g63
NtRp1400
(dp1401
g66
(dp1402
sg75
g1196
sg68
(lp1403
g61
(g82
g63
NtRp1404
(dp1405
g66
(dp1406
g86
g87
ssg75
g1400
sg68
(lp1407
S'http_accept_encoding'
p1408
asbag61
(g82
g63
NtRp1409
(dp1410
g66
(dp1411
g93
g94
ssg75
g1400
sg68
(lp1412
S':'
asbag61
(g82
g63
NtRp1413
(dp1414
g66
(dp1415
sg75
g1400
sg68
(lp1416
g61
(g62
g63
NtRp1417
(dp1418
g66
(dp1419
g74
I4
ssg75
g1413
sg68
(lp1420
S'gzip, deflate'
p1421
asbasbasbag61
(g77
g63
NtRp1422
(dp1423
g66
(dp1424
sg75
g1196
sg68
(lp1425
g61
(g82
g63
NtRp1426
(dp1427
g66
(dp1428
g86
g87
ssg75
g1422
sg68
(lp1429
S'http_accept_language'
p1430
asbag61
(g82
g63
NtRp1431
(dp1432
g66
(dp1433
g93
g94
ssg75
g1422
sg68
(lp1434
S':'
asbag61
(g82
g63
NtRp1435
(dp1436
g66
(dp1437
sg75
g1422
sg68
(lp1438
g61
(g62
g63
NtRp1439
(dp1440
g66
(dp1441
g74
I4
ssg75
g1435
sg68
(lp1442
S'en-us,en;q=0.5'
p1443
asbasbasbag61
(g77
g63
NtRp1444
(dp1445
g66
(dp1446
sg75
g1196
sg68
(lp1447
g61
(g82
g63
NtRp1448
(dp1449
g66
(dp1450
g86
g87
ssg75
g1444
sg68
(lp1451
S'http_connection'
p1452
asbag61
(g82
g63
NtRp1453
(dp1454
g66
(dp1455
g93
g94
ssg75
g1444
sg68
(lp1456
S':'
asbag61
(g82
g63
NtRp1457
(dp1458
g66
(dp1459
sg75
g1444
sg68
(lp1460
g61
(g62
g63
NtRp1461
(dp1462
g66
(dp1463
g74
I4
ssg75
g1457
sg68
(lp1464
S'keep-alive'
p1465
asbasbasbag61
(g77
g63
NtRp1466
(dp1467
g66
(dp1468
sg75
g1196
sg68
(lp1469
g61
(g82
g63
NtRp1470
(dp1471
g66
(dp1472
g86
g87
ssg75
g1466
sg68
(lp1473
S'http_cookie'
p1474
asbag61
(g82
g63
NtRp1475
(dp1476
g66
(dp1477
g93
g94
ssg75
g1466
sg68
(lp1478
S':'
asbag61
(g82
g63
NtRp1479
(dp1480
g66
(dp1481
sg75
g1466
sg68
(lp1482
g61
(g62
g63
NtRp1483
(dp1484
g66
(dp1485
g74
I4
ssg75
g1479
sg68
(lp1486
S'session_id_welcome=127.0.0.1-426d06be-8e28-4795-b1aa-4f62538e6b91; session_id_admin=127.0.0.1-d0fa27c3-33fb-4d62-b465-b57698848fa8; session_id_hierarchy=127.0.0.1-10df1d62-8e94-4459-9103-c3a65988848a; session_id_images=127.0.0.1-87437d8b-9395-4e77-ae7d-de543fa4d802; session_id_project=127.0.0.1-685fbf0f-7e19-4757-b51e-738a125b352f'
p1487
asbasbasbag61
(g77
g63
NtRp1488
(dp1489
g66
(dp1490
sg75
g1196
sg68
(lp1491
g61
(g82
g63
NtRp1492
(dp1493
g66
(dp1494
g86
g87
ssg75
g1488
sg68
(lp1495
S'http_host'
p1496
asbag61
(g82
g63
NtRp1497
(dp1498
g66
(dp1499
g93
g94
ssg75
g1488
sg68
(lp1500
S':'
asbag61
(g82
g63
NtRp1501
(dp1502
g66
(dp1503
sg75
g1488
sg68
(lp1504
g61
(g62
g63
NtRp1505
(dp1506
g66
(dp1507
g74
I4
ssg75
g1501
sg68
(lp1508
S'127.0.0.1:8000'
p1509
asbasbasbag61
(g77
g63
NtRp1510
(dp1511
g66
(dp1512
sg75
g1196
sg68
(lp1513
g61
(g82
g63
NtRp1514
(dp1515
g66
(dp1516
g86
g87
ssg75
g1510
sg68
(lp1517
S'http_referer'
p1518
asbag61
(g82
g63
NtRp1519
(dp1520
g66
(dp1521
g93
g94
ssg75
g1510
sg68
(lp1522
S':'
asbag61
(g82
g63
NtRp1523
(dp1524
g66
(dp1525
sg75
g1510
sg68
(lp1526
g61
(g62
g63
NtRp1527
(dp1528
g66
(dp1529
g74
I4
ssg75
g1523
sg68
(lp1530
S'http://127.0.0.1:8000/admin/default/site'
p1531
asbasbasbag61
(g77
g63
NtRp1532
(dp1533
g66
(dp1534
sg75
g1196
sg68
(lp1535
g61
(g82
g63
NtRp1536
(dp1537
g66
(dp1538
g86
g87
ssg75
g1532
sg68
(lp1539
S'http_user_agent'
p1540
asbag61
(g82
g63
NtRp1541
(dp1542
g66
(dp1543
g93
g94
ssg75
g1532
sg68
(lp1544
S':'
asbag61
(g82
g63
NtRp1545
(dp1546
g66
(dp1547
sg75
g1532
sg68
(lp1548
g61
(g62
g63
NtRp1549
(dp1550
g66
(dp1551
g74
I4
ssg75
g1545
sg68
(lp1552
S'Mozilla/5.0 (X11; Linux i686; rv:7.0.1) Gecko/20100101 Firefox/7.0.1'
p1553
asbasbasbag61
(g77
g63
NtRp1554
(dp1555
g66
(dp1556
sg75
g1196
sg68
(lp1557
g61
(g82
g63
NtRp1558
(dp1559
g66
(dp1560
g86
g87
ssg75
g1554
sg68
(lp1561
S'is_jython'
p1562
asbag61
(g82
g63
NtRp1563
(dp1564
g66
(dp1565
g93
g94
ssg75
g1554
sg68
(lp1566
S':'
asbag61
(g82
g63
NtRp1567
(dp1568
g66
(dp1569
sg75
g1554
sg68
(lp1570
g61
(g62
g63
NtRp1571
(dp1572
g66
(dp1573
g74
I4
ssg75
g1567
sg68
(lp1574
g104
asbasbasbag61
(g77
g63
NtRp1575
(dp1576
g66
(dp1577
sg75
g1196
sg68
(lp1578
g61
(g82
g63
NtRp1579
(dp1580
g66
(dp1581
g86
g87
ssg75
g1575
sg68
(lp1582
S'is_pypy'
p1583
asbag61
(g82
g63
NtRp1584
(dp1585
g66
(dp1586
g93
g94
ssg75
g1575
sg68
(lp1587
S':'
asbag61
(g82
g63
NtRp1588
(dp1589
g66
(dp1590
sg75
g1575
sg68
(lp1591
g61
(g62
g63
NtRp1592
(dp1593
g66
(dp1594
g74
I4
ssg75
g1588
sg68
(lp1595
g104
asbasbasbag61
(g77
g63
NtRp1596
(dp1597
g66
(dp1598
sg75
g1196
sg68
(lp1599
g61
(g82
g63
NtRp1600
(dp1601
g66
(dp1602
g86
g87
ssg75
g1596
sg68
(lp1603
S'path_info'
p1604
asbag61
(g82
g63
NtRp1605
(dp1606
g66
(dp1607
g93
g94
ssg75
g1596
sg68
(lp1608
S':'
asbag61
(g82
g63
NtRp1609
(dp1610
g66
(dp1611
sg75
g1596
sg68
(lp1612
g61
(g62
g63
NtRp1613
(dp1614
g66
(dp1615
g74
I4
ssg75
g1609
sg68
(lp1616
S'/project/default/index'
p1617
asbasbasbag61
(g77
g63
NtRp1618
(dp1619
g66
(dp1620
sg75
g1196
sg68
(lp1621
g61
(g82
g63
NtRp1622
(dp1623
g66
(dp1624
g86
g87
ssg75
g1618
sg68
(lp1625
S'query_string'
p1626
asbag61
(g82
g63
NtRp1627
(dp1628
g66
(dp1629
g93
g94
ssg75
g1618
sg68
(lp1630
S':'
asbag61
(g82
g63
NtRp1631
(dp1632
g66
(dp1633
sg75
g1618
sg68
(lp1634
g61
(g62
g63
NtRp1635
(dp1636
g66
(dp1637
g74
I4
ssg75
g1631
sg68
(lp1638
S''
asbasbasbag61
(g77
g63
NtRp1639
(dp1640
g66
(dp1641
sg75
g1196
sg68
(lp1642
g61
(g82
g63
NtRp1643
(dp1644
g66
(dp1645
g86
g87
ssg75
g1639
sg68
(lp1646
S'remote_addr'
p1647
asbag61
(g82
g63
NtRp1648
(dp1649
g66
(dp1650
g93
g94
ssg75
g1639
sg68
(lp1651
S':'
asbag61
(g82
g63
NtRp1652
(dp1653
g66
(dp1654
sg75
g1639
sg68
(lp1655
g61
(g62
g63
NtRp1656
(dp1657
g66
(dp1658
g74
I4
ssg75
g1652
sg68
(lp1659
g194
asbasbasbag61
(g77
g63
NtRp1660
(dp1661
g66
(dp1662
sg75
g1196
sg68
(lp1663
g61
(g82
g63
NtRp1664
(dp1665
g66
(dp1666
g86
g87
ssg75
g1660
sg68
(lp1667
S'remote_port'
p1668
asbag61
(g82
g63
NtRp1669
(dp1670
g66
(dp1671
g93
g94
ssg75
g1660
sg68
(lp1672
S':'
asbag61
(g82
g63
NtRp1673
(dp1674
g66
(dp1675
sg75
g1660
sg68
(lp1676
g61
(g62
g63
NtRp1677
(dp1678
g66
(dp1679
g74
I4
ssg75
g1673
sg68
(lp1680
S'54724'
p1681
asbasbasbag61
(g77
g63
NtRp1682
(dp1683
g66
(dp1684
sg75
g1196
sg68
(lp1685
g61
(g82
g63
NtRp1686
(dp1687
g66
(dp1688
g86
g87
ssg75
g1682
sg68
(lp1689
S'request_method'
p1690
asbag61
(g82
g63
NtRp1691
(dp1692
g66
(dp1693
g93
g94
ssg75
g1682
sg68
(lp1694
S':'
asbag61
(g82
g63
NtRp1695
(dp1696
g66
(dp1697
sg75
g1682
sg68
(lp1698
g61
(g62
g63
NtRp1699
(dp1700
g66
(dp1701
g74
I4
ssg75
g1695
sg68
(lp1702
S'GET'
p1703
asbasbasbag61
(g77
g63
NtRp1704
(dp1705
g66
(dp1706
sg75
g1196
sg68
(lp1707
g61
(g82
g63
NtRp1708
(dp1709
g66
(dp1710
g86
g87
ssg75
g1704
sg68
(lp1711
S'script_name'
p1712
asbag61
(g82
g63
NtRp1713
(dp1714
g66
(dp1715
g93
g94
ssg75
g1704
sg68
(lp1716
S':'
asbag61
(g82
g63
NtRp1717
(dp1718
g66
(dp1719
sg75
g1704
sg68
(lp1720
g61
(g62
g63
NtRp1721
(dp1722
g66
(dp1723
g74
I4
ssg75
g1717
sg68
(lp1724
S''
asbasbasbag61
(g77
g63
NtRp1725
(dp1726
g66
(dp1727
sg75
g1196
sg68
(lp1728
g61
(g82
g63
NtRp1729
(dp1730
g66
(dp1731
g86
g87
ssg75
g1725
sg68
(lp1732
S'server_name'
p1733
asbag61
(g82
g63
NtRp1734
(dp1735
g66
(dp1736
g93
g94
ssg75
g1725
sg68
(lp1737
S':'
asbag61
(g82
g63
NtRp1738
(dp1739
g66
(dp1740
sg75
g1725
sg68
(lp1741
g61
(g62
g63
NtRp1742
(dp1743
g66
(dp1744
g74
I4
ssg75
g1738
sg68
(lp1745
S'arpita-HP-630-Notebook-PC'
p1746
asbasbasbag61
(g77
g63
NtRp1747
(dp1748
g66
(dp1749
sg75
g1196
sg68
(lp1750
g61
(g82
g63
NtRp1751
(dp1752
g66
(dp1753
g86
g87
ssg75
g1747
sg68
(lp1754
S'server_port'
p1755
asbag61
(g82
g63
NtRp1756
(dp1757
g66
(dp1758
g93
g94
ssg75
g1747
sg68
(lp1759
S':'
asbag61
(g82
g63
NtRp1760
(dp1761
g66
(dp1762
sg75
g1747
sg68
(lp1763
g61
(g62
g63
NtRp1764
(dp1765
g66
(dp1766
g74
I4
ssg75
g1760
sg68
(lp1767
S'8000'
p1768
asbasbasbag61
(g77
g63
NtRp1769
(dp1770
g66
(dp1771
sg75
g1196
sg68
(lp1772
g61
(g82
g63
NtRp1773
(dp1774
g66
(dp1775
g86
g87
ssg75
g1769
sg68
(lp1776
S'server_protocol'
p1777
asbag61
(g82
g63
NtRp1778
(dp1779
g66
(dp1780
g93
g94
ssg75
g1769
sg68
(lp1781
S':'
asbag61
(g82
g63
NtRp1782
(dp1783
g66
(dp1784
sg75
g1769
sg68
(lp1785
g61
(g62
g63
NtRp1786
(dp1787
g66
(dp1788
g74
I4
ssg75
g1782
sg68
(lp1789
S'HTTP/1.1'
p1790
asbasbasbag61
(g77
g63
NtRp1791
(dp1792
g66
(dp1793
sg75
g1196
sg68
(lp1794
g61
(g82
g63
NtRp1795
(dp1796
g66
(dp1797
g86
g87
ssg75
g1791
sg68
(lp1798
S'server_software'
p1799
asbag61
(g82
g63
NtRp1800
(dp1801
g66
(dp1802
g93
g94
ssg75
g1791
sg68
(lp1803
S':'
asbag61
(g82
g63
NtRp1804
(dp1805
g66
(dp1806
sg75
g1791
sg68
(lp1807
g61
(g62
g63
NtRp1808
(dp1809
g66
(dp1810
g74
I4
ssg75
g1804
sg68
(lp1811
S'Rocket 1.2.4'
p1812
asbasbasbag61
(g77
g63
NtRp1813
(dp1814
g66
(dp1815
sg75
g1196
sg68
(lp1816
g61
(g82
g63
NtRp1817
(dp1818
g66
(dp1819
g86
g87
ssg75
g1813
sg68
(lp1820
S'web2py_crontype'
p1821
asbag61
(g82
g63
NtRp1822
(dp1823
g66
(dp1824
g93
g94
ssg75
g1813
sg68
(lp1825
S':'
asbag61
(g82
g63
NtRp1826
(dp1827
g66
(dp1828
sg75
g1813
sg68
(lp1829
g61
(g62
g63
NtRp1830
(dp1831
g66
(dp1832
g74
I4
ssg75
g1826
sg68
(lp1833
S'hard'
p1834
asbasbasbag61
(g77
g63
NtRp1835
(dp1836
g66
(dp1837
sg75
g1196
sg68
(lp1838
g61
(g82
g63
NtRp1839
(dp1840
g66
(dp1841
g86
g87
ssg75
g1835
sg68
(lp1842
S'web2py_path'
p1843
asbag61
(g82
g63
NtRp1844
(dp1845
g66
(dp1846
g93
g94
ssg75
g1835
sg68
(lp1847
S':'
asbag61
(g82
g63
NtRp1848
(dp1849
g66
(dp1850
sg75
g1835
sg68
(lp1851
g61
(g62
g63
NtRp1852
(dp1853
g66
(dp1854
g74
I4
ssg75
g1848
sg68
(lp1855
g1243
asbasbasbag61
(g77
g63
NtRp1856
(dp1857
g66
(dp1858
sg75
g1196
sg68
(lp1859
g61
(g82
g63
NtRp1860
(dp1861
g66
(dp1862
g86
g87
ssg75
g1856
sg68
(lp1863
S'web2py_version'
p1864
asbag61
(g82
g63
NtRp1865
(dp1866
g66
(dp1867
g93
g94
ssg75
g1856
sg68
(lp1868
S':'
asbag61
(g82
g63
NtRp1869
(dp1870
g66
(dp1871
sg75
g1856
sg68
(lp1872
g61
(g62
g63
NtRp1873
(dp1874
g66
(dp1875
g74
I4
ssg75
g1869
sg68
(lp1876
g61
(g70
g63
NtRp1877
(dp1878
g66
(dp1879
g74
I3
ssg75
Nsg68
(lp1880
g61
(g77
g63
NtRp1881
(dp1882
g66
(dp1883
sg75
g1877
sg68
(lp1884
g61
(g82
g63
NtRp1885
(dp1886
g66
(dp1887
sg75
g1881
sg68
(lp1888
g61
(g62
g63
NtRp1889
(dp1890
g66
(dp1891
g74
I3
ssg75
g1885
sg68
(lp1892
S'1'
asbasbasbag61
(g77
g63
NtRp1893
(dp1894
g66
(dp1895
sg75
g1877
sg68
(lp1896
g61
(g82
g63
NtRp1897
(dp1898
g66
(dp1899
sg75
g1893
sg68
(lp1900
g61
(g62
g63
NtRp1901
(dp1902
g66
(dp1903
g74
I3
ssg75
g1897
sg68
(lp1904
S'99'
p1905
asbasbasbag61
(g77
g63
NtRp1906
(dp1907
g66
(dp1908
sg75
g1877
sg68
(lp1909
g61
(g82
g63
NtRp1910
(dp1911
g66
(dp1912
sg75
g1906
sg68
(lp1913
g61
(g62
g63
NtRp1914
(dp1915
g66
(dp1916
g74
I3
ssg75
g1910
sg68
(lp1917
S'7'
asbasbasbag61
(g77
g63
NtRp1918
(dp1919
g66
(dp1920
sg75
g1877
sg68
(lp1921
g61
(g82
g63
NtRp1922
(dp1923
g66
(dp1924
sg75
g1918
sg68
(lp1925
g61
(g62
g63
NtRp1926
(dp1927
g66
(dp1928
g74
I3
ssg75
g1922
sg68
(lp1929
S'datetime.datetime(2012, 3, 4, 22, 12, 8)'
p1930
asbasbasbag61
(g77
g63
NtRp1931
(dp1932
g66
(dp1933
sg75
g1877
sg68
(lp1934
g61
(g82
g63
NtRp1935
(dp1936
g66
(dp1937
sg75
g1931
sg68
(lp1938
g61
(g62
g63
NtRp1939
(dp1940
g66
(dp1941
g74
I3
ssg75
g1935
sg68
(lp1942
S'stable'
p1943
asbasbasbasbasbasbasbag61
(g77
g63
NtRp1944
(dp1945
g66
(dp1946
sg75
g1196
sg68
(lp1947
g61
(g82
g63
NtRp1948
(dp1949
g66
(dp1950
g86
g87
ssg75
g1944
sg68
(lp1951
S'wsgi_errors'
p1952
asbag61
(g82
g63
NtRp1953
(dp1954
g66
(dp1955
g93
g94
ssg75
g1944
sg68
(lp1956
S':'
asbag61
(g82
g63
NtRp1957
(dp1958
g66
(dp1959
sg75
g1944
sg68
(lp1960
g61
(g62
g63
NtRp1961
(dp1962
g66
(dp1963
g74
I4
ssg75
g1957
sg68
(lp1964
S"<open file '<stderr>', mode 'w' at 0xb744c0d0>"
p1965
asbasbasbag61
(g77
g63
NtRp1966
(dp1967
g66
(dp1968
sg75
g1196
sg68
(lp1969
g61
(g82
g63
NtRp1970
(dp1971
g66
(dp1972
g86
g87
ssg75
g1966
sg68
(lp1973
S'wsgi_file_wrapper'
p1974
asbag61
(g82
g63
NtRp1975
(dp1976
g66
(dp1977
g93
g94
ssg75
g1966
sg68
(lp1978
S':'
asbag61
(g82
g63
NtRp1979
(dp1980
g66
(dp1981
sg75
g1966
sg68
(lp1982
g61
(g62
g63
NtRp1983
(dp1984
g66
(dp1985
g74
I4
ssg75
g1979
sg68
(lp1986
S'<class wsgiref.util.FileWrapper at 0x959af5c>'
p1987
asbasbasbag61
(g77
g63
NtRp1988
(dp1989
g66
(dp1990
sg75
g1196
sg68
(lp1991
g61
(g82
g63
NtRp1992
(dp1993
g66
(dp1994
g86
g87
ssg75
g1988
sg68
(lp1995
S'wsgi_input'
p1996
asbag61
(g82
g63
NtRp1997
(dp1998
g66
(dp1999
g93
g94
ssg75
g1988
sg68
(lp2000
S':'
asbag61
(g82
g63
NtRp2001
(dp2002
g66
(dp2003
sg75
g1988
sg68
(lp2004
g61
(g62
g63
NtRp2005
(dp2006
g66
(dp2007
g74
I4
ssg75
g2001
sg68
(lp2008
S'<socket._fileobject object at 0xa0c2c2c>'
p2009
asbasbasbag61
(g77
g63
NtRp2010
(dp2011
g66
(dp2012
sg75
g1196
sg68
(lp2013
g61
(g82
g63
NtRp2014
(dp2015
g66
(dp2016
g86
g87
ssg75
g2010
sg68
(lp2017
S'wsgi_multiprocess'
p2018
asbag61
(g82
g63
NtRp2019
(dp2020
g66
(dp2021
g93
g94
ssg75
g2010
sg68
(lp2022
S':'
asbag61
(g82
g63
NtRp2023
(dp2024
g66
(dp2025
sg75
g2010
sg68
(lp2026
g61
(g62
g63
NtRp2027
(dp2028
g66
(dp2029
g74
I4
ssg75
g2023
sg68
(lp2030
g104
asbasbasbag61
(g77
g63
NtRp2031
(dp2032
g66
(dp2033
sg75
g1196
sg68
(lp2034
g61
(g82
g63
NtRp2035
(dp2036
g66
(dp2037
g86
g87
ssg75
g2031
sg68
(lp2038
S'wsgi_multithread'
p2039
asbag61
(g82
g63
NtRp2040
(dp2041
g66
(dp2042
g93
g94
ssg75
g2031
sg68
(lp2043
S':'
asbag61
(g82
g63
NtRp2044
(dp2045
g66
(dp2046
sg75
g2031
sg68
(lp2047
g61
(g62
g63
NtRp2048
(dp2049
g66
(dp2050
g74
I4
ssg75
g2044
sg68
(lp2051
S'True'
p2052
asbasbasbag61
(g77
g63
NtRp2053
(dp2054
g66
(dp2055
sg75
g1196
sg68
(lp2056
g61
(g82
g63
NtRp2057
(dp2058
g66
(dp2059
g86
g87
ssg75
g2053
sg68
(lp2060
S'wsgi_run_once'
p2061
asbag61
(g82
g63
NtRp2062
(dp2063
g66
(dp2064
g93
g94
ssg75
g2053
sg68
(lp2065
S':'
asbag61
(g82
g63
NtRp2066
(dp2067
g66
(dp2068
sg75
g2053
sg68
(lp2069
g61
(g62
g63
NtRp2070
(dp2071
g66
(dp2072
g74
I4
ssg75
g2066
sg68
(lp2073
g104
asbasbasbag61
(g77
g63
NtRp2074
(dp2075
g66
(dp2076
sg75
g1196
sg68
(lp2077
g61
(g82
g63
NtRp2078
(dp2079
g66
(dp2080
g86
g87
ssg75
g2074
sg68
(lp2081
S'wsgi_url_scheme'
p2082
asbag61
(g82
g63
NtRp2083
(dp2084
g66
(dp2085
g93
g94
ssg75
g2074
sg68
(lp2086
S':'
asbag61
(g82
g63
NtRp2087
(dp2088
g66
(dp2089
sg75
g2074
sg68
(lp2090
g61
(g62
g63
NtRp2091
(dp2092
g66
(dp2093
g74
I4
ssg75
g2087
sg68
(lp2094
S'http'
p2095
asbasbasbag61
(g77
g63
NtRp2096
(dp2097
g66
(dp2098
sg75
g1196
sg68
(lp2099
g61
(g82
g63
NtRp2100
(dp2101
g66
(dp2102
g86
g87
ssg75
g2096
sg68
(lp2103
S'wsgi_version'
p2104
asbag61
(g82
g63
NtRp2105
(dp2106
g66
(dp2107
g93
g94
ssg75
g2096
sg68
(lp2108
S':'
asbag61
(g82
g63
NtRp2109
(dp2110
g66
(dp2111
sg75
g2096
sg68
(lp2112
g61
(g62
g63
NtRp2113
(dp2114
g66
(dp2115
g74
I4
ssg75
g2109
sg68
(lp2116
g61
(g70
g63
NtRp2117
(dp2118
g66
(dp2119
g74
I3
ssg75
Nsg68
(lp2120
g61
(g77
g63
NtRp2121
(dp2122
g66
(dp2123
sg75
g2117
sg68
(lp2124
g61
(g82
g63
NtRp2125
(dp2126
g66
(dp2127
sg75
g2121
sg68
(lp2128
g61
(g62
g63
NtRp2129
(dp2130
g66
(dp2131
g74
I3
ssg75
g2125
sg68
(lp2132
S'1'
asbasbasbag61
(g77
g63
NtRp2133
(dp2134
g66
(dp2135
sg75
g2117
sg68
(lp2136
g61
(g82
g63
NtRp2137
(dp2138
g66
(dp2139
sg75
g2133
sg68
(lp2140
g61
(g62
g63
NtRp2141
(dp2142
g66
(dp2143
g74
I3
ssg75
g2137
sg68
(lp2144
S'0'
asbasbasbasbasbasbasbasbasbasbasbag61
(g77
g63
NtRp2145
(dp2146
g66
(dp2147
sg75
g71
sg68
(lp2148
g61
(g82
g63
NtRp2149
(dp2150
g66
(dp2151
g86
g87
ssg75
g2145
sg68
(lp2152
S'extension'
p2153
asbag61
(g82
g63
NtRp2154
(dp2155
g66
(dp2156
g93
g94
ssg75
g2145
sg68
(lp2157
S':'
asbag61
(g82
g63
NtRp2158
(dp2159
g66
(dp2160
sg75
g2145
sg68
(lp2161
g61
(g62
g63
NtRp2162
(dp2163
g66
(dp2164
g74
I5
ssg75
g2158
sg68
(lp2165
S'html'
p2166
asbasbasbag61
(g77
g63
NtRp2167
(dp2168
g66
(dp2169
sg75
g71
sg68
(lp2170
g61
(g82
g63
NtRp2171
(dp2172
g66
(dp2173
g86
g87
ssg75
g2167
sg68
(lp2174
S'folder'
p2175
asbag61
(g82
g63
NtRp2176
(dp2177
g66
(dp2178
g93
g94
ssg75
g2167
sg68
(lp2179
S':'
asbag61
(g82
g63
NtRp2180
(dp2181
g66
(dp2182
sg75
g2167
sg68
(lp2183
g61
(g62
g63
NtRp2184
(dp2185
g66
(dp2186
g74
I5
ssg75
g2180
sg68
(lp2187
S'/home/arpita/courses/sem3/ssad/web2py/applications/project/'
p2188
asbasbasbag61
(g77
g63
NtRp2189
(dp2190
g66
(dp2191
sg75
g71
sg68
(lp2192
g61
(g82
g63
NtRp2193
(dp2194
g66
(dp2195
g86
g87
ssg75
g2189
sg68
(lp2196
S'function'
p2197
asbag61
(g82
g63
NtRp2198
(dp2199
g66
(dp2200
g93
g94
ssg75
g2189
sg68
(lp2201
S':'
asbag61
(g82
g63
NtRp2202
(dp2203
g66
(dp2204
sg75
g2189
sg68
(lp2205
g61
(g62
g63
NtRp2206
(dp2207
g66
(dp2208
g74
I5
ssg75
g2202
sg68
(lp2209
S'index'
p2210
asbasbasbag61
(g77
g63
NtRp2211
(dp2212
g66
(dp2213
sg75
g71
sg68
(lp2214
g61
(g82
g63
NtRp2215
(dp2216
g66
(dp2217
g86
g87
ssg75
g2211
sg68
(lp2218
S'get_vars'
p2219
asbag61
(g82
g63
NtRp2220
(dp2221
g66
(dp2222
g93
g94
ssg75
g2211
sg68
(lp2223
S':'
asbag61
(g82
g63
NtRp2224
(dp2225
g66
(dp2226
sg75
g2211
sg68
(lp2227
g61
(g62
g63
NtRp2228
(dp2229
g66
(dp2230
g74
I5
ssg75
g2224
sg68
(lp2231
g61
(g70
g63
NtRp2232
(dp2233
g66
(dp2234
g74
I4
ssg75
Nsg68
(lp2235
sbasbasbasbag61
(g77
g63
NtRp2236
(dp2237
g66
(dp2238
sg75
g71
sg68
(lp2239
g61
(g82
g63
NtRp2240
(dp2241
g66
(dp2242
g86
g87
ssg75
g2236
sg68
(lp2243
S'global_settings'
p2244
asbag61
(g82
g63
NtRp2245
(dp2246
g66
(dp2247
g93
g94
ssg75
g2236
sg68
(lp2248
S':'
asbag61
(g82
g63
NtRp2249
(dp2250
g66
(dp2251
sg75
g2236
sg68
(lp2252
g61
(g62
g63
NtRp2253
(dp2254
g66
(dp2255
g74
I5
ssg75
g2249
sg68
(lp2256
g61
(g70
g63
NtRp2257
(dp2258
g66
(dp2259
g74
I4
ssg75
Nsg68
(lp2260
g61
(g77
g63
NtRp2261
(dp2262
g66
(dp2263
sg75
g2257
sg68
(lp2264
g61
(g82
g63
NtRp2265
(dp2266
g66
(dp2267
g86
g87
ssg75
g2261
sg68
(lp2268
g1208
asbag61
(g82
g63
NtRp2269
(dp2270
g66
(dp2271
g93
g94
ssg75
g2261
sg68
(lp2272
S':'
asbag61
(g82
g63
NtRp2273
(dp2274
g66
(dp2275
sg75
g2261
sg68
(lp2276
g61
(g62
g63
NtRp2277
(dp2278
g66
(dp2279
g74
I4
ssg75
g2273
sg68
(lp2280
S"set(['/home/arpita/courses/sem3/ssad/web2py/applications/examples/', '/home/arpita/courses/sem3/ssad/web2py/applications/welcome/', '/home/arpita/courses/sem3/ssad/web2py/applications/hierarchy/', '/home/arpita/courses/sem3/ssad/web2py/applications/Images/', '/home/arpita/courses/sem3/ssad/web2py/applications/admin/', '/home/arpita/courses/sem3/ssad/web2py/applications/project/'])"
p2281
asbasbasbag61
(g77
g63
NtRp2282
(dp2283
g66
(dp2284
sg75
g2257
sg68
(lp2285
g61
(g82
g63
NtRp2286
(dp2287
g66
(dp2288
g86
g87
ssg75
g2282
sg68
(lp2289
g1230
asbag61
(g82
g63
NtRp2290
(dp2291
g66
(dp2292
g93
g94
ssg75
g2282
sg68
(lp2293
S':'
asbag61
(g82
g63
NtRp2294
(dp2295
g66
(dp2296
sg75
g2282
sg68
(lp2297
g61
(g62
g63
NtRp2298
(dp2299
g66
(dp2300
g74
I4
ssg75
g2294
sg68
(lp2301
g1243
asbasbasbag61
(g77
g63
NtRp2302
(dp2303
g66
(dp2304
sg75
g2257
sg68
(lp2305
g61
(g82
g63
NtRp2306
(dp2307
g66
(dp2308
g86
g87
ssg75
g2302
sg68
(lp2309
g1252
asbag61
(g82
g63
NtRp2310
(dp2311
g66
(dp2312
g93
g94
ssg75
g2302
sg68
(lp2313
S':'
asbag61
(g82
g63
NtRp2314
(dp2315
g66
(dp2316
sg75
g2302
sg68
(lp2317
g61
(g62
g63
NtRp2318
(dp2319
g66
(dp2320
g74
I4
ssg75
g2314
sg68
(lp2321
g61
(g70
g63
NtRp2322
(dp2323
g66
(dp2324
g74
I3
ssg75
Nsg68
(lp2325
sbasbasbasbag61
(g77
g63
NtRp2326
(dp2327
g66
(dp2328
sg75
g2257
sg68
(lp2329
g61
(g82
g63
NtRp2330
(dp2331
g66
(dp2332
g86
g87
ssg75
g2326
sg68
(lp2333
g1277
asbag61
(g82
g63
NtRp2334
(dp2335
g66
(dp2336
g93
g94
ssg75
g2326
sg68
(lp2337
S':'
asbag61
(g82
g63
NtRp2338
(dp2339
g66
(dp2340
sg75
g2326
sg68
(lp2341
g61
(g62
g63
NtRp2342
(dp2343
g66
(dp2344
g74
I4
ssg75
g2338
sg68
(lp2345
S"<Values at 0x95f73cc: {'verbose': False, 'ip': '127.0.0.1', 'shutdown_timeout': 5, 'taskbar': False, 'nocron': False, 'pid_filename': 'httpserver.pid', 'maxthreads': None, 'softcron': False, 'server_name': 'arpita-HP-630-Notebook-PC', 'bpython': False, 'nogui': False, 'port': 8000, 'extcron': False, 'debuglevel': 30, 'test': None, 'folder': '/home/arpita/courses/sem3/ssad/web2py', 'config': '', 'import_models': False, 'winservice': '', 'shell': None, 'run': '', 'log_filename': 'httpserver.log', 'args': [''], 'socket_timeout': 5, 'ssl_ca_certificate': None, 'scheduler': None, 'profiler_filename': None, 'ssl_private_key': '', 'password': 'arpita', 'request_queue_size': 5, 'ssl_certificate': '', 'cronjob': False, 'numthreads': None, 'quiet': False, 'interfaces': None, 'minthreads': None, 'timeout': 10, 'plain': False, 'nobanner': False}>"
p2346
asbasbasbag61
(g77
g63
NtRp2347
(dp2348
g66
(dp2349
sg75
g2257
sg68
(lp2350
g61
(g82
g63
NtRp2351
(dp2352
g66
(dp2353
g86
g87
ssg75
g2347
sg68
(lp2354
g1299
asbag61
(g82
g63
NtRp2355
(dp2356
g66
(dp2357
g93
g94
ssg75
g2347
sg68
(lp2358
S':'
asbag61
(g82
g63
NtRp2359
(dp2360
g66
(dp2361
sg75
g2347
sg68
(lp2362
g61
(g62
g63
NtRp2363
(dp2364
g66
(dp2365
g74
I4
ssg75
g2359
sg68
(lp2366
S'set([])'
p2367
asbasbasbag61
(g77
g63
NtRp2368
(dp2369
g66
(dp2370
sg75
g2257
sg68
(lp2371
g61
(g82
g63
NtRp2372
(dp2373
g66
(dp2374
g86
g87
ssg75
g2368
sg68
(lp2375
g1321
asbag61
(g82
g63
NtRp2376
(dp2377
g66
(dp2378
g93
g94
ssg75
g2368
sg68
(lp2379
S':'
asbag61
(g82
g63
NtRp2380
(dp2381
g66
(dp2382
sg75
g2368
sg68
(lp2383
g61
(g62
g63
NtRp2384
(dp2385
g66
(dp2386
g74
I4
ssg75
g2380
sg68
(lp2387
g104
asbasbasbag61
(g77
g63
NtRp2388
(dp2389
g66
(dp2390
sg75
g2257
sg68
(lp2391
g61
(g82
g63
NtRp2392
(dp2393
g66
(dp2394
g86
g87
ssg75
g2388
sg68
(lp2395
g1342
asbag61
(g82
g63
NtRp2396
(dp2397
g66
(dp2398
g93
g94
ssg75
g2388
sg68
(lp2399
S':'
asbag61
(g82
g63
NtRp2400
(dp2401
g66
(dp2402
sg75
g2388
sg68
(lp2403
g61
(g62
g63
NtRp2404
(dp2405
g66
(dp2406
g74
I4
ssg75
g2400
sg68
(lp2407
g1355
asbasbasbag61
(g77
g63
NtRp2408
(dp2409
g66
(dp2410
sg75
g2257
sg68
(lp2411
g61
(g82
g63
NtRp2412
(dp2413
g66
(dp2414
g86
g87
ssg75
g2408
sg68
(lp2415
g1562
asbag61
(g82
g63
NtRp2416
(dp2417
g66
(dp2418
g93
g94
ssg75
g2408
sg68
(lp2419
S':'
asbag61
(g82
g63
NtRp2420
(dp2421
g66
(dp2422
sg75
g2408
sg68
(lp2423
g61
(g62
g63
NtRp2424
(dp2425
g66
(dp2426
g74
I4
ssg75
g2420
sg68
(lp2427
g104
asbasbasbag61
(g77
g63
NtRp2428
(dp2429
g66
(dp2430
sg75
g2257
sg68
(lp2431
g61
(g82
g63
NtRp2432
(dp2433
g66
(dp2434
g86
g87
ssg75
g2428
sg68
(lp2435
g1583
asbag61
(g82
g63
NtRp2436
(dp2437
g66
(dp2438
g93
g94
ssg75
g2428
sg68
(lp2439
S':'
asbag61
(g82
g63
NtRp2440
(dp2441
g66
(dp2442
sg75
g2428
sg68
(lp2443
g61
(g62
g63
NtRp2444
(dp2445
g66
(dp2446
g74
I4
ssg75
g2440
sg68
(lp2447
g104
asbasbasbag61
(g77
g63
NtRp2448
(dp2449
g66
(dp2450
sg75
g2257
sg68
(lp2451
g61
(g82
g63
NtRp2452
(dp2453
g66
(dp2454
g86
g87
ssg75
g2448
sg68
(lp2455
g1821
asbag61
(g82
g63
NtRp2456
(dp2457
g66
(dp2458
g93
g94
ssg75
g2448
sg68
(lp2459
S':'
asbag61
(g82
g63
NtRp2460
(dp2461
g66
(dp2462
sg75
g2448
sg68
(lp2463
g61
(g62
g63
NtRp2464
(dp2465
g66
(dp2466
g74
I4
ssg75
g2460
sg68
(lp2467
g1834
asbasbasbag61
(g77
g63
NtRp2468
(dp2469
g66
(dp2470
sg75
g2257
sg68
(lp2471
g61
(g82
g63
NtRp2472
(dp2473
g66
(dp2474
g86
g87
ssg75
g2468
sg68
(lp2475
g1864
asbag61
(g82
g63
NtRp2476
(dp2477
g66
(dp2478
g93
g94
ssg75
g2468
sg68
(lp2479
S':'
asbag61
(g82
g63
NtRp2480
(dp2481
g66
(dp2482
sg75
g2468
sg68
(lp2483
g61
(g62
g63
NtRp2484
(dp2485
g66
(dp2486
g74
I4
ssg75
g2480
sg68
(lp2487
g61
(g70
g63
NtRp2488
(dp2489
g66
(dp2490
g74
I3
ssg75
Nsg68
(lp2491
g61
(g77
g63
NtRp2492
(dp2493
g66
(dp2494
sg75
g2488
sg68
(lp2495
g61
(g82
g63
NtRp2496
(dp2497
g66
(dp2498
sg75
g2492
sg68
(lp2499
g61
(g62
g63
NtRp2500
(dp2501
g66
(dp2502
g74
I3
ssg75
g2496
sg68
(lp2503
S'1'
asbasbasbag61
(g77
g63
NtRp2504
(dp2505
g66
(dp2506
sg75
g2488
sg68
(lp2507
g61
(g82
g63
NtRp2508
(dp2509
g66
(dp2510
sg75
g2504
sg68
(lp2511
g61
(g62
g63
NtRp2512
(dp2513
g66
(dp2514
g74
I3
ssg75
g2508
sg68
(lp2515
S'99'
p2516
asbasbasbag61
(g77
g63
NtRp2517
(dp2518
g66
(dp2519
sg75
g2488
sg68
(lp2520
g61
(g82
g63
NtRp2521
(dp2522
g66
(dp2523
sg75
g2517
sg68
(lp2524
g61
(g62
g63
NtRp2525
(dp2526
g66
(dp2527
g74
I3
ssg75
g2521
sg68
(lp2528
S'7'
asbasbasbag61
(g77
g63
NtRp2529
(dp2530
g66
(dp2531
sg75
g2488
sg68
(lp2532
g61
(g82
g63
NtRp2533
(dp2534
g66
(dp2535
sg75
g2529
sg68
(lp2536
g61
(g62
g63
NtRp2537
(dp2538
g66
(dp2539
g74
I3
ssg75
g2533
sg68
(lp2540
S'datetime.datetime(2012, 3, 4, 22, 12, 8)'
p2541
asbasbasbag61
(g77
g63
NtRp2542
(dp2543
g66
(dp2544
sg75
g2488
sg68
(lp2545
g61
(g82
g63
NtRp2546
(dp2547
g66
(dp2548
sg75
g2542
sg68
(lp2549
g61
(g62
g63
NtRp2550
(dp2551
g66
(dp2552
g74
I3
ssg75
g2546
sg68
(lp2553
g1943
asbasbasbasbasbasbasbasbasbasbasbag61
(g77
g63
NtRp2554
(dp2555
g66
(dp2556
sg75
g71
sg68
(lp2557
g61
(g82
g63
NtRp2558
(dp2559
g66
(dp2560
g86
g87
ssg75
g2554
sg68
(lp2561
S'is_https'
p2562
asbag61
(g82
g63
NtRp2563
(dp2564
g66
(dp2565
g93
g94
ssg75
g2554
sg68
(lp2566
S':'
asbag61
(g82
g63
NtRp2567
(dp2568
g66
(dp2569
sg75
g2554
sg68
(lp2570
g61
(g62
g63
NtRp2571
(dp2572
g66
(dp2573
g74
I5
ssg75
g2567
sg68
(lp2574
g104
asbasbasbag61
(g77
g63
NtRp2575
(dp2576
g66
(dp2577
sg75
g71
sg68
(lp2578
g61
(g82
g63
NtRp2579
(dp2580
g66
(dp2581
g86
g87
ssg75
g2575
sg68
(lp2582
S'is_local'
p2583
asbag61
(g82
g63
NtRp2584
(dp2585
g66
(dp2586
g93
g94
ssg75
g2575
sg68
(lp2587
S':'
asbag61
(g82
g63
NtRp2588
(dp2589
g66
(dp2590
sg75
g2575
sg68
(lp2591
g61
(g62
g63
NtRp2592
(dp2593
g66
(dp2594
g74
I5
ssg75
g2588
sg68
(lp2595
g2052
asbasbasbag61
(g77
g63
NtRp2596
(dp2597
g66
(dp2598
sg75
g71
sg68
(lp2599
g61
(g82
g63
NtRp2600
(dp2601
g66
(dp2602
g86
g87
ssg75
g2596
sg68
(lp2603
S'is_restful'
p2604
asbag61
(g82
g63
NtRp2605
(dp2606
g66
(dp2607
g93
g94
ssg75
g2596
sg68
(lp2608
S':'
asbag61
(g82
g63
NtRp2609
(dp2610
g66
(dp2611
sg75
g2596
sg68
(lp2612
g61
(g62
g63
NtRp2613
(dp2614
g66
(dp2615
g74
I5
ssg75
g2609
sg68
(lp2616
g104
asbasbasbag61
(g77
g63
NtRp2617
(dp2618
g66
(dp2619
sg75
g71
sg68
(lp2620
g61
(g82
g63
NtRp2621
(dp2622
g66
(dp2623
g86
g87
ssg75
g2617
sg68
(lp2624
S'now'
p2625
asbag61
(g82
g63
NtRp2626
(dp2627
g66
(dp2628
g93
g94
ssg75
g2617
sg68
(lp2629
S':'
asbag61
(g82
g63
NtRp2630
(dp2631
g66
(dp2632
sg75
g2617
sg68
(lp2633
g61
(g62
g63
NtRp2634
(dp2635
g66
(dp2636
g74
I5
ssg75
g2630
sg68
(lp2637
S'datetime.datetime(2012, 10, 13, 19, 3, 8, 250047)'
p2638
asbasbasbag61
(g77
g63
NtRp2639
(dp2640
g66
(dp2641
sg75
g71
sg68
(lp2642
g61
(g82
g63
NtRp2643
(dp2644
g66
(dp2645
g86
g87
ssg75
g2639
sg68
(lp2646
S'post_vars'
p2647
asbag61
(g82
g63
NtRp2648
(dp2649
g66
(dp2650
g93
g94
ssg75
g2639
sg68
(lp2651
S':'
asbag61
(g82
g63
NtRp2652
(dp2653
g66
(dp2654
sg75
g2639
sg68
(lp2655
g61
(g62
g63
NtRp2656
(dp2657
g66
(dp2658
g74
I5
ssg75
g2652
sg68
(lp2659
g61
(g70
g63
NtRp2660
(dp2661
g66
(dp2662
g74
I4
ssg75
Nsg68
(lp2663
sbasbasbasbag61
(g77
g63
NtRp2664
(dp2665
g66
(dp2666
sg75
g71
sg68
(lp2667
g61
(g82
g63
NtRp2668
(dp2669
g66
(dp2670
g86
g87
ssg75
g2664
sg68
(lp2671
S'url'
p2672
asbag61
(g82
g63
NtRp2673
(dp2674
g66
(dp2675
g93
g94
ssg75
g2664
sg68
(lp2676
S':'
asbag61
(g82
g63
NtRp2677
(dp2678
g66
(dp2679
sg75
g2664
sg68
(lp2680
g61
(g62
g63
NtRp2681
(dp2682
g66
(dp2683
g74
I5
ssg75
g2677
sg68
(lp2684
S'/project/default/index'
p2685
asbasbasbag61
(g77
g63
NtRp2686
(dp2687
g66
(dp2688
sg75
g71
sg68
(lp2689
g61
(g82
g63
NtRp2690
(dp2691
g66
(dp2692
g86
g87
ssg75
g2686
sg68
(lp2693
S'utcnow'
p2694
asbag61
(g82
g63
NtRp2695
(dp2696
g66
(dp2697
g93
g94
ssg75
g2686
sg68
(lp2698
S':'
asbag61
(g82
g63
NtRp2699
(dp2700
g66
(dp2701
sg75
g2686
sg68
(lp2702
g61
(g62
g63
NtRp2703
(dp2704
g66
(dp2705
g74
I5
ssg75
g2699
sg68
(lp2706
S'datetime.datetime(2012, 10, 13, 13, 33, 8, 250073)'
p2707
asbasbasbag61
(g77
g63
NtRp2708
(dp2709
g66
(dp2710
sg75
g71
sg68
(lp2711
g61
(g82
g63
NtRp2712
(dp2713
g66
(dp2714
g86
g87
ssg75
g2708
sg68
(lp2715
S'uuid'
p2716
asbag61
(g82
g63
NtRp2717
(dp2718
g66
(dp2719
g93
g94
ssg75
g2708
sg68
(lp2720
S':'
asbag61
(g82
g63
NtRp2721
(dp2722
g66
(dp2723
sg75
g2708
sg68
(lp2724
g61
(g62
g63
NtRp2725
(dp2726
g66
(dp2727
g74
I5
ssg75
g2721
sg68
(lp2728
S'project/127.0.0.1.2012-10-13.19-03-08.6021519d-5cc0-4782-be83-9bfc456ec0b0'
p2729
asbasbasbag61
(g77
g63
NtRp2730
(dp2731
g66
(dp2732
sg75
g71
sg68
(lp2733
g61
(g82
g63
NtRp2734
(dp2735
g66
(dp2736
g86
g87
ssg75
g2730
sg68
(lp2737
S'vars'
p2738
asbag61
(g82
g63
NtRp2739
(dp2740
g66
(dp2741
g93
g94
ssg75
g2730
sg68
(lp2742
S':'
asbag61
(g82
g63
NtRp2743
(dp2744
g66
(dp2745
sg75
g2730
sg68
(lp2746
g61
(g62
g63
NtRp2747
(dp2748
g66
(dp2749
g74
I5
ssg75
g2743
sg68
(lp2750
g61
(g70
g63
NtRp2751
(dp2752
g66
(dp2753
g74
I4
ssg75
Nsg68
(lp2754
sbasbasbasbag61
(g77
g63
NtRp2755
(dp2756
g66
(dp2757
sg75
g71
sg68
(lp2758
g61
(g82
g63
NtRp2759
(dp2760
g66
(dp2761
g86
g87
ssg75
g2755
sg68
(lp2762
S'wsgi'
p2763
asbag61
(g82
g63
NtRp2764
(dp2765
g66
(dp2766
g93
g94
ssg75
g2755
sg68
(lp2767
S':'
asbag61
(g82
g63
NtRp2768
(dp2769
g66
(dp2770
sg75
g2755
sg68
(lp2771
g61
(g62
g63
NtRp2772
(dp2773
g66
(dp2774
g74
I5
ssg75
g2768
sg68
(lp2775
g61
(g70
g63
NtRp2776
(dp2777
g66
(dp2778
g74
I4
ssg75
Nsg68
(lp2779
g61
(g77
g63
NtRp2780
(dp2781
g66
(dp2782
sg75
g2776
sg68
(lp2783
g61
(g82
g63
NtRp2784
(dp2785
g66
(dp2786
g86
g87
ssg75
g2780
sg68
(lp2787
S'environ'
p2788
asbag61
(g82
g63
NtRp2789
(dp2790
g66
(dp2791
g93
g94
ssg75
g2780
sg68
(lp2792
S':'
asbag61
(g82
g63
NtRp2793
(dp2794
g66
(dp2795
sg75
g2780
sg68
(lp2796
g61
(g62
g63
NtRp2797
(dp2798
g66
(dp2799
g74
I4
ssg75
g2793
sg68
(lp2800
g61
(g70
g63
NtRp2801
(dp2802
g66
(dp2803
g74
I3
ssg75
Nsg68
(lp2804
g61
(g77
g63
NtRp2805
(dp2806
g66
(dp2807
sg75
g2801
sg68
(lp2808
g61
(g82
g63
NtRp2809
(dp2810
g66
(dp2811
g86
g87
ssg75
g2805
sg68
(lp2812
S'HTTP_ACCEPT'
p2813
asbag61
(g82
g63
NtRp2814
(dp2815
g66
(dp2816
g93
g94
ssg75
g2805
sg68
(lp2817
S':'
asbag61
(g82
g63
NtRp2818
(dp2819
g66
(dp2820
sg75
g2805
sg68
(lp2821
g61
(g62
g63
NtRp2822
(dp2823
g66
(dp2824
g74
I3
ssg75
g2818
sg68
(lp2825
g1377
asbasbasbag61
(g77
g63
NtRp2826
(dp2827
g66
(dp2828
sg75
g2801
sg68
(lp2829
g61
(g82
g63
NtRp2830
(dp2831
g66
(dp2832
g86
g87
ssg75
g2826
sg68
(lp2833
S'HTTP_ACCEPT_CHARSET'
p2834
asbag61
(g82
g63
NtRp2835
(dp2836
g66
(dp2837
g93
g94
ssg75
g2826
sg68
(lp2838
S':'
asbag61
(g82
g63
NtRp2839
(dp2840
g66
(dp2841
sg75
g2826
sg68
(lp2842
g61
(g62
g63
NtRp2843
(dp2844
g66
(dp2845
g74
I3
ssg75
g2839
sg68
(lp2846
g1399
asbasbasbag61
(g77
g63
NtRp2847
(dp2848
g66
(dp2849
sg75
g2801
sg68
(lp2850
g61
(g82
g63
NtRp2851
(dp2852
g66
(dp2853
g86
g87
ssg75
g2847
sg68
(lp2854
S'HTTP_ACCEPT_ENCODING'
p2855
asbag61
(g82
g63
NtRp2856
(dp2857
g66
(dp2858
g93
g94
ssg75
g2847
sg68
(lp2859
S':'
asbag61
(g82
g63
NtRp2860
(dp2861
g66
(dp2862
sg75
g2847
sg68
(lp2863
g61
(g62
g63
NtRp2864
(dp2865
g66
(dp2866
g74
I3
ssg75
g2860
sg68
(lp2867
g1421
asbasbasbag61
(g77
g63
NtRp2868
(dp2869
g66
(dp2870
sg75
g2801
sg68
(lp2871
g61
(g82
g63
NtRp2872
(dp2873
g66
(dp2874
g86
g87
ssg75
g2868
sg68
(lp2875
S'HTTP_ACCEPT_LANGUAGE'
p2876
asbag61
(g82
g63
NtRp2877
(dp2878
g66
(dp2879
g93
g94
ssg75
g2868
sg68
(lp2880
S':'
asbag61
(g82
g63
NtRp2881
(dp2882
g66
(dp2883
sg75
g2868
sg68
(lp2884
g61
(g62
g63
NtRp2885
(dp2886
g66
(dp2887
g74
I3
ssg75
g2881
sg68
(lp2888
g1443
asbasbasbag61
(g77
g63
NtRp2889
(dp2890
g66
(dp2891
sg75
g2801
sg68
(lp2892
g61
(g82
g63
NtRp2893
(dp2894
g66
(dp2895
g86
g87
ssg75
g2889
sg68
(lp2896
S'HTTP_CONNECTION'
p2897
asbag61
(g82
g63
NtRp2898
(dp2899
g66
(dp2900
g93
g94
ssg75
g2889
sg68
(lp2901
S':'
asbag61
(g82
g63
NtRp2902
(dp2903
g66
(dp2904
sg75
g2889
sg68
(lp2905
g61
(g62
g63
NtRp2906
(dp2907
g66
(dp2908
g74
I3
ssg75
g2902
sg68
(lp2909
g1465
asbasbasbag61
(g77
g63
NtRp2910
(dp2911
g66
(dp2912
sg75
g2801
sg68
(lp2913
g61
(g82
g63
NtRp2914
(dp2915
g66
(dp2916
g86
g87
ssg75
g2910
sg68
(lp2917
S'HTTP_COOKIE'
p2918
asbag61
(g82
g63
NtRp2919
(dp2920
g66
(dp2921
g93
g94
ssg75
g2910
sg68
(lp2922
S':'
asbag61
(g82
g63
NtRp2923
(dp2924
g66
(dp2925
sg75
g2910
sg68
(lp2926
g61
(g62
g63
NtRp2927
(dp2928
g66
(dp2929
g74
I3
ssg75
g2923
sg68
(lp2930
g1487
asbasbasbag61
(g77
g63
NtRp2931
(dp2932
g66
(dp2933
sg75
g2801
sg68
(lp2934
g61
(g82
g63
NtRp2935
(dp2936
g66
(dp2937
g86
g87
ssg75
g2931
sg68
(lp2938
S'HTTP_HOST'
p2939
asbag61
(g82
g63
NtRp2940
(dp2941
g66
(dp2942
g93
g94
ssg75
g2931
sg68
(lp2943
S':'
asbag61
(g82
g63
NtRp2944
(dp2945
g66
(dp2946
sg75
g2931
sg68
(lp2947
g61
(g62
g63
NtRp2948
(dp2949
g66
(dp2950
g74
I3
ssg75
g2944
sg68
(lp2951
g1509
asbasbasbag61
(g77
g63
NtRp2952
(dp2953
g66
(dp2954
sg75
g2801
sg68
(lp2955
g61
(g82
g63
NtRp2956
(dp2957
g66
(dp2958
g86
g87
ssg75
g2952
sg68
(lp2959
S'HTTP_REFERER'
p2960
asbag61
(g82
g63
NtRp2961
(dp2962
g66
(dp2963
g93
g94
ssg75
g2952
sg68
(lp2964
S':'
asbag61
(g82
g63
NtRp2965
(dp2966
g66
(dp2967
sg75
g2952
sg68
(lp2968
g61
(g62
g63
NtRp2969
(dp2970
g66
(dp2971
g74
I3
ssg75
g2965
sg68
(lp2972
g1531
asbasbasbag61
(g77
g63
NtRp2973
(dp2974
g66
(dp2975
sg75
g2801
sg68
(lp2976
g61
(g82
g63
NtRp2977
(dp2978
g66
(dp2979
g86
g87
ssg75
g2973
sg68
(lp2980
S'HTTP_USER_AGENT'
p2981
asbag61
(g82
g63
NtRp2982
(dp2983
g66
(dp2984
g93
g94
ssg75
g2973
sg68
(lp2985
S':'
asbag61
(g82
g63
NtRp2986
(dp2987
g66
(dp2988
sg75
g2973
sg68
(lp2989
g61
(g62
g63
NtRp2990
(dp2991
g66
(dp2992
g74
I3
ssg75
g2986
sg68
(lp2993
g1553
asbasbasbag61
(g77
g63
NtRp2994
(dp2995
g66
(dp2996
sg75
g2801
sg68
(lp2997
g61
(g82
g63
NtRp2998
(dp2999
g66
(dp3000
g86
g87
ssg75
g2994
sg68
(lp3001
S'PATH_INFO'
p3002
asbag61
(g82
g63
NtRp3003
(dp3004
g66
(dp3005
g93
g94
ssg75
g2994
sg68
(lp3006
S':'
asbag61
(g82
g63
NtRp3007
(dp3008
g66
(dp3009
sg75
g2994
sg68
(lp3010
g61
(g62
g63
NtRp3011
(dp3012
g66
(dp3013
g74
I3
ssg75
g3007
sg68
(lp3014
g1617
asbasbasbag61
(g77
g63
NtRp3015
(dp3016
g66
(dp3017
sg75
g2801
sg68
(lp3018
g61
(g82
g63
NtRp3019
(dp3020
g66
(dp3021
g86
g87
ssg75
g3015
sg68
(lp3022
S'QUERY_STRING'
p3023
asbag61
(g82
g63
NtRp3024
(dp3025
g66
(dp3026
g93
g94
ssg75
g3015
sg68
(lp3027
S':'
asbag61
(g82
g63
NtRp3028
(dp3029
g66
(dp3030
sg75
g3015
sg68
(lp3031
g61
(g62
g63
NtRp3032
(dp3033
g66
(dp3034
g74
I3
ssg75
g3028
sg68
(lp3035
S''
asbasbasbag61
(g77
g63
NtRp3036
(dp3037
g66
(dp3038
sg75
g2801
sg68
(lp3039
g61
(g82
g63
NtRp3040
(dp3041
g66
(dp3042
g86
g87
ssg75
g3036
sg68
(lp3043
S'REMOTE_ADDR'
p3044
asbag61
(g82
g63
NtRp3045
(dp3046
g66
(dp3047
g93
g94
ssg75
g3036
sg68
(lp3048
S':'
asbag61
(g82
g63
NtRp3049
(dp3050
g66
(dp3051
sg75
g3036
sg68
(lp3052
g61
(g62
g63
NtRp3053
(dp3054
g66
(dp3055
g74
I3
ssg75
g3049
sg68
(lp3056
g194
asbasbasbag61
(g77
g63
NtRp3057
(dp3058
g66
(dp3059
sg75
g2801
sg68
(lp3060
g61
(g82
g63
NtRp3061
(dp3062
g66
(dp3063
g86
g87
ssg75
g3057
sg68
(lp3064
S'REMOTE_PORT'
p3065
asbag61
(g82
g63
NtRp3066
(dp3067
g66
(dp3068
g93
g94
ssg75
g3057
sg68
(lp3069
S':'
asbag61
(g82
g63
NtRp3070
(dp3071
g66
(dp3072
sg75
g3057
sg68
(lp3073
g61
(g62
g63
NtRp3074
(dp3075
g66
(dp3076
g74
I3
ssg75
g3070
sg68
(lp3077
g1681
asbasbasbag61
(g77
g63
NtRp3078
(dp3079
g66
(dp3080
sg75
g2801
sg68
(lp3081
g61
(g82
g63
NtRp3082
(dp3083
g66
(dp3084
g86
g87
ssg75
g3078
sg68
(lp3085
S'REQUEST_METHOD'
p3086
asbag61
(g82
g63
NtRp3087
(dp3088
g66
(dp3089
g93
g94
ssg75
g3078
sg68
(lp3090
S':'
asbag61
(g82
g63
NtRp3091
(dp3092
g66
(dp3093
sg75
g3078
sg68
(lp3094
g61
(g62
g63
NtRp3095
(dp3096
g66
(dp3097
g74
I3
ssg75
g3091
sg68
(lp3098
g1703
asbasbasbag61
(g77
g63
NtRp3099
(dp3100
g66
(dp3101
sg75
g2801
sg68
(lp3102
g61
(g82
g63
NtRp3103
(dp3104
g66
(dp3105
g86
g87
ssg75
g3099
sg68
(lp3106
S'SCRIPT_NAME'
p3107
asbag61
(g82
g63
NtRp3108
(dp3109
g66
(dp3110
g93
g94
ssg75
g3099
sg68
(lp3111
S':'
asbag61
(g82
g63
NtRp3112
(dp3113
g66
(dp3114
sg75
g3099
sg68
(lp3115
g61
(g62
g63
NtRp3116
(dp3117
g66
(dp3118
g74
I3
ssg75
g3112
sg68
(lp3119
S''
asbasbasbag61
(g77
g63
NtRp3120
(dp3121
g66
(dp3122
sg75
g2801
sg68
(lp3123
g61
(g82
g63
NtRp3124
(dp3125
g66
(dp3126
g86
g87
ssg75
g3120
sg68
(lp3127
S'SERVER_NAME'
p3128
asbag61
(g82
g63
NtRp3129
(dp3130
g66
(dp3131
g93
g94
ssg75
g3120
sg68
(lp3132
S':'
asbag61
(g82
g63
NtRp3133
(dp3134
g66
(dp3135
sg75
g3120
sg68
(lp3136
g61
(g62
g63
NtRp3137
(dp3138
g66
(dp3139
g74
I3
ssg75
g3133
sg68
(lp3140
g1746
asbasbasbag61
(g77
g63
NtRp3141
(dp3142
g66
(dp3143
sg75
g2801
sg68
(lp3144
g61
(g82
g63
NtRp3145
(dp3146
g66
(dp3147
g86
g87
ssg75
g3141
sg68
(lp3148
S'SERVER_PORT'
p3149
asbag61
(g82
g63
NtRp3150
(dp3151
g66
(dp3152
g93
g94
ssg75
g3141
sg68
(lp3153
S':'
asbag61
(g82
g63
NtRp3154
(dp3155
g66
(dp3156
sg75
g3141
sg68
(lp3157
g61
(g62
g63
NtRp3158
(dp3159
g66
(dp3160
g74
I3
ssg75
g3154
sg68
(lp3161
g1768
asbasbasbag61
(g77
g63
NtRp3162
(dp3163
g66
(dp3164
sg75
g2801
sg68
(lp3165
g61
(g82
g63
NtRp3166
(dp3167
g66
(dp3168
g86
g87
ssg75
g3162
sg68
(lp3169
S'SERVER_PROTOCOL'
p3170
asbag61
(g82
g63
NtRp3171
(dp3172
g66
(dp3173
g93
g94
ssg75
g3162
sg68
(lp3174
S':'
asbag61
(g82
g63
NtRp3175
(dp3176
g66
(dp3177
sg75
g3162
sg68
(lp3178
g61
(g62
g63
NtRp3179
(dp3180
g66
(dp3181
g74
I3
ssg75
g3175
sg68
(lp3182
g1790
asbasbasbag61
(g77
g63
NtRp3183
(dp3184
g66
(dp3185
sg75
g2801
sg68
(lp3186
g61
(g82
g63
NtRp3187
(dp3188
g66
(dp3189
g86
g87
ssg75
g3183
sg68
(lp3190
S'SERVER_SOFTWARE'
p3191
asbag61
(g82
g63
NtRp3192
(dp3193
g66
(dp3194
g93
g94
ssg75
g3183
sg68
(lp3195
S':'
asbag61
(g82
g63
NtRp3196
(dp3197
g66
(dp3198
sg75
g3183
sg68
(lp3199
g61
(g62
g63
NtRp3200
(dp3201
g66
(dp3202
g74
I3
ssg75
g3196
sg68
(lp3203
g1812
asbasbasbag61
(g77
g63
NtRp3204
(dp3205
g66
(dp3206
sg75
g2801
sg68
(lp3207
g61
(g82
g63
NtRp3208
(dp3209
g66
(dp3210
g86
g87
ssg75
g3204
sg68
(lp3211
S'wsgi.errors'
p3212
asbag61
(g82
g63
NtRp3213
(dp3214
g66
(dp3215
g93
g94
ssg75
g3204
sg68
(lp3216
S':'
asbag61
(g82
g63
NtRp3217
(dp3218
g66
(dp3219
sg75
g3204
sg68
(lp3220
g61
(g62
g63
NtRp3221
(dp3222
g66
(dp3223
g74
I3
ssg75
g3217
sg68
(lp3224
S"<open file '<stderr>', mode 'w' at 0xb744c0d0>"
p3225
asbasbasbag61
(g77
g63
NtRp3226
(dp3227
g66
(dp3228
sg75
g2801
sg68
(lp3229
g61
(g82
g63
NtRp3230
(dp3231
g66
(dp3232
g86
g87
ssg75
g3226
sg68
(lp3233
S'wsgi.file_wrapper'
p3234
asbag61
(g82
g63
NtRp3235
(dp3236
g66
(dp3237
g93
g94
ssg75
g3226
sg68
(lp3238
S':'
asbag61
(g82
g63
NtRp3239
(dp3240
g66
(dp3241
sg75
g3226
sg68
(lp3242
g61
(g62
g63
NtRp3243
(dp3244
g66
(dp3245
g74
I3
ssg75
g3239
sg68
(lp3246
S'<class wsgiref.util.FileWrapper at 0x959af5c>'
p3247
asbasbasbag61
(g77
g63
NtRp3248
(dp3249
g66
(dp3250
sg75
g2801
sg68
(lp3251
g61
(g82
g63
NtRp3252
(dp3253
g66
(dp3254
g86
g87
ssg75
g3248
sg68
(lp3255
S'wsgi.input'
p3256
asbag61
(g82
g63
NtRp3257
(dp3258
g66
(dp3259
g93
g94
ssg75
g3248
sg68
(lp3260
S':'
asbag61
(g82
g63
NtRp3261
(dp3262
g66
(dp3263
sg75
g3248
sg68
(lp3264
g61
(g62
g63
NtRp3265
(dp3266
g66
(dp3267
g74
I3
ssg75
g3261
sg68
(lp3268
S'<cStringIO.StringO object at 0x9ea0980>'
p3269
asbasbasbag61
(g77
g63
NtRp3270
(dp3271
g66
(dp3272
sg75
g2801
sg68
(lp3273
g61
(g82
g63
NtRp3274
(dp3275
g66
(dp3276
g86
g87
ssg75
g3270
sg68
(lp3277
S'wsgi.multiprocess'
p3278
asbag61
(g82
g63
NtRp3279
(dp3280
g66
(dp3281
g93
g94
ssg75
g3270
sg68
(lp3282
S':'
asbag61
(g82
g63
NtRp3283
(dp3284
g66
(dp3285
sg75
g3270
sg68
(lp3286
g61
(g62
g63
NtRp3287
(dp3288
g66
(dp3289
g74
I3
ssg75
g3283
sg68
(lp3290
g104
asbasbasbag61
(g77
g63
NtRp3291
(dp3292
g66
(dp3293
sg75
g2801
sg68
(lp3294
g61
(g82
g63
NtRp3295
(dp3296
g66
(dp3297
g86
g87
ssg75
g3291
sg68
(lp3298
S'wsgi.multithread'
p3299
asbag61
(g82
g63
NtRp3300
(dp3301
g66
(dp3302
g93
g94
ssg75
g3291
sg68
(lp3303
S':'
asbag61
(g82
g63
NtRp3304
(dp3305
g66
(dp3306
sg75
g3291
sg68
(lp3307
g61
(g62
g63
NtRp3308
(dp3309
g66
(dp3310
g74
I3
ssg75
g3304
sg68
(lp3311
g2052
asbasbasbag61
(g77
g63
NtRp3312
(dp3313
g66
(dp3314
sg75
g2801
sg68
(lp3315
g61
(g82
g63
NtRp3316
(dp3317
g66
(dp3318
g86
g87
ssg75
g3312
sg68
(lp3319
S'wsgi.run_once'
p3320
asbag61
(g82
g63
NtRp3321
(dp3322
g66
(dp3323
g93
g94
ssg75
g3312
sg68
(lp3324
S':'
asbag61
(g82
g63
NtRp3325
(dp3326
g66
(dp3327
sg75
g3312
sg68
(lp3328
g61
(g62
g63
NtRp3329
(dp3330
g66
(dp3331
g74
I3
ssg75
g3325
sg68
(lp3332
g104
asbasbasbag61
(g77
g63
NtRp3333
(dp3334
g66
(dp3335
sg75
g2801
sg68
(lp3336
g61
(g82
g63
NtRp3337
(dp3338
g66
(dp3339
g86
g87
ssg75
g3333
sg68
(lp3340
S'wsgi.url_scheme'
p3341
asbag61
(g82
g63
NtRp3342
(dp3343
g66
(dp3344
g93
g94
ssg75
g3333
sg68
(lp3345
S':'
asbag61
(g82
g63
NtRp3346
(dp3347
g66
(dp3348
sg75
g3333
sg68
(lp3349
g61
(g62
g63
NtRp3350
(dp3351
g66
(dp3352
g74
I3
ssg75
g3346
sg68
(lp3353
g2095
asbasbasbag61
(g77
g63
NtRp3354
(dp3355
g66
(dp3356
sg75
g2801
sg68
(lp3357
g61
(g82
g63
NtRp3358
(dp3359
g66
(dp3360
g86
g87
ssg75
g3354
sg68
(lp3361
S'wsgi.version'
p3362
asbag61
(g82
g63
NtRp3363
(dp3364
g66
(dp3365
g93
g94
ssg75
g3354
sg68
(lp3366
S':'
asbag61
(g82
g63
NtRp3367
(dp3368
g66
(dp3369
sg75
g3354
sg68
(lp3370
g61
(g62
g63
NtRp3371
(dp3372
g66
(dp3373
g74
I3
ssg75
g3367
sg68
(lp3374
S'1'
asbasbasbasbasbasbasbasbasbasbasbasbasbsS'frames'
p3375
(lp3376
(dp3377
S'file'
p3378
S'/home/arpita/courses/sem3/ssad/web2py/gluon/restricted.py'
p3379
sS'dump'
p3380
(dp3381
S'environment'
p3382
S"{'A': <class 'gluon.html.A'>, 'Auth': <class 'gluon.tools.Auth'>, 'B': <class 'gluon.html.B'>, 'BEAUTIFY': <class 'gluon.html.BEAUTIFY'>, 'BODY': <class 'gluon.html.BODY'>, 'BR': <class 'gluon.html.BR'>, 'BUTTON': <class 'gluon.html.BUTTON'>, 'CAT': <class 'gluon.html.CAT'>, 'CENTER': <class 'gluon.html.CENTER'>, 'CLEANUP': <class 'gluon.validators.CLEANUP'>, ...}"
p3383
sS'ccode'
p3384
S'<code object <module> at 0x9c46ba8, file "/home/...b2py/applications/project/models/db.py", line 12>'
p3385
ssS'lnum'
p3386
I205
sS'lines'
p3387
(dp3388
I200
S'    try:'
p3389
sI201
S'        if type(code) == types.CodeType:'
p3390
sI202
S'            ccode = code'
p3391
sI203
S'        else:'
p3392
sI204
S'            ccode = compile2(code,layer)'
p3393
sI205
S'        exec ccode in environment'
p3394
sI206
S'    except HTTP:'
p3395
sI207
S'        raise'
p3396
sI208
S'    except RestrictedError:'
p3397
sI209
S'        # do not encapsulate (obfuscate) the original RestrictedError'
p3398
ssS'call'
p3399
S'(code="# -*- coding: utf-8 -*-\\n\\n#######################...ee\',\\nField(\'Name\'),\\nField(\'Emp_ID\',unique=True))\\n", environment={\'A\': <class \'gluon.html.A\'>, \'Auth\': <class \'gluon.tools.Auth\'>, \'B\': <class \'gluon.html.B\'>, \'BEAUTIFY\': <class \'gluon.html.BEAUTIFY\'>, \'BODY\': <class \'gluon.html.BODY\'>, \'BR\': <class \'gluon.html.BR\'>, \'BUTTON\': <class \'gluon.html.BUTTON\'>, \'CAT\': <class \'gluon.html.CAT\'>, \'CENTER\': <class \'gluon.html.CENTER\'>, \'CLEANUP\': <class \'gluon.validators.CLEANUP\'>, ...}, layer=\'/home/arpita/courses/sem3/ssad/web2py/applications/project/models/db.py\')'
p3400
sS'func'
p3401
S'restricted'
p3402
sa(dp3403
g3378
S'/home/arpita/courses/sem3/ssad/web2py/applications/project/models/db.py'
p3404
sg3380
(dp3405
S'Field'
p3406
S"<class 'gluon.dal.Field'>"
p3407
sS'builtinTrue'
p3408
g2052
sS'unique'
p3409
S'undefined'
p3410
ssg3386
I83
sg3387
(dp3411
I74
S'##'
p3412
sI75
S'## More API examples for controllers:'
p3413
sI76
S'##'
p3414
sI77
S"## >>> db.mytable.insert(myfield='value')"
p3415
sI78
S"## >>> rows=db(db.mytable.myfield=='value').select(db.mytable.ALL)"
p3416
sI79
S'## >>> for row in rows: print row.id, row.myfield'
p3417
sI80
S'#########################################################################'
p3418
sI81
S"db.define_table('Employee',"
p3419
sI82
S"Field('Name'),"
p3420
sI83
S"Field('Emp_ID',unique=True))"
p3421
ssg3399
S'()'
p3422
sg3401
S'<module>'
p3423
sa(dp3424
g3378
S'/home/arpita/courses/sem3/ssad/web2py/gluon/dal.py'
p3425
sg3380
(dp3426
S'polymodel'
p3427
S'None'
p3428
ssg3386
I6320
sg3387
(dp3429
I6315
S"        if migrate or self._adapter.dbengine=='google:datastore':"
p3430
sI6316
S'            try:'
p3431
sI6317
S'                sql_locker.acquire()'
p3432
sI6318
S'                self._adapter.create_table(t,migrate=migrate,'
p3433
sI6319
S'                                           fake_migrate=fake_migrate,'
p3434
sI6320
S'                                           polymodel=polymodel)'
p3435
sI6321
S'            finally:'
p3436
sI6322
S'                sql_locker.release()'
p3437
sI6323
S'        else:'
p3438
sI6324
S'            t._dbt = None'
p3439
ssg3399
S"(self=<DAL {'auth_event': <Table {'origin': <gluon.dal...n_key': <gluon.dal.Field object at 0x9f5338c>}>}>, tablename='Employee', *fields=(<gluon.dal.Field object>, <gluon.dal.Field object>), **args={})"
p3440
sg3401
S'define_table'
p3441
sa(dp3442
g3378
S'/home/arpita/courses/sem3/ssad/web2py/gluon/dal.py'
p3443
sg3380
(dp3444
S'fake_migrate'
p3445
g104
ssg3386
I742
sg3387
(dp3446
I737
S'            self.file_close(tfile)'
p3447
sI738
S'            if sql_fields != sql_fields_old:'
p3448
sI739
S'                self.migrate_table(table,'
p3449
sI740
S'                                   sql_fields, sql_fields_old,'
p3450
sI741
S'                                   sql_fields_aux, logfile,'
p3451
sI742
S'                                   fake_migrate=fake_migrate)'
p3452
sI743
S'        self.file_close(logfile)'
p3453
sI744
S'        return query'
p3454
sI745
S''
sI746
S'    def migrate_table('
p3455
ssg3399
S"(self=<gluon.dal.SQLiteAdapter object>, table=<Table {'ALL': <gluon.dal.SQLALL object at 0xa13...c>, 'id': <gluon.dal.Field object at 0xa1228ec>}>, migrate=True, fake_migrate=False, polymodel=None)"
p3456
sg3401
S'create_table'
p3457
sa(dp3458
g3378
S'/home/arpita/courses/sem3/ssad/web2py/gluon/dal.py'
p3459
sg3380
(dp3460
S'self'
p3461
S'<gluon.dal.SQLiteAdapter object>'
p3462
sS'self.execute'
p3463
S'<bound method SQLiteAdapter.execute of <gluon.dal.SQLiteAdapter object>>'
p3464
sS'sub_query'
p3465
S"'ALTER TABLE Employee ADD emp_id CHAR(512) UNIQUE;'"
p3466
ssg3386
I830
sg3387
(dp3467
I832
S'                        # in one transaction so we must commit partial transactions and'
p3468
sI833
S'                        # update table._dbt after alter table.'
p3469
sI834
S'                        if table._db._adapter.commit_on_alter_table:'
p3470
sI825
S'                              % datetime.datetime.today().isoformat())'
p3471
sI826
S"                table._db['_lastsql'] = '\\n'.join(query)"
p3472
sI827
S'                for sub_query in query:'
p3473
sI828
S"                    logfile.write(sub_query + '\\n')"
p3474
sI829
S'                    if not fake_migrate:'
p3475
sI830
S'                        self.execute(sub_query)'
p3476
sI831
S'                        # Caveat: mysql, oracle and firebird do not allow multiple alter table'
p3477
ssg3399
S"(self=<gluon.dal.SQLiteAdapter object>, table=<Table {'ALL': <gluon.dal.SQLALL object at 0xa13...c>, 'id': <gluon.dal.Field object at 0xa1228ec>}>, sql_fields={'emp_id': {'sortable': 3, 'sql': 'CHAR(512) UNIQUE', 'type': 'string'}, 'id': {'sortable': 1, 'sql': 'INTEGER PRIMARY KEY AUTOINCREMENT', 'type': 'id'}, 'name': {'sortable': 2, 'sql': 'CHAR(512)', 'type': 'string'}}, sql_fields_old={'id': {'sortable': 1, 'sql': 'INTEGER PRIMARY KEY AUTOINCREMENT', 'type': 'id'}, 'name': {'sortable': 2, 'sql': 'CHAR(512)', 'type': 'string'}}, sql_fields_aux={'emp_id': {'sql': 'CHAR(512) UNIQUE'}, 'id': {'sql': 'INTEGER PRIMARY KEY AUTOINCREMENT'}, 'name': {'sql': 'CHAR(512)'}}, logfile=<gluon.portalocker.LockedFile object>, fake_migrate=False)"
p3478
sg3401
S'migrate_table'
p3479
sa(dp3480
g3378
S'/home/arpita/courses/sem3/ssad/web2py/gluon/dal.py'
p3481
sg3380
(dp3482
S'a'
S"('ALTER TABLE Employee ADD emp_id CHAR(512) UNIQUE;',)"
p3483
sS'self'
p3484
S'<gluon.dal.SQLiteAdapter object>'
p3485
sS'b'
g21
sS'self.log_execute'
p3486
S'<bound method SQLiteAdapter.log_execute of <gluon.dal.SQLiteAdapter object>>'
p3487
ssg3386
I1392
sg3387
(dp3488
I1387
S'        self.db._timings.append((a[0],time.time()-t0))'
p3489
sI1388
S'        del self.db._timings[:-TIMINGSSIZE]'
p3490
sI1389
S'        return ret'
p3491
sI1390
S''
sI1391
S'    def execute(self, *a, **b):'
p3492
sI1392
S'        return self.log_execute(*a, **b)'
p3493
sI1393
S''
sI1394
S'    def represent(self, obj, fieldtype):'
p3494
sI1395
S'        if isinstance(obj, CALLABLETYPES):'
p3495
sI1396
S'            obj = obj()'
p3496
ssg3399
S"(self=<gluon.dal.SQLiteAdapter object>, *a=('ALTER TABLE Employee ADD emp_id CHAR(512) UNIQUE;',), **b={})"
p3497
sg3401
S'execute'
p3498
sa(dp3499
g3378
S'/home/arpita/courses/sem3/ssad/web2py/gluon/dal.py'
p3500
sg3380
(dp3501
S'a'
S"('ALTER TABLE Employee ADD emp_id CHAR(512) UNIQUE;',)"
p3502
sS'b'
g21
sS'self'
p3503
S'<gluon.dal.SQLiteAdapter object>'
p3504
sS'ret'
p3505
g3410
sS'self.cursor'
p3506
S'<sqlite3.Cursor object>'
p3507
sS'self.cursor.execute'
p3508
S'<built-in method execute of sqlite3.Cursor object>'
p3509
ssg3386
I1386
sg3387
(dp3510
I1381
S'        self.execute(query)'
p3511
sI1382
S''
sI1383
S'    def log_execute(self, *a, **b):'
p3512
sI1384
S'        self.db._lastsql = a[0]'
p3513
sI1385
S'        t0 = time.time()'
p3514
sI1386
S'        ret = self.cursor.execute(*a, **b)'
p3515
sI1387
S'        self.db._timings.append((a[0],time.time()-t0))'
p3516
sI1388
S'        del self.db._timings[:-TIMINGSSIZE]'
p3517
sI1389
S'        return ret'
p3518
sI1390
S''
ssg3399
S"(self=<gluon.dal.SQLiteAdapter object>, *a=('ALTER TABLE Employee ADD emp_id CHAR(512) UNIQUE;',), **b={})"
p3519
sg3401
S'log_execute'
p3520
sasS'pyver'
p3521
S'Python 2.7.2+: /usr/bin/python'
p3522
sS'session'
p3523
g61
(g62
g63
NtRp3524
(dp3525
g66
(dp3526
sg68
(lp3527
g61
(g70
g63
NtRp3528
(dp3529
g66
(dp3530
g74
I5
ssg75
Nsg68
(lp3531
g61
(g77
g63
NtRp3532
(dp3533
g66
(dp3534
sg75
g3528
sg68
(lp3535
g61
(g82
g63
NtRp3536
(dp3537
g66
(dp3538
g86
g87
ssg75
g3532
sg68
(lp3539
S'auth'
p3540
asbag61
(g82
g63
NtRp3541
(dp3542
g66
(dp3543
g93
g94
ssg75
g3532
sg68
(lp3544
S':'
asbag61
(g82
g63
NtRp3545
(dp3546
g66
(dp3547
sg75
g3532
sg68
(lp3548
g61
(g62
g63
NtRp3549
(dp3550
g66
(dp3551
g74
I5
ssg75
g3545
sg68
(lp3552
g61
(g70
g63
NtRp3553
(dp3554
g66
(dp3555
g74
I4
ssg75
Nsg68
(lp3556
g61
(g77
g63
NtRp3557
(dp3558
g66
(dp3559
sg75
g3553
sg68
(lp3560
g61
(g82
g63
NtRp3561
(dp3562
g66
(dp3563
g86
g87
ssg75
g3557
sg68
(lp3564
S'expiration'
p3565
asbag61
(g82
g63
NtRp3566
(dp3567
g66
(dp3568
g93
g94
ssg75
g3557
sg68
(lp3569
S':'
asbag61
(g82
g63
NtRp3570
(dp3571
g66
(dp3572
sg75
g3557
sg68
(lp3573
g61
(g62
g63
NtRp3574
(dp3575
g66
(dp3576
g74
I4
ssg75
g3570
sg68
(lp3577
S'3600'
p3578
asbasbasbag61
(g77
g63
NtRp3579
(dp3580
g66
(dp3581
sg75
g3553
sg68
(lp3582
g61
(g82
g63
NtRp3583
(dp3584
g66
(dp3585
g86
g87
ssg75
g3579
sg68
(lp3586
S'hmac_key'
p3587
asbag61
(g82
g63
NtRp3588
(dp3589
g66
(dp3590
g93
g94
ssg75
g3579
sg68
(lp3591
S':'
asbag61
(g82
g63
NtRp3592
(dp3593
g66
(dp3594
sg75
g3579
sg68
(lp3595
g61
(g62
g63
NtRp3596
(dp3597
g66
(dp3598
g74
I4
ssg75
g3592
sg68
(lp3599
S'5a63016e-d9eb-4c06-bce8-3a89ae36be8a'
p3600
asbasbasbag61
(g77
g63
NtRp3601
(dp3602
g66
(dp3603
sg75
g3553
sg68
(lp3604
g61
(g82
g63
NtRp3605
(dp3606
g66
(dp3607
g86
g87
ssg75
g3601
sg68
(lp3608
S'last_visit'
p3609
asbag61
(g82
g63
NtRp3610
(dp3611
g66
(dp3612
g93
g94
ssg75
g3601
sg68
(lp3613
S':'
asbag61
(g82
g63
NtRp3614
(dp3615
g66
(dp3616
sg75
g3601
sg68
(lp3617
g61
(g62
g63
NtRp3618
(dp3619
g66
(dp3620
g74
I4
ssg75
g3614
sg68
(lp3621
S'datetime.datetime(2012, 10, 13, 19, 0, 30, 742547)'
p3622
asbasbasbag61
(g77
g63
NtRp3623
(dp3624
g66
(dp3625
sg75
g3553
sg68
(lp3626
g61
(g82
g63
NtRp3627
(dp3628
g66
(dp3629
g86
g87
ssg75
g3623
sg68
(lp3630
S'remember'
p3631
asbag61
(g82
g63
NtRp3632
(dp3633
g66
(dp3634
g93
g94
ssg75
g3623
sg68
(lp3635
S':'
asbag61
(g82
g63
NtRp3636
(dp3637
g66
(dp3638
sg75
g3623
sg68
(lp3639
g61
(g62
g63
NtRp3640
(dp3641
g66
(dp3642
g74
I4
ssg75
g3636
sg68
(lp3643
g104
asbasbasbag61
(g77
g63
NtRp3644
(dp3645
g66
(dp3646
sg75
g3553
sg68
(lp3647
g61
(g82
g63
NtRp3648
(dp3649
g66
(dp3650
g86
g87
ssg75
g3644
sg68
(lp3651
S'user'
p3652
asbag61
(g82
g63
NtRp3653
(dp3654
g66
(dp3655
g93
g94
ssg75
g3644
sg68
(lp3656
S':'
asbag61
(g82
g63
NtRp3657
(dp3658
g66
(dp3659
sg75
g3644
sg68
(lp3660
g61
(g62
g63
NtRp3661
(dp3662
g66
(dp3663
g74
I4
ssg75
g3657
sg68
(lp3664
g61
(g70
g63
NtRp3665
(dp3666
g66
(dp3667
g74
I3
ssg75
Nsg68
(lp3668
g61
(g77
g63
NtRp3669
(dp3670
g66
(dp3671
sg75
g3665
sg68
(lp3672
g61
(g82
g63
NtRp3673
(dp3674
g66
(dp3675
g86
g87
ssg75
g3669
sg68
(lp3676
S'email'
p3677
asbag61
(g82
g63
NtRp3678
(dp3679
g66
(dp3680
g93
g94
ssg75
g3669
sg68
(lp3681
S':'
asbag61
(g82
g63
NtRp3682
(dp3683
g66
(dp3684
sg75
g3669
sg68
(lp3685
g61
(g62
g63
NtRp3686
(dp3687
g66
(dp3688
g74
I3
ssg75
g3682
sg68
(lp3689
S'rammurthy@faculty.iiit.ac.in'
p3690
asbasbasbag61
(g77
g63
NtRp3691
(dp3692
g66
(dp3693
sg75
g3665
sg68
(lp3694
g61
(g82
g63
NtRp3695
(dp3696
g66
(dp3697
g86
g87
ssg75
g3691
sg68
(lp3698
S'first_name'
p3699
asbag61
(g82
g63
NtRp3700
(dp3701
g66
(dp3702
g93
g94
ssg75
g3691
sg68
(lp3703
S':'
asbag61
(g82
g63
NtRp3704
(dp3705
g66
(dp3706
sg75
g3691
sg68
(lp3707
g61
(g62
g63
NtRp3708
(dp3709
g66
(dp3710
g74
I3
ssg75
g3704
sg68
(lp3711
S'rammurthy'
p3712
asbasbasbag61
(g77
g63
NtRp3713
(dp3714
g66
(dp3715
sg75
g3665
sg68
(lp3716
g61
(g82
g63
NtRp3717
(dp3718
g66
(dp3719
g86
g87
ssg75
g3713
sg68
(lp3720
S'id'
p3721
asbag61
(g82
g63
NtRp3722
(dp3723
g66
(dp3724
g93
g94
ssg75
g3713
sg68
(lp3725
S':'
asbag61
(g82
g63
NtRp3726
(dp3727
g66
(dp3728
sg75
g3713
sg68
(lp3729
g61
(g62
g63
NtRp3730
(dp3731
g66
(dp3732
g74
I3
ssg75
g3726
sg68
(lp3733
S'1'
asbasbasbag61
(g77
g63
NtRp3734
(dp3735
g66
(dp3736
sg75
g3665
sg68
(lp3737
g61
(g82
g63
NtRp3738
(dp3739
g66
(dp3740
g86
g87
ssg75
g3734
sg68
(lp3741
S'last_name'
p3742
asbag61
(g82
g63
NtRp3743
(dp3744
g66
(dp3745
g93
g94
ssg75
g3734
sg68
(lp3746
S':'
asbag61
(g82
g63
NtRp3747
(dp3748
g66
(dp3749
sg75
g3734
sg68
(lp3750
g61
(g62
g63
NtRp3751
(dp3752
g66
(dp3753
g74
I3
ssg75
g3747
sg68
(lp3754
S'sir'
p3755
asbasbasbag61
(g77
g63
NtRp3756
(dp3757
g66
(dp3758
sg75
g3665
sg68
(lp3759
g61
(g82
g63
NtRp3760
(dp3761
g66
(dp3762
g86
g87
ssg75
g3756
sg68
(lp3763
S'password'
p3764
asbag61
(g82
g63
NtRp3765
(dp3766
g66
(dp3767
g93
g94
ssg75
g3756
sg68
(lp3768
S':'
asbag61
(g82
g63
NtRp3769
(dp3770
g66
(dp3771
sg75
g3756
sg68
(lp3772
g61
(g62
g63
NtRp3773
(dp3774
g66
(dp3775
g74
I3
ssg75
g3769
sg68
(lp3776
S'9da56e6636f0f89c2a2b7b54a400c423'
p3777
asbasbasbag61
(g77
g63
NtRp3778
(dp3779
g66
(dp3780
sg75
g3665
sg68
(lp3781
g61
(g82
g63
NtRp3782
(dp3783
g66
(dp3784
g86
g87
ssg75
g3778
sg68
(lp3785
S'registration_id'
p3786
asbag61
(g82
g63
NtRp3787
(dp3788
g66
(dp3789
g93
g94
ssg75
g3778
sg68
(lp3790
S':'
asbag61
(g82
g63
NtRp3791
(dp3792
g66
(dp3793
sg75
g3778
sg68
(lp3794
g61
(g62
g63
NtRp3795
(dp3796
g66
(dp3797
g74
I3
ssg75
g3791
sg68
(lp3798
S''
asbasbasbag61
(g77
g63
NtRp3799
(dp3800
g66
(dp3801
sg75
g3665
sg68
(lp3802
g61
(g82
g63
NtRp3803
(dp3804
g66
(dp3805
g86
g87
ssg75
g3799
sg68
(lp3806
S'registration_key'
p3807
asbag61
(g82
g63
NtRp3808
(dp3809
g66
(dp3810
g93
g94
ssg75
g3799
sg68
(lp3811
S':'
asbag61
(g82
g63
NtRp3812
(dp3813
g66
(dp3814
sg75
g3799
sg68
(lp3815
g61
(g62
g63
NtRp3816
(dp3817
g66
(dp3818
g74
I3
ssg75
g3812
sg68
(lp3819
S''
asbasbasbag61
(g77
g63
NtRp3820
(dp3821
g66
(dp3822
sg75
g3665
sg68
(lp3823
g61
(g82
g63
NtRp3824
(dp3825
g66
(dp3826
g86
g87
ssg75
g3820
sg68
(lp3827
S'reset_password_key'
p3828
asbag61
(g82
g63
NtRp3829
(dp3830
g66
(dp3831
g93
g94
ssg75
g3820
sg68
(lp3832
S':'
asbag61
(g82
g63
NtRp3833
(dp3834
g66
(dp3835
sg75
g3820
sg68
(lp3836
g61
(g62
g63
NtRp3837
(dp3838
g66
(dp3839
g74
I3
ssg75
g3833
sg68
(lp3840
S''
asbasbasbasbasbasbasbag61
(g77
g63
NtRp3841
(dp3842
g66
(dp3843
sg75
g3553
sg68
(lp3844
g61
(g82
g63
NtRp3845
(dp3846
g66
(dp3847
g86
g87
ssg75
g3841
sg68
(lp3848
S'user_groups'
p3849
asbag61
(g82
g63
NtRp3850
(dp3851
g66
(dp3852
g93
g94
ssg75
g3841
sg68
(lp3853
S':'
asbag61
(g82
g63
NtRp3854
(dp3855
g66
(dp3856
sg75
g3841
sg68
(lp3857
g61
(g62
g63
NtRp3858
(dp3859
g66
(dp3860
g74
I4
ssg75
g3854
sg68
(lp3861
g61
(g70
g63
NtRp3862
(dp3863
g66
(dp3864
g74
I3
ssg75
Nsg68
(lp3865
g61
(g77
g63
NtRp3866
(dp3867
g66
(dp3868
sg75
g3862
sg68
(lp3869
g61
(g82
g63
NtRp3870
(dp3871
g66
(dp3872
g86
g87
ssg75
g3866
sg68
(lp3873
S'1'
asbag61
(g82
g63
NtRp3874
(dp3875
g66
(dp3876
g93
g94
ssg75
g3866
sg68
(lp3877
S':'
asbag61
(g82
g63
NtRp3878
(dp3879
g66
(dp3880
sg75
g3866
sg68
(lp3881
g61
(g62
g63
NtRp3882
(dp3883
g66
(dp3884
g74
I3
ssg75
g3878
sg68
(lp3885
S'user_1'
p3886
asbasbasbag61
(g77
g63
NtRp3887
(dp3888
g66
(dp3889
sg75
g3862
sg68
(lp3890
g61
(g82
g63
NtRp3891
(dp3892
g66
(dp3893
g86
g87
ssg75
g3887
sg68
(lp3894
S'2'
asbag61
(g82
g63
NtRp3895
(dp3896
g66
(dp3897
g93
g94
ssg75
g3887
sg68
(lp3898
S':'
asbag61
(g82
g63
NtRp3899
(dp3900
g66
(dp3901
sg75
g3887
sg68
(lp3902
g61
(g62
g63
NtRp3903
(dp3904
g66
(dp3905
g74
I3
ssg75
g3899
sg68
(lp3906
S'Administrator'
p3907
asbasbasbasbasbasbasbasbasbasbasbasbasbsS'etype'
p3908
S"<class 'sqlite3.OperationalError'>"
p3909
sS'date'
p3910
S'Sat Oct 13 19:03:08 2012'
p3911
sS'response'
p3912
g61
(g62
g63
NtRp3913
(dp3914
g66
(dp3915
sg68
(lp3916
g61
(g70
g63
NtRp3917
(dp3918
g66
(dp3919
g74
I5
ssg75
Nsg68
(lp3920
g61
(g77
g63
NtRp3921
(dp3922
g66
(dp3923
sg75
g3917
sg68
(lp3924
g61
(g82
g63
NtRp3925
(dp3926
g66
(dp3927
g86
g87
ssg75
g3921
sg68
(lp3928
g159
asbag61
(g82
g63
NtRp3929
(dp3930
g66
(dp3931
g93
g94
ssg75
g3921
sg68
(lp3932
S':'
asbag61
(g82
g63
NtRp3933
(dp3934
g66
(dp3935
sg75
g3921
sg68
(lp3936
g61
(g62
g63
NtRp3937
(dp3938
g66
(dp3939
g74
I5
ssg75
g3933
sg68
(lp3940
S'<cStringIO.StringO object at 0xa84bc20>'
p3941
asbasbasbag61
(g77
g63
NtRp3942
(dp3943
g66
(dp3944
sg75
g3917
sg68
(lp3945
g61
(g82
g63
NtRp3946
(dp3947
g66
(dp3948
g86
g87
ssg75
g3942
sg68
(lp3949
g225
asbag61
(g82
g63
NtRp3950
(dp3951
g66
(dp3952
g93
g94
ssg75
g3942
sg68
(lp3953
S':'
asbag61
(g82
g63
NtRp3954
(dp3955
g66
(dp3956
sg75
g3942
sg68
(lp3957
g61
(g62
g63
NtRp3958
(dp3959
g66
(dp3960
g74
I5
ssg75
g3954
sg68
(lp3961
g61
(g70
g63
NtRp3962
(dp3963
g66
(dp3964
g74
I4
ssg75
Nsg68
(lp3965
g61
(g77
g63
NtRp3966
(dp3967
g66
(dp3968
sg75
g3962
sg68
(lp3969
g61
(g82
g63
NtRp3970
(dp3971
g66
(dp3972
g86
g87
ssg75
g3966
sg68
(lp3973
S'session_id_project'
p3974
asbag61
(g82
g63
NtRp3975
(dp3976
g66
(dp3977
g93
g94
ssg75
g3966
sg68
(lp3978
S':'
asbag61
(g82
g63
NtRp3979
(dp3980
g66
(dp3981
sg75
g3966
sg68
(lp3982
g61
(g62
g63
NtRp3983
(dp3984
g66
(dp3985
g74
I4
ssg75
g3979
sg68
(lp3986
g61
(g70
g63
NtRp3987
(dp3988
g66
(dp3989
g74
I3
ssg75
Nsg68
(lp3990
g61
(g77
g63
NtRp3991
(dp3992
g66
(dp3993
sg75
g3987
sg68
(lp3994
g61
(g82
g63
NtRp3995
(dp3996
g66
(dp3997
g86
g87
ssg75
g3991
sg68
(lp3998
g275
asbag61
(g82
g63
NtRp3999
(dp4000
g66
(dp4001
g93
g94
ssg75
g3991
sg68
(lp4002
S':'
asbag61
(g82
g63
NtRp4003
(dp4004
g66
(dp4005
sg75
g3991
sg68
(lp4006
g61
(g62
g63
NtRp4007
(dp4008
g66
(dp4009
g74
I3
ssg75
g4003
sg68
(lp4010
S''
asbasbasbag61
(g77
g63
NtRp4011
(dp4012
g66
(dp4013
sg75
g3987
sg68
(lp4014
g61
(g82
g63
NtRp4015
(dp4016
g66
(dp4017
g86
g87
ssg75
g4011
sg68
(lp4018
g296
asbag61
(g82
g63
NtRp4019
(dp4020
g66
(dp4021
g93
g94
ssg75
g4011
sg68
(lp4022
S':'
asbag61
(g82
g63
NtRp4023
(dp4024
g66
(dp4025
sg75
g4011
sg68
(lp4026
g61
(g62
g63
NtRp4027
(dp4028
g66
(dp4029
g74
I3
ssg75
g4023
sg68
(lp4030
S''
asbasbasbag61
(g77
g63
NtRp4031
(dp4032
g66
(dp4033
sg75
g3987
sg68
(lp4034
g61
(g82
g63
NtRp4035
(dp4036
g66
(dp4037
g86
g87
ssg75
g4031
sg68
(lp4038
g317
asbag61
(g82
g63
NtRp4039
(dp4040
g66
(dp4041
g93
g94
ssg75
g4031
sg68
(lp4042
S':'
asbag61
(g82
g63
NtRp4043
(dp4044
g66
(dp4045
sg75
g4031
sg68
(lp4046
g61
(g62
g63
NtRp4047
(dp4048
g66
(dp4049
g74
I3
ssg75
g4043
sg68
(lp4050
S''
asbasbasbag61
(g77
g63
NtRp4051
(dp4052
g66
(dp4053
sg75
g3987
sg68
(lp4054
g61
(g82
g63
NtRp4055
(dp4056
g66
(dp4057
g86
g87
ssg75
g4051
sg68
(lp4058
g338
asbag61
(g82
g63
NtRp4059
(dp4060
g66
(dp4061
g93
g94
ssg75
g4051
sg68
(lp4062
S':'
asbag61
(g82
g63
NtRp4063
(dp4064
g66
(dp4065
sg75
g4051
sg68
(lp4066
g61
(g62
g63
NtRp4067
(dp4068
g66
(dp4069
g74
I3
ssg75
g4063
sg68
(lp4070
S''
asbasbasbag61
(g77
g63
NtRp4071
(dp4072
g66
(dp4073
sg75
g3987
sg68
(lp4074
g61
(g82
g63
NtRp4075
(dp4076
g66
(dp4077
g86
g87
ssg75
g4071
sg68
(lp4078
g359
asbag61
(g82
g63
NtRp4079
(dp4080
g66
(dp4081
g93
g94
ssg75
g4071
sg68
(lp4082
S':'
asbag61
(g82
g63
NtRp4083
(dp4084
g66
(dp4085
sg75
g4071
sg68
(lp4086
g61
(g62
g63
NtRp4087
(dp4088
g66
(dp4089
g74
I3
ssg75
g4083
sg68
(lp4090
S''
asbasbasbag61
(g77
g63
NtRp4091
(dp4092
g66
(dp4093
sg75
g3987
sg68
(lp4094
g61
(g82
g63
NtRp4095
(dp4096
g66
(dp4097
g86
g87
ssg75
g4091
sg68
(lp4098
g380
asbag61
(g82
g63
NtRp4099
(dp4100
g66
(dp4101
g93
g94
ssg75
g4091
sg68
(lp4102
S':'
asbag61
(g82
g63
NtRp4103
(dp4104
g66
(dp4105
sg75
g4091
sg68
(lp4106
g61
(g62
g63
NtRp4107
(dp4108
g66
(dp4109
g74
I3
ssg75
g4103
sg68
(lp4110
S'/'
asbasbasbag61
(g77
g63
NtRp4111
(dp4112
g66
(dp4113
sg75
g3987
sg68
(lp4114
g61
(g82
g63
NtRp4115
(dp4116
g66
(dp4117
g86
g87
ssg75
g4111
sg68
(lp4118
g401
asbag61
(g82
g63
NtRp4119
(dp4120
g66
(dp4121
g93
g94
ssg75
g4111
sg68
(lp4122
S':'
asbag61
(g82
g63
NtRp4123
(dp4124
g66
(dp4125
sg75
g4111
sg68
(lp4126
g61
(g62
g63
NtRp4127
(dp4128
g66
(dp4129
g74
I3
ssg75
g4123
sg68
(lp4130
S''
asbasbasbag61
(g77
g63
NtRp4131
(dp4132
g66
(dp4133
sg75
g3987
sg68
(lp4134
g61
(g82
g63
NtRp4135
(dp4136
g66
(dp4137
g86
g87
ssg75
g4131
sg68
(lp4138
g422
asbag61
(g82
g63
NtRp4139
(dp4140
g66
(dp4141
g93
g94
ssg75
g4131
sg68
(lp4142
S':'
asbag61
(g82
g63
NtRp4143
(dp4144
g66
(dp4145
sg75
g4131
sg68
(lp4146
g61
(g62
g63
NtRp4147
(dp4148
g66
(dp4149
g74
I3
ssg75
g4143
sg68
(lp4150
S''
asbasbasbasbasbasbasbasbasbasbasbag61
(g77
g63
NtRp4151
(dp4152
g66
(dp4153
sg75
g3917
sg68
(lp4154
g61
(g82
g63
NtRp4155
(dp4156
g66
(dp4157
g86
g87
ssg75
g4151
sg68
(lp4158
S'delimiters'
p4159
asbag61
(g82
g63
NtRp4160
(dp4161
g66
(dp4162
g93
g94
ssg75
g4151
sg68
(lp4163
S':'
asbag61
(g82
g63
NtRp4164
(dp4165
g66
(dp4166
sg75
g4151
sg68
(lp4167
g61
(g62
g63
NtRp4168
(dp4169
g66
(dp4170
g74
I5
ssg75
g4164
sg68
(lp4171
g61
(g70
g63
NtRp4172
(dp4173
g66
(dp4174
g74
I4
ssg75
Nsg68
(lp4175
g61
(g77
g63
NtRp4176
(dp4177
g66
(dp4178
sg75
g4172
sg68
(lp4179
g61
(g82
g63
NtRp4180
(dp4181
g66
(dp4182
sg75
g4176
sg68
(lp4183
g61
(g62
g63
NtRp4184
(dp4185
g66
(dp4186
g74
I4
ssg75
g4180
sg68
(lp4187
S'{{'
p4188
asbasbasbag61
(g77
g63
NtRp4189
(dp4190
g66
(dp4191
sg75
g4172
sg68
(lp4192
g61
(g82
g63
NtRp4193
(dp4194
g66
(dp4195
sg75
g4189
sg68
(lp4196
g61
(g62
g63
NtRp4197
(dp4198
g66
(dp4199
g74
I4
ssg75
g4193
sg68
(lp4200
S'}}'
p4201
asbasbasbasbasbasbasbag61
(g77
g63
NtRp4202
(dp4203
g66
(dp4204
sg75
g3917
sg68
(lp4205
g61
(g82
g63
NtRp4206
(dp4207
g66
(dp4208
g86
g87
ssg75
g4202
sg68
(lp4209
S'files'
p4210
asbag61
(g82
g63
NtRp4211
(dp4212
g66
(dp4213
g93
g94
ssg75
g4202
sg68
(lp4214
S':'
asbag61
(g82
g63
NtRp4215
(dp4216
g66
(dp4217
sg75
g4202
sg68
(lp4218
g61
(g62
g63
NtRp4219
(dp4220
g66
(dp4221
g74
I5
ssg75
g4215
sg68
(lp4222
g61
(g70
g63
NtRp4223
(dp4224
g66
(dp4225
g74
I4
ssg75
Nsg68
(lp4226
sbasbasbasbag61
(g77
g63
NtRp4227
(dp4228
g66
(dp4229
sg75
g3917
sg68
(lp4230
g61
(g82
g63
NtRp4231
(dp4232
g66
(dp4233
g86
g87
ssg75
g4227
sg68
(lp4234
S'flash'
p4235
asbag61
(g82
g63
NtRp4236
(dp4237
g66
(dp4238
g93
g94
ssg75
g4227
sg68
(lp4239
S':'
asbag61
(g82
g63
NtRp4240
(dp4241
g66
(dp4242
sg75
g4227
sg68
(lp4243
g61
(g62
g63
NtRp4244
(dp4245
g66
(dp4246
g74
I5
ssg75
g4240
sg68
(lp4247
S''
asbasbasbag61
(g77
g63
NtRp4248
(dp4249
g66
(dp4250
sg75
g3917
sg68
(lp4251
g61
(g82
g63
NtRp4252
(dp4253
g66
(dp4254
g86
g87
ssg75
g4248
sg68
(lp4255
S'generic_patterns'
p4256
asbag61
(g82
g63
NtRp4257
(dp4258
g66
(dp4259
g93
g94
ssg75
g4248
sg68
(lp4260
S':'
asbag61
(g82
g63
NtRp4261
(dp4262
g66
(dp4263
sg75
g4248
sg68
(lp4264
g61
(g62
g63
NtRp4265
(dp4266
g66
(dp4267
g74
I5
ssg75
g4261
sg68
(lp4268
g61
(g70
g63
NtRp4269
(dp4270
g66
(dp4271
g74
I4
ssg75
Nsg68
(lp4272
g61
(g77
g63
NtRp4273
(dp4274
g66
(dp4275
sg75
g4269
sg68
(lp4276
g61
(g82
g63
NtRp4277
(dp4278
g66
(dp4279
sg75
g4273
sg68
(lp4280
g61
(g62
g63
NtRp4281
(dp4282
g66
(dp4283
g74
I4
ssg75
g4277
sg68
(lp4284
S'*'
asbasbasbasbasbasbasbag61
(g77
g63
NtRp4285
(dp4286
g66
(dp4287
sg75
g3917
sg68
(lp4288
g61
(g82
g63
NtRp4289
(dp4290
g66
(dp4291
g86
g87
ssg75
g4285
sg68
(lp4292
S'headers'
p4293
asbag61
(g82
g63
NtRp4294
(dp4295
g66
(dp4296
g93
g94
ssg75
g4285
sg68
(lp4297
S':'
asbag61
(g82
g63
NtRp4298
(dp4299
g66
(dp4300
sg75
g4285
sg68
(lp4301
g61
(g62
g63
NtRp4302
(dp4303
g66
(dp4304
g74
I5
ssg75
g4298
sg68
(lp4305
g61
(g70
g63
NtRp4306
(dp4307
g66
(dp4308
g74
I4
ssg75
Nsg68
(lp4309
g61
(g77
g63
NtRp4310
(dp4311
g66
(dp4312
sg75
g4306
sg68
(lp4313
g61
(g82
g63
NtRp4314
(dp4315
g66
(dp4316
g86
g87
ssg75
g4310
sg68
(lp4317
S'Cache-Control'
p4318
asbag61
(g82
g63
NtRp4319
(dp4320
g66
(dp4321
g93
g94
ssg75
g4310
sg68
(lp4322
S':'
asbag61
(g82
g63
NtRp4323
(dp4324
g66
(dp4325
sg75
g4310
sg68
(lp4326
g61
(g62
g63
NtRp4327
(dp4328
g66
(dp4329
g74
I4
ssg75
g4323
sg68
(lp4330
S'no-store, no-cache, must-revalidate, post-check=0, pre-check=0'
p4331
asbasbasbag61
(g77
g63
NtRp4332
(dp4333
g66
(dp4334
sg75
g4306
sg68
(lp4335
g61
(g82
g63
NtRp4336
(dp4337
g66
(dp4338
g86
g87
ssg75
g4332
sg68
(lp4339
S'Content-Type'
p4340
asbag61
(g82
g63
NtRp4341
(dp4342
g66
(dp4343
g93
g94
ssg75
g4332
sg68
(lp4344
S':'
asbag61
(g82
g63
NtRp4345
(dp4346
g66
(dp4347
sg75
g4332
sg68
(lp4348
g61
(g62
g63
NtRp4349
(dp4350
g66
(dp4351
g74
I4
ssg75
g4345
sg68
(lp4352
S'text/html; charset=utf-8'
p4353
asbasbasbag61
(g77
g63
NtRp4354
(dp4355
g66
(dp4356
sg75
g4306
sg68
(lp4357
g61
(g82
g63
NtRp4358
(dp4359
g66
(dp4360
g86
g87
ssg75
g4354
sg68
(lp4361
S'Expires'
p4362
asbag61
(g82
g63
NtRp4363
(dp4364
g66
(dp4365
g93
g94
ssg75
g4354
sg68
(lp4366
S':'
asbag61
(g82
g63
NtRp4367
(dp4368
g66
(dp4369
sg75
g4354
sg68
(lp4370
g61
(g62
g63
NtRp4371
(dp4372
g66
(dp4373
g74
I4
ssg75
g4367
sg68
(lp4374
S'Sat, 13 Oct 2012 13:33:08 GMT'
p4375
asbasbasbag61
(g77
g63
NtRp4376
(dp4377
g66
(dp4378
sg75
g4306
sg68
(lp4379
g61
(g82
g63
NtRp4380
(dp4381
g66
(dp4382
g86
g87
ssg75
g4376
sg68
(lp4383
S'Pragma'
p4384
asbag61
(g82
g63
NtRp4385
(dp4386
g66
(dp4387
g93
g94
ssg75
g4376
sg68
(lp4388
S':'
asbag61
(g82
g63
NtRp4389
(dp4390
g66
(dp4391
sg75
g4376
sg68
(lp4392
g61
(g62
g63
NtRp4393
(dp4394
g66
(dp4395
g74
I4
ssg75
g4389
sg68
(lp4396
S'no-cache'
p4397
asbasbasbag61
(g77
g63
NtRp4398
(dp4399
g66
(dp4400
sg75
g4306
sg68
(lp4401
g61
(g82
g63
NtRp4402
(dp4403
g66
(dp4404
g86
g87
ssg75
g4398
sg68
(lp4405
S'X-Powered-By'
p4406
asbag61
(g82
g63
NtRp4407
(dp4408
g66
(dp4409
g93
g94
ssg75
g4398
sg68
(lp4410
S':'
asbag61
(g82
g63
NtRp4411
(dp4412
g66
(dp4413
sg75
g4398
sg68
(lp4414
g61
(g62
g63
NtRp4415
(dp4416
g66
(dp4417
g74
I4
ssg75
g4411
sg68
(lp4418
S'web2py'
p4419
asbasbasbasbasbasbasbag61
(g77
g63
NtRp4420
(dp4421
g66
(dp4422
sg75
g3917
sg68
(lp4423
g61
(g82
g63
NtRp4424
(dp4425
g66
(dp4426
g86
g87
ssg75
g4420
sg68
(lp4427
S'menu'
p4428
asbag61
(g82
g63
NtRp4429
(dp4430
g66
(dp4431
g93
g94
ssg75
g4420
sg68
(lp4432
S':'
asbag61
(g82
g63
NtRp4433
(dp4434
g66
(dp4435
sg75
g4420
sg68
(lp4436
g61
(g62
g63
NtRp4437
(dp4438
g66
(dp4439
g74
I5
ssg75
g4433
sg68
(lp4440
g61
(g70
g63
NtRp4441
(dp4442
g66
(dp4443
g74
I4
ssg75
Nsg68
(lp4444
sbasbasbasbag61
(g77
g63
NtRp4445
(dp4446
g66
(dp4447
sg75
g3917
sg68
(lp4448
g61
(g82
g63
NtRp4449
(dp4450
g66
(dp4451
g86
g87
ssg75
g4445
sg68
(lp4452
S'meta'
p4453
asbag61
(g82
g63
NtRp4454
(dp4455
g66
(dp4456
g93
g94
ssg75
g4445
sg68
(lp4457
S':'
asbag61
(g82
g63
NtRp4458
(dp4459
g66
(dp4460
sg75
g4445
sg68
(lp4461
g61
(g62
g63
NtRp4462
(dp4463
g66
(dp4464
g74
I5
ssg75
g4458
sg68
(lp4465
g61
(g70
g63
NtRp4466
(dp4467
g66
(dp4468
g74
I4
ssg75
Nsg68
(lp4469
sbasbasbasbag61
(g77
g63
NtRp4470
(dp4471
g66
(dp4472
sg75
g3917
sg68
(lp4473
g61
(g82
g63
NtRp4474
(dp4475
g66
(dp4476
g86
g87
ssg75
g4470
sg68
(lp4477
S'postprocessing'
p4478
asbag61
(g82
g63
NtRp4479
(dp4480
g66
(dp4481
g93
g94
ssg75
g4470
sg68
(lp4482
S':'
asbag61
(g82
g63
NtRp4483
(dp4484
g66
(dp4485
sg75
g4470
sg68
(lp4486
g61
(g62
g63
NtRp4487
(dp4488
g66
(dp4489
g74
I5
ssg75
g4483
sg68
(lp4490
g61
(g70
g63
NtRp4491
(dp4492
g66
(dp4493
g74
I4
ssg75
Nsg68
(lp4494
sbasbasbasbag61
(g77
g63
NtRp4495
(dp4496
g66
(dp4497
sg75
g3917
sg68
(lp4498
g61
(g82
g63
NtRp4499
(dp4500
g66
(dp4501
g86
g87
ssg75
g4495
sg68
(lp4502
S'session_file'
p4503
asbag61
(g82
g63
NtRp4504
(dp4505
g66
(dp4506
g93
g94
ssg75
g4495
sg68
(lp4507
S':'
asbag61
(g82
g63
NtRp4508
(dp4509
g66
(dp4510
sg75
g4495
sg68
(lp4511
g61
(g62
g63
NtRp4512
(dp4513
g66
(dp4514
g74
I5
ssg75
g4508
sg68
(lp4515
S"<open file '/home/arpita/courses/sem3/ssad/web2py/applications/project/sessions/127.0.0.1-685fbf0f-7e19-4757-b51e-738a125b352f', mode 'rb+' at 0x9d76b20>"
p4516
asbasbasbag61
(g77
g63
NtRp4517
(dp4518
g66
(dp4519
sg75
g3917
sg68
(lp4520
g61
(g82
g63
NtRp4521
(dp4522
g66
(dp4523
g86
g87
ssg75
g4517
sg68
(lp4524
S'session_filename'
p4525
asbag61
(g82
g63
NtRp4526
(dp4527
g66
(dp4528
g93
g94
ssg75
g4517
sg68
(lp4529
S':'
asbag61
(g82
g63
NtRp4530
(dp4531
g66
(dp4532
sg75
g4517
sg68
(lp4533
g61
(g62
g63
NtRp4534
(dp4535
g66
(dp4536
g74
I5
ssg75
g4530
sg68
(lp4537
S'/home/arpita/courses/sem3/ssad/web2py/applications/project/sessions/127.0.0.1-685fbf0f-7e19-4757-b51e-738a125b352f'
p4538
asbasbasbag61
(g77
g63
NtRp4539
(dp4540
g66
(dp4541
sg75
g3917
sg68
(lp4542
g61
(g82
g63
NtRp4543
(dp4544
g66
(dp4545
g86
g87
ssg75
g4539
sg68
(lp4546
S'session_id'
p4547
asbag61
(g82
g63
NtRp4548
(dp4549
g66
(dp4550
g93
g94
ssg75
g4539
sg68
(lp4551
S':'
asbag61
(g82
g63
NtRp4552
(dp4553
g66
(dp4554
sg75
g4539
sg68
(lp4555
g61
(g62
g63
NtRp4556
(dp4557
g66
(dp4558
g74
I5
ssg75
g4552
sg68
(lp4559
S'127.0.0.1-685fbf0f-7e19-4757-b51e-738a125b352f'
p4560
asbasbasbag61
(g77
g63
NtRp4561
(dp4562
g66
(dp4563
sg75
g3917
sg68
(lp4564
g61
(g82
g63
NtRp4565
(dp4566
g66
(dp4567
g86
g87
ssg75
g4561
sg68
(lp4568
S'session_id_name'
p4569
asbag61
(g82
g63
NtRp4570
(dp4571
g66
(dp4572
g93
g94
ssg75
g4561
sg68
(lp4573
S':'
asbag61
(g82
g63
NtRp4574
(dp4575
g66
(dp4576
sg75
g4561
sg68
(lp4577
g61
(g62
g63
NtRp4578
(dp4579
g66
(dp4580
g74
I5
ssg75
g4574
sg68
(lp4581
g3974
asbasbasbag61
(g77
g63
NtRp4582
(dp4583
g66
(dp4584
sg75
g3917
sg68
(lp4585
g61
(g82
g63
NtRp4586
(dp4587
g66
(dp4588
g86
g87
ssg75
g4582
sg68
(lp4589
S'session_locked'
p4590
asbag61
(g82
g63
NtRp4591
(dp4592
g66
(dp4593
g93
g94
ssg75
g4582
sg68
(lp4594
S':'
asbag61
(g82
g63
NtRp4595
(dp4596
g66
(dp4597
sg75
g4582
sg68
(lp4598
g61
(g62
g63
NtRp4599
(dp4600
g66
(dp4601
g74
I5
ssg75
g4595
sg68
(lp4602
g2052
asbasbasbag61
(g77
g63
NtRp4603
(dp4604
g66
(dp4605
sg75
g3917
sg68
(lp4606
g61
(g82
g63
NtRp4607
(dp4608
g66
(dp4609
g86
g87
ssg75
g4603
sg68
(lp4610
S'session_new'
p4611
asbag61
(g82
g63
NtRp4612
(dp4613
g66
(dp4614
g93
g94
ssg75
g4603
sg68
(lp4615
S':'
asbag61
(g82
g63
NtRp4616
(dp4617
g66
(dp4618
sg75
g4603
sg68
(lp4619
g61
(g62
g63
NtRp4620
(dp4621
g66
(dp4622
g74
I5
ssg75
g4616
sg68
(lp4623
g104
asbasbasbag61
(g77
g63
NtRp4624
(dp4625
g66
(dp4626
sg75
g3917
sg68
(lp4627
g61
(g82
g63
NtRp4628
(dp4629
g66
(dp4630
g86
g87
ssg75
g4624
sg68
(lp4631
S'status'
p4632
asbag61
(g82
g63
NtRp4633
(dp4634
g66
(dp4635
g93
g94
ssg75
g4624
sg68
(lp4636
S':'
asbag61
(g82
g63
NtRp4637
(dp4638
g66
(dp4639
sg75
g4624
sg68
(lp4640
g61
(g62
g63
NtRp4641
(dp4642
g66
(dp4643
g74
I5
ssg75
g4637
sg68
(lp4644
S'200'
p4645
asbasbasbag61
(g77
g63
NtRp4646
(dp4647
g66
(dp4648
sg75
g3917
sg68
(lp4649
g61
(g82
g63
NtRp4650
(dp4651
g66
(dp4652
g86
g87
ssg75
g4646
sg68
(lp4653
g2716
asbag61
(g82
g63
NtRp4654
(dp4655
g66
(dp4656
g93
g94
ssg75
g4646
sg68
(lp4657
S':'
asbag61
(g82
g63
NtRp4658
(dp4659
g66
(dp4660
sg75
g4646
sg68
(lp4661
g61
(g62
g63
NtRp4662
(dp4663
g66
(dp4664
g74
I5
ssg75
g4658
sg68
(lp4665
g2729
asbasbasbag61
(g77
g63
NtRp4666
(dp4667
g66
(dp4668
sg75
g3917
sg68
(lp4669
g61
(g82
g63
NtRp4670
(dp4671
g66
(dp4672
g86
g87
ssg75
g4666
sg68
(lp4673
S'view'
p4674
asbag61
(g82
g63
NtRp4675
(dp4676
g66
(dp4677
g93
g94
ssg75
g4666
sg68
(lp4678
S':'
asbag61
(g82
g63
NtRp4679
(dp4680
g66
(dp4681
sg75
g4666
sg68
(lp4682
g61
(g62
g63
NtRp4683
(dp4684
g66
(dp4685
g74
I5
ssg75
g4679
sg68
(lp4686
S'default/index.html'
p4687
asbasbasbasbasbsS'locals'
p4688
(dp4689
S'a'
S"('ALTER TABLE Employee ADD emp_id CHAR(512) UNIQUE;',)"
p4690
sS'self'
p4691
S'<gluon.dal.SQLiteAdapter object>'
p4692
sS'b'
g21
sS't0'
p4693
S'1350135188.26602'
p4694
sssS'traceback'
p4695
S'Traceback (most recent call last):\n  File "/home/arpita/courses/sem3/ssad/web2py/gluon/restricted.py", line 205, in restricted\n    exec ccode in environment\n  File "/home/arpita/courses/sem3/ssad/web2py/applications/project/models/db.py", line 83, in <module>\n    Field(\'Emp_ID\',unique=True))\n  File "/home/arpita/courses/sem3/ssad/web2py/gluon/dal.py", line 6320, in define_table\n    polymodel=polymodel)\n  File "/home/arpita/courses/sem3/ssad/web2py/gluon/dal.py", line 742, in create_table\n    fake_migrate=fake_migrate)\n  File "/home/arpita/courses/sem3/ssad/web2py/gluon/dal.py", line 830, in migrate_table\n    self.execute(sub_query)\n  File "/home/arpita/courses/sem3/ssad/web2py/gluon/dal.py", line 1392, in execute\n    return self.log_execute(*a, **b)\n  File "/home/arpita/courses/sem3/ssad/web2py/gluon/dal.py", line 1386, in log_execute\n    ret = self.cursor.execute(*a, **b)\nOperationalError: Cannot add a UNIQUE column\n'
p4696
s.