(dp1
S'output'
p2
S"<type 'exceptions.TypeError'> not all arguments converted during string formatting"
p3
sS'layer'
p4
S'D:\\web2py\\applications\\admin\\controllers/default.py'
p5
sS'code'
p6
S'# coding: utf8\n\nEXPERIMENTAL_STUFF = True\n\nif EXPERIMENTAL_STUFF:\n    is_mobile = request.user_agent().is_mobile\n    if is_mobile:\n        response.view = response.view.replace(\'default/\',\'default.mobile/\')\n        response.menu = []\n\nfrom gluon.admin import *\nfrom gluon.fileutils import abspath, read_file, write_file\nfrom glob import glob\nimport shutil\nimport platform\n\nif DEMO_MODE and request.function in [\'change_password\',\'pack\',\'pack_plugin\',\'upgrade_web2py\',\'uninstall\',\'cleanup\',\'compile_app\',\'remove_compiled_app\',\'delete\',\'delete_plugin\',\'create_file\',\'upload_file\',\'update_languages\',\'reload_routes\']:\n    session.flash = T(\'disabled in demo mode\')\n    redirect(URL(\'site\'))\n\nif not is_manager() and request.function in [\'change_password\',\'upgrade_web2py\']:\n    session.flash = T(\'disabled in multi user mode\')\n    redirect(URL(\'site\'))\n\nif FILTER_APPS and request.args(0) and not request.args(0) in FILTER_APPS:\n    session.flash = T(\'disabled in demo mode\')\n    redirect(URL(\'site\'))\n\ndef safe_open(a,b):\n    if DEMO_MODE and \'w\' in b:\n        class tmp:\n            def write(self,data): pass\n        return tmp()\n    return open(a,b)\n\ndef safe_read(a, b=\'r\'):\n    safe_file = safe_open(a, b)\n    try:\n        return safe_file.read()\n    finally:\n        safe_file.close()\n\ndef safe_write(a, value, b=\'w\'):\n    safe_file = safe_open(a, b)\n    try:\n        safe_file.write(value)\n    finally:\n        safe_file.close()\n\ndef get_app(name=None):\n    app = name or request.args(0)\n    if app and (not MULTI_USER_MODE or db(db.app.name==app)(db.app.owner==auth.user.id).count()):\n        return app\n    session.flash = \'App does not exist or your are not authorized\'\n    redirect(URL(\'site\'))\n\ndef index():\n    """ Index handler """\n\n    send = request.vars.send\n    if DEMO_MODE:\n        session.authorized = True\n        session.last_time = t0\n    if not send:\n        send = URL(\'site\')\n    if session.authorized:\n        redirect(send)\n    elif request.vars.password:\n        if verify_password(request.vars.password):\n            session.authorized = True\n            login_record(True)\n\n            if CHECK_VERSION:\n                session.check_version = True\n            else:\n                session.check_version = False\n\n            session.last_time = t0\n            if isinstance(send, list):  # ## why does this happen?\n                send = str(send[0])\n\n            redirect(send)\n        else:\n            times_denied = login_record(False)\n            if times_denied >= allowed_number_of_attempts:\n                response.flash = \\\n                    T(\'admin disabled because too many invalid login attempts\')\n            elif times_denied == allowed_number_of_attempts - 1:\n                response.flash = \\\n                    T(\'You have one more login attempt before you are locked out\')\n            else:\n                response.flash = T(\'invalid password.\')\n    return dict(send=send)\n\n\ndef check_version():\n    """ Checks if web2py is up to date """\n\n    session.forget()\n    session._unlock(response)\n\n    new_version, version_number = check_new_version(request.env.web2py_version,\n                                    WEB2PY_VERSION_URL)\n\n    if new_version == -1:\n        return A(T(\'Unable to check for upgrades\'), _href=WEB2PY_URL)\n    elif new_version != True:\n        return A(T(\'web2py is up to date\'), _href=WEB2PY_URL)\n    elif platform.system().lower() in (\'windows\',\'win32\',\'win64\') and os.path.exists("web2py.exe"):\n        return SPAN(\'You should upgrade to version %s\' % version_number)\n    else:\n        return sp_button(URL(\'upgrade_web2py\'), T(\'upgrade now\')) \\\n          + XML(\' <strong class="upgrade_version">%s</strong>\' % version_number)\n\n\ndef logout():\n    """ Logout handler """\n    session.authorized = None\n    if MULTI_USER_MODE:\n        redirect(URL(\'user/logout\'))\n    redirect(URL(\'index\'))\n\n\ndef change_password():\n\n    if session.pam_user:\n        session.flash = T(\'PAM authenticated user, cannot change password here\')\n        redirect(URL(\'site\'))\n    form=SQLFORM.factory(Field(\'current_admin_password\',\'password\'),\n                         Field(\'new_admin_password\',\'password\',requires=IS_STRONG()),\n                         Field(\'new_admin_password_again\',\'password\'))\n    if form.accepts(request.vars):\n        if not verify_password(request.vars.current_admin_password):\n            form.errors.current_admin_password = T(\'invalid password\')\n        elif form.vars.new_admin_password != form.vars.new_admin_password_again:\n            form.errors.new_admin_password_again = T(\'no match\')\n        else:\n            path = abspath(\'parameters_%s.py\' % request.env.server_port)\n            safe_write(path, \'password="%s"\' % CRYPT()(request.vars.new_admin_password)[0])\n            session.flash = T(\'password changed\')\n            redirect(URL(\'site\'))\n    return dict(form=form)\n\ndef site():\n    """ Site handler """\n\n    myversion = request.env.web2py_version\n\n    # Shortcut to make the elif statements more legible\n    file_or_appurl = \'file\' in request.vars or \'appurl\' in request.vars\n\n    if DEMO_MODE:\n        pass\n\n    elif request.vars.filename and not \'file\' in request.vars:\n        # create a new application\n        appname = cleanpath(request.vars.filename).replace(\'.\', \'_\')\n        if app_create(appname, request):\n            if MULTI_USER_MODE:\n                db.app.insert(name=appname,owner=auth.user.id)\n            session.flash = T(\'new application "%s" created\', appname)\n            redirect(URL(\'design\',args=appname))\n        else:\n            session.flash = \\\n                T(\'unable to create application "%s" (it may exist already)\', request.vars.filename)\n        redirect(URL(r=request))\n\n    elif file_or_appurl and not request.vars.filename:\n        # can\'t do anything without an app name\n        msg = \'you must specify a name for the uploaded application\'\n        response.flash = T(msg)\n\n    elif file_or_appurl and request.vars.filename:\n        # fetch an application via URL or file upload\n        f = None\n        if request.vars.appurl is not \'\':\n            try:\n                f = urllib.urlopen(request.vars.appurl)\n            except Exception, e:\n                session.flash = DIV(T(\'Unable to download app because:\'),PRE(str(e)))\n                redirect(URL(r=request))\n            fname = request.vars.appurl\n        elif request.vars.file is not \'\':\n            f = request.vars.file.file\n            fname = request.vars.file.filename\n\n        if f:\n            appname = cleanpath(request.vars.filename).replace(\'.\', \'_\')\n            installed = app_install(appname, f, request, fname,\n                                    overwrite=request.vars.overwrite_check)\n        if f and installed:\n            msg = \'application %(appname)s installed with md5sum: %(digest)s\'\n            session.flash = T(msg, dict(appname=appname,\n                                        digest=md5_hash(installed)))\n        elif f and request.vars.overwrite_check:\n            msg = \'unable to install application "%(appname)s"\'\n            session.flash = T(msg, dict(appname=request.vars.filename))\n\n        else:\n            msg = \'unable to install application "%(appname)s"\'\n            session.flash = T(msg, dict(appname=request.vars.filename))\n\n        redirect(URL(r=request))\n\n    regex = re.compile(\'^\\w+$\')\n\n    if is_manager():\n        apps = [f for f in os.listdir(apath(r=request)) if regex.match(f)]\n    else:\n        apps = [f.name for f in db(db.app.owner==auth.user_id).select()]\n\n    if FILTER_APPS:\n        apps = [f for f in apps if f in FILTER_APPS]\n\n    apps = sorted(apps,lambda a,b:cmp(a.upper(),b.upper()))\n\n    return dict(app=None, apps=apps, myversion=myversion)\n\n\ndef pack():\n    app = get_app()\n\n    if len(request.args) == 1:\n        fname = \'web2py.app.%s.w2p\' % app\n        filename = app_pack(app, request)\n    else:\n        fname = \'web2py.app.%s.compiled.w2p\' % app\n        filename = app_pack_compiled(app, request)\n\n    if filename:\n        response.headers[\'Content-Type\'] = \'application/w2p\'\n        disposition = \'attachment; filename=%s\' % fname\n        response.headers[\'Content-Disposition\'] = disposition\n        return safe_read(filename, \'rb\')\n    else:\n        session.flash = T(\'internal error\')\n        redirect(URL(\'site\'))\n\ndef pack_plugin():\n    app = get_app()\n    if len(request.args) == 2:\n        fname = \'web2py.plugin.%s.w2p\' % request.args[1]\n        filename = plugin_pack(app, request.args[1], request)\n    if filename:\n        response.headers[\'Content-Type\'] = \'application/w2p\'\n        disposition = \'attachment; filename=%s\' % fname\n        response.headers[\'Content-Disposition\'] = disposition\n        return safe_read(filename, \'rb\')\n    else:\n        session.flash = T(\'internal error\')\n        redirect(URL(\'plugin\',args=request.args))\n\ndef upgrade_web2py():\n    if \'upgrade\' in request.vars:\n        (success, error) = upgrade(request)\n        if success:\n            session.flash = T(\'web2py upgraded; please restart it\')\n        else:\n            session.flash = T(\'unable to upgrade because "%s"\', error)\n        redirect(URL(\'site\'))\n    elif \'noupgrade\' in request.vars:\n        redirect(URL(\'site\'))\n    return dict()\n\ndef uninstall():\n    app = get_app()\n    if \'delete\' in request.vars:\n        if MULTI_USER_MODE:\n            if is_manager() and db(db.app.name==app).delete():\n                pass\n            elif db(db.app.name==app)(db.app.owner==auth.user.id).delete():\n                pass\n            else:\n                session.flash = T(\'no permission to uninstall "%s"\', app)\n                redirect(URL(\'site\'))\n        if app_uninstall(app, request):\n            session.flash = T(\'application "%s" uninstalled\', app)\n        else:\n            session.flash = T(\'unable to uninstall "%s"\', app)\n        redirect(URL(\'site\'))\n    elif \'nodelete\' in request.vars:\n        redirect(URL(\'site\'))\n    return dict(app=app)\n\n\ndef cleanup():\n    app = get_app()\n    clean = app_cleanup(app, request)\n    if not clean:\n        session.flash = T("some files could not be removed")\n    else:\n        session.flash = T(\'cache, errors and sessions cleaned\')\n\n    redirect(URL(\'site\'))\n\n\ndef compile_app():\n    app = get_app()\n    c = app_compile(app, request)\n    if not c:\n        session.flash = T(\'application compiled\')\n    else:\n        session.flash = DIV(T(\'Cannot compile: there are errors in your app:\'),\n                              CODE(c))\n    redirect(URL(\'site\'))\n\n\ndef remove_compiled_app():\n    """ Remove the compiled application """\n    app = get_app()\n    remove_compiled_application(apath(app, r=request))\n    session.flash = T(\'compiled application removed\')\n    redirect(URL(\'site\'))\n\ndef delete():\n    """ Object delete handler """\n    app = get_app()\n    filename = \'/\'.join(request.args)\n    sender = request.vars.sender\n\n    if isinstance(sender, list):  # ## fix a problem with Vista\n        sender = sender[0]\n\n    if \'nodelete\' in request.vars:\n        redirect(URL(sender))\n    elif \'delete\' in request.vars:\n        try:\n            os.unlink(apath(filename, r=request))\n            session.flash = T(\'file "%(filename)s" deleted\',\n                              dict(filename=filename))\n        except Exception:\n            session.flash = T(\'unable to delete file "%(filename)s"\',\n                              dict(filename=filename))\n        redirect(URL(sender))\n    return dict(filename=filename, sender=sender)\n\ndef enable():\n    app = get_app()\n    filename = os.path.join(apath(app, r=request),\'DISABLED\')\n    if os.path.exists(filename):\n        os.unlink(filename)\n        return SPAN(T(\'Disable\'),_style=\'color:green\')\n    else:\n        open(filename,\'wb\').write(time.ctime())\n        return SPAN(T(\'Enable\'),_style=\'color:red\')\n\ndef peek():\n    """ Visualize object code """\n    app = get_app()\n    filename = \'/\'.join(request.args)\n    try:\n        data = safe_read(apath(filename, r=request)).replace(\'\\r\',\'\')\n    except IOError:\n        session.flash = T(\'file does not exist\')\n        redirect(URL(\'site\'))\n\n    extension = filename[filename.rfind(\'.\') + 1:].lower()\n\n    return dict(app=request.args[0],\n                filename=filename,\n                data=data,\n                extension=extension)\n\n\ndef test():\n    """ Execute controller tests """\n    app = get_app()\n    if len(request.args) > 1:\n        file = request.args[1]\n    else:\n        file = \'.*\\.py\'\n\n    controllers = listdir(apath(\'%s/controllers/\' % app, r=request), file + \'$\')\n\n    return dict(app=app, controllers=controllers)\n\ndef keepalive():\n    return \'\'\n\ndef search():\n    keywords=request.vars.keywords or \'\'\n    app = get_app()\n    def match(filename,keywords):\n        filename=os.path.join(apath(app, r=request),filename)\n        if keywords in read_file(filename,\'rb\'):\n            return True\n        return False\n    path = apath(request.args[0], r=request)\n    files1 = glob(os.path.join(path,\'*/*.py\'))\n    files2 = glob(os.path.join(path,\'*/*.html\'))\n    files3 = glob(os.path.join(path,\'*/*/*.html\'))\n    files=[x[len(path)+1:].replace(\'\\\\\',\'/\') for x in files1+files2+files3 if match(x,keywords)]\n    return response.json({\'files\':files})\n\ndef edit():\n    """ File edit handler """\n    # Load json only if it is ajax edited...\n    app = get_app()\n    filename = \'/\'.join(request.args)\n    # Try to discover the file type\n    if filename[-3:] == \'.py\':\n        filetype = \'python\'\n    elif filename[-5:] == \'.html\':\n        filetype = \'html\'\n    elif filename[-5:] == \'.load\':\n        filetype = \'html\'\n    elif filename[-4:] == \'.css\':\n        filetype = \'css\'\n    elif filename[-3:] == \'.js\':\n        filetype = \'js\'\n    else:\n        filetype = \'html\'\n\n    # ## check if file is not there\n\n    path = apath(filename, r=request)\n\n    if (\'revert\' in request.vars) and os.path.exists(path + \'.bak\'):\n        try:\n            data = safe_read(path + \'.bak\')\n            data1 = safe_read(path)\n        except IOError:\n            session.flash = T(\'Invalid action\')\n            if \'from_ajax\' in request.vars:\n                 return response.json({\'error\': str(T(\'Invalid action\'))})\n            else:\n                redirect(URL(\'site\'))\n\n        safe_write(path, data)\n        file_hash = md5_hash(data)\n        saved_on = time.ctime(os.stat(path)[stat.ST_MTIME])\n        safe_write(path + \'.bak\', data1)\n        response.flash = T(\'file "%s" of %s restored\', (filename, saved_on))\n    else:\n        try:\n            data = safe_read(path)\n        except IOError:\n            session.flash = T(\'Invalid action\')\n            if \'from_ajax\' in request.vars:\n                return response.json({\'error\': str(T(\'Invalid action\'))})\n            else:\n                redirect(URL(\'site\'))\n\n        file_hash = md5_hash(data)\n        saved_on = time.ctime(os.stat(path)[stat.ST_MTIME])\n\n        if request.vars.file_hash and request.vars.file_hash != file_hash:\n            session.flash = T(\'file changed on disk\')\n            data = request.vars.data.replace(\'\\r\\n\', \'\\n\').strip() + \'\\n\'\n            safe_write(path + \'.1\', data)\n            if \'from_ajax\' in request.vars:\n                return response.json({\'error\': str(T(\'file changed on disk\')),\n                                      \'redirect\': URL(\'resolve\',\n                                                      args=request.args)})\n            else:\n                redirect(URL(\'resolve\', args=request.args))\n        elif request.vars.data:\n            safe_write(path + \'.bak\', data)\n            data = request.vars.data.replace(\'\\r\\n\', \'\\n\').strip() + \'\\n\'\n            safe_write(path, data)\n            file_hash = md5_hash(data)\n            saved_on = time.ctime(os.stat(path)[stat.ST_MTIME])\n            response.flash = T(\'file saved on %s\', saved_on)\n\n    data_or_revert = (request.vars.data or request.vars.revert)\n\n    # Check compile errors\n    highlight = None\n    if filetype == \'python\' and request.vars.data:\n        import _ast\n        try:\n            code = request.vars.data.rstrip().replace(\'\\r\\n\',\'\\n\')+\'\\n\'\n            compile(code, path, "exec", _ast.PyCF_ONLY_AST)\n        except Exception, e:\n            start = sum([len(line)+1 for l, line\n                            in enumerate(request.vars.data.split("\\n"))\n                            if l < e.lineno-1])\n            if e.text and e.offset:\n                offset = e.offset - (len(e.text) - len(e.text.splitlines()[-1]))\n            else:\n                offset = 0\n            highlight = {\'start\': start, \'end\': start + offset + 1}\n            try:\n                ex_name = e.__class__.__name__\n            except:\n                ex_name = \'unknown exception!\'\n            response.flash = DIV(T(\'failed to compile file because:\'), BR(),\n                                 B(ex_name), T(\' at line %s\') % e.lineno,\n                                 offset and T(\' at char %s\') % offset or \'\',\n                                 PRE(str(e)))\n\n    if data_or_revert and request.args[1] == \'modules\':\n        # Lets try to reload the modules\n        try:\n            mopath = \'.\'.join(request.args[2:])[:-3]\n            exec \'import applications.%s.modules.%s\' % (request.args[0], mopath)\n            reload(sys.modules[\'applications.%s.modules.%s\'\n                    % (request.args[0], mopath)])\n        except Exception, e:\n            response.flash = DIV(T(\'failed to reload module because:\'),PRE(str(e)))\n\n    edit_controller = None\n    editviewlinks = None\n    view_link = None\n    if filetype == \'html\' and len(request.args) >= 3:\n        cfilename = os.path.join(request.args[0], \'controllers\',\n                                 request.args[2] + \'.py\')\n        if os.path.exists(apath(cfilename, r=request)):\n            edit_controller = URL(\'edit\', args=[cfilename])\n            view = request.args[3].replace(\'.html\',\'\')\n            view_link = URL(request.args[0],request.args[2],view)\n    elif filetype == \'python\' and request.args[1] == \'controllers\':\n        ## it\'s a controller file.\n        ## Create links to all of the associated view files.\n        app = get_app()\n        viewname = os.path.splitext(request.args[2])[0]\n        viewpath = os.path.join(app,\'views\',viewname)\n        aviewpath = apath(viewpath, r=request)\n        viewlist = []\n        if os.path.exists(aviewpath):\n            if os.path.isdir(aviewpath):\n                viewlist = glob(os.path.join(aviewpath,\'*.html\'))\n        elif os.path.exists(aviewpath+\'.html\'):\n            viewlist.append(aviewpath+\'.html\')\n        if len(viewlist):\n            editviewlinks = []\n            for v in viewlist:\n                vf = os.path.split(v)[-1]\n                vargs = "/".join([viewpath.replace(os.sep,"/"),vf])\n                editviewlinks.append(A(T(vf.split(".")[0]),\\\n                    _href=URL(\'edit\',args=[vargs])))\n\n    if len(request.args) > 2 and request.args[1] == \'controllers\':\n        controller = (request.args[2])[:-3]\n        functions = regex_expose.findall(data)\n    else:\n        (controller, functions) = (None, None)\n\n    if \'from_ajax\' in request.vars:\n        return response.json({\'file_hash\': file_hash, \'saved_on\': saved_on, \'functions\':functions, \'controller\': controller, \'application\': request.args[0], \'highlight\': highlight })\n    else:\n\n        editarea_preferences = {}\n        editarea_preferences[\'FONT_SIZE\'] = \'10\'\n        editarea_preferences[\'FULL_SCREEN\'] = \'false\'\n        editarea_preferences[\'ALLOW_TOGGLE\'] = \'true\'\n        editarea_preferences[\'REPLACE_TAB_BY_SPACES\'] = \'4\'\n        editarea_preferences[\'DISPLAY\'] = \'onload\'\n        for key in editarea_preferences:\n            if globals().has_key(key):\n                editarea_preferences[key]=globals()[key]\n        return dict(app=request.args[0],\n                    filename=filename,\n                    filetype=filetype,\n                    data=data,\n                    edit_controller=edit_controller,\n                    file_hash=file_hash,\n                    saved_on=saved_on,\n                    controller=controller,\n                    functions=functions,\n                    view_link=view_link,\n                    editarea_preferences=editarea_preferences,\n                    editviewlinks=editviewlinks)\n\ndef resolve():\n    """\n    """\n\n    filename = \'/\'.join(request.args)\n    # ## check if file is not there\n    path = apath(filename, r=request)\n    a = safe_read(path).split(\'\\n\')\n    try:\n        b = safe_read(path + \'.1\').split(\'\\n\')\n    except IOError:\n        session.flash = \'Other file, no longer there\'\n        redirect(URL(\'edit\', args=request.args))\n\n    d = difflib.ndiff(a, b)\n\n    def leading(line):\n        """  """\n\n        # TODO: we really need to comment this\n        z = \'\'\n        for (k, c) in enumerate(line):\n            if c == \' \':\n                z += \'&nbsp;\'\n            elif c == \' \\t\':\n                z += \'&nbsp;\'\n            elif k == 0 and c == \'?\':\n                pass\n            else:\n                break\n\n        return XML(z)\n\n    def getclass(item):\n        """ Determine item class """\n\n        if item[0] == \' \':\n            return \'normal\'\n        if item[0] == \'+\':\n            return \'plus\'\n        if item[0] == \'-\':\n            return \'minus\'\n\n    if request.vars:\n        c = \'\\n\'.join([item[2:].rstrip() for (i, item) in enumerate(d) if item[0] \\\n                           == \' \' or \'line%i\' % i in request.vars])\n        safe_write(path, c)\n        session.flash = \'files merged\'\n        redirect(URL(\'edit\', args=request.args))\n    else:\n        # Making the short circuit compatible with <= python2.4\n        gen_data = lambda index,item: not item[:1] in [\'+\',\'-\'] and "" \\\n                   or INPUT(_type=\'checkbox\',\n                            _name=\'line%i\' % index,\n                            value=item[0] == \'+\')\n\n        diff = TABLE(*[TR(TD(gen_data(i,item)),\n                          TD(item[0]),\n                          TD(leading(item[2:]),\n                          TT(item[2:].rstrip())), _class=getclass(item))\n                       for (i, item) in enumerate(d) if item[0] != \'?\'])\n\n    return dict(diff=diff, filename=filename)\n\n\ndef edit_language():\n    """ Edit language file """\n    app = get_app()\n    filename = \'/\'.join(request.args)\n    from gluon.languages import read_dict, write_dict\n    strings = read_dict(apath(filename, r=request))\n    keys = sorted(strings.keys(),lambda x,y: cmp(x.lower(), y.lower()))\n    rows = []\n    rows.append(H2(T(\'Original/Translation\')))\n\n    for key in keys:\n        name = md5_hash(key)\n        if key==strings[key]:\n            _class=\'untranslated\'\n        else:\n            _class=\'translated\'\n        if len(key) <= 40:\n            elem = INPUT(_type=\'text\', _name=name,value=strings[key],\n                         _size=70,_class=_class)\n        else:\n            elem = TEXTAREA(_name=name, value=strings[key], _cols=70,\n                            _rows=5, _class=_class)\n\n        # Making the short circuit compatible with <= python2.4\n        k = (strings[key] != key) and key or B(key)\n\n        rows.append(P(k, BR(), elem, TAG.BUTTON(T(\'delete\'),\n                            _onclick=\'return delkey("%s")\' % name), _id=name))\n\n    rows.append(INPUT(_type=\'submit\', _value=T(\'update\')))\n    form = FORM(*rows)\n    if form.accepts(request.vars, keepvalues=True):\n        strs = dict()\n        for key in keys:\n            name = md5_hash(key)\n            if form.vars[name]==chr(127): continue\n            strs[key] = form.vars[name]\n        write_dict(apath(filename, r=request), strs)\n        session.flash = T(\'file saved on %(time)s\', dict(time=time.ctime()))\n        redirect(URL(r=request,args=request.args))\n    return dict(app=request.args[0], filename=filename, form=form)\n\n\ndef about():\n    """ Read about info """\n    app = get_app()\n    # ## check if file is not there\n    about = safe_read(apath(\'%s/ABOUT\' % app, r=request))\n    license = safe_read(apath(\'%s/LICENSE\' % app, r=request))\n    return dict(app=app, about=MARKMIN(about), license=MARKMIN(license))\n\n\ndef design():\n    """ Application design handler """\n    app = get_app()\n\n    if not response.flash and app == request.application:\n        msg = T(\'ATTENTION: you cannot edit the running application!\')\n        response.flash = msg\n\n    if request.vars.pluginfile!=None and not isinstance(request.vars.pluginfile,str):\n        filename=os.path.basename(request.vars.pluginfile.filename)\n        if plugin_install(app, request.vars.pluginfile.file,\n                          request, filename):\n            session.flash = T(\'new plugin installed\')\n            redirect(URL(\'design\',args=app))\n        else:\n            session.flash = \\\n                T(\'unable to create application "%s"\', request.vars.filename)\n        redirect(URL(r=request))\n    elif isinstance(request.vars.pluginfile,str):\n        session.flash = T(\'plugin not specified\')\n        redirect(URL(r=request))\n\n\n    # If we have only pyc files it means that\n    # we cannot design\n    if os.path.exists(apath(\'%s/compiled\' % app, r=request)):\n        session.flash = \\\n            T(\'application is compiled and cannot be designed\')\n        redirect(URL(\'site\'))\n\n    # Get all models\n    models = listdir(apath(\'%s/models/\' % app, r=request), \'.*\\.py$\')\n    models=[x.replace(\'\\\\\',\'/\') for x in models]\n    defines = {}\n    for m in models:\n        data = safe_read(apath(\'%s/models/%s\' % (app, m), r=request))\n        defines[m] = regex_tables.findall(data)\n        defines[m].sort()\n\n    # Get all controllers\n    controllers = sorted(listdir(apath(\'%s/controllers/\' % app, r=request), \'.*\\.py$\'))\n    controllers = [x.replace(\'\\\\\',\'/\') for x in controllers]\n    functions = {}\n    for c in controllers:\n        data = safe_read(apath(\'%s/controllers/%s\' % (app, c), r=request))\n        items = regex_expose.findall(data)\n        functions[c] = items\n\n    # Get all views\n    views = sorted(listdir(apath(\'%s/views/\' % app, r=request), \'[\\w/\\-]+(\\.\\w+)+$\'))\n    views = [x.replace(\'\\\\\',\'/\') for x in views if not x.endswith(\'.bak\')]\n    extend = {}\n    include = {}\n    for c in views:\n        data = safe_read(apath(\'%s/views/%s\' % (app, c), r=request))\n        items = regex_extend.findall(data)\n\n        if items:\n            extend[c] = items[0][1]\n\n        items = regex_include.findall(data)\n        include[c] = [i[1] for i in items]\n\n    # Get all modules\n    modules = listdir(apath(\'%s/modules/\' % app, r=request), \'.*\\.py$\')\n    modules = modules=[x.replace(\'\\\\\',\'/\') for x in modules]\n    modules.sort()\n\n    # Get all static files\n    statics = listdir(apath(\'%s/static/\' % app, r=request), \'[^\\.#].*\')\n    statics = [x.replace(\'\\\\\',\'/\') for x in statics]\n    statics.sort()\n\n    # Get all languages\n    languages = listdir(apath(\'%s/languages/\' % app, r=request), \'[\\w-]*\\.py\')\n\n    #Get crontab\n    cronfolder = apath(\'%s/cron\' % app, r=request)\n    if not os.path.exists(cronfolder): os.mkdir(cronfolder)\n    crontab = apath(\'%s/cron/crontab\' % app, r=request)\n    if not os.path.exists(crontab):\n        safe_write(crontab, \'#crontab\')\n\n    plugins=[]\n    def filter_plugins(items,plugins):\n        plugins+=[item[7:].split(\'/\')[0].split(\'.\')[0] for item in items if item.startswith(\'plugin_\')]\n        plugins[:]=list(set(plugins))\n        plugins.sort()\n        return [item for item in items if not item.startswith(\'plugin_\')]\n\n    return dict(app=app,\n                models=filter_plugins(models,plugins),\n                defines=defines,\n                controllers=filter_plugins(controllers,plugins),\n                functions=functions,\n                views=filter_plugins(views,plugins),\n                modules=filter_plugins(modules,plugins),\n                extend=extend,\n                include=include,\n                statics=filter_plugins(statics,plugins),\n                languages=languages,\n                crontab=crontab,\n                plugins=plugins)\n\ndef delete_plugin():\n    """ Object delete handler """\n    app=request.args(0)\n    plugin = request.args(1)\n    plugin_name=\'plugin_\'+plugin\n    if \'nodelete\' in request.vars:\n        redirect(URL(\'design\',args=app))\n    elif \'delete\' in request.vars:\n        try:\n            for folder in [\'models\',\'views\',\'controllers\',\'static\',\'modules\']:\n                path=os.path.join(apath(app,r=request),folder)\n                for item in os.listdir(path):\n                    if item.rsplit(\'.\',1)[0] == plugin_name:\n                        filename=os.path.join(path,item)\n                        if os.path.isdir(filename):\n                            shutil.rmtree(filename)\n                        else:\n                            os.unlink(filename)\n            session.flash = T(\'plugin "%(plugin)s" deleted\',\n                              dict(plugin=plugin))\n        except Exception:\n            session.flash = T(\'unable to delete file plugin "%(plugin)s"\',\n                              dict(plugin=plugin))\n        redirect(URL(\'design\',args=request.args(0)))\n    return dict(plugin=plugin)\n\ndef plugin():\n    """ Application design handler """\n    app = get_app()\n    plugin = request.args(1)\n\n    if not response.flash and app == request.application:\n        msg = T(\'ATTENTION: you cannot edit the running application!\')\n        response.flash = msg\n\n    # If we have only pyc files it means that\n    # we cannot design\n    if os.path.exists(apath(\'%s/compiled\' % app, r=request)):\n        session.flash = \\\n            T(\'application is compiled and cannot be designed\')\n        redirect(URL(\'site\'))\n\n    # Get all models\n    models = listdir(apath(\'%s/models/\' % app, r=request), \'.*\\.py$\')\n    models=[x.replace(\'\\\\\',\'/\') for x in models]\n    defines = {}\n    for m in models:\n        data = safe_read(apath(\'%s/models/%s\' % (app, m), r=request))\n        defines[m] = regex_tables.findall(data)\n        defines[m].sort()\n\n    # Get all controllers\n    controllers = sorted(listdir(apath(\'%s/controllers/\' % app, r=request), \'.*\\.py$\'))\n    controllers = [x.replace(\'\\\\\',\'/\') for x in controllers]\n    functions = {}\n    for c in controllers:\n        data = safe_read(apath(\'%s/controllers/%s\' % (app, c), r=request))\n        items = regex_expose.findall(data)\n        functions[c] = items\n\n    # Get all views\n    views = sorted(listdir(apath(\'%s/views/\' % app, r=request), \'[\\w/\\-]+\\.\\w+$\'))\n    views = [x.replace(\'\\\\\',\'/\') for x in views]\n    extend = {}\n    include = {}\n    for c in views:\n        data = safe_read(apath(\'%s/views/%s\' % (app, c), r=request))\n        items = regex_extend.findall(data)\n        if items:\n            extend[c] = items[0][1]\n\n        items = regex_include.findall(data)\n        include[c] = [i[1] for i in items]\n\n    # Get all modules\n    modules = listdir(apath(\'%s/modules/\' % app, r=request), \'.*\\.py$\')\n    modules = modules=[x.replace(\'\\\\\',\'/\') for x in modules]\n    modules.sort()\n\n    # Get all static files\n    statics = listdir(apath(\'%s/static/\' % app, r=request), \'[^\\.#].*\')\n    statics = [x.replace(\'\\\\\',\'/\') for x in statics]\n    statics.sort()\n\n    # Get all languages\n    languages = listdir(apath(\'%s/languages/\' % app, r=request), \'[\\w-]*\\.py\')\n\n    #Get crontab\n    crontab = apath(\'%s/cron/crontab\' % app, r=request)\n    if not os.path.exists(crontab):\n        safe_write(crontab, \'#crontab\')\n\n    def filter_plugins(items):\n        regex=re.compile(\'^plugin_\'+plugin+\'(/.*|\\..*)?$\')\n        return [item for item in items if regex.match(item)]\n\n    return dict(app=app,\n                models=filter_plugins(models),\n                defines=defines,\n                controllers=filter_plugins(controllers),\n                functions=functions,\n                views=filter_plugins(views),\n                modules=filter_plugins(modules),\n                extend=extend,\n                include=include,\n                statics=filter_plugins(statics),\n                languages=languages,\n                crontab=crontab)\n\n\ndef create_file():\n    """ Create files handler """\n    try:\n        app = get_app(name=request.vars.location.split(\'/\')[0])\n        path = apath(request.vars.location, r=request)\n        filename = re.sub(\'[^\\w./-]+\', \'_\', request.vars.filename)\n\n        if path[-11:] == \'/languages/\':\n            # Handle language files\n            if len(filename) == 0:\n                raise SyntaxError\n            if not filename[-3:] == \'.py\':\n                filename += \'.py\'\n            app = path.split(\'/\')[-3]\n            path=os.path.join(apath(app, r=request),\'languages\',filename)\n            if not os.path.exists(path):\n                safe_write(path, \'\')\n            findT(apath(app, r=request), filename[:-3])\n            session.flash = T(\'language file "%(filename)s" created/updated\',\n                              dict(filename=filename))\n            redirect(request.vars.sender)\n\n        elif path[-8:] == \'/models/\':\n            # Handle python models\n            if not filename[-3:] == \'.py\':\n                filename += \'.py\'\n\n            if len(filename) == 3:\n                raise SyntaxError\n\n            text = \'# coding: utf8\\n\'\n\n        elif path[-13:] == \'/controllers/\':\n            # Handle python controllers\n            if not filename[-3:] == \'.py\':\n                filename += \'.py\'\n\n            if len(filename) == 3:\n                raise SyntaxError\n\n            text = \'# coding: utf8\\n# %s\\ndef index(): return dict(message="hello from %s")\'\n            text = text % (T(\'try something like\'), filename)\n\n        elif path[-7:] == \'/views/\':\n            if request.vars.plugin and not filename.startswith(\'plugin_%s/\' % request.vars.plugin):\n                filename = \'plugin_%s/%s\' % (request.vars.plugin, filename)\n            # Handle template (html) views\n            if filename.find(\'.\')<0:\n                filename += \'.html\'\n            extension = filename.split(\'.\')[-1].lower()\n\n            if len(filename) == 5:\n                raise SyntaxError\n\n            msg = T(\'This is the %(filename)s template\',\n                    dict(filename=filename))\n            if extension == \'html\':\n                text = dedent("""\n                   {{extend \'layout.html\'}}\n                   <h1>%s</h1>\n                   {{=BEAUTIFY(response._vars)}}""" % msg)\n            else:\n                generic = os.path.join(path,\'generic.\'+extension)\n                if os.path.exists(generic):\n                    text = read_file(generic)\n                else:\n                    text = \'\'\n\n        elif path[-9:] == \'/modules/\':\n            if request.vars.plugin and not filename.startswith(\'plugin_%s/\' % request.vars.plugin):\n                filename = \'plugin_%s/%s\' % (request.vars.plugin, filename)\n            # Handle python module files\n            if not filename[-3:] == \'.py\':\n                filename += \'.py\'\n\n            if len(filename) == 3:\n                raise SyntaxError\n\n            text = dedent("""\n                   #!/usr/bin/env python\n                   # coding: utf8\n                   from gluon import *\\n""")\n\n        elif path[-8:] == \'/static/\':\n            if request.vars.plugin and not filename.startswith(\'plugin_%s/\' % request.vars.plugin):\n                filename = \'plugin_%s/%s\' % (request.vars.plugin, filename)\n            text = \'\'\n        else:\n            redirect(request.vars.sender)\n\n        full_filename = os.path.join(path, filename)\n        dirpath = os.path.dirname(full_filename)\n\n        if not os.path.exists(dirpath):\n            os.makedirs(dirpath)\n\n        if os.path.exists(full_filename):\n            raise SyntaxError\n\n        safe_write(full_filename, text)\n        session.flash = T(\'file "%(filename)s" created\',\n                          dict(filename=full_filename[len(path):]))\n        redirect(URL(\'edit\',\n                 args=[os.path.join(request.vars.location, filename)]))\n    except Exception, e:\n        if not isinstance(e,HTTP):\n            session.flash = T(\'cannot create file\')\n\n    redirect(request.vars.sender)\n\n\ndef upload_file():\n    """ File uploading handler """\n\n    try:\n        filename = None\n        app = get_app(name=request.vars.location.split(\'/\')[0])\n        path = apath(request.vars.location, r=request)\n\n        if request.vars.filename:\n            filename = re.sub(\'[^\\w\\./]+\', \'_\', request.vars.filename)\n        else:\n            filename = os.path.split(request.vars.file.filename)[-1]\n\n        if path[-8:] == \'/models/\' and not filename[-3:] == \'.py\':\n            filename += \'.py\'\n\n        if path[-9:] == \'/modules/\' and not filename[-3:] == \'.py\':\n            filename += \'.py\'\n\n        if path[-13:] == \'/controllers/\' and not filename[-3:] == \'.py\':\n            filename += \'.py\'\n\n        if path[-7:] == \'/views/\' and not filename[-5:] == \'.html\':\n            filename += \'.html\'\n\n        if path[-11:] == \'/languages/\' and not filename[-3:] == \'.py\':\n            filename += \'.py\'\n\n        filename = os.path.join(path, filename)\n        dirpath = os.path.dirname(filename)\n\n        if not os.path.exists(dirpath):\n            os.makedirs(dirpath)\n\n        safe_write(filename, request.vars.file.file.read(), \'wb\')\n        session.flash = T(\'file "%(filename)s" uploaded\',\n                          dict(filename=filename[len(path):]))\n    except Exception:\n        if filename:\n            d = dict(filename = filename[len(path):])\n        else:\n            d = dict(filename = \'unkown\')\n        session.flash = T(\'cannot upload file "%(filename)s"\', d)\n\n    redirect(request.vars.sender)\n\n\ndef errors():\n    """ Error handler """\n    import operator\n    import os\n    import pickle\n    import hashlib\n\n    app = get_app()\n\n    method = request.args(1) or \'new\'\n    db_ready = {}\n    db_ready[\'status\'] = get_ticket_storage(app)\n    db_ready[\'errmessage\'] = "No ticket_storage.txt found under /private folder"\n    db_ready[\'errlink\'] = "http://web2py.com/books/default/chapter/29/13#Collecting-tickets"\n\n    if method == \'new\':\n        errors_path = apath(\'%s/errors\' % app, r=request)\n\n        delete_hashes = []\n        for item in request.vars:\n            if item[:7] == \'delete_\':\n                delete_hashes.append(item[7:])\n\n        hash2error = dict()\n\n        for fn in listdir(errors_path, \'^\\w.*\'):\n            fullpath = os.path.join(errors_path, fn)\n            if not os.path.isfile(fullpath): continue\n            try:\n                fullpath_file = open(fullpath, \'r\')\n                try:\n                    error = pickle.load(fullpath_file)\n                finally:\n                    fullpath_file.close()\n            except IOError:\n                continue\n\n            hash = hashlib.md5(error[\'traceback\']).hexdigest()\n\n            if hash in delete_hashes:\n                os.unlink(fullpath)\n            else:\n                try:\n                    hash2error[hash][\'count\'] += 1\n                except KeyError:\n                    error_lines = error[\'traceback\'].split("\\n")\n                    last_line = error_lines[-2]\n                    error_causer = os.path.split(error[\'layer\'])[1]\n                    hash2error[hash] = dict(count=1, pickel=error,\n                                            causer=error_causer,\n                                            last_line=last_line,\n                                            hash=hash,ticket=fn)\n\n        decorated = [(x[\'count\'], x) for x in hash2error.values()]\n        decorated.sort(key=operator.itemgetter(0), reverse=True)\n\n        return dict(errors = [x[1] for x in decorated], app=app, method=method, db_ready=db_ready)\n\n    elif method == \'dbnew\':\n        errors_path = apath(\'%s/errors\' % app, r=request)\n        tk_db, tk_table = get_ticket_storage(app)\n\n        delete_hashes = []\n        for item in request.vars:\n            if item[:7] == \'delete_\':\n                delete_hashes.append(item[7:])\n\n        hash2error = dict()\n\n        for fn in tk_db(tk_table.id>0).select():\n            try:\n                error = pickle.loads(fn.ticket_data)\n            except AttributeError:\n                tk_db(tk_table.id == fn.id).delete()\n                tk_db.commit()\n\n            hash = hashlib.md5(error[\'traceback\']).hexdigest()\n\n            if hash in delete_hashes:\n                tk_db(tk_table.id == fn.id).delete()\n                tk_db.commit()\n            else:\n                try:\n                    hash2error[\'hash\'][\'count\'] += 1\n                except KeyError:\n                    error_lines = error[\'traceback\'].split("\\n")\n                    last_line = error_lines[-2]\n                    error_causer = os.path.split(error[\'layer\'])[1]\n                    hash2error[hash] = dict(count=1, pickel=error,\n                                            causer=error_causer,\n                                            last_line=last_line,\n                                            hash=hash,ticket=fn.ticket_id)\n\n        decorated = [(x[\'count\'], x) for x in hash2error.values()]\n\n        decorated.sort(key=operator.itemgetter(0), reverse=True)\n\n        return dict(errors = [x[1] for x in decorated], app=app, method=method)\n\n    elif method == \'dbold\':\n        tk_db, tk_table = get_ticket_storage(app)\n        for item in request.vars:\n            if item[:7] == \'delete_\':\n                tk_db(tk_table.ticket_id == item[7:]).delete()\n                tk_db.commit()\n        tickets_ = tk_db(tk_table.id>0).select(tk_table.ticket_id, tk_table.created_datetime, orderby=~tk_table.created_datetime)\n        tickets = [row.ticket_id for row in tickets_]\n        times = dict([(row.ticket_id, row.created_datetime) for row in tickets_])\n\n        return dict(app=app, tickets=tickets, method=method, times=times)\n\n    else:\n        for item in request.vars:\n            if item[:7] == \'delete_\':\n                os.unlink(apath(\'%s/errors/%s\' % (app, item[7:]), r=request))\n        func = lambda p: os.stat(apath(\'%s/errors/%s\' % \\\n                                           (app, p), r=request)).st_mtime\n        tickets = sorted(listdir(apath(\'%s/errors/\' % app, r=request), \'^\\w.*\'),\n                         key=func,\n                         reverse=True)\n\n        return dict(app=app, tickets=tickets, method=method, db_ready=db_ready)\n\ndef get_ticket_storage(app):\n    private_folder = apath(\'%s/private\' % app, r=request)\n    ticket_file = os.path.join(private_folder, \'ticket_storage.txt\')\n    if os.path.exists(ticket_file):\n        db_string = open(ticket_file).read()\n        db_string = db_string.strip().replace(\'\\r\',\'\').replace(\'\\n\',\'\')\n    else:\n        return False\n    tickets_table = \'web2py_ticket\'\n    tablename = tickets_table + \'_\' + app\n    db_path = apath(\'%s/databases\' % app, r=request)\n    ticketsdb = DAL(db_string, folder=db_path, auto_import=True)\n    if not ticketsdb.get(tablename):\n        table = ticketsdb.define_table(\n                tablename,\n                Field(\'ticket_id\', length=100),\n                Field(\'ticket_data\', \'text\'),\n                Field(\'created_datetime\', \'datetime\'),\n                )\n    return ticketsdb , ticketsdb.get(tablename)\n\ndef make_link(path):\n    """ Create a link from a path """\n    tryFile = path.replace(\'\\\\\', \'/\')\n\n    if os.path.isabs(tryFile) and os.path.isfile(tryFile):\n        (folder, filename) = os.path.split(tryFile)\n        (base, ext) = os.path.splitext(filename)\n        app = get_app()\n\n        editable = {\'controllers\': \'.py\', \'models\': \'.py\', \'views\': \'.html\'}\n        for key in editable.keys():\n            check_extension = folder.endswith("%s/%s" % (app,key))\n            if ext.lower() == editable[key] and check_extension:\n                return A(\'"\' + tryFile + \'"\',\n                         _href=URL(r=request,\n                         f=\'edit/%s/%s/%s\' % (app, key, filename))).xml()\n    return \'\'\n\n\ndef make_links(traceback):\n    """ Make links using the given traceback """\n\n    lwords = traceback.split(\'"\')\n\n    # Making the short circuit compatible with <= python2.4\n    result = (len(lwords) != 0) and lwords[0] or \'\'\n\n    i = 1\n\n    while i < len(lwords):\n        link = make_link(lwords[i])\n\n        if link == \'\':\n            result += \'"\' + lwords[i]\n        else:\n            result += link\n\n            if i + 1 < len(lwords):\n                result += lwords[i + 1]\n                i = i + 1\n\n        i = i + 1\n\n    return result\n\n\nclass TRACEBACK(object):\n    """ Generate the traceback """\n\n    def __init__(self, text):\n        """ TRACEBACK constructor """\n\n        self.s = make_links(CODE(text).xml())\n\n    def xml(self):\n        """ Returns the xml """\n\n        return self.s\n\n\ndef ticket():\n    """ Ticket handler """\n\n    if len(request.args) != 2:\n        session.flash = T(\'invalid ticket\')\n        redirect(URL(\'site\'))\n\n    app = get_app()\n    myversion = request.env.web2py_version\n    ticket = request.args[1]\n    e = RestrictedError()\n    e.load(request, app, ticket)\n\n    return dict(app=app,\n                ticket=ticket,\n                output=e.output,\n                traceback=(e.traceback and TRACEBACK(e.traceback)),\n                snapshot=e.snapshot,\n                code=e.code,\n                layer=e.layer,\n                myversion=myversion)\n\ndef ticketdb():\n    """ Ticket handler """\n\n    if len(request.args) != 2:\n        session.flash = T(\'invalid ticket\')\n        redirect(URL(\'site\'))\n\n    app = get_app()\n    myversion = request.env.web2py_version\n    ticket = request.args[1]\n    e = RestrictedError()\n    request.tickets_db = get_ticket_storage(app)[0]\n    e.load(request, app, ticket)\n    response.view = \'default/ticket.html\'\n    return dict(app=app,\n                ticket=ticket,\n                output=e.output,\n                traceback=(e.traceback and TRACEBACK(e.traceback)),\n                snapshot=e.snapshot,\n                code=e.code,\n                layer=e.layer,\n                myversion=myversion)\n\ndef error():\n    """ Generate a ticket (for testing) """\n    raise RuntimeError(\'admin ticket generator at your service\')\n\ndef update_languages():\n    """ Update available languages """\n\n    app = get_app()\n    update_all_languages(apath(app, r=request))\n    session.flash = T(\'Language files (static strings) updated\')\n    redirect(URL(\'design\',args=app,anchor=\'languages\'))\n\n\ndef twitter():\n    session.forget()\n    session._unlock(response)\n    import gluon.tools\n    import gluon.contrib.simplejson as sj\n    try:\n        if TWITTER_HASH:\n            page = urllib.urlopen("http://search.twitter.com/search.json?q=%%40%s" % TWITTER_HASH).read()\n            data = sj.loads(page  , encoding="utf-8")[\'results\']\n            d = dict()\n            for e in data:\n                d[e["id"]] = e\n            r = reversed(sorted(d))\n            return dict(tweets = [d[k] for k in r])\n        else:\n            return \'disabled\'\n    except Exception, e:\n        return DIV(T(\'Unable to download because:\'),BR(),str(e))\n\n\ndef user():\n    if MULTI_USER_MODE:\n        if not db(db.auth_user).count():\n            auth.settings.registration_requires_approval = False\n        return dict(form=auth())\n    else:\n        return dict(form=T("Disabled"))\n\ndef reload_routes():\n    """ Reload routes.py """\n    import gluon.rewrite\n    gluon.rewrite.load()\n    redirect(URL(\'site\'))\n\n\n\nresponse._vars=response._caller(check_version)\n'
p7
sS'snapshot'
p8
(dp9
S'exception'
p10
(dp11
S'__hash__'
p12
S"<method-wrapper '__hash__' of exceptions.TypeError object at 0x073354B8>"
p13
sS'__setattr__'
p14
S"<method-wrapper '__setattr__' of exceptions.TypeError object at 0x073354B8>"
p15
sS'__reduce_ex__'
p16
S'<built-in method __reduce_ex__ of exceptions.TypeError object at 0x073354B8>'
p17
sS'__getslice__'
p18
S"<method-wrapper '__getslice__' of exceptions.TypeError object at 0x073354B8>"
p19
sS'__getitem__'
p20
S"<method-wrapper '__getitem__' of exceptions.TypeError object at 0x073354B8>"
p21
sS'__setstate__'
p22
S'<built-in method __setstate__ of exceptions.TypeError object at 0x073354B8>'
p23
sS'__reduce__'
p24
S'<built-in method __reduce__ of exceptions.TypeError object at 0x073354B8>'
p25
sS'__str__'
p26
S"<method-wrapper '__str__' of exceptions.TypeError object at 0x073354B8>"
p27
sS'args'
p28
S"('not all arguments converted during string formatting',)"
p29
sS'__getattribute__'
p30
S"<method-wrapper '__getattribute__' of exceptions.TypeError object at 0x073354B8>"
p31
sS'__class__'
p32
S"<type 'exceptions.TypeError'>"
p33
sS'__delattr__'
p34
S"<method-wrapper '__delattr__' of exceptions.TypeError object at 0x073354B8>"
p35
sS'__repr__'
p36
S"<method-wrapper '__repr__' of exceptions.TypeError object at 0x073354B8>"
p37
sS'__dict__'
p38
S'{}'
p39
sS'__doc__'
p40
S"'Inappropriate argument type.'"
p41
sS'__init__'
p42
S"<method-wrapper '__init__' of exceptions.TypeError object at 0x073354B8>"
p43
sS'__new__'
p44
S'<built-in method __new__ of type object at 0x1E1CCD78>'
p45
ssS'evalue'
p46
S'not all arguments converted during string formatting'
p47
sS'request'
p48
ccopy_reg
_reconstructor
p49
(cgluon.html
BEAUTIFY
p50
c__builtin__
object
p51
NtRp52
(dp53
S'attributes'
p54
(dp55
sS'components'
p56
(lp57
g49
(cgluon.html
TABLE
p58
g51
NtRp59
(dp60
g54
(dp61
S'level'
p62
I5
ssS'parent'
p63
Nsg56
(lp64
g49
(cgluon.html
TR
p65
g51
NtRp66
(dp67
g54
(dp68
sg63
g59
sg56
(lp69
g49
(cgluon.html
TD
p70
g51
NtRp71
(dp72
g54
(dp73
S'_style'
p74
S'font-weight:bold;vertical-align:top'
p75
ssg63
g66
sg56
(lp76
S'ajax'
p77
asbag49
(g70
g51
NtRp78
(dp79
g54
(dp80
S'_valign'
p81
S'top'
p82
ssg63
g66
sg56
(lp83
S':'
asbag49
(g70
g51
NtRp84
(dp85
g54
(dp86
sg63
g66
sg56
(lp87
g49
(g50
g51
NtRp88
(dp89
g54
(dp90
g62
I5
ssg63
g84
sg56
(lp91
S'True'
p92
asbasbasbag49
(g65
g51
NtRp93
(dp94
g54
(dp95
sg63
g59
sg56
(lp96
g49
(g70
g51
NtRp97
(dp98
g54
(dp99
g74
g75
ssg63
g93
sg56
(lp100
S'application'
p101
asbag49
(g70
g51
NtRp102
(dp103
g54
(dp104
g81
g82
ssg63
g93
sg56
(lp105
S':'
asbag49
(g70
g51
NtRp106
(dp107
g54
(dp108
sg63
g93
sg56
(lp109
g49
(g50
g51
NtRp110
(dp111
g54
(dp112
g62
I5
ssg63
g106
sg56
(lp113
S'admin'
p114
asbasbasbag49
(g65
g51
NtRp115
(dp116
g54
(dp117
sg63
g59
sg56
(lp118
g49
(g70
g51
NtRp119
(dp120
g54
(dp121
g74
g75
ssg63
g115
sg56
(lp122
g28
asbag49
(g70
g51
NtRp123
(dp124
g54
(dp125
g81
g82
ssg63
g115
sg56
(lp126
S':'
asbag49
(g70
g51
NtRp127
(dp128
g54
(dp129
sg63
g115
sg56
(lp130
g49
(g50
g51
NtRp131
(dp132
g54
(dp133
g62
I5
ssg63
g127
sg56
(lp134
g49
(g58
g51
NtRp135
(dp136
g54
(dp137
g62
I4
ssg63
Nsg56
(lp138
sbasbasbasbag49
(g65
g51
NtRp139
(dp140
g54
(dp141
sg63
g59
sg56
(lp142
g49
(g70
g51
NtRp143
(dp144
g54
(dp145
g74
g75
ssg63
g139
sg56
(lp146
S'body'
p147
asbag49
(g70
g51
NtRp148
(dp149
g54
(dp150
g81
g82
ssg63
g139
sg56
(lp151
S':'
asbag49
(g70
g51
NtRp152
(dp153
g54
(dp154
sg63
g139
sg56
(lp155
g49
(g50
g51
NtRp156
(dp157
g54
(dp158
g62
I5
ssg63
g152
sg56
(lp159
S"<open file '<fdopen>', mode 'w+b' at 0x0703D380>"
p160
asbasbasbag49
(g65
g51
NtRp161
(dp162
g54
(dp163
sg63
g59
sg56
(lp164
g49
(g70
g51
NtRp165
(dp166
g54
(dp167
g74
g75
ssg63
g161
sg56
(lp168
S'client'
p169
asbag49
(g70
g51
NtRp170
(dp171
g54
(dp172
g81
g82
ssg63
g161
sg56
(lp173
S':'
asbag49
(g70
g51
NtRp174
(dp175
g54
(dp176
sg63
g161
sg56
(lp177
g49
(g50
g51
NtRp178
(dp179
g54
(dp180
g62
I5
ssg63
g174
sg56
(lp181
S'127.0.0.1'
p182
asbasbasbag49
(g65
g51
NtRp183
(dp184
g54
(dp185
sg63
g59
sg56
(lp186
g49
(g70
g51
NtRp187
(dp188
g54
(dp189
g74
g75
ssg63
g183
sg56
(lp190
S'controller'
p191
asbag49
(g70
g51
NtRp192
(dp193
g54
(dp194
g81
g82
ssg63
g183
sg56
(lp195
S':'
asbag49
(g70
g51
NtRp196
(dp197
g54
(dp198
sg63
g183
sg56
(lp199
g49
(g50
g51
NtRp200
(dp201
g54
(dp202
g62
I5
ssg63
g196
sg56
(lp203
S'default'
p204
asbasbasbag49
(g65
g51
NtRp205
(dp206
g54
(dp207
sg63
g59
sg56
(lp208
g49
(g70
g51
NtRp209
(dp210
g54
(dp211
g74
g75
ssg63
g205
sg56
(lp212
S'cookies'
p213
asbag49
(g70
g51
NtRp214
(dp215
g54
(dp216
g81
g82
ssg63
g205
sg56
(lp217
S':'
asbag49
(g70
g51
NtRp218
(dp219
g54
(dp220
sg63
g205
sg56
(lp221
g49
(g50
g51
NtRp222
(dp223
g54
(dp224
g62
I5
ssg63
g218
sg56
(lp225
g49
(g58
g51
NtRp226
(dp227
g54
(dp228
g62
I4
ssg63
Nsg56
(lp229
g49
(g65
g51
NtRp230
(dp231
g54
(dp232
sg63
g226
sg56
(lp233
g49
(g70
g51
NtRp234
(dp235
g54
(dp236
g74
g75
ssg63
g230
sg56
(lp237
S'session_id_admin'
p238
asbag49
(g70
g51
NtRp239
(dp240
g54
(dp241
g81
g82
ssg63
g230
sg56
(lp242
S':'
asbag49
(g70
g51
NtRp243
(dp244
g54
(dp245
sg63
g230
sg56
(lp246
g49
(g50
g51
NtRp247
(dp248
g54
(dp249
g62
I4
ssg63
g243
sg56
(lp250
g49
(g58
g51
NtRp251
(dp252
g54
(dp253
g62
I3
ssg63
Nsg56
(lp254
g49
(g65
g51
NtRp255
(dp256
g54
(dp257
sg63
g251
sg56
(lp258
g49
(g70
g51
NtRp259
(dp260
g54
(dp261
g74
g75
ssg63
g255
sg56
(lp262
S'comment'
p263
asbag49
(g70
g51
NtRp264
(dp265
g54
(dp266
g81
g82
ssg63
g255
sg56
(lp267
S':'
asbag49
(g70
g51
NtRp268
(dp269
g54
(dp270
sg63
g255
sg56
(lp271
g49
(g50
g51
NtRp272
(dp273
g54
(dp274
g62
I3
ssg63
g268
sg56
(lp275
S''
asbasbasbag49
(g65
g51
NtRp276
(dp277
g54
(dp278
sg63
g251
sg56
(lp279
g49
(g70
g51
NtRp280
(dp281
g54
(dp282
g74
g75
ssg63
g276
sg56
(lp283
S'domain'
p284
asbag49
(g70
g51
NtRp285
(dp286
g54
(dp287
g81
g82
ssg63
g276
sg56
(lp288
S':'
asbag49
(g70
g51
NtRp289
(dp290
g54
(dp291
sg63
g276
sg56
(lp292
g49
(g50
g51
NtRp293
(dp294
g54
(dp295
g62
I3
ssg63
g289
sg56
(lp296
S''
asbasbasbag49
(g65
g51
NtRp297
(dp298
g54
(dp299
sg63
g251
sg56
(lp300
g49
(g70
g51
NtRp301
(dp302
g54
(dp303
g74
g75
ssg63
g297
sg56
(lp304
S'expires'
p305
asbag49
(g70
g51
NtRp306
(dp307
g54
(dp308
g81
g82
ssg63
g297
sg56
(lp309
S':'
asbag49
(g70
g51
NtRp310
(dp311
g54
(dp312
sg63
g297
sg56
(lp313
g49
(g50
g51
NtRp314
(dp315
g54
(dp316
g62
I3
ssg63
g310
sg56
(lp317
S''
asbasbasbag49
(g65
g51
NtRp318
(dp319
g54
(dp320
sg63
g251
sg56
(lp321
g49
(g70
g51
NtRp322
(dp323
g54
(dp324
g74
g75
ssg63
g318
sg56
(lp325
S'max-age'
p326
asbag49
(g70
g51
NtRp327
(dp328
g54
(dp329
g81
g82
ssg63
g318
sg56
(lp330
S':'
asbag49
(g70
g51
NtRp331
(dp332
g54
(dp333
sg63
g318
sg56
(lp334
g49
(g50
g51
NtRp335
(dp336
g54
(dp337
g62
I3
ssg63
g331
sg56
(lp338
S''
asbasbasbag49
(g65
g51
NtRp339
(dp340
g54
(dp341
sg63
g251
sg56
(lp342
g49
(g70
g51
NtRp343
(dp344
g54
(dp345
g74
g75
ssg63
g339
sg56
(lp346
S'path'
p347
asbag49
(g70
g51
NtRp348
(dp349
g54
(dp350
g81
g82
ssg63
g339
sg56
(lp351
S':'
asbag49
(g70
g51
NtRp352
(dp353
g54
(dp354
sg63
g339
sg56
(lp355
g49
(g50
g51
NtRp356
(dp357
g54
(dp358
g62
I3
ssg63
g352
sg56
(lp359
S''
asbasbasbag49
(g65
g51
NtRp360
(dp361
g54
(dp362
sg63
g251
sg56
(lp363
g49
(g70
g51
NtRp364
(dp365
g54
(dp366
g74
g75
ssg63
g360
sg56
(lp367
S'secure'
p368
asbag49
(g70
g51
NtRp369
(dp370
g54
(dp371
g81
g82
ssg63
g360
sg56
(lp372
S':'
asbag49
(g70
g51
NtRp373
(dp374
g54
(dp375
sg63
g360
sg56
(lp376
g49
(g50
g51
NtRp377
(dp378
g54
(dp379
g62
I3
ssg63
g373
sg56
(lp380
S''
asbasbasbag49
(g65
g51
NtRp381
(dp382
g54
(dp383
sg63
g251
sg56
(lp384
g49
(g70
g51
NtRp385
(dp386
g54
(dp387
g74
g75
ssg63
g381
sg56
(lp388
S'version'
p389
asbag49
(g70
g51
NtRp390
(dp391
g54
(dp392
g81
g82
ssg63
g381
sg56
(lp393
S':'
asbag49
(g70
g51
NtRp394
(dp395
g54
(dp396
sg63
g381
sg56
(lp397
g49
(g50
g51
NtRp398
(dp399
g54
(dp400
g62
I3
ssg63
g394
sg56
(lp401
S''
asbasbasbasbasbasbasbag49
(g65
g51
NtRp402
(dp403
g54
(dp404
sg63
g226
sg56
(lp405
g49
(g70
g51
NtRp406
(dp407
g54
(dp408
g74
g75
ssg63
g402
sg56
(lp409
S'session_id_pro'
p410
asbag49
(g70
g51
NtRp411
(dp412
g54
(dp413
g81
g82
ssg63
g402
sg56
(lp414
S':'
asbag49
(g70
g51
NtRp415
(dp416
g54
(dp417
sg63
g402
sg56
(lp418
g49
(g50
g51
NtRp419
(dp420
g54
(dp421
g62
I4
ssg63
g415
sg56
(lp422
g49
(g58
g51
NtRp423
(dp424
g54
(dp425
g62
I3
ssg63
Nsg56
(lp426
g49
(g65
g51
NtRp427
(dp428
g54
(dp429
sg63
g423
sg56
(lp430
g49
(g70
g51
NtRp431
(dp432
g54
(dp433
g74
g75
ssg63
g427
sg56
(lp434
g263
asbag49
(g70
g51
NtRp435
(dp436
g54
(dp437
g81
g82
ssg63
g427
sg56
(lp438
S':'
asbag49
(g70
g51
NtRp439
(dp440
g54
(dp441
sg63
g427
sg56
(lp442
g49
(g50
g51
NtRp443
(dp444
g54
(dp445
g62
I3
ssg63
g439
sg56
(lp446
S''
asbasbasbag49
(g65
g51
NtRp447
(dp448
g54
(dp449
sg63
g423
sg56
(lp450
g49
(g70
g51
NtRp451
(dp452
g54
(dp453
g74
g75
ssg63
g447
sg56
(lp454
g284
asbag49
(g70
g51
NtRp455
(dp456
g54
(dp457
g81
g82
ssg63
g447
sg56
(lp458
S':'
asbag49
(g70
g51
NtRp459
(dp460
g54
(dp461
sg63
g447
sg56
(lp462
g49
(g50
g51
NtRp463
(dp464
g54
(dp465
g62
I3
ssg63
g459
sg56
(lp466
S''
asbasbasbag49
(g65
g51
NtRp467
(dp468
g54
(dp469
sg63
g423
sg56
(lp470
g49
(g70
g51
NtRp471
(dp472
g54
(dp473
g74
g75
ssg63
g467
sg56
(lp474
g305
asbag49
(g70
g51
NtRp475
(dp476
g54
(dp477
g81
g82
ssg63
g467
sg56
(lp478
S':'
asbag49
(g70
g51
NtRp479
(dp480
g54
(dp481
sg63
g467
sg56
(lp482
g49
(g50
g51
NtRp483
(dp484
g54
(dp485
g62
I3
ssg63
g479
sg56
(lp486
S''
asbasbasbag49
(g65
g51
NtRp487
(dp488
g54
(dp489
sg63
g423
sg56
(lp490
g49
(g70
g51
NtRp491
(dp492
g54
(dp493
g74
g75
ssg63
g487
sg56
(lp494
g326
asbag49
(g70
g51
NtRp495
(dp496
g54
(dp497
g81
g82
ssg63
g487
sg56
(lp498
S':'
asbag49
(g70
g51
NtRp499
(dp500
g54
(dp501
sg63
g487
sg56
(lp502
g49
(g50
g51
NtRp503
(dp504
g54
(dp505
g62
I3
ssg63
g499
sg56
(lp506
S''
asbasbasbag49
(g65
g51
NtRp507
(dp508
g54
(dp509
sg63
g423
sg56
(lp510
g49
(g70
g51
NtRp511
(dp512
g54
(dp513
g74
g75
ssg63
g507
sg56
(lp514
g347
asbag49
(g70
g51
NtRp515
(dp516
g54
(dp517
g81
g82
ssg63
g507
sg56
(lp518
S':'
asbag49
(g70
g51
NtRp519
(dp520
g54
(dp521
sg63
g507
sg56
(lp522
g49
(g50
g51
NtRp523
(dp524
g54
(dp525
g62
I3
ssg63
g519
sg56
(lp526
S''
asbasbasbag49
(g65
g51
NtRp527
(dp528
g54
(dp529
sg63
g423
sg56
(lp530
g49
(g70
g51
NtRp531
(dp532
g54
(dp533
g74
g75
ssg63
g527
sg56
(lp534
g368
asbag49
(g70
g51
NtRp535
(dp536
g54
(dp537
g81
g82
ssg63
g527
sg56
(lp538
S':'
asbag49
(g70
g51
NtRp539
(dp540
g54
(dp541
sg63
g527
sg56
(lp542
g49
(g50
g51
NtRp543
(dp544
g54
(dp545
g62
I3
ssg63
g539
sg56
(lp546
S''
asbasbasbag49
(g65
g51
NtRp547
(dp548
g54
(dp549
sg63
g423
sg56
(lp550
g49
(g70
g51
NtRp551
(dp552
g54
(dp553
g74
g75
ssg63
g547
sg56
(lp554
g389
asbag49
(g70
g51
NtRp555
(dp556
g54
(dp557
g81
g82
ssg63
g547
sg56
(lp558
S':'
asbag49
(g70
g51
NtRp559
(dp560
g54
(dp561
sg63
g547
sg56
(lp562
g49
(g50
g51
NtRp563
(dp564
g54
(dp565
g62
I3
ssg63
g559
sg56
(lp566
S''
asbasbasbasbasbasbasbag49
(g65
g51
NtRp567
(dp568
g54
(dp569
sg63
g226
sg56
(lp570
g49
(g70
g51
NtRp571
(dp572
g54
(dp573
g74
g75
ssg63
g567
sg56
(lp574
S'session_id_ssad_project'
p575
asbag49
(g70
g51
NtRp576
(dp577
g54
(dp578
g81
g82
ssg63
g567
sg56
(lp579
S':'
asbag49
(g70
g51
NtRp580
(dp581
g54
(dp582
sg63
g567
sg56
(lp583
g49
(g50
g51
NtRp584
(dp585
g54
(dp586
g62
I4
ssg63
g580
sg56
(lp587
g49
(g58
g51
NtRp588
(dp589
g54
(dp590
g62
I3
ssg63
Nsg56
(lp591
g49
(g65
g51
NtRp592
(dp593
g54
(dp594
sg63
g588
sg56
(lp595
g49
(g70
g51
NtRp596
(dp597
g54
(dp598
g74
g75
ssg63
g592
sg56
(lp599
g263
asbag49
(g70
g51
NtRp600
(dp601
g54
(dp602
g81
g82
ssg63
g592
sg56
(lp603
S':'
asbag49
(g70
g51
NtRp604
(dp605
g54
(dp606
sg63
g592
sg56
(lp607
g49
(g50
g51
NtRp608
(dp609
g54
(dp610
g62
I3
ssg63
g604
sg56
(lp611
S''
asbasbasbag49
(g65
g51
NtRp612
(dp613
g54
(dp614
sg63
g588
sg56
(lp615
g49
(g70
g51
NtRp616
(dp617
g54
(dp618
g74
g75
ssg63
g612
sg56
(lp619
g284
asbag49
(g70
g51
NtRp620
(dp621
g54
(dp622
g81
g82
ssg63
g612
sg56
(lp623
S':'
asbag49
(g70
g51
NtRp624
(dp625
g54
(dp626
sg63
g612
sg56
(lp627
g49
(g50
g51
NtRp628
(dp629
g54
(dp630
g62
I3
ssg63
g624
sg56
(lp631
S''
asbasbasbag49
(g65
g51
NtRp632
(dp633
g54
(dp634
sg63
g588
sg56
(lp635
g49
(g70
g51
NtRp636
(dp637
g54
(dp638
g74
g75
ssg63
g632
sg56
(lp639
g305
asbag49
(g70
g51
NtRp640
(dp641
g54
(dp642
g81
g82
ssg63
g632
sg56
(lp643
S':'
asbag49
(g70
g51
NtRp644
(dp645
g54
(dp646
sg63
g632
sg56
(lp647
g49
(g50
g51
NtRp648
(dp649
g54
(dp650
g62
I3
ssg63
g644
sg56
(lp651
S''
asbasbasbag49
(g65
g51
NtRp652
(dp653
g54
(dp654
sg63
g588
sg56
(lp655
g49
(g70
g51
NtRp656
(dp657
g54
(dp658
g74
g75
ssg63
g652
sg56
(lp659
g326
asbag49
(g70
g51
NtRp660
(dp661
g54
(dp662
g81
g82
ssg63
g652
sg56
(lp663
S':'
asbag49
(g70
g51
NtRp664
(dp665
g54
(dp666
sg63
g652
sg56
(lp667
g49
(g50
g51
NtRp668
(dp669
g54
(dp670
g62
I3
ssg63
g664
sg56
(lp671
S''
asbasbasbag49
(g65
g51
NtRp672
(dp673
g54
(dp674
sg63
g588
sg56
(lp675
g49
(g70
g51
NtRp676
(dp677
g54
(dp678
g74
g75
ssg63
g672
sg56
(lp679
g347
asbag49
(g70
g51
NtRp680
(dp681
g54
(dp682
g81
g82
ssg63
g672
sg56
(lp683
S':'
asbag49
(g70
g51
NtRp684
(dp685
g54
(dp686
sg63
g672
sg56
(lp687
g49
(g50
g51
NtRp688
(dp689
g54
(dp690
g62
I3
ssg63
g684
sg56
(lp691
S''
asbasbasbag49
(g65
g51
NtRp692
(dp693
g54
(dp694
sg63
g588
sg56
(lp695
g49
(g70
g51
NtRp696
(dp697
g54
(dp698
g74
g75
ssg63
g692
sg56
(lp699
g368
asbag49
(g70
g51
NtRp700
(dp701
g54
(dp702
g81
g82
ssg63
g692
sg56
(lp703
S':'
asbag49
(g70
g51
NtRp704
(dp705
g54
(dp706
sg63
g692
sg56
(lp707
g49
(g50
g51
NtRp708
(dp709
g54
(dp710
g62
I3
ssg63
g704
sg56
(lp711
S''
asbasbasbag49
(g65
g51
NtRp712
(dp713
g54
(dp714
sg63
g588
sg56
(lp715
g49
(g70
g51
NtRp716
(dp717
g54
(dp718
g74
g75
ssg63
g712
sg56
(lp719
g389
asbag49
(g70
g51
NtRp720
(dp721
g54
(dp722
g81
g82
ssg63
g712
sg56
(lp723
S':'
asbag49
(g70
g51
NtRp724
(dp725
g54
(dp726
sg63
g712
sg56
(lp727
g49
(g50
g51
NtRp728
(dp729
g54
(dp730
g62
I3
ssg63
g724
sg56
(lp731
S''
asbasbasbasbasbasbasbag49
(g65
g51
NtRp732
(dp733
g54
(dp734
sg63
g226
sg56
(lp735
g49
(g70
g51
NtRp736
(dp737
g54
(dp738
g74
g75
ssg63
g732
sg56
(lp739
S'session_id_welcome'
p740
asbag49
(g70
g51
NtRp741
(dp742
g54
(dp743
g81
g82
ssg63
g732
sg56
(lp744
S':'
asbag49
(g70
g51
NtRp745
(dp746
g54
(dp747
sg63
g732
sg56
(lp748
g49
(g50
g51
NtRp749
(dp750
g54
(dp751
g62
I4
ssg63
g745
sg56
(lp752
g49
(g58
g51
NtRp753
(dp754
g54
(dp755
g62
I3
ssg63
Nsg56
(lp756
g49
(g65
g51
NtRp757
(dp758
g54
(dp759
sg63
g753
sg56
(lp760
g49
(g70
g51
NtRp761
(dp762
g54
(dp763
g74
g75
ssg63
g757
sg56
(lp764
g263
asbag49
(g70
g51
NtRp765
(dp766
g54
(dp767
g81
g82
ssg63
g757
sg56
(lp768
S':'
asbag49
(g70
g51
NtRp769
(dp770
g54
(dp771
sg63
g757
sg56
(lp772
g49
(g50
g51
NtRp773
(dp774
g54
(dp775
g62
I3
ssg63
g769
sg56
(lp776
S''
asbasbasbag49
(g65
g51
NtRp777
(dp778
g54
(dp779
sg63
g753
sg56
(lp780
g49
(g70
g51
NtRp781
(dp782
g54
(dp783
g74
g75
ssg63
g777
sg56
(lp784
g284
asbag49
(g70
g51
NtRp785
(dp786
g54
(dp787
g81
g82
ssg63
g777
sg56
(lp788
S':'
asbag49
(g70
g51
NtRp789
(dp790
g54
(dp791
sg63
g777
sg56
(lp792
g49
(g50
g51
NtRp793
(dp794
g54
(dp795
g62
I3
ssg63
g789
sg56
(lp796
S''
asbasbasbag49
(g65
g51
NtRp797
(dp798
g54
(dp799
sg63
g753
sg56
(lp800
g49
(g70
g51
NtRp801
(dp802
g54
(dp803
g74
g75
ssg63
g797
sg56
(lp804
g305
asbag49
(g70
g51
NtRp805
(dp806
g54
(dp807
g81
g82
ssg63
g797
sg56
(lp808
S':'
asbag49
(g70
g51
NtRp809
(dp810
g54
(dp811
sg63
g797
sg56
(lp812
g49
(g50
g51
NtRp813
(dp814
g54
(dp815
g62
I3
ssg63
g809
sg56
(lp816
S''
asbasbasbag49
(g65
g51
NtRp817
(dp818
g54
(dp819
sg63
g753
sg56
(lp820
g49
(g70
g51
NtRp821
(dp822
g54
(dp823
g74
g75
ssg63
g817
sg56
(lp824
g326
asbag49
(g70
g51
NtRp825
(dp826
g54
(dp827
g81
g82
ssg63
g817
sg56
(lp828
S':'
asbag49
(g70
g51
NtRp829
(dp830
g54
(dp831
sg63
g817
sg56
(lp832
g49
(g50
g51
NtRp833
(dp834
g54
(dp835
g62
I3
ssg63
g829
sg56
(lp836
S''
asbasbasbag49
(g65
g51
NtRp837
(dp838
g54
(dp839
sg63
g753
sg56
(lp840
g49
(g70
g51
NtRp841
(dp842
g54
(dp843
g74
g75
ssg63
g837
sg56
(lp844
g347
asbag49
(g70
g51
NtRp845
(dp846
g54
(dp847
g81
g82
ssg63
g837
sg56
(lp848
S':'
asbag49
(g70
g51
NtRp849
(dp850
g54
(dp851
sg63
g837
sg56
(lp852
g49
(g50
g51
NtRp853
(dp854
g54
(dp855
g62
I3
ssg63
g849
sg56
(lp856
S''
asbasbasbag49
(g65
g51
NtRp857
(dp858
g54
(dp859
sg63
g753
sg56
(lp860
g49
(g70
g51
NtRp861
(dp862
g54
(dp863
g74
g75
ssg63
g857
sg56
(lp864
g368
asbag49
(g70
g51
NtRp865
(dp866
g54
(dp867
g81
g82
ssg63
g857
sg56
(lp868
S':'
asbag49
(g70
g51
NtRp869
(dp870
g54
(dp871
sg63
g857
sg56
(lp872
g49
(g50
g51
NtRp873
(dp874
g54
(dp875
g62
I3
ssg63
g869
sg56
(lp876
S''
asbasbasbag49
(g65
g51
NtRp877
(dp878
g54
(dp879
sg63
g753
sg56
(lp880
g49
(g70
g51
NtRp881
(dp882
g54
(dp883
g74
g75
ssg63
g877
sg56
(lp884
g389
asbag49
(g70
g51
NtRp885
(dp886
g54
(dp887
g81
g82
ssg63
g877
sg56
(lp888
S':'
asbag49
(g70
g51
NtRp889
(dp890
g54
(dp891
sg63
g877
sg56
(lp892
g49
(g50
g51
NtRp893
(dp894
g54
(dp895
g62
I3
ssg63
g889
sg56
(lp896
S''
asbasbasbasbasbasbasbasbasbasbasbag49
(g65
g51
NtRp897
(dp898
g54
(dp899
sg63
g59
sg56
(lp900
g49
(g70
g51
NtRp901
(dp902
g54
(dp903
g74
g75
ssg63
g897
sg56
(lp904
S'env'
p905
asbag49
(g70
g51
NtRp906
(dp907
g54
(dp908
g81
g82
ssg63
g897
sg56
(lp909
S':'
asbag49
(g70
g51
NtRp910
(dp911
g54
(dp912
sg63
g897
sg56
(lp913
g49
(g50
g51
NtRp914
(dp915
g54
(dp916
g62
I5
ssg63
g910
sg56
(lp917
g49
(g58
g51
NtRp918
(dp919
g54
(dp920
g62
I4
ssg63
Nsg56
(lp921
g49
(g65
g51
NtRp922
(dp923
g54
(dp924
sg63
g918
sg56
(lp925
g49
(g70
g51
NtRp926
(dp927
g54
(dp928
g74
g75
ssg63
g922
sg56
(lp929
S'app_folders'
p930
asbag49
(g70
g51
NtRp931
(dp932
g54
(dp933
g81
g82
ssg63
g922
sg56
(lp934
S':'
asbag49
(g70
g51
NtRp935
(dp936
g54
(dp937
sg63
g922
sg56
(lp938
g49
(g50
g51
NtRp939
(dp940
g54
(dp941
g62
I4
ssg63
g935
sg56
(lp942
S"set(['D:\\\\web2py\\\\applications\\\\pro\\\\', 'D:\\\\web2py\\\\applications\\\\admin\\\\', 'D:\\\\web2py\\\\applications\\\\welcome\\\\'])"
p943
asbasbasbag49
(g65
g51
NtRp944
(dp945
g54
(dp946
sg63
g918
sg56
(lp947
g49
(g70
g51
NtRp948
(dp949
g54
(dp950
g74
g75
ssg63
g944
sg56
(lp951
S'applications_parent'
p952
asbag49
(g70
g51
NtRp953
(dp954
g54
(dp955
g81
g82
ssg63
g944
sg56
(lp956
S':'
asbag49
(g70
g51
NtRp957
(dp958
g54
(dp959
sg63
g944
sg56
(lp960
g49
(g50
g51
NtRp961
(dp962
g54
(dp963
g62
I4
ssg63
g957
sg56
(lp964
S'D:\\web2py'
p965
asbasbasbag49
(g65
g51
NtRp966
(dp967
g54
(dp968
sg63
g918
sg56
(lp969
g49
(g70
g51
NtRp970
(dp971
g54
(dp972
g74
g75
ssg63
g966
sg56
(lp973
S'cmd_args'
p974
asbag49
(g70
g51
NtRp975
(dp976
g54
(dp977
g81
g82
ssg63
g966
sg56
(lp978
S':'
asbag49
(g70
g51
NtRp979
(dp980
g54
(dp981
sg63
g966
sg56
(lp982
g49
(g50
g51
NtRp983
(dp984
g54
(dp985
g62
I4
ssg63
g979
sg56
(lp986
g49
(g58
g51
NtRp987
(dp988
g54
(dp989
g62
I3
ssg63
Nsg56
(lp990
sbasbasbasbag49
(g65
g51
NtRp991
(dp992
g54
(dp993
sg63
g918
sg56
(lp994
g49
(g70
g51
NtRp995
(dp996
g54
(dp997
g74
g75
ssg63
g991
sg56
(lp998
S'cmd_options'
p999
asbag49
(g70
g51
NtRp1000
(dp1001
g54
(dp1002
g81
g82
ssg63
g991
sg56
(lp1003
S':'
asbag49
(g70
g51
NtRp1004
(dp1005
g54
(dp1006
sg63
g991
sg56
(lp1007
g49
(g50
g51
NtRp1008
(dp1009
g54
(dp1010
g62
I4
ssg63
g1004
sg56
(lp1011
S"<Values at 0x3093fa8: {'verbose': False, 'ip': '127.0.0.1', 'shutdown_timeout': 5, 'taskbar': False, 'nocron': False, 'pid_filename': 'httpserver.pid', 'maxthreads': None, 'softcron': False, 'server_name': 'user-PC', 'bpython': False, 'nogui': False, 'port': 8000, 'extcron': False, 'debuglevel': 30, 'test': None, 'folder': 'D:\\\\web2py', 'config': '', 'import_models': False, 'winservice': '', 'shell': None, 'run': '', 'log_filename': 'httpserver.log', 'args': [''], 'socket_timeout': 5, 'ssl_ca_certificate': None, 'scheduler': None, 'profiler_filename': None, 'ssl_private_key': '', 'password': '<ask>', 'request_queue_size': 5, 'ssl_certificate': '', 'cronjob': False, 'numthreads': None, 'quiet': False, 'interfaces': None, 'minthreads': None, 'timeout': 10, 'plain': False, 'nobanner': False}>"
p1012
asbasbasbag49
(g65
g51
NtRp1013
(dp1014
g54
(dp1015
sg63
g918
sg56
(lp1016
g49
(g70
g51
NtRp1017
(dp1018
g54
(dp1019
g74
g75
ssg63
g1013
sg56
(lp1020
S'content_length'
p1021
asbag49
(g70
g51
NtRp1022
(dp1023
g54
(dp1024
g81
g82
ssg63
g1013
sg56
(lp1025
S':'
asbag49
(g70
g51
NtRp1026
(dp1027
g54
(dp1028
sg63
g1013
sg56
(lp1029
g49
(g50
g51
NtRp1030
(dp1031
g54
(dp1032
g62
I4
ssg63
g1026
sg56
(lp1033
S'0'
asbasbasbag49
(g65
g51
NtRp1034
(dp1035
g54
(dp1036
sg63
g918
sg56
(lp1037
g49
(g70
g51
NtRp1038
(dp1039
g54
(dp1040
g74
g75
ssg63
g1034
sg56
(lp1041
S'db_sessions'
p1042
asbag49
(g70
g51
NtRp1043
(dp1044
g54
(dp1045
g81
g82
ssg63
g1034
sg56
(lp1046
S':'
asbag49
(g70
g51
NtRp1047
(dp1048
g54
(dp1049
sg63
g1034
sg56
(lp1050
g49
(g50
g51
NtRp1051
(dp1052
g54
(dp1053
g62
I4
ssg63
g1047
sg56
(lp1054
S'set([])'
p1055
asbasbasbag49
(g65
g51
NtRp1056
(dp1057
g54
(dp1058
sg63
g918
sg56
(lp1059
g49
(g70
g51
NtRp1060
(dp1061
g54
(dp1062
g74
g75
ssg63
g1056
sg56
(lp1063
S'debugging'
p1064
asbag49
(g70
g51
NtRp1065
(dp1066
g54
(dp1067
g81
g82
ssg63
g1056
sg56
(lp1068
S':'
asbag49
(g70
g51
NtRp1069
(dp1070
g54
(dp1071
sg63
g1056
sg56
(lp1072
g49
(g50
g51
NtRp1073
(dp1074
g54
(dp1075
g62
I4
ssg63
g1069
sg56
(lp1076
S'False'
p1077
asbasbasbag49
(g65
g51
NtRp1078
(dp1079
g54
(dp1080
sg63
g918
sg56
(lp1081
g49
(g70
g51
NtRp1082
(dp1083
g54
(dp1084
g74
g75
ssg63
g1078
sg56
(lp1085
S'gluon_parent'
p1086
asbag49
(g70
g51
NtRp1087
(dp1088
g54
(dp1089
g81
g82
ssg63
g1078
sg56
(lp1090
S':'
asbag49
(g70
g51
NtRp1091
(dp1092
g54
(dp1093
sg63
g1078
sg56
(lp1094
g49
(g50
g51
NtRp1095
(dp1096
g54
(dp1097
g62
I4
ssg63
g1091
sg56
(lp1098
S'D:\\web2py'
p1099
asbasbasbag49
(g65
g51
NtRp1100
(dp1101
g54
(dp1102
sg63
g918
sg56
(lp1103
g49
(g70
g51
NtRp1104
(dp1105
g54
(dp1106
g74
g75
ssg63
g1100
sg56
(lp1107
S'http_accept'
p1108
asbag49
(g70
g51
NtRp1109
(dp1110
g54
(dp1111
g81
g82
ssg63
g1100
sg56
(lp1112
S':'
asbag49
(g70
g51
NtRp1113
(dp1114
g54
(dp1115
sg63
g1100
sg56
(lp1116
g49
(g50
g51
NtRp1117
(dp1118
g54
(dp1119
g62
I4
ssg63
g1113
sg56
(lp1120
S'*/*'
p1121
asbasbasbag49
(g65
g51
NtRp1122
(dp1123
g54
(dp1124
sg63
g918
sg56
(lp1125
g49
(g70
g51
NtRp1126
(dp1127
g54
(dp1128
g74
g75
ssg63
g1122
sg56
(lp1129
S'http_accept_encoding'
p1130
asbag49
(g70
g51
NtRp1131
(dp1132
g54
(dp1133
g81
g82
ssg63
g1122
sg56
(lp1134
S':'
asbag49
(g70
g51
NtRp1135
(dp1136
g54
(dp1137
sg63
g1122
sg56
(lp1138
g49
(g50
g51
NtRp1139
(dp1140
g54
(dp1141
g62
I4
ssg63
g1135
sg56
(lp1142
S'gzip, deflate'
p1143
asbasbasbag49
(g65
g51
NtRp1144
(dp1145
g54
(dp1146
sg63
g918
sg56
(lp1147
g49
(g70
g51
NtRp1148
(dp1149
g54
(dp1150
g74
g75
ssg63
g1144
sg56
(lp1151
S'http_accept_language'
p1152
asbag49
(g70
g51
NtRp1153
(dp1154
g54
(dp1155
g81
g82
ssg63
g1144
sg56
(lp1156
S':'
asbag49
(g70
g51
NtRp1157
(dp1158
g54
(dp1159
sg63
g1144
sg56
(lp1160
g49
(g50
g51
NtRp1161
(dp1162
g54
(dp1163
g62
I4
ssg63
g1157
sg56
(lp1164
S'en-us,en;q=0.5'
p1165
asbasbasbag49
(g65
g51
NtRp1166
(dp1167
g54
(dp1168
sg63
g918
sg56
(lp1169
g49
(g70
g51
NtRp1170
(dp1171
g54
(dp1172
g74
g75
ssg63
g1166
sg56
(lp1173
S'http_cache_control'
p1174
asbag49
(g70
g51
NtRp1175
(dp1176
g54
(dp1177
g81
g82
ssg63
g1166
sg56
(lp1178
S':'
asbag49
(g70
g51
NtRp1179
(dp1180
g54
(dp1181
sg63
g1166
sg56
(lp1182
g49
(g50
g51
NtRp1183
(dp1184
g54
(dp1185
g62
I4
ssg63
g1179
sg56
(lp1186
S'no-cache'
p1187
asbasbasbag49
(g65
g51
NtRp1188
(dp1189
g54
(dp1190
sg63
g918
sg56
(lp1191
g49
(g70
g51
NtRp1192
(dp1193
g54
(dp1194
g74
g75
ssg63
g1188
sg56
(lp1195
S'http_connection'
p1196
asbag49
(g70
g51
NtRp1197
(dp1198
g54
(dp1199
g81
g82
ssg63
g1188
sg56
(lp1200
S':'
asbag49
(g70
g51
NtRp1201
(dp1202
g54
(dp1203
sg63
g1188
sg56
(lp1204
g49
(g50
g51
NtRp1205
(dp1206
g54
(dp1207
g62
I4
ssg63
g1201
sg56
(lp1208
S'keep-alive'
p1209
asbasbasbag49
(g65
g51
NtRp1210
(dp1211
g54
(dp1212
sg63
g918
sg56
(lp1213
g49
(g70
g51
NtRp1214
(dp1215
g54
(dp1216
g74
g75
ssg63
g1210
sg56
(lp1217
S'http_content_length'
p1218
asbag49
(g70
g51
NtRp1219
(dp1220
g54
(dp1221
g81
g82
ssg63
g1210
sg56
(lp1222
S':'
asbag49
(g70
g51
NtRp1223
(dp1224
g54
(dp1225
sg63
g1210
sg56
(lp1226
g49
(g50
g51
NtRp1227
(dp1228
g54
(dp1229
g62
I4
ssg63
g1223
sg56
(lp1230
S'0'
asbasbasbag49
(g65
g51
NtRp1231
(dp1232
g54
(dp1233
sg63
g918
sg56
(lp1234
g49
(g70
g51
NtRp1235
(dp1236
g54
(dp1237
g74
g75
ssg63
g1231
sg56
(lp1238
S'http_cookie'
p1239
asbag49
(g70
g51
NtRp1240
(dp1241
g54
(dp1242
g81
g82
ssg63
g1231
sg56
(lp1243
S':'
asbag49
(g70
g51
NtRp1244
(dp1245
g54
(dp1246
sg63
g1231
sg56
(lp1247
g49
(g50
g51
NtRp1248
(dp1249
g54
(dp1250
g62
I4
ssg63
g1244
sg56
(lp1251
S'session_id_ssad_project=127.0.0.1-7925c1a6-3250-4da6-9a5e-dad9088b6c6b; session_id_welcome=127.0.0.1-22a55a20-665f-463f-b2ee-34e58f215947; session_id_admin=127.0.0.1-b54cd5c5-5484-4756-a0b6-07485af2cf8d; session_id_pro=127.0.0.1-8e6f72b3-d424-4bc3-a580-6204169e8ffd'
p1252
asbasbasbag49
(g65
g51
NtRp1253
(dp1254
g54
(dp1255
sg63
g918
sg56
(lp1256
g49
(g70
g51
NtRp1257
(dp1258
g54
(dp1259
g74
g75
ssg63
g1253
sg56
(lp1260
S'http_dnt'
p1261
asbag49
(g70
g51
NtRp1262
(dp1263
g54
(dp1264
g81
g82
ssg63
g1253
sg56
(lp1265
S':'
asbag49
(g70
g51
NtRp1266
(dp1267
g54
(dp1268
sg63
g1253
sg56
(lp1269
g49
(g50
g51
NtRp1270
(dp1271
g54
(dp1272
g62
I4
ssg63
g1266
sg56
(lp1273
S'1'
asbasbasbag49
(g65
g51
NtRp1274
(dp1275
g54
(dp1276
sg63
g918
sg56
(lp1277
g49
(g70
g51
NtRp1278
(dp1279
g54
(dp1280
g74
g75
ssg63
g1274
sg56
(lp1281
S'http_host'
p1282
asbag49
(g70
g51
NtRp1283
(dp1284
g54
(dp1285
g81
g82
ssg63
g1274
sg56
(lp1286
S':'
asbag49
(g70
g51
NtRp1287
(dp1288
g54
(dp1289
sg63
g1274
sg56
(lp1290
g49
(g50
g51
NtRp1291
(dp1292
g54
(dp1293
g62
I4
ssg63
g1287
sg56
(lp1294
S'127.0.0.1:8000'
p1295
asbasbasbag49
(g65
g51
NtRp1296
(dp1297
g54
(dp1298
sg63
g918
sg56
(lp1299
g49
(g70
g51
NtRp1300
(dp1301
g54
(dp1302
g74
g75
ssg63
g1296
sg56
(lp1303
S'http_pragma'
p1304
asbag49
(g70
g51
NtRp1305
(dp1306
g54
(dp1307
g81
g82
ssg63
g1296
sg56
(lp1308
S':'
asbag49
(g70
g51
NtRp1309
(dp1310
g54
(dp1311
sg63
g1296
sg56
(lp1312
g49
(g50
g51
NtRp1313
(dp1314
g54
(dp1315
g62
I4
ssg63
g1309
sg56
(lp1316
S'no-cache'
p1317
asbasbasbag49
(g65
g51
NtRp1318
(dp1319
g54
(dp1320
sg63
g918
sg56
(lp1321
g49
(g70
g51
NtRp1322
(dp1323
g54
(dp1324
g74
g75
ssg63
g1318
sg56
(lp1325
S'http_referer'
p1326
asbag49
(g70
g51
NtRp1327
(dp1328
g54
(dp1329
g81
g82
ssg63
g1318
sg56
(lp1330
S':'
asbag49
(g70
g51
NtRp1331
(dp1332
g54
(dp1333
sg63
g1318
sg56
(lp1334
g49
(g50
g51
NtRp1335
(dp1336
g54
(dp1337
g62
I4
ssg63
g1331
sg56
(lp1338
S'http://127.0.0.1:8000/admin/default/site'
p1339
asbasbasbag49
(g65
g51
NtRp1340
(dp1341
g54
(dp1342
sg63
g918
sg56
(lp1343
g49
(g70
g51
NtRp1344
(dp1345
g54
(dp1346
g74
g75
ssg63
g1340
sg56
(lp1347
S'http_user_agent'
p1348
asbag49
(g70
g51
NtRp1349
(dp1350
g54
(dp1351
g81
g82
ssg63
g1340
sg56
(lp1352
S':'
asbag49
(g70
g51
NtRp1353
(dp1354
g54
(dp1355
sg63
g1340
sg56
(lp1356
g49
(g50
g51
NtRp1357
(dp1358
g54
(dp1359
g62
I4
ssg63
g1353
sg56
(lp1360
S'Mozilla/5.0 (Windows NT 6.1; WOW64; rv:11.0) Gecko/20100101 Firefox/11.0'
p1361
asbasbasbag49
(g65
g51
NtRp1362
(dp1363
g54
(dp1364
sg63
g918
sg56
(lp1365
g49
(g70
g51
NtRp1366
(dp1367
g54
(dp1368
g74
g75
ssg63
g1362
sg56
(lp1369
S'http_x_requested_with'
p1370
asbag49
(g70
g51
NtRp1371
(dp1372
g54
(dp1373
g81
g82
ssg63
g1362
sg56
(lp1374
S':'
asbag49
(g70
g51
NtRp1375
(dp1376
g54
(dp1377
sg63
g1362
sg56
(lp1378
g49
(g50
g51
NtRp1379
(dp1380
g54
(dp1381
g62
I4
ssg63
g1375
sg56
(lp1382
S'XMLHttpRequest'
p1383
asbasbasbag49
(g65
g51
NtRp1384
(dp1385
g54
(dp1386
sg63
g918
sg56
(lp1387
g49
(g70
g51
NtRp1388
(dp1389
g54
(dp1390
g74
g75
ssg63
g1384
sg56
(lp1391
S'is_jython'
p1392
asbag49
(g70
g51
NtRp1393
(dp1394
g54
(dp1395
g81
g82
ssg63
g1384
sg56
(lp1396
S':'
asbag49
(g70
g51
NtRp1397
(dp1398
g54
(dp1399
sg63
g1384
sg56
(lp1400
g49
(g50
g51
NtRp1401
(dp1402
g54
(dp1403
g62
I4
ssg63
g1397
sg56
(lp1404
g1077
asbasbasbag49
(g65
g51
NtRp1405
(dp1406
g54
(dp1407
sg63
g918
sg56
(lp1408
g49
(g70
g51
NtRp1409
(dp1410
g54
(dp1411
g74
g75
ssg63
g1405
sg56
(lp1412
S'is_pypy'
p1413
asbag49
(g70
g51
NtRp1414
(dp1415
g54
(dp1416
g81
g82
ssg63
g1405
sg56
(lp1417
S':'
asbag49
(g70
g51
NtRp1418
(dp1419
g54
(dp1420
sg63
g1405
sg56
(lp1421
g49
(g50
g51
NtRp1422
(dp1423
g54
(dp1424
g62
I4
ssg63
g1418
sg56
(lp1425
g1077
asbasbasbag49
(g65
g51
NtRp1426
(dp1427
g54
(dp1428
sg63
g918
sg56
(lp1429
g49
(g70
g51
NtRp1430
(dp1431
g54
(dp1432
g74
g75
ssg63
g1426
sg56
(lp1433
S'path_info'
p1434
asbag49
(g70
g51
NtRp1435
(dp1436
g54
(dp1437
g81
g82
ssg63
g1426
sg56
(lp1438
S':'
asbag49
(g70
g51
NtRp1439
(dp1440
g54
(dp1441
sg63
g1426
sg56
(lp1442
g49
(g50
g51
NtRp1443
(dp1444
g54
(dp1445
g62
I4
ssg63
g1439
sg56
(lp1446
S'/admin/default/check_version'
p1447
asbasbasbag49
(g65
g51
NtRp1448
(dp1449
g54
(dp1450
sg63
g918
sg56
(lp1451
g49
(g70
g51
NtRp1452
(dp1453
g54
(dp1454
g74
g75
ssg63
g1448
sg56
(lp1455
S'query_string'
p1456
asbag49
(g70
g51
NtRp1457
(dp1458
g54
(dp1459
g81
g82
ssg63
g1448
sg56
(lp1460
S':'
asbag49
(g70
g51
NtRp1461
(dp1462
g54
(dp1463
sg63
g1448
sg56
(lp1464
g49
(g50
g51
NtRp1465
(dp1466
g54
(dp1467
g62
I4
ssg63
g1461
sg56
(lp1468
S''
asbasbasbag49
(g65
g51
NtRp1469
(dp1470
g54
(dp1471
sg63
g918
sg56
(lp1472
g49
(g70
g51
NtRp1473
(dp1474
g54
(dp1475
g74
g75
ssg63
g1469
sg56
(lp1476
S'remote_addr'
p1477
asbag49
(g70
g51
NtRp1478
(dp1479
g54
(dp1480
g81
g82
ssg63
g1469
sg56
(lp1481
S':'
asbag49
(g70
g51
NtRp1482
(dp1483
g54
(dp1484
sg63
g1469
sg56
(lp1485
g49
(g50
g51
NtRp1486
(dp1487
g54
(dp1488
g62
I4
ssg63
g1482
sg56
(lp1489
g182
asbasbasbag49
(g65
g51
NtRp1490
(dp1491
g54
(dp1492
sg63
g918
sg56
(lp1493
g49
(g70
g51
NtRp1494
(dp1495
g54
(dp1496
g74
g75
ssg63
g1490
sg56
(lp1497
S'remote_port'
p1498
asbag49
(g70
g51
NtRp1499
(dp1500
g54
(dp1501
g81
g82
ssg63
g1490
sg56
(lp1502
S':'
asbag49
(g70
g51
NtRp1503
(dp1504
g54
(dp1505
sg63
g1490
sg56
(lp1506
g49
(g50
g51
NtRp1507
(dp1508
g54
(dp1509
g62
I4
ssg63
g1503
sg56
(lp1510
S'51165'
p1511
asbasbasbag49
(g65
g51
NtRp1512
(dp1513
g54
(dp1514
sg63
g918
sg56
(lp1515
g49
(g70
g51
NtRp1516
(dp1517
g54
(dp1518
g74
g75
ssg63
g1512
sg56
(lp1519
S'request_method'
p1520
asbag49
(g70
g51
NtRp1521
(dp1522
g54
(dp1523
g81
g82
ssg63
g1512
sg56
(lp1524
S':'
asbag49
(g70
g51
NtRp1525
(dp1526
g54
(dp1527
sg63
g1512
sg56
(lp1528
g49
(g50
g51
NtRp1529
(dp1530
g54
(dp1531
g62
I4
ssg63
g1525
sg56
(lp1532
S'POST'
p1533
asbasbasbag49
(g65
g51
NtRp1534
(dp1535
g54
(dp1536
sg63
g918
sg56
(lp1537
g49
(g70
g51
NtRp1538
(dp1539
g54
(dp1540
g74
g75
ssg63
g1534
sg56
(lp1541
S'script_name'
p1542
asbag49
(g70
g51
NtRp1543
(dp1544
g54
(dp1545
g81
g82
ssg63
g1534
sg56
(lp1546
S':'
asbag49
(g70
g51
NtRp1547
(dp1548
g54
(dp1549
sg63
g1534
sg56
(lp1550
g49
(g50
g51
NtRp1551
(dp1552
g54
(dp1553
g62
I4
ssg63
g1547
sg56
(lp1554
S''
asbasbasbag49
(g65
g51
NtRp1555
(dp1556
g54
(dp1557
sg63
g918
sg56
(lp1558
g49
(g70
g51
NtRp1559
(dp1560
g54
(dp1561
g74
g75
ssg63
g1555
sg56
(lp1562
S'server_name'
p1563
asbag49
(g70
g51
NtRp1564
(dp1565
g54
(dp1566
g81
g82
ssg63
g1555
sg56
(lp1567
S':'
asbag49
(g70
g51
NtRp1568
(dp1569
g54
(dp1570
sg63
g1555
sg56
(lp1571
g49
(g50
g51
NtRp1572
(dp1573
g54
(dp1574
g62
I4
ssg63
g1568
sg56
(lp1575
S'user-PC'
p1576
asbasbasbag49
(g65
g51
NtRp1577
(dp1578
g54
(dp1579
sg63
g918
sg56
(lp1580
g49
(g70
g51
NtRp1581
(dp1582
g54
(dp1583
g74
g75
ssg63
g1577
sg56
(lp1584
S'server_port'
p1585
asbag49
(g70
g51
NtRp1586
(dp1587
g54
(dp1588
g81
g82
ssg63
g1577
sg56
(lp1589
S':'
asbag49
(g70
g51
NtRp1590
(dp1591
g54
(dp1592
sg63
g1577
sg56
(lp1593
g49
(g50
g51
NtRp1594
(dp1595
g54
(dp1596
g62
I4
ssg63
g1590
sg56
(lp1597
S'8000'
p1598
asbasbasbag49
(g65
g51
NtRp1599
(dp1600
g54
(dp1601
sg63
g918
sg56
(lp1602
g49
(g70
g51
NtRp1603
(dp1604
g54
(dp1605
g74
g75
ssg63
g1599
sg56
(lp1606
S'server_protocol'
p1607
asbag49
(g70
g51
NtRp1608
(dp1609
g54
(dp1610
g81
g82
ssg63
g1599
sg56
(lp1611
S':'
asbag49
(g70
g51
NtRp1612
(dp1613
g54
(dp1614
sg63
g1599
sg56
(lp1615
g49
(g50
g51
NtRp1616
(dp1617
g54
(dp1618
g62
I4
ssg63
g1612
sg56
(lp1619
S'HTTP/1.1'
p1620
asbasbasbag49
(g65
g51
NtRp1621
(dp1622
g54
(dp1623
sg63
g918
sg56
(lp1624
g49
(g70
g51
NtRp1625
(dp1626
g54
(dp1627
g74
g75
ssg63
g1621
sg56
(lp1628
S'server_software'
p1629
asbag49
(g70
g51
NtRp1630
(dp1631
g54
(dp1632
g81
g82
ssg63
g1621
sg56
(lp1633
S':'
asbag49
(g70
g51
NtRp1634
(dp1635
g54
(dp1636
sg63
g1621
sg56
(lp1637
g49
(g50
g51
NtRp1638
(dp1639
g54
(dp1640
g62
I4
ssg63
g1634
sg56
(lp1641
S'Rocket 1.2.4'
p1642
asbasbasbag49
(g65
g51
NtRp1643
(dp1644
g54
(dp1645
sg63
g918
sg56
(lp1646
g49
(g70
g51
NtRp1647
(dp1648
g54
(dp1649
g74
g75
ssg63
g1643
sg56
(lp1650
S'web2py_crontype'
p1651
asbag49
(g70
g51
NtRp1652
(dp1653
g54
(dp1654
g81
g82
ssg63
g1643
sg56
(lp1655
S':'
asbag49
(g70
g51
NtRp1656
(dp1657
g54
(dp1658
sg63
g1643
sg56
(lp1659
g49
(g50
g51
NtRp1660
(dp1661
g54
(dp1662
g62
I4
ssg63
g1656
sg56
(lp1663
S'hard'
p1664
asbasbasbag49
(g65
g51
NtRp1665
(dp1666
g54
(dp1667
sg63
g918
sg56
(lp1668
g49
(g70
g51
NtRp1669
(dp1670
g54
(dp1671
g74
g75
ssg63
g1665
sg56
(lp1672
S'web2py_path'
p1673
asbag49
(g70
g51
NtRp1674
(dp1675
g54
(dp1676
g81
g82
ssg63
g1665
sg56
(lp1677
S':'
asbag49
(g70
g51
NtRp1678
(dp1679
g54
(dp1680
sg63
g1665
sg56
(lp1681
g49
(g50
g51
NtRp1682
(dp1683
g54
(dp1684
g62
I4
ssg63
g1678
sg56
(lp1685
g965
asbasbasbag49
(g65
g51
NtRp1686
(dp1687
g54
(dp1688
sg63
g918
sg56
(lp1689
g49
(g70
g51
NtRp1690
(dp1691
g54
(dp1692
g74
g75
ssg63
g1686
sg56
(lp1693
S'web2py_version'
p1694
asbag49
(g70
g51
NtRp1695
(dp1696
g54
(dp1697
g81
g82
ssg63
g1686
sg56
(lp1698
S':'
asbag49
(g70
g51
NtRp1699
(dp1700
g54
(dp1701
sg63
g1686
sg56
(lp1702
g49
(g50
g51
NtRp1703
(dp1704
g54
(dp1705
g62
I4
ssg63
g1699
sg56
(lp1706
g49
(g58
g51
NtRp1707
(dp1708
g54
(dp1709
g62
I3
ssg63
Nsg56
(lp1710
g49
(g65
g51
NtRp1711
(dp1712
g54
(dp1713
sg63
g1707
sg56
(lp1714
g49
(g70
g51
NtRp1715
(dp1716
g54
(dp1717
sg63
g1711
sg56
(lp1718
g49
(g50
g51
NtRp1719
(dp1720
g54
(dp1721
g62
I3
ssg63
g1715
sg56
(lp1722
S'1'
asbasbasbag49
(g65
g51
NtRp1723
(dp1724
g54
(dp1725
sg63
g1707
sg56
(lp1726
g49
(g70
g51
NtRp1727
(dp1728
g54
(dp1729
sg63
g1723
sg56
(lp1730
g49
(g50
g51
NtRp1731
(dp1732
g54
(dp1733
g62
I3
ssg63
g1727
sg56
(lp1734
S'99'
p1735
asbasbasbag49
(g65
g51
NtRp1736
(dp1737
g54
(dp1738
sg63
g1707
sg56
(lp1739
g49
(g70
g51
NtRp1740
(dp1741
g54
(dp1742
sg63
g1736
sg56
(lp1743
g49
(g50
g51
NtRp1744
(dp1745
g54
(dp1746
g62
I3
ssg63
g1740
sg56
(lp1747
S'7'
asbasbasbag49
(g65
g51
NtRp1748
(dp1749
g54
(dp1750
sg63
g1707
sg56
(lp1751
g49
(g70
g51
NtRp1752
(dp1753
g54
(dp1754
sg63
g1748
sg56
(lp1755
g49
(g50
g51
NtRp1756
(dp1757
g54
(dp1758
g62
I3
ssg63
g1752
sg56
(lp1759
S'datetime.datetime(2012, 3, 4, 22, 12, 8)'
p1760
asbasbasbag49
(g65
g51
NtRp1761
(dp1762
g54
(dp1763
sg63
g1707
sg56
(lp1764
g49
(g70
g51
NtRp1765
(dp1766
g54
(dp1767
sg63
g1761
sg56
(lp1768
g49
(g50
g51
NtRp1769
(dp1770
g54
(dp1771
g62
I3
ssg63
g1765
sg56
(lp1772
S'stable'
p1773
asbasbasbasbasbasbasbag49
(g65
g51
NtRp1774
(dp1775
g54
(dp1776
sg63
g918
sg56
(lp1777
g49
(g70
g51
NtRp1778
(dp1779
g54
(dp1780
g74
g75
ssg63
g1774
sg56
(lp1781
S'wsgi_errors'
p1782
asbag49
(g70
g51
NtRp1783
(dp1784
g54
(dp1785
g81
g82
ssg63
g1774
sg56
(lp1786
S':'
asbag49
(g70
g51
NtRp1787
(dp1788
g54
(dp1789
sg63
g1774
sg56
(lp1790
g49
(g50
g51
NtRp1791
(dp1792
g54
(dp1793
g62
I4
ssg63
g1787
sg56
(lp1794
S"<open file '<stderr>', mode 'w' at 0x002D00B0>"
p1795
asbasbasbag49
(g65
g51
NtRp1796
(dp1797
g54
(dp1798
sg63
g918
sg56
(lp1799
g49
(g70
g51
NtRp1800
(dp1801
g54
(dp1802
g74
g75
ssg63
g1796
sg56
(lp1803
S'wsgi_file_wrapper'
p1804
asbag49
(g70
g51
NtRp1805
(dp1806
g54
(dp1807
g81
g82
ssg63
g1796
sg56
(lp1808
S':'
asbag49
(g70
g51
NtRp1809
(dp1810
g54
(dp1811
sg63
g1796
sg56
(lp1812
g49
(g50
g51
NtRp1813
(dp1814
g54
(dp1815
g62
I4
ssg63
g1809
sg56
(lp1816
S'<class wsgiref.util.FileWrapper at 0x02E32E40>'
p1817
asbasbasbag49
(g65
g51
NtRp1818
(dp1819
g54
(dp1820
sg63
g918
sg56
(lp1821
g49
(g70
g51
NtRp1822
(dp1823
g54
(dp1824
g74
g75
ssg63
g1818
sg56
(lp1825
S'wsgi_input'
p1826
asbag49
(g70
g51
NtRp1827
(dp1828
g54
(dp1829
g81
g82
ssg63
g1818
sg56
(lp1830
S':'
asbag49
(g70
g51
NtRp1831
(dp1832
g54
(dp1833
sg63
g1818
sg56
(lp1834
g49
(g50
g51
NtRp1835
(dp1836
g54
(dp1837
g62
I4
ssg63
g1831
sg56
(lp1838
S'<socket._fileobject object at 0x0703E5F0>'
p1839
asbasbasbag49
(g65
g51
NtRp1840
(dp1841
g54
(dp1842
sg63
g918
sg56
(lp1843
g49
(g70
g51
NtRp1844
(dp1845
g54
(dp1846
g74
g75
ssg63
g1840
sg56
(lp1847
S'wsgi_multiprocess'
p1848
asbag49
(g70
g51
NtRp1849
(dp1850
g54
(dp1851
g81
g82
ssg63
g1840
sg56
(lp1852
S':'
asbag49
(g70
g51
NtRp1853
(dp1854
g54
(dp1855
sg63
g1840
sg56
(lp1856
g49
(g50
g51
NtRp1857
(dp1858
g54
(dp1859
g62
I4
ssg63
g1853
sg56
(lp1860
g1077
asbasbasbag49
(g65
g51
NtRp1861
(dp1862
g54
(dp1863
sg63
g918
sg56
(lp1864
g49
(g70
g51
NtRp1865
(dp1866
g54
(dp1867
g74
g75
ssg63
g1861
sg56
(lp1868
S'wsgi_multithread'
p1869
asbag49
(g70
g51
NtRp1870
(dp1871
g54
(dp1872
g81
g82
ssg63
g1861
sg56
(lp1873
S':'
asbag49
(g70
g51
NtRp1874
(dp1875
g54
(dp1876
sg63
g1861
sg56
(lp1877
g49
(g50
g51
NtRp1878
(dp1879
g54
(dp1880
g62
I4
ssg63
g1874
sg56
(lp1881
g92
asbasbasbag49
(g65
g51
NtRp1882
(dp1883
g54
(dp1884
sg63
g918
sg56
(lp1885
g49
(g70
g51
NtRp1886
(dp1887
g54
(dp1888
g74
g75
ssg63
g1882
sg56
(lp1889
S'wsgi_run_once'
p1890
asbag49
(g70
g51
NtRp1891
(dp1892
g54
(dp1893
g81
g82
ssg63
g1882
sg56
(lp1894
S':'
asbag49
(g70
g51
NtRp1895
(dp1896
g54
(dp1897
sg63
g1882
sg56
(lp1898
g49
(g50
g51
NtRp1899
(dp1900
g54
(dp1901
g62
I4
ssg63
g1895
sg56
(lp1902
g1077
asbasbasbag49
(g65
g51
NtRp1903
(dp1904
g54
(dp1905
sg63
g918
sg56
(lp1906
g49
(g70
g51
NtRp1907
(dp1908
g54
(dp1909
g74
g75
ssg63
g1903
sg56
(lp1910
S'wsgi_url_scheme'
p1911
asbag49
(g70
g51
NtRp1912
(dp1913
g54
(dp1914
g81
g82
ssg63
g1903
sg56
(lp1915
S':'
asbag49
(g70
g51
NtRp1916
(dp1917
g54
(dp1918
sg63
g1903
sg56
(lp1919
g49
(g50
g51
NtRp1920
(dp1921
g54
(dp1922
g62
I4
ssg63
g1916
sg56
(lp1923
S'http'
p1924
asbasbasbag49
(g65
g51
NtRp1925
(dp1926
g54
(dp1927
sg63
g918
sg56
(lp1928
g49
(g70
g51
NtRp1929
(dp1930
g54
(dp1931
g74
g75
ssg63
g1925
sg56
(lp1932
S'wsgi_version'
p1933
asbag49
(g70
g51
NtRp1934
(dp1935
g54
(dp1936
g81
g82
ssg63
g1925
sg56
(lp1937
S':'
asbag49
(g70
g51
NtRp1938
(dp1939
g54
(dp1940
sg63
g1925
sg56
(lp1941
g49
(g50
g51
NtRp1942
(dp1943
g54
(dp1944
g62
I4
ssg63
g1938
sg56
(lp1945
g49
(g58
g51
NtRp1946
(dp1947
g54
(dp1948
g62
I3
ssg63
Nsg56
(lp1949
g49
(g65
g51
NtRp1950
(dp1951
g54
(dp1952
sg63
g1946
sg56
(lp1953
g49
(g70
g51
NtRp1954
(dp1955
g54
(dp1956
sg63
g1950
sg56
(lp1957
g49
(g50
g51
NtRp1958
(dp1959
g54
(dp1960
g62
I3
ssg63
g1954
sg56
(lp1961
S'1'
asbasbasbag49
(g65
g51
NtRp1962
(dp1963
g54
(dp1964
sg63
g1946
sg56
(lp1965
g49
(g70
g51
NtRp1966
(dp1967
g54
(dp1968
sg63
g1962
sg56
(lp1969
g49
(g50
g51
NtRp1970
(dp1971
g54
(dp1972
g62
I3
ssg63
g1966
sg56
(lp1973
S'0'
asbasbasbasbasbasbasbasbasbasbasbag49
(g65
g51
NtRp1974
(dp1975
g54
(dp1976
sg63
g59
sg56
(lp1977
g49
(g70
g51
NtRp1978
(dp1979
g54
(dp1980
g74
g75
ssg63
g1974
sg56
(lp1981
S'extension'
p1982
asbag49
(g70
g51
NtRp1983
(dp1984
g54
(dp1985
g81
g82
ssg63
g1974
sg56
(lp1986
S':'
asbag49
(g70
g51
NtRp1987
(dp1988
g54
(dp1989
sg63
g1974
sg56
(lp1990
g49
(g50
g51
NtRp1991
(dp1992
g54
(dp1993
g62
I5
ssg63
g1987
sg56
(lp1994
S'html'
p1995
asbasbasbag49
(g65
g51
NtRp1996
(dp1997
g54
(dp1998
sg63
g59
sg56
(lp1999
g49
(g70
g51
NtRp2000
(dp2001
g54
(dp2002
g74
g75
ssg63
g1996
sg56
(lp2003
S'folder'
p2004
asbag49
(g70
g51
NtRp2005
(dp2006
g54
(dp2007
g81
g82
ssg63
g1996
sg56
(lp2008
S':'
asbag49
(g70
g51
NtRp2009
(dp2010
g54
(dp2011
sg63
g1996
sg56
(lp2012
g49
(g50
g51
NtRp2013
(dp2014
g54
(dp2015
g62
I5
ssg63
g2009
sg56
(lp2016
S'D:\\web2py\\applications\\admin\\'
p2017
asbasbasbag49
(g65
g51
NtRp2018
(dp2019
g54
(dp2020
sg63
g59
sg56
(lp2021
g49
(g70
g51
NtRp2022
(dp2023
g54
(dp2024
g74
g75
ssg63
g2018
sg56
(lp2025
S'function'
p2026
asbag49
(g70
g51
NtRp2027
(dp2028
g54
(dp2029
g81
g82
ssg63
g2018
sg56
(lp2030
S':'
asbag49
(g70
g51
NtRp2031
(dp2032
g54
(dp2033
sg63
g2018
sg56
(lp2034
g49
(g50
g51
NtRp2035
(dp2036
g54
(dp2037
g62
I5
ssg63
g2031
sg56
(lp2038
S'check_version'
p2039
asbasbasbag49
(g65
g51
NtRp2040
(dp2041
g54
(dp2042
sg63
g59
sg56
(lp2043
g49
(g70
g51
NtRp2044
(dp2045
g54
(dp2046
g74
g75
ssg63
g2040
sg56
(lp2047
S'get_vars'
p2048
asbag49
(g70
g51
NtRp2049
(dp2050
g54
(dp2051
g81
g82
ssg63
g2040
sg56
(lp2052
S':'
asbag49
(g70
g51
NtRp2053
(dp2054
g54
(dp2055
sg63
g2040
sg56
(lp2056
g49
(g50
g51
NtRp2057
(dp2058
g54
(dp2059
g62
I5
ssg63
g2053
sg56
(lp2060
g49
(g58
g51
NtRp2061
(dp2062
g54
(dp2063
g62
I4
ssg63
Nsg56
(lp2064
sbasbasbasbag49
(g65
g51
NtRp2065
(dp2066
g54
(dp2067
sg63
g59
sg56
(lp2068
g49
(g70
g51
NtRp2069
(dp2070
g54
(dp2071
g74
g75
ssg63
g2065
sg56
(lp2072
S'global_settings'
p2073
asbag49
(g70
g51
NtRp2074
(dp2075
g54
(dp2076
g81
g82
ssg63
g2065
sg56
(lp2077
S':'
asbag49
(g70
g51
NtRp2078
(dp2079
g54
(dp2080
sg63
g2065
sg56
(lp2081
g49
(g50
g51
NtRp2082
(dp2083
g54
(dp2084
g62
I5
ssg63
g2078
sg56
(lp2085
g49
(g58
g51
NtRp2086
(dp2087
g54
(dp2088
g62
I4
ssg63
Nsg56
(lp2089
g49
(g65
g51
NtRp2090
(dp2091
g54
(dp2092
sg63
g2086
sg56
(lp2093
g49
(g70
g51
NtRp2094
(dp2095
g54
(dp2096
g74
g75
ssg63
g2090
sg56
(lp2097
g930
asbag49
(g70
g51
NtRp2098
(dp2099
g54
(dp2100
g81
g82
ssg63
g2090
sg56
(lp2101
S':'
asbag49
(g70
g51
NtRp2102
(dp2103
g54
(dp2104
sg63
g2090
sg56
(lp2105
g49
(g50
g51
NtRp2106
(dp2107
g54
(dp2108
g62
I4
ssg63
g2102
sg56
(lp2109
S"set(['D:\\\\web2py\\\\applications\\\\pro\\\\', 'D:\\\\web2py\\\\applications\\\\admin\\\\', 'D:\\\\web2py\\\\applications\\\\welcome\\\\'])"
p2110
asbasbasbag49
(g65
g51
NtRp2111
(dp2112
g54
(dp2113
sg63
g2086
sg56
(lp2114
g49
(g70
g51
NtRp2115
(dp2116
g54
(dp2117
g74
g75
ssg63
g2111
sg56
(lp2118
g952
asbag49
(g70
g51
NtRp2119
(dp2120
g54
(dp2121
g81
g82
ssg63
g2111
sg56
(lp2122
S':'
asbag49
(g70
g51
NtRp2123
(dp2124
g54
(dp2125
sg63
g2111
sg56
(lp2126
g49
(g50
g51
NtRp2127
(dp2128
g54
(dp2129
g62
I4
ssg63
g2123
sg56
(lp2130
g965
asbasbasbag49
(g65
g51
NtRp2131
(dp2132
g54
(dp2133
sg63
g2086
sg56
(lp2134
g49
(g70
g51
NtRp2135
(dp2136
g54
(dp2137
g74
g75
ssg63
g2131
sg56
(lp2138
g974
asbag49
(g70
g51
NtRp2139
(dp2140
g54
(dp2141
g81
g82
ssg63
g2131
sg56
(lp2142
S':'
asbag49
(g70
g51
NtRp2143
(dp2144
g54
(dp2145
sg63
g2131
sg56
(lp2146
g49
(g50
g51
NtRp2147
(dp2148
g54
(dp2149
g62
I4
ssg63
g2143
sg56
(lp2150
g49
(g58
g51
NtRp2151
(dp2152
g54
(dp2153
g62
I3
ssg63
Nsg56
(lp2154
sbasbasbasbag49
(g65
g51
NtRp2155
(dp2156
g54
(dp2157
sg63
g2086
sg56
(lp2158
g49
(g70
g51
NtRp2159
(dp2160
g54
(dp2161
g74
g75
ssg63
g2155
sg56
(lp2162
g999
asbag49
(g70
g51
NtRp2163
(dp2164
g54
(dp2165
g81
g82
ssg63
g2155
sg56
(lp2166
S':'
asbag49
(g70
g51
NtRp2167
(dp2168
g54
(dp2169
sg63
g2155
sg56
(lp2170
g49
(g50
g51
NtRp2171
(dp2172
g54
(dp2173
g62
I4
ssg63
g2167
sg56
(lp2174
S"<Values at 0x3093fa8: {'verbose': False, 'ip': '127.0.0.1', 'shutdown_timeout': 5, 'taskbar': False, 'nocron': False, 'pid_filename': 'httpserver.pid', 'maxthreads': None, 'softcron': False, 'server_name': 'user-PC', 'bpython': False, 'nogui': False, 'port': 8000, 'extcron': False, 'debuglevel': 30, 'test': None, 'folder': 'D:\\\\web2py', 'config': '', 'import_models': False, 'winservice': '', 'shell': None, 'run': '', 'log_filename': 'httpserver.log', 'args': [''], 'socket_timeout': 5, 'ssl_ca_certificate': None, 'scheduler': None, 'profiler_filename': None, 'ssl_private_key': '', 'password': '<ask>', 'request_queue_size': 5, 'ssl_certificate': '', 'cronjob': False, 'numthreads': None, 'quiet': False, 'interfaces': None, 'minthreads': None, 'timeout': 10, 'plain': False, 'nobanner': False}>"
p2175
asbasbasbag49
(g65
g51
NtRp2176
(dp2177
g54
(dp2178
sg63
g2086
sg56
(lp2179
g49
(g70
g51
NtRp2180
(dp2181
g54
(dp2182
g74
g75
ssg63
g2176
sg56
(lp2183
g1042
asbag49
(g70
g51
NtRp2184
(dp2185
g54
(dp2186
g81
g82
ssg63
g2176
sg56
(lp2187
S':'
asbag49
(g70
g51
NtRp2188
(dp2189
g54
(dp2190
sg63
g2176
sg56
(lp2191
g49
(g50
g51
NtRp2192
(dp2193
g54
(dp2194
g62
I4
ssg63
g2188
sg56
(lp2195
S'set([])'
p2196
asbasbasbag49
(g65
g51
NtRp2197
(dp2198
g54
(dp2199
sg63
g2086
sg56
(lp2200
g49
(g70
g51
NtRp2201
(dp2202
g54
(dp2203
g74
g75
ssg63
g2197
sg56
(lp2204
g1064
asbag49
(g70
g51
NtRp2205
(dp2206
g54
(dp2207
g81
g82
ssg63
g2197
sg56
(lp2208
S':'
asbag49
(g70
g51
NtRp2209
(dp2210
g54
(dp2211
sg63
g2197
sg56
(lp2212
g49
(g50
g51
NtRp2213
(dp2214
g54
(dp2215
g62
I4
ssg63
g2209
sg56
(lp2216
g1077
asbasbasbag49
(g65
g51
NtRp2217
(dp2218
g54
(dp2219
sg63
g2086
sg56
(lp2220
g49
(g70
g51
NtRp2221
(dp2222
g54
(dp2223
g74
g75
ssg63
g2217
sg56
(lp2224
g1086
asbag49
(g70
g51
NtRp2225
(dp2226
g54
(dp2227
g81
g82
ssg63
g2217
sg56
(lp2228
S':'
asbag49
(g70
g51
NtRp2229
(dp2230
g54
(dp2231
sg63
g2217
sg56
(lp2232
g49
(g50
g51
NtRp2233
(dp2234
g54
(dp2235
g62
I4
ssg63
g2229
sg56
(lp2236
g1099
asbasbasbag49
(g65
g51
NtRp2237
(dp2238
g54
(dp2239
sg63
g2086
sg56
(lp2240
g49
(g70
g51
NtRp2241
(dp2242
g54
(dp2243
g74
g75
ssg63
g2237
sg56
(lp2244
g1392
asbag49
(g70
g51
NtRp2245
(dp2246
g54
(dp2247
g81
g82
ssg63
g2237
sg56
(lp2248
S':'
asbag49
(g70
g51
NtRp2249
(dp2250
g54
(dp2251
sg63
g2237
sg56
(lp2252
g49
(g50
g51
NtRp2253
(dp2254
g54
(dp2255
g62
I4
ssg63
g2249
sg56
(lp2256
g1077
asbasbasbag49
(g65
g51
NtRp2257
(dp2258
g54
(dp2259
sg63
g2086
sg56
(lp2260
g49
(g70
g51
NtRp2261
(dp2262
g54
(dp2263
g74
g75
ssg63
g2257
sg56
(lp2264
g1413
asbag49
(g70
g51
NtRp2265
(dp2266
g54
(dp2267
g81
g82
ssg63
g2257
sg56
(lp2268
S':'
asbag49
(g70
g51
NtRp2269
(dp2270
g54
(dp2271
sg63
g2257
sg56
(lp2272
g49
(g50
g51
NtRp2273
(dp2274
g54
(dp2275
g62
I4
ssg63
g2269
sg56
(lp2276
g1077
asbasbasbag49
(g65
g51
NtRp2277
(dp2278
g54
(dp2279
sg63
g2086
sg56
(lp2280
g49
(g70
g51
NtRp2281
(dp2282
g54
(dp2283
g74
g75
ssg63
g2277
sg56
(lp2284
g1651
asbag49
(g70
g51
NtRp2285
(dp2286
g54
(dp2287
g81
g82
ssg63
g2277
sg56
(lp2288
S':'
asbag49
(g70
g51
NtRp2289
(dp2290
g54
(dp2291
sg63
g2277
sg56
(lp2292
g49
(g50
g51
NtRp2293
(dp2294
g54
(dp2295
g62
I4
ssg63
g2289
sg56
(lp2296
g1664
asbasbasbag49
(g65
g51
NtRp2297
(dp2298
g54
(dp2299
sg63
g2086
sg56
(lp2300
g49
(g70
g51
NtRp2301
(dp2302
g54
(dp2303
g74
g75
ssg63
g2297
sg56
(lp2304
g1694
asbag49
(g70
g51
NtRp2305
(dp2306
g54
(dp2307
g81
g82
ssg63
g2297
sg56
(lp2308
S':'
asbag49
(g70
g51
NtRp2309
(dp2310
g54
(dp2311
sg63
g2297
sg56
(lp2312
g49
(g50
g51
NtRp2313
(dp2314
g54
(dp2315
g62
I4
ssg63
g2309
sg56
(lp2316
g49
(g58
g51
NtRp2317
(dp2318
g54
(dp2319
g62
I3
ssg63
Nsg56
(lp2320
g49
(g65
g51
NtRp2321
(dp2322
g54
(dp2323
sg63
g2317
sg56
(lp2324
g49
(g70
g51
NtRp2325
(dp2326
g54
(dp2327
sg63
g2321
sg56
(lp2328
g49
(g50
g51
NtRp2329
(dp2330
g54
(dp2331
g62
I3
ssg63
g2325
sg56
(lp2332
S'1'
asbasbasbag49
(g65
g51
NtRp2333
(dp2334
g54
(dp2335
sg63
g2317
sg56
(lp2336
g49
(g70
g51
NtRp2337
(dp2338
g54
(dp2339
sg63
g2333
sg56
(lp2340
g49
(g50
g51
NtRp2341
(dp2342
g54
(dp2343
g62
I3
ssg63
g2337
sg56
(lp2344
S'99'
p2345
asbasbasbag49
(g65
g51
NtRp2346
(dp2347
g54
(dp2348
sg63
g2317
sg56
(lp2349
g49
(g70
g51
NtRp2350
(dp2351
g54
(dp2352
sg63
g2346
sg56
(lp2353
g49
(g50
g51
NtRp2354
(dp2355
g54
(dp2356
g62
I3
ssg63
g2350
sg56
(lp2357
S'7'
asbasbasbag49
(g65
g51
NtRp2358
(dp2359
g54
(dp2360
sg63
g2317
sg56
(lp2361
g49
(g70
g51
NtRp2362
(dp2363
g54
(dp2364
sg63
g2358
sg56
(lp2365
g49
(g50
g51
NtRp2366
(dp2367
g54
(dp2368
g62
I3
ssg63
g2362
sg56
(lp2369
S'datetime.datetime(2012, 3, 4, 22, 12, 8)'
p2370
asbasbasbag49
(g65
g51
NtRp2371
(dp2372
g54
(dp2373
sg63
g2317
sg56
(lp2374
g49
(g70
g51
NtRp2375
(dp2376
g54
(dp2377
sg63
g2371
sg56
(lp2378
g49
(g50
g51
NtRp2379
(dp2380
g54
(dp2381
g62
I3
ssg63
g2375
sg56
(lp2382
g1773
asbasbasbasbasbasbasbasbasbasbasbag49
(g65
g51
NtRp2383
(dp2384
g54
(dp2385
sg63
g59
sg56
(lp2386
g49
(g70
g51
NtRp2387
(dp2388
g54
(dp2389
g74
g75
ssg63
g2383
sg56
(lp2390
S'is_https'
p2391
asbag49
(g70
g51
NtRp2392
(dp2393
g54
(dp2394
g81
g82
ssg63
g2383
sg56
(lp2395
S':'
asbag49
(g70
g51
NtRp2396
(dp2397
g54
(dp2398
sg63
g2383
sg56
(lp2399
g49
(g50
g51
NtRp2400
(dp2401
g54
(dp2402
g62
I5
ssg63
g2396
sg56
(lp2403
g1077
asbasbasbag49
(g65
g51
NtRp2404
(dp2405
g54
(dp2406
sg63
g59
sg56
(lp2407
g49
(g70
g51
NtRp2408
(dp2409
g54
(dp2410
g74
g75
ssg63
g2404
sg56
(lp2411
S'is_local'
p2412
asbag49
(g70
g51
NtRp2413
(dp2414
g54
(dp2415
g81
g82
ssg63
g2404
sg56
(lp2416
S':'
asbag49
(g70
g51
NtRp2417
(dp2418
g54
(dp2419
sg63
g2404
sg56
(lp2420
g49
(g50
g51
NtRp2421
(dp2422
g54
(dp2423
g62
I5
ssg63
g2417
sg56
(lp2424
g92
asbasbasbag49
(g65
g51
NtRp2425
(dp2426
g54
(dp2427
sg63
g59
sg56
(lp2428
g49
(g70
g51
NtRp2429
(dp2430
g54
(dp2431
g74
g75
ssg63
g2425
sg56
(lp2432
S'is_restful'
p2433
asbag49
(g70
g51
NtRp2434
(dp2435
g54
(dp2436
g81
g82
ssg63
g2425
sg56
(lp2437
S':'
asbag49
(g70
g51
NtRp2438
(dp2439
g54
(dp2440
sg63
g2425
sg56
(lp2441
g49
(g50
g51
NtRp2442
(dp2443
g54
(dp2444
g62
I5
ssg63
g2438
sg56
(lp2445
g1077
asbasbasbag49
(g65
g51
NtRp2446
(dp2447
g54
(dp2448
sg63
g59
sg56
(lp2449
g49
(g70
g51
NtRp2450
(dp2451
g54
(dp2452
g74
g75
ssg63
g2446
sg56
(lp2453
S'now'
p2454
asbag49
(g70
g51
NtRp2455
(dp2456
g54
(dp2457
g81
g82
ssg63
g2446
sg56
(lp2458
S':'
asbag49
(g70
g51
NtRp2459
(dp2460
g54
(dp2461
sg63
g2446
sg56
(lp2462
g49
(g50
g51
NtRp2463
(dp2464
g54
(dp2465
g62
I5
ssg63
g2459
sg56
(lp2466
S'datetime.datetime(2012, 11, 14, 17, 49, 11, 698000)'
p2467
asbasbasbag49
(g65
g51
NtRp2468
(dp2469
g54
(dp2470
sg63
g59
sg56
(lp2471
g49
(g70
g51
NtRp2472
(dp2473
g54
(dp2474
g74
g75
ssg63
g2468
sg56
(lp2475
S'post_vars'
p2476
asbag49
(g70
g51
NtRp2477
(dp2478
g54
(dp2479
g81
g82
ssg63
g2468
sg56
(lp2480
S':'
asbag49
(g70
g51
NtRp2481
(dp2482
g54
(dp2483
sg63
g2468
sg56
(lp2484
g49
(g50
g51
NtRp2485
(dp2486
g54
(dp2487
g62
I5
ssg63
g2481
sg56
(lp2488
g49
(g58
g51
NtRp2489
(dp2490
g54
(dp2491
g62
I4
ssg63
Nsg56
(lp2492
sbasbasbasbag49
(g65
g51
NtRp2493
(dp2494
g54
(dp2495
sg63
g59
sg56
(lp2496
g49
(g70
g51
NtRp2497
(dp2498
g54
(dp2499
g74
g75
ssg63
g2493
sg56
(lp2500
S'url'
p2501
asbag49
(g70
g51
NtRp2502
(dp2503
g54
(dp2504
g81
g82
ssg63
g2493
sg56
(lp2505
S':'
asbag49
(g70
g51
NtRp2506
(dp2507
g54
(dp2508
sg63
g2493
sg56
(lp2509
g49
(g50
g51
NtRp2510
(dp2511
g54
(dp2512
g62
I5
ssg63
g2506
sg56
(lp2513
S'/admin/default/check_version'
p2514
asbasbasbag49
(g65
g51
NtRp2515
(dp2516
g54
(dp2517
sg63
g59
sg56
(lp2518
g49
(g70
g51
NtRp2519
(dp2520
g54
(dp2521
g74
g75
ssg63
g2515
sg56
(lp2522
S'utcnow'
p2523
asbag49
(g70
g51
NtRp2524
(dp2525
g54
(dp2526
g81
g82
ssg63
g2515
sg56
(lp2527
S':'
asbag49
(g70
g51
NtRp2528
(dp2529
g54
(dp2530
sg63
g2515
sg56
(lp2531
g49
(g50
g51
NtRp2532
(dp2533
g54
(dp2534
g62
I5
ssg63
g2528
sg56
(lp2535
S'datetime.datetime(2012, 11, 14, 12, 19, 11, 698000)'
p2536
asbasbasbag49
(g65
g51
NtRp2537
(dp2538
g54
(dp2539
sg63
g59
sg56
(lp2540
g49
(g70
g51
NtRp2541
(dp2542
g54
(dp2543
g74
g75
ssg63
g2537
sg56
(lp2544
S'uuid'
p2545
asbag49
(g70
g51
NtRp2546
(dp2547
g54
(dp2548
g81
g82
ssg63
g2537
sg56
(lp2549
S':'
asbag49
(g70
g51
NtRp2550
(dp2551
g54
(dp2552
sg63
g2537
sg56
(lp2553
g49
(g50
g51
NtRp2554
(dp2555
g54
(dp2556
g62
I5
ssg63
g2550
sg56
(lp2557
S'admin/127.0.0.1.2012-11-14.17-49-11.2ce2f27f-2bd1-4b7c-8a10-7d8ded3412c7'
p2558
asbasbasbag49
(g65
g51
NtRp2559
(dp2560
g54
(dp2561
sg63
g59
sg56
(lp2562
g49
(g70
g51
NtRp2563
(dp2564
g54
(dp2565
g74
g75
ssg63
g2559
sg56
(lp2566
S'vars'
p2567
asbag49
(g70
g51
NtRp2568
(dp2569
g54
(dp2570
g81
g82
ssg63
g2559
sg56
(lp2571
S':'
asbag49
(g70
g51
NtRp2572
(dp2573
g54
(dp2574
sg63
g2559
sg56
(lp2575
g49
(g50
g51
NtRp2576
(dp2577
g54
(dp2578
g62
I5
ssg63
g2572
sg56
(lp2579
g49
(g58
g51
NtRp2580
(dp2581
g54
(dp2582
g62
I4
ssg63
Nsg56
(lp2583
sbasbasbasbag49
(g65
g51
NtRp2584
(dp2585
g54
(dp2586
sg63
g59
sg56
(lp2587
g49
(g70
g51
NtRp2588
(dp2589
g54
(dp2590
g74
g75
ssg63
g2584
sg56
(lp2591
S'wsgi'
p2592
asbag49
(g70
g51
NtRp2593
(dp2594
g54
(dp2595
g81
g82
ssg63
g2584
sg56
(lp2596
S':'
asbag49
(g70
g51
NtRp2597
(dp2598
g54
(dp2599
sg63
g2584
sg56
(lp2600
g49
(g50
g51
NtRp2601
(dp2602
g54
(dp2603
g62
I5
ssg63
g2597
sg56
(lp2604
g49
(g58
g51
NtRp2605
(dp2606
g54
(dp2607
g62
I4
ssg63
Nsg56
(lp2608
g49
(g65
g51
NtRp2609
(dp2610
g54
(dp2611
sg63
g2605
sg56
(lp2612
g49
(g70
g51
NtRp2613
(dp2614
g54
(dp2615
g74
g75
ssg63
g2609
sg56
(lp2616
S'environ'
p2617
asbag49
(g70
g51
NtRp2618
(dp2619
g54
(dp2620
g81
g82
ssg63
g2609
sg56
(lp2621
S':'
asbag49
(g70
g51
NtRp2622
(dp2623
g54
(dp2624
sg63
g2609
sg56
(lp2625
g49
(g50
g51
NtRp2626
(dp2627
g54
(dp2628
g62
I4
ssg63
g2622
sg56
(lp2629
g49
(g58
g51
NtRp2630
(dp2631
g54
(dp2632
g62
I3
ssg63
Nsg56
(lp2633
g49
(g65
g51
NtRp2634
(dp2635
g54
(dp2636
sg63
g2630
sg56
(lp2637
g49
(g70
g51
NtRp2638
(dp2639
g54
(dp2640
g74
g75
ssg63
g2634
sg56
(lp2641
S'CONTENT_LENGTH'
p2642
asbag49
(g70
g51
NtRp2643
(dp2644
g54
(dp2645
g81
g82
ssg63
g2634
sg56
(lp2646
S':'
asbag49
(g70
g51
NtRp2647
(dp2648
g54
(dp2649
sg63
g2634
sg56
(lp2650
g49
(g50
g51
NtRp2651
(dp2652
g54
(dp2653
g62
I3
ssg63
g2647
sg56
(lp2654
S'0'
asbasbasbag49
(g65
g51
NtRp2655
(dp2656
g54
(dp2657
sg63
g2630
sg56
(lp2658
g49
(g70
g51
NtRp2659
(dp2660
g54
(dp2661
g74
g75
ssg63
g2655
sg56
(lp2662
S'HTTP_ACCEPT'
p2663
asbag49
(g70
g51
NtRp2664
(dp2665
g54
(dp2666
g81
g82
ssg63
g2655
sg56
(lp2667
S':'
asbag49
(g70
g51
NtRp2668
(dp2669
g54
(dp2670
sg63
g2655
sg56
(lp2671
g49
(g50
g51
NtRp2672
(dp2673
g54
(dp2674
g62
I3
ssg63
g2668
sg56
(lp2675
g1121
asbasbasbag49
(g65
g51
NtRp2676
(dp2677
g54
(dp2678
sg63
g2630
sg56
(lp2679
g49
(g70
g51
NtRp2680
(dp2681
g54
(dp2682
g74
g75
ssg63
g2676
sg56
(lp2683
S'HTTP_ACCEPT_ENCODING'
p2684
asbag49
(g70
g51
NtRp2685
(dp2686
g54
(dp2687
g81
g82
ssg63
g2676
sg56
(lp2688
S':'
asbag49
(g70
g51
NtRp2689
(dp2690
g54
(dp2691
sg63
g2676
sg56
(lp2692
g49
(g50
g51
NtRp2693
(dp2694
g54
(dp2695
g62
I3
ssg63
g2689
sg56
(lp2696
g1143
asbasbasbag49
(g65
g51
NtRp2697
(dp2698
g54
(dp2699
sg63
g2630
sg56
(lp2700
g49
(g70
g51
NtRp2701
(dp2702
g54
(dp2703
g74
g75
ssg63
g2697
sg56
(lp2704
S'HTTP_ACCEPT_LANGUAGE'
p2705
asbag49
(g70
g51
NtRp2706
(dp2707
g54
(dp2708
g81
g82
ssg63
g2697
sg56
(lp2709
S':'
asbag49
(g70
g51
NtRp2710
(dp2711
g54
(dp2712
sg63
g2697
sg56
(lp2713
g49
(g50
g51
NtRp2714
(dp2715
g54
(dp2716
g62
I3
ssg63
g2710
sg56
(lp2717
g1165
asbasbasbag49
(g65
g51
NtRp2718
(dp2719
g54
(dp2720
sg63
g2630
sg56
(lp2721
g49
(g70
g51
NtRp2722
(dp2723
g54
(dp2724
g74
g75
ssg63
g2718
sg56
(lp2725
S'HTTP_CACHE_CONTROL'
p2726
asbag49
(g70
g51
NtRp2727
(dp2728
g54
(dp2729
g81
g82
ssg63
g2718
sg56
(lp2730
S':'
asbag49
(g70
g51
NtRp2731
(dp2732
g54
(dp2733
sg63
g2718
sg56
(lp2734
g49
(g50
g51
NtRp2735
(dp2736
g54
(dp2737
g62
I3
ssg63
g2731
sg56
(lp2738
g1187
asbasbasbag49
(g65
g51
NtRp2739
(dp2740
g54
(dp2741
sg63
g2630
sg56
(lp2742
g49
(g70
g51
NtRp2743
(dp2744
g54
(dp2745
g74
g75
ssg63
g2739
sg56
(lp2746
S'HTTP_CONNECTION'
p2747
asbag49
(g70
g51
NtRp2748
(dp2749
g54
(dp2750
g81
g82
ssg63
g2739
sg56
(lp2751
S':'
asbag49
(g70
g51
NtRp2752
(dp2753
g54
(dp2754
sg63
g2739
sg56
(lp2755
g49
(g50
g51
NtRp2756
(dp2757
g54
(dp2758
g62
I3
ssg63
g2752
sg56
(lp2759
g1209
asbasbasbag49
(g65
g51
NtRp2760
(dp2761
g54
(dp2762
sg63
g2630
sg56
(lp2763
g49
(g70
g51
NtRp2764
(dp2765
g54
(dp2766
g74
g75
ssg63
g2760
sg56
(lp2767
S'HTTP_CONTENT_LENGTH'
p2768
asbag49
(g70
g51
NtRp2769
(dp2770
g54
(dp2771
g81
g82
ssg63
g2760
sg56
(lp2772
S':'
asbag49
(g70
g51
NtRp2773
(dp2774
g54
(dp2775
sg63
g2760
sg56
(lp2776
g49
(g50
g51
NtRp2777
(dp2778
g54
(dp2779
g62
I3
ssg63
g2773
sg56
(lp2780
S'0'
asbasbasbag49
(g65
g51
NtRp2781
(dp2782
g54
(dp2783
sg63
g2630
sg56
(lp2784
g49
(g70
g51
NtRp2785
(dp2786
g54
(dp2787
g74
g75
ssg63
g2781
sg56
(lp2788
S'HTTP_COOKIE'
p2789
asbag49
(g70
g51
NtRp2790
(dp2791
g54
(dp2792
g81
g82
ssg63
g2781
sg56
(lp2793
S':'
asbag49
(g70
g51
NtRp2794
(dp2795
g54
(dp2796
sg63
g2781
sg56
(lp2797
g49
(g50
g51
NtRp2798
(dp2799
g54
(dp2800
g62
I3
ssg63
g2794
sg56
(lp2801
g1252
asbasbasbag49
(g65
g51
NtRp2802
(dp2803
g54
(dp2804
sg63
g2630
sg56
(lp2805
g49
(g70
g51
NtRp2806
(dp2807
g54
(dp2808
g74
g75
ssg63
g2802
sg56
(lp2809
S'HTTP_DNT'
p2810
asbag49
(g70
g51
NtRp2811
(dp2812
g54
(dp2813
g81
g82
ssg63
g2802
sg56
(lp2814
S':'
asbag49
(g70
g51
NtRp2815
(dp2816
g54
(dp2817
sg63
g2802
sg56
(lp2818
g49
(g50
g51
NtRp2819
(dp2820
g54
(dp2821
g62
I3
ssg63
g2815
sg56
(lp2822
S'1'
asbasbasbag49
(g65
g51
NtRp2823
(dp2824
g54
(dp2825
sg63
g2630
sg56
(lp2826
g49
(g70
g51
NtRp2827
(dp2828
g54
(dp2829
g74
g75
ssg63
g2823
sg56
(lp2830
S'HTTP_HOST'
p2831
asbag49
(g70
g51
NtRp2832
(dp2833
g54
(dp2834
g81
g82
ssg63
g2823
sg56
(lp2835
S':'
asbag49
(g70
g51
NtRp2836
(dp2837
g54
(dp2838
sg63
g2823
sg56
(lp2839
g49
(g50
g51
NtRp2840
(dp2841
g54
(dp2842
g62
I3
ssg63
g2836
sg56
(lp2843
g1295
asbasbasbag49
(g65
g51
NtRp2844
(dp2845
g54
(dp2846
sg63
g2630
sg56
(lp2847
g49
(g70
g51
NtRp2848
(dp2849
g54
(dp2850
g74
g75
ssg63
g2844
sg56
(lp2851
S'HTTP_PRAGMA'
p2852
asbag49
(g70
g51
NtRp2853
(dp2854
g54
(dp2855
g81
g82
ssg63
g2844
sg56
(lp2856
S':'
asbag49
(g70
g51
NtRp2857
(dp2858
g54
(dp2859
sg63
g2844
sg56
(lp2860
g49
(g50
g51
NtRp2861
(dp2862
g54
(dp2863
g62
I3
ssg63
g2857
sg56
(lp2864
g1317
asbasbasbag49
(g65
g51
NtRp2865
(dp2866
g54
(dp2867
sg63
g2630
sg56
(lp2868
g49
(g70
g51
NtRp2869
(dp2870
g54
(dp2871
g74
g75
ssg63
g2865
sg56
(lp2872
S'HTTP_REFERER'
p2873
asbag49
(g70
g51
NtRp2874
(dp2875
g54
(dp2876
g81
g82
ssg63
g2865
sg56
(lp2877
S':'
asbag49
(g70
g51
NtRp2878
(dp2879
g54
(dp2880
sg63
g2865
sg56
(lp2881
g49
(g50
g51
NtRp2882
(dp2883
g54
(dp2884
g62
I3
ssg63
g2878
sg56
(lp2885
g1339
asbasbasbag49
(g65
g51
NtRp2886
(dp2887
g54
(dp2888
sg63
g2630
sg56
(lp2889
g49
(g70
g51
NtRp2890
(dp2891
g54
(dp2892
g74
g75
ssg63
g2886
sg56
(lp2893
S'HTTP_USER_AGENT'
p2894
asbag49
(g70
g51
NtRp2895
(dp2896
g54
(dp2897
g81
g82
ssg63
g2886
sg56
(lp2898
S':'
asbag49
(g70
g51
NtRp2899
(dp2900
g54
(dp2901
sg63
g2886
sg56
(lp2902
g49
(g50
g51
NtRp2903
(dp2904
g54
(dp2905
g62
I3
ssg63
g2899
sg56
(lp2906
g1361
asbasbasbag49
(g65
g51
NtRp2907
(dp2908
g54
(dp2909
sg63
g2630
sg56
(lp2910
g49
(g70
g51
NtRp2911
(dp2912
g54
(dp2913
g74
g75
ssg63
g2907
sg56
(lp2914
S'HTTP_X_REQUESTED_WITH'
p2915
asbag49
(g70
g51
NtRp2916
(dp2917
g54
(dp2918
g81
g82
ssg63
g2907
sg56
(lp2919
S':'
asbag49
(g70
g51
NtRp2920
(dp2921
g54
(dp2922
sg63
g2907
sg56
(lp2923
g49
(g50
g51
NtRp2924
(dp2925
g54
(dp2926
g62
I3
ssg63
g2920
sg56
(lp2927
g1383
asbasbasbag49
(g65
g51
NtRp2928
(dp2929
g54
(dp2930
sg63
g2630
sg56
(lp2931
g49
(g70
g51
NtRp2932
(dp2933
g54
(dp2934
g74
g75
ssg63
g2928
sg56
(lp2935
S'PATH_INFO'
p2936
asbag49
(g70
g51
NtRp2937
(dp2938
g54
(dp2939
g81
g82
ssg63
g2928
sg56
(lp2940
S':'
asbag49
(g70
g51
NtRp2941
(dp2942
g54
(dp2943
sg63
g2928
sg56
(lp2944
g49
(g50
g51
NtRp2945
(dp2946
g54
(dp2947
g62
I3
ssg63
g2941
sg56
(lp2948
g1447
asbasbasbag49
(g65
g51
NtRp2949
(dp2950
g54
(dp2951
sg63
g2630
sg56
(lp2952
g49
(g70
g51
NtRp2953
(dp2954
g54
(dp2955
g74
g75
ssg63
g2949
sg56
(lp2956
S'QUERY_STRING'
p2957
asbag49
(g70
g51
NtRp2958
(dp2959
g54
(dp2960
g81
g82
ssg63
g2949
sg56
(lp2961
S':'
asbag49
(g70
g51
NtRp2962
(dp2963
g54
(dp2964
sg63
g2949
sg56
(lp2965
g49
(g50
g51
NtRp2966
(dp2967
g54
(dp2968
g62
I3
ssg63
g2962
sg56
(lp2969
S''
asbasbasbag49
(g65
g51
NtRp2970
(dp2971
g54
(dp2972
sg63
g2630
sg56
(lp2973
g49
(g70
g51
NtRp2974
(dp2975
g54
(dp2976
g74
g75
ssg63
g2970
sg56
(lp2977
S'REMOTE_ADDR'
p2978
asbag49
(g70
g51
NtRp2979
(dp2980
g54
(dp2981
g81
g82
ssg63
g2970
sg56
(lp2982
S':'
asbag49
(g70
g51
NtRp2983
(dp2984
g54
(dp2985
sg63
g2970
sg56
(lp2986
g49
(g50
g51
NtRp2987
(dp2988
g54
(dp2989
g62
I3
ssg63
g2983
sg56
(lp2990
g182
asbasbasbag49
(g65
g51
NtRp2991
(dp2992
g54
(dp2993
sg63
g2630
sg56
(lp2994
g49
(g70
g51
NtRp2995
(dp2996
g54
(dp2997
g74
g75
ssg63
g2991
sg56
(lp2998
S'REMOTE_PORT'
p2999
asbag49
(g70
g51
NtRp3000
(dp3001
g54
(dp3002
g81
g82
ssg63
g2991
sg56
(lp3003
S':'
asbag49
(g70
g51
NtRp3004
(dp3005
g54
(dp3006
sg63
g2991
sg56
(lp3007
g49
(g50
g51
NtRp3008
(dp3009
g54
(dp3010
g62
I3
ssg63
g3004
sg56
(lp3011
g1511
asbasbasbag49
(g65
g51
NtRp3012
(dp3013
g54
(dp3014
sg63
g2630
sg56
(lp3015
g49
(g70
g51
NtRp3016
(dp3017
g54
(dp3018
g74
g75
ssg63
g3012
sg56
(lp3019
S'REQUEST_METHOD'
p3020
asbag49
(g70
g51
NtRp3021
(dp3022
g54
(dp3023
g81
g82
ssg63
g3012
sg56
(lp3024
S':'
asbag49
(g70
g51
NtRp3025
(dp3026
g54
(dp3027
sg63
g3012
sg56
(lp3028
g49
(g50
g51
NtRp3029
(dp3030
g54
(dp3031
g62
I3
ssg63
g3025
sg56
(lp3032
g1533
asbasbasbag49
(g65
g51
NtRp3033
(dp3034
g54
(dp3035
sg63
g2630
sg56
(lp3036
g49
(g70
g51
NtRp3037
(dp3038
g54
(dp3039
g74
g75
ssg63
g3033
sg56
(lp3040
S'SCRIPT_NAME'
p3041
asbag49
(g70
g51
NtRp3042
(dp3043
g54
(dp3044
g81
g82
ssg63
g3033
sg56
(lp3045
S':'
asbag49
(g70
g51
NtRp3046
(dp3047
g54
(dp3048
sg63
g3033
sg56
(lp3049
g49
(g50
g51
NtRp3050
(dp3051
g54
(dp3052
g62
I3
ssg63
g3046
sg56
(lp3053
S''
asbasbasbag49
(g65
g51
NtRp3054
(dp3055
g54
(dp3056
sg63
g2630
sg56
(lp3057
g49
(g70
g51
NtRp3058
(dp3059
g54
(dp3060
g74
g75
ssg63
g3054
sg56
(lp3061
S'SERVER_NAME'
p3062
asbag49
(g70
g51
NtRp3063
(dp3064
g54
(dp3065
g81
g82
ssg63
g3054
sg56
(lp3066
S':'
asbag49
(g70
g51
NtRp3067
(dp3068
g54
(dp3069
sg63
g3054
sg56
(lp3070
g49
(g50
g51
NtRp3071
(dp3072
g54
(dp3073
g62
I3
ssg63
g3067
sg56
(lp3074
g1576
asbasbasbag49
(g65
g51
NtRp3075
(dp3076
g54
(dp3077
sg63
g2630
sg56
(lp3078
g49
(g70
g51
NtRp3079
(dp3080
g54
(dp3081
g74
g75
ssg63
g3075
sg56
(lp3082
S'SERVER_PORT'
p3083
asbag49
(g70
g51
NtRp3084
(dp3085
g54
(dp3086
g81
g82
ssg63
g3075
sg56
(lp3087
S':'
asbag49
(g70
g51
NtRp3088
(dp3089
g54
(dp3090
sg63
g3075
sg56
(lp3091
g49
(g50
g51
NtRp3092
(dp3093
g54
(dp3094
g62
I3
ssg63
g3088
sg56
(lp3095
g1598
asbasbasbag49
(g65
g51
NtRp3096
(dp3097
g54
(dp3098
sg63
g2630
sg56
(lp3099
g49
(g70
g51
NtRp3100
(dp3101
g54
(dp3102
g74
g75
ssg63
g3096
sg56
(lp3103
S'SERVER_PROTOCOL'
p3104
asbag49
(g70
g51
NtRp3105
(dp3106
g54
(dp3107
g81
g82
ssg63
g3096
sg56
(lp3108
S':'
asbag49
(g70
g51
NtRp3109
(dp3110
g54
(dp3111
sg63
g3096
sg56
(lp3112
g49
(g50
g51
NtRp3113
(dp3114
g54
(dp3115
g62
I3
ssg63
g3109
sg56
(lp3116
g1620
asbasbasbag49
(g65
g51
NtRp3117
(dp3118
g54
(dp3119
sg63
g2630
sg56
(lp3120
g49
(g70
g51
NtRp3121
(dp3122
g54
(dp3123
g74
g75
ssg63
g3117
sg56
(lp3124
S'SERVER_SOFTWARE'
p3125
asbag49
(g70
g51
NtRp3126
(dp3127
g54
(dp3128
g81
g82
ssg63
g3117
sg56
(lp3129
S':'
asbag49
(g70
g51
NtRp3130
(dp3131
g54
(dp3132
sg63
g3117
sg56
(lp3133
g49
(g50
g51
NtRp3134
(dp3135
g54
(dp3136
g62
I3
ssg63
g3130
sg56
(lp3137
g1642
asbasbasbag49
(g65
g51
NtRp3138
(dp3139
g54
(dp3140
sg63
g2630
sg56
(lp3141
g49
(g70
g51
NtRp3142
(dp3143
g54
(dp3144
g74
g75
ssg63
g3138
sg56
(lp3145
S'wsgi.errors'
p3146
asbag49
(g70
g51
NtRp3147
(dp3148
g54
(dp3149
g81
g82
ssg63
g3138
sg56
(lp3150
S':'
asbag49
(g70
g51
NtRp3151
(dp3152
g54
(dp3153
sg63
g3138
sg56
(lp3154
g49
(g50
g51
NtRp3155
(dp3156
g54
(dp3157
g62
I3
ssg63
g3151
sg56
(lp3158
S"<open file '<stderr>', mode 'w' at 0x002D00B0>"
p3159
asbasbasbag49
(g65
g51
NtRp3160
(dp3161
g54
(dp3162
sg63
g2630
sg56
(lp3163
g49
(g70
g51
NtRp3164
(dp3165
g54
(dp3166
g74
g75
ssg63
g3160
sg56
(lp3167
S'wsgi.file_wrapper'
p3168
asbag49
(g70
g51
NtRp3169
(dp3170
g54
(dp3171
g81
g82
ssg63
g3160
sg56
(lp3172
S':'
asbag49
(g70
g51
NtRp3173
(dp3174
g54
(dp3175
sg63
g3160
sg56
(lp3176
g49
(g50
g51
NtRp3177
(dp3178
g54
(dp3179
g62
I3
ssg63
g3173
sg56
(lp3180
S'<class wsgiref.util.FileWrapper at 0x02E32E40>'
p3181
asbasbasbag49
(g65
g51
NtRp3182
(dp3183
g54
(dp3184
sg63
g2630
sg56
(lp3185
g49
(g70
g51
NtRp3186
(dp3187
g54
(dp3188
g74
g75
ssg63
g3182
sg56
(lp3189
S'wsgi.input'
p3190
asbag49
(g70
g51
NtRp3191
(dp3192
g54
(dp3193
g81
g82
ssg63
g3182
sg56
(lp3194
S':'
asbag49
(g70
g51
NtRp3195
(dp3196
g54
(dp3197
sg63
g3182
sg56
(lp3198
g49
(g50
g51
NtRp3199
(dp3200
g54
(dp3201
g62
I3
ssg63
g3195
sg56
(lp3202
S"<open file '<fdopen>', mode 'w+b' at 0x0703D380>"
p3203
asbasbasbag49
(g65
g51
NtRp3204
(dp3205
g54
(dp3206
sg63
g2630
sg56
(lp3207
g49
(g70
g51
NtRp3208
(dp3209
g54
(dp3210
g74
g75
ssg63
g3204
sg56
(lp3211
S'wsgi.multiprocess'
p3212
asbag49
(g70
g51
NtRp3213
(dp3214
g54
(dp3215
g81
g82
ssg63
g3204
sg56
(lp3216
S':'
asbag49
(g70
g51
NtRp3217
(dp3218
g54
(dp3219
sg63
g3204
sg56
(lp3220
g49
(g50
g51
NtRp3221
(dp3222
g54
(dp3223
g62
I3
ssg63
g3217
sg56
(lp3224
g1077
asbasbasbag49
(g65
g51
NtRp3225
(dp3226
g54
(dp3227
sg63
g2630
sg56
(lp3228
g49
(g70
g51
NtRp3229
(dp3230
g54
(dp3231
g74
g75
ssg63
g3225
sg56
(lp3232
S'wsgi.multithread'
p3233
asbag49
(g70
g51
NtRp3234
(dp3235
g54
(dp3236
g81
g82
ssg63
g3225
sg56
(lp3237
S':'
asbag49
(g70
g51
NtRp3238
(dp3239
g54
(dp3240
sg63
g3225
sg56
(lp3241
g49
(g50
g51
NtRp3242
(dp3243
g54
(dp3244
g62
I3
ssg63
g3238
sg56
(lp3245
g92
asbasbasbag49
(g65
g51
NtRp3246
(dp3247
g54
(dp3248
sg63
g2630
sg56
(lp3249
g49
(g70
g51
NtRp3250
(dp3251
g54
(dp3252
g74
g75
ssg63
g3246
sg56
(lp3253
S'wsgi.run_once'
p3254
asbag49
(g70
g51
NtRp3255
(dp3256
g54
(dp3257
g81
g82
ssg63
g3246
sg56
(lp3258
S':'
asbag49
(g70
g51
NtRp3259
(dp3260
g54
(dp3261
sg63
g3246
sg56
(lp3262
g49
(g50
g51
NtRp3263
(dp3264
g54
(dp3265
g62
I3
ssg63
g3259
sg56
(lp3266
g1077
asbasbasbag49
(g65
g51
NtRp3267
(dp3268
g54
(dp3269
sg63
g2630
sg56
(lp3270
g49
(g70
g51
NtRp3271
(dp3272
g54
(dp3273
g74
g75
ssg63
g3267
sg56
(lp3274
S'wsgi.url_scheme'
p3275
asbag49
(g70
g51
NtRp3276
(dp3277
g54
(dp3278
g81
g82
ssg63
g3267
sg56
(lp3279
S':'
asbag49
(g70
g51
NtRp3280
(dp3281
g54
(dp3282
sg63
g3267
sg56
(lp3283
g49
(g50
g51
NtRp3284
(dp3285
g54
(dp3286
g62
I3
ssg63
g3280
sg56
(lp3287
g1924
asbasbasbag49
(g65
g51
NtRp3288
(dp3289
g54
(dp3290
sg63
g2630
sg56
(lp3291
g49
(g70
g51
NtRp3292
(dp3293
g54
(dp3294
g74
g75
ssg63
g3288
sg56
(lp3295
S'wsgi.version'
p3296
asbag49
(g70
g51
NtRp3297
(dp3298
g54
(dp3299
g81
g82
ssg63
g3288
sg56
(lp3300
S':'
asbag49
(g70
g51
NtRp3301
(dp3302
g54
(dp3303
sg63
g3288
sg56
(lp3304
g49
(g50
g51
NtRp3305
(dp3306
g54
(dp3307
g62
I3
ssg63
g3301
sg56
(lp3308
S'1'
asbasbasbasbasbasbasbasbasbasbasbasbasbsS'frames'
p3309
(lp3310
(dp3311
S'file'
p3312
S'D:\\web2py\\gluon\\restricted.py'
p3313
sS'dump'
p3314
(dp3315
sS'lnum'
p3316
I205
sS'lines'
p3317
(dp3318
sS'call'
p3319
S"(code='# coding: utf8\\n\\nEXPERIMENTAL_STUFF = True\\n\\nif EX...\\n\\nresponse._vars=response._caller(check_version)\\n', environment={'A': <class 'gluon.html.A'>, 'ALLOW_TOGGLE': 'true', 'A_button': <function A_button at 0x070342F0>, 'B': <class 'gluon.html.B'>, 'BEAUTIFY': <class 'gluon.html.BEAUTIFY'>, 'BODY': <class 'gluon.html.BODY'>, 'BR': <class 'gluon.html.BR'>, 'BUTTON': <class 'gluon.html.BUTTON'>, 'CAT': <class 'gluon.html.CAT'>, 'CENTER': <class 'gluon.html.CENTER'>, ...}, layer=r'D:\\web2py\\applications\\admin\\controllers/default.py')"
p3320
sS'func'
p3321
S'restricted'
p3322
sa(dp3323
g3312
S'D:\\web2py\\applications\\admin\\controllers\\default.py'
p3324
sg3314
(dp3325
sg3316
I1352
sg3317
(dp3326
I1344
S'def reload_routes():'
p3327
sI1345
S'    """ Reload routes.py """'
p3328
sI1346
S'    import gluon.rewrite'
p3329
sI1347
S'    gluon.rewrite.load()'
p3330
sI1348
S"    redirect(URL('site'))"
p3331
sI1349
S''
sI1350
S''
sI1341
S'    else:'
p3332
sI1342
S'        return dict(form=T("Disabled"))'
p3333
sI1343
S''
ssg3319
S'()'
p3334
sg3321
S'<module>'
p3335
sa(dp3336
g3312
S'D:\\web2py\\gluon\\globals.py'
p3337
sg3314
(dp3338
sg3316
I173
sg3317
(dp3339
sg3319
S'(f=<function check_version at 0x07336330>)'
p3340
sg3321
S'<lambda>'
p3341
sa(dp3342
g3312
S'D:\\web2py\\applications\\admin\\controllers\\default.py'
p3343
sg3314
(dp3344
sg3316
I110
sg3317
(dp3345
I105
S'    if new_version == -1:'
p3346
sI106
S"        return A(T('Unable to check for upgrades'), _href=WEB2PY_URL)"
p3347
sI107
S'    elif new_version != True:'
p3348
sI108
S"        return A(T('web2py is up to date'), _href=WEB2PY_URL)"
p3349
sI109
S'    elif platform.system().lower() in (\'windows\',\'win32\',\'win64\') and os.path.exists("web2py.exe"):'
p3350
sI110
S"        return SPAN('You should upgrade to version %s' % version_number)"
p3351
sI111
S'    else:'
p3352
sI112
S"        return sp_button(URL('upgrade_web2py'), T('upgrade now')) \\"
p3353
sI113
S'          + XML(\' <strong class="upgrade_version">%s</strong>\' % version_number)'
p3354
sI114
S''
ssg3319
S'()'
p3355
sg3321
S'check_version'
p3356
sasS'pyver'
p3357
S'Python 2.5.4: D:\\web2py\\web2py.exe'
p3358
sS'session'
p3359
g49
(g50
g51
NtRp3360
(dp3361
g54
(dp3362
sg56
(lp3363
g49
(g58
g51
NtRp3364
(dp3365
g54
(dp3366
g62
I5
ssg63
Nsg56
(lp3367
g49
(g65
g51
NtRp3368
(dp3369
g54
(dp3370
sg63
g3364
sg56
(lp3371
g49
(g70
g51
NtRp3372
(dp3373
g54
(dp3374
g74
g75
ssg63
g3368
sg56
(lp3375
S'authorized'
p3376
asbag49
(g70
g51
NtRp3377
(dp3378
g54
(dp3379
g81
g82
ssg63
g3368
sg56
(lp3380
S':'
asbag49
(g70
g51
NtRp3381
(dp3382
g54
(dp3383
sg63
g3368
sg56
(lp3384
g49
(g50
g51
NtRp3385
(dp3386
g54
(dp3387
g62
I5
ssg63
g3381
sg56
(lp3388
g92
asbasbasbag49
(g65
g51
NtRp3389
(dp3390
g54
(dp3391
sg63
g3364
sg56
(lp3392
g49
(g70
g51
NtRp3393
(dp3394
g54
(dp3395
g74
g75
ssg63
g3389
sg56
(lp3396
S'check_version'
p3397
asbag49
(g70
g51
NtRp3398
(dp3399
g54
(dp3400
g81
g82
ssg63
g3389
sg56
(lp3401
S':'
asbag49
(g70
g51
NtRp3402
(dp3403
g54
(dp3404
sg63
g3389
sg56
(lp3405
g49
(g50
g51
NtRp3406
(dp3407
g54
(dp3408
g62
I5
ssg63
g3402
sg56
(lp3409
g1077
asbasbasbag49
(g65
g51
NtRp3410
(dp3411
g54
(dp3412
sg63
g3364
sg56
(lp3413
g49
(g70
g51
NtRp3414
(dp3415
g54
(dp3416
g74
g75
ssg63
g3410
sg56
(lp3417
S'last_time'
p3418
asbag49
(g70
g51
NtRp3419
(dp3420
g54
(dp3421
g81
g82
ssg63
g3410
sg56
(lp3422
S':'
asbag49
(g70
g51
NtRp3423
(dp3424
g54
(dp3425
sg63
g3410
sg56
(lp3426
g49
(g50
g51
NtRp3427
(dp3428
g54
(dp3429
g62
I5
ssg63
g3423
sg56
(lp3430
S'1352895551.7119999'
p3431
asbasbasbasbasbsS'etype'
p3432
S"<type 'exceptions.TypeError'>"
p3433
sS'date'
p3434
S'Wed Nov 14 17:49:15 2012'
p3435
sS'response'
p3436
g49
(g50
g51
NtRp3437
(dp3438
g54
(dp3439
sg56
(lp3440
g49
(g58
g51
NtRp3441
(dp3442
g54
(dp3443
g62
I5
ssg63
Nsg56
(lp3444
g49
(g65
g51
NtRp3445
(dp3446
g54
(dp3447
sg63
g3441
sg56
(lp3448
g49
(g70
g51
NtRp3449
(dp3450
g54
(dp3451
g74
g75
ssg63
g3445
sg56
(lp3452
g147
asbag49
(g70
g51
NtRp3453
(dp3454
g54
(dp3455
g81
g82
ssg63
g3445
sg56
(lp3456
S':'
asbag49
(g70
g51
NtRp3457
(dp3458
g54
(dp3459
sg63
g3445
sg56
(lp3460
g49
(g50
g51
NtRp3461
(dp3462
g54
(dp3463
g62
I5
ssg63
g3457
sg56
(lp3464
S'<cStringIO.StringO object at 0x072E2A00>'
p3465
asbasbasbag49
(g65
g51
NtRp3466
(dp3467
g54
(dp3468
sg63
g3441
sg56
(lp3469
g49
(g70
g51
NtRp3470
(dp3471
g54
(dp3472
g74
g75
ssg63
g3466
sg56
(lp3473
g213
asbag49
(g70
g51
NtRp3474
(dp3475
g54
(dp3476
g81
g82
ssg63
g3466
sg56
(lp3477
S':'
asbag49
(g70
g51
NtRp3478
(dp3479
g54
(dp3480
sg63
g3466
sg56
(lp3481
g49
(g50
g51
NtRp3482
(dp3483
g54
(dp3484
g62
I5
ssg63
g3478
sg56
(lp3485
g49
(g58
g51
NtRp3486
(dp3487
g54
(dp3488
g62
I4
ssg63
Nsg56
(lp3489
g49
(g65
g51
NtRp3490
(dp3491
g54
(dp3492
sg63
g3486
sg56
(lp3493
g49
(g70
g51
NtRp3494
(dp3495
g54
(dp3496
g74
g75
ssg63
g3490
sg56
(lp3497
S'session_id_admin'
p3498
asbag49
(g70
g51
NtRp3499
(dp3500
g54
(dp3501
g81
g82
ssg63
g3490
sg56
(lp3502
S':'
asbag49
(g70
g51
NtRp3503
(dp3504
g54
(dp3505
sg63
g3490
sg56
(lp3506
g49
(g50
g51
NtRp3507
(dp3508
g54
(dp3509
g62
I4
ssg63
g3503
sg56
(lp3510
g49
(g58
g51
NtRp3511
(dp3512
g54
(dp3513
g62
I3
ssg63
Nsg56
(lp3514
g49
(g65
g51
NtRp3515
(dp3516
g54
(dp3517
sg63
g3511
sg56
(lp3518
g49
(g70
g51
NtRp3519
(dp3520
g54
(dp3521
g74
g75
ssg63
g3515
sg56
(lp3522
g263
asbag49
(g70
g51
NtRp3523
(dp3524
g54
(dp3525
g81
g82
ssg63
g3515
sg56
(lp3526
S':'
asbag49
(g70
g51
NtRp3527
(dp3528
g54
(dp3529
sg63
g3515
sg56
(lp3530
g49
(g50
g51
NtRp3531
(dp3532
g54
(dp3533
g62
I3
ssg63
g3527
sg56
(lp3534
S''
asbasbasbag49
(g65
g51
NtRp3535
(dp3536
g54
(dp3537
sg63
g3511
sg56
(lp3538
g49
(g70
g51
NtRp3539
(dp3540
g54
(dp3541
g74
g75
ssg63
g3535
sg56
(lp3542
g284
asbag49
(g70
g51
NtRp3543
(dp3544
g54
(dp3545
g81
g82
ssg63
g3535
sg56
(lp3546
S':'
asbag49
(g70
g51
NtRp3547
(dp3548
g54
(dp3549
sg63
g3535
sg56
(lp3550
g49
(g50
g51
NtRp3551
(dp3552
g54
(dp3553
g62
I3
ssg63
g3547
sg56
(lp3554
S''
asbasbasbag49
(g65
g51
NtRp3555
(dp3556
g54
(dp3557
sg63
g3511
sg56
(lp3558
g49
(g70
g51
NtRp3559
(dp3560
g54
(dp3561
g74
g75
ssg63
g3555
sg56
(lp3562
g305
asbag49
(g70
g51
NtRp3563
(dp3564
g54
(dp3565
g81
g82
ssg63
g3555
sg56
(lp3566
S':'
asbag49
(g70
g51
NtRp3567
(dp3568
g54
(dp3569
sg63
g3555
sg56
(lp3570
g49
(g50
g51
NtRp3571
(dp3572
g54
(dp3573
g62
I3
ssg63
g3567
sg56
(lp3574
S''
asbasbasbag49
(g65
g51
NtRp3575
(dp3576
g54
(dp3577
sg63
g3511
sg56
(lp3578
g49
(g70
g51
NtRp3579
(dp3580
g54
(dp3581
g74
g75
ssg63
g3575
sg56
(lp3582
g326
asbag49
(g70
g51
NtRp3583
(dp3584
g54
(dp3585
g81
g82
ssg63
g3575
sg56
(lp3586
S':'
asbag49
(g70
g51
NtRp3587
(dp3588
g54
(dp3589
sg63
g3575
sg56
(lp3590
g49
(g50
g51
NtRp3591
(dp3592
g54
(dp3593
g62
I3
ssg63
g3587
sg56
(lp3594
S''
asbasbasbag49
(g65
g51
NtRp3595
(dp3596
g54
(dp3597
sg63
g3511
sg56
(lp3598
g49
(g70
g51
NtRp3599
(dp3600
g54
(dp3601
g74
g75
ssg63
g3595
sg56
(lp3602
g347
asbag49
(g70
g51
NtRp3603
(dp3604
g54
(dp3605
g81
g82
ssg63
g3595
sg56
(lp3606
S':'
asbag49
(g70
g51
NtRp3607
(dp3608
g54
(dp3609
sg63
g3595
sg56
(lp3610
g49
(g50
g51
NtRp3611
(dp3612
g54
(dp3613
g62
I3
ssg63
g3607
sg56
(lp3614
S'/'
asbasbasbag49
(g65
g51
NtRp3615
(dp3616
g54
(dp3617
sg63
g3511
sg56
(lp3618
g49
(g70
g51
NtRp3619
(dp3620
g54
(dp3621
g74
g75
ssg63
g3615
sg56
(lp3622
g368
asbag49
(g70
g51
NtRp3623
(dp3624
g54
(dp3625
g81
g82
ssg63
g3615
sg56
(lp3626
S':'
asbag49
(g70
g51
NtRp3627
(dp3628
g54
(dp3629
sg63
g3615
sg56
(lp3630
g49
(g50
g51
NtRp3631
(dp3632
g54
(dp3633
g62
I3
ssg63
g3627
sg56
(lp3634
S''
asbasbasbag49
(g65
g51
NtRp3635
(dp3636
g54
(dp3637
sg63
g3511
sg56
(lp3638
g49
(g70
g51
NtRp3639
(dp3640
g54
(dp3641
g74
g75
ssg63
g3635
sg56
(lp3642
g389
asbag49
(g70
g51
NtRp3643
(dp3644
g54
(dp3645
g81
g82
ssg63
g3635
sg56
(lp3646
S':'
asbag49
(g70
g51
NtRp3647
(dp3648
g54
(dp3649
sg63
g3635
sg56
(lp3650
g49
(g50
g51
NtRp3651
(dp3652
g54
(dp3653
g62
I3
ssg63
g3647
sg56
(lp3654
S''
asbasbasbasbasbasbasbasbasbasbasbag49
(g65
g51
NtRp3655
(dp3656
g54
(dp3657
sg63
g3441
sg56
(lp3658
g49
(g70
g51
NtRp3659
(dp3660
g54
(dp3661
g74
g75
ssg63
g3655
sg56
(lp3662
S'delimiters'
p3663
asbag49
(g70
g51
NtRp3664
(dp3665
g54
(dp3666
g81
g82
ssg63
g3655
sg56
(lp3667
S':'
asbag49
(g70
g51
NtRp3668
(dp3669
g54
(dp3670
sg63
g3655
sg56
(lp3671
g49
(g50
g51
NtRp3672
(dp3673
g54
(dp3674
g62
I5
ssg63
g3668
sg56
(lp3675
g49
(g58
g51
NtRp3676
(dp3677
g54
(dp3678
g62
I4
ssg63
Nsg56
(lp3679
g49
(g65
g51
NtRp3680
(dp3681
g54
(dp3682
sg63
g3676
sg56
(lp3683
g49
(g70
g51
NtRp3684
(dp3685
g54
(dp3686
sg63
g3680
sg56
(lp3687
g49
(g50
g51
NtRp3688
(dp3689
g54
(dp3690
g62
I4
ssg63
g3684
sg56
(lp3691
S'{{'
p3692
asbasbasbag49
(g65
g51
NtRp3693
(dp3694
g54
(dp3695
sg63
g3676
sg56
(lp3696
g49
(g70
g51
NtRp3697
(dp3698
g54
(dp3699
sg63
g3693
sg56
(lp3700
g49
(g50
g51
NtRp3701
(dp3702
g54
(dp3703
g62
I4
ssg63
g3697
sg56
(lp3704
S'}}'
p3705
asbasbasbasbasbasbasbag49
(g65
g51
NtRp3706
(dp3707
g54
(dp3708
sg63
g3441
sg56
(lp3709
g49
(g70
g51
NtRp3710
(dp3711
g54
(dp3712
g74
g75
ssg63
g3706
sg56
(lp3713
S'files'
p3714
asbag49
(g70
g51
NtRp3715
(dp3716
g54
(dp3717
g81
g82
ssg63
g3706
sg56
(lp3718
S':'
asbag49
(g70
g51
NtRp3719
(dp3720
g54
(dp3721
sg63
g3706
sg56
(lp3722
g49
(g50
g51
NtRp3723
(dp3724
g54
(dp3725
g62
I5
ssg63
g3719
sg56
(lp3726
g49
(g58
g51
NtRp3727
(dp3728
g54
(dp3729
g62
I4
ssg63
Nsg56
(lp3730
g49
(g65
g51
NtRp3731
(dp3732
g54
(dp3733
sg63
g3727
sg56
(lp3734
g49
(g70
g51
NtRp3735
(dp3736
g54
(dp3737
sg63
g3731
sg56
(lp3738
g49
(g50
g51
NtRp3739
(dp3740
g54
(dp3741
g62
I4
ssg63
g3735
sg56
(lp3742
S'/admin/static/plugin_multiselect/jquery.dimensions.js'
p3743
asbasbasbag49
(g65
g51
NtRp3744
(dp3745
g54
(dp3746
sg63
g3727
sg56
(lp3747
g49
(g70
g51
NtRp3748
(dp3749
g54
(dp3750
sg63
g3744
sg56
(lp3751
g49
(g50
g51
NtRp3752
(dp3753
g54
(dp3754
g62
I4
ssg63
g3748
sg56
(lp3755
S'/admin/static/plugin_multiselect/jquery.multiselect.js'
p3756
asbasbasbag49
(g65
g51
NtRp3757
(dp3758
g54
(dp3759
sg63
g3727
sg56
(lp3760
g49
(g70
g51
NtRp3761
(dp3762
g54
(dp3763
sg63
g3757
sg56
(lp3764
g49
(g50
g51
NtRp3765
(dp3766
g54
(dp3767
g62
I4
ssg63
g3761
sg56
(lp3768
S'/admin/static/plugin_multiselect/jquery.multiselect.css'
p3769
asbasbasbag49
(g65
g51
NtRp3770
(dp3771
g54
(dp3772
sg63
g3727
sg56
(lp3773
g49
(g70
g51
NtRp3774
(dp3775
g54
(dp3776
sg63
g3770
sg56
(lp3777
g49
(g50
g51
NtRp3778
(dp3779
g54
(dp3780
g62
I4
ssg63
g3774
sg56
(lp3781
S'/admin/static/plugin_multiselect/start.js'
p3782
asbasbasbasbasbasbasbag49
(g65
g51
NtRp3783
(dp3784
g54
(dp3785
sg63
g3441
sg56
(lp3786
g49
(g70
g51
NtRp3787
(dp3788
g54
(dp3789
g74
g75
ssg63
g3783
sg56
(lp3790
S'flash'
p3791
asbag49
(g70
g51
NtRp3792
(dp3793
g54
(dp3794
g81
g82
ssg63
g3783
sg56
(lp3795
S':'
asbag49
(g70
g51
NtRp3796
(dp3797
g54
(dp3798
sg63
g3783
sg56
(lp3799
g49
(g50
g51
NtRp3800
(dp3801
g54
(dp3802
g62
I5
ssg63
g3796
sg56
(lp3803
S''
asbasbasbag49
(g65
g51
NtRp3804
(dp3805
g54
(dp3806
sg63
g3441
sg56
(lp3807
g49
(g70
g51
NtRp3808
(dp3809
g54
(dp3810
g74
g75
ssg63
g3804
sg56
(lp3811
S'generic_patterns'
p3812
asbag49
(g70
g51
NtRp3813
(dp3814
g54
(dp3815
g81
g82
ssg63
g3804
sg56
(lp3816
S':'
asbag49
(g70
g51
NtRp3817
(dp3818
g54
(dp3819
sg63
g3804
sg56
(lp3820
g49
(g50
g51
NtRp3821
(dp3822
g54
(dp3823
g62
I5
ssg63
g3817
sg56
(lp3824
g49
(g58
g51
NtRp3825
(dp3826
g54
(dp3827
g62
I4
ssg63
Nsg56
(lp3828
sbasbasbasbag49
(g65
g51
NtRp3829
(dp3830
g54
(dp3831
sg63
g3441
sg56
(lp3832
g49
(g70
g51
NtRp3833
(dp3834
g54
(dp3835
g74
g75
ssg63
g3829
sg56
(lp3836
S'headers'
p3837
asbag49
(g70
g51
NtRp3838
(dp3839
g54
(dp3840
g81
g82
ssg63
g3829
sg56
(lp3841
S':'
asbag49
(g70
g51
NtRp3842
(dp3843
g54
(dp3844
sg63
g3829
sg56
(lp3845
g49
(g50
g51
NtRp3846
(dp3847
g54
(dp3848
g62
I5
ssg63
g3842
sg56
(lp3849
g49
(g58
g51
NtRp3850
(dp3851
g54
(dp3852
g62
I4
ssg63
Nsg56
(lp3853
g49
(g65
g51
NtRp3854
(dp3855
g54
(dp3856
sg63
g3850
sg56
(lp3857
g49
(g70
g51
NtRp3858
(dp3859
g54
(dp3860
g74
g75
ssg63
g3854
sg56
(lp3861
S'Cache-Control'
p3862
asbag49
(g70
g51
NtRp3863
(dp3864
g54
(dp3865
g81
g82
ssg63
g3854
sg56
(lp3866
S':'
asbag49
(g70
g51
NtRp3867
(dp3868
g54
(dp3869
sg63
g3854
sg56
(lp3870
g49
(g50
g51
NtRp3871
(dp3872
g54
(dp3873
g62
I4
ssg63
g3867
sg56
(lp3874
S'no-store, no-cache, must-revalidate, post-check=0, pre-check=0'
p3875
asbasbasbag49
(g65
g51
NtRp3876
(dp3877
g54
(dp3878
sg63
g3850
sg56
(lp3879
g49
(g70
g51
NtRp3880
(dp3881
g54
(dp3882
g74
g75
ssg63
g3876
sg56
(lp3883
S'Content-Type'
p3884
asbag49
(g70
g51
NtRp3885
(dp3886
g54
(dp3887
g81
g82
ssg63
g3876
sg56
(lp3888
S':'
asbag49
(g70
g51
NtRp3889
(dp3890
g54
(dp3891
sg63
g3876
sg56
(lp3892
g49
(g50
g51
NtRp3893
(dp3894
g54
(dp3895
g62
I4
ssg63
g3889
sg56
(lp3896
S'text/html; charset=utf-8'
p3897
asbasbasbag49
(g65
g51
NtRp3898
(dp3899
g54
(dp3900
sg63
g3850
sg56
(lp3901
g49
(g70
g51
NtRp3902
(dp3903
g54
(dp3904
g74
g75
ssg63
g3898
sg56
(lp3905
S'Expires'
p3906
asbag49
(g70
g51
NtRp3907
(dp3908
g54
(dp3909
g81
g82
ssg63
g3898
sg56
(lp3910
S':'
asbag49
(g70
g51
NtRp3911
(dp3912
g54
(dp3913
sg63
g3898
sg56
(lp3914
g49
(g50
g51
NtRp3915
(dp3916
g54
(dp3917
g62
I4
ssg63
g3911
sg56
(lp3918
S'Wed, 14 Nov 2012 12:19:11 GMT'
p3919
asbasbasbag49
(g65
g51
NtRp3920
(dp3921
g54
(dp3922
sg63
g3850
sg56
(lp3923
g49
(g70
g51
NtRp3924
(dp3925
g54
(dp3926
g74
g75
ssg63
g3920
sg56
(lp3927
S'Pragma'
p3928
asbag49
(g70
g51
NtRp3929
(dp3930
g54
(dp3931
g81
g82
ssg63
g3920
sg56
(lp3932
S':'
asbag49
(g70
g51
NtRp3933
(dp3934
g54
(dp3935
sg63
g3920
sg56
(lp3936
g49
(g50
g51
NtRp3937
(dp3938
g54
(dp3939
g62
I4
ssg63
g3933
sg56
(lp3940
S'no-cache'
p3941
asbasbasbag49
(g65
g51
NtRp3942
(dp3943
g54
(dp3944
sg63
g3850
sg56
(lp3945
g49
(g70
g51
NtRp3946
(dp3947
g54
(dp3948
g74
g75
ssg63
g3942
sg56
(lp3949
S'X-Powered-By'
p3950
asbag49
(g70
g51
NtRp3951
(dp3952
g54
(dp3953
g81
g82
ssg63
g3942
sg56
(lp3954
S':'
asbag49
(g70
g51
NtRp3955
(dp3956
g54
(dp3957
sg63
g3942
sg56
(lp3958
g49
(g50
g51
NtRp3959
(dp3960
g54
(dp3961
g62
I4
ssg63
g3955
sg56
(lp3962
S'web2py'
p3963
asbasbasbasbasbasbasbag49
(g65
g51
NtRp3964
(dp3965
g54
(dp3966
sg63
g3441
sg56
(lp3967
g49
(g70
g51
NtRp3968
(dp3969
g54
(dp3970
g74
g75
ssg63
g3964
sg56
(lp3971
S'menu'
p3972
asbag49
(g70
g51
NtRp3973
(dp3974
g54
(dp3975
g81
g82
ssg63
g3964
sg56
(lp3976
S':'
asbag49
(g70
g51
NtRp3977
(dp3978
g54
(dp3979
sg63
g3964
sg56
(lp3980
g49
(g50
g51
NtRp3981
(dp3982
g54
(dp3983
g62
I5
ssg63
g3977
sg56
(lp3984
g49
(g58
g51
NtRp3985
(dp3986
g54
(dp3987
g62
I4
ssg63
Nsg56
(lp3988
g49
(g65
g51
NtRp3989
(dp3990
g54
(dp3991
sg63
g3985
sg56
(lp3992
g49
(g70
g51
NtRp3993
(dp3994
g54
(dp3995
sg63
g3989
sg56
(lp3996
g49
(g50
g51
NtRp3997
(dp3998
g54
(dp3999
g62
I4
ssg63
g3993
sg56
(lp4000
g49
(g58
g51
NtRp4001
(dp4002
g54
(dp4003
g62
I3
ssg63
Nsg56
(lp4004
g49
(g65
g51
NtRp4005
(dp4006
g54
(dp4007
sg63
g4001
sg56
(lp4008
g49
(g70
g51
NtRp4009
(dp4010
g54
(dp4011
sg63
g4005
sg56
(lp4012
g49
(g50
g51
NtRp4013
(dp4014
g54
(dp4015
g62
I3
ssg63
g4009
sg56
(lp4016
cgluon.languages
lazyT_unpickle
p4017
(S's\x04\x00\x00\x00Site'
tRp4018
asbasbasbag49
(g65
g51
NtRp4019
(dp4020
g54
(dp4021
sg63
g4001
sg56
(lp4022
g49
(g70
g51
NtRp4023
(dp4024
g54
(dp4025
sg63
g4019
sg56
(lp4026
g49
(g50
g51
NtRp4027
(dp4028
g54
(dp4029
g62
I3
ssg63
g4023
sg56
(lp4030
g1077
asbasbasbag49
(g65
g51
NtRp4031
(dp4032
g54
(dp4033
sg63
g4001
sg56
(lp4034
g49
(g70
g51
NtRp4035
(dp4036
g54
(dp4037
sg63
g4031
sg56
(lp4038
g49
(g50
g51
NtRp4039
(dp4040
g54
(dp4041
g62
I3
ssg63
g4035
sg56
(lp4042
S'/admin/default/site'
p4043
asbasbasbasbasbasbasbag49
(g65
g51
NtRp4044
(dp4045
g54
(dp4046
sg63
g3985
sg56
(lp4047
g49
(g70
g51
NtRp4048
(dp4049
g54
(dp4050
sg63
g4044
sg56
(lp4051
g49
(g50
g51
NtRp4052
(dp4053
g54
(dp4054
g62
I4
ssg63
g4048
sg56
(lp4055
g49
(g58
g51
NtRp4056
(dp4057
g54
(dp4058
g62
I3
ssg63
Nsg56
(lp4059
g49
(g65
g51
NtRp4060
(dp4061
g54
(dp4062
sg63
g4056
sg56
(lp4063
g49
(g70
g51
NtRp4064
(dp4065
g54
(dp4066
sg63
g4060
sg56
(lp4067
g49
(g50
g51
NtRp4068
(dp4069
g54
(dp4070
g62
I3
ssg63
g4064
sg56
(lp4071
g4017
(S's\x06\x00\x00\x00Logout'
tRp4072
asbasbasbag49
(g65
g51
NtRp4073
(dp4074
g54
(dp4075
sg63
g4056
sg56
(lp4076
g49
(g70
g51
NtRp4077
(dp4078
g54
(dp4079
sg63
g4073
sg56
(lp4080
g49
(g50
g51
NtRp4081
(dp4082
g54
(dp4083
g62
I3
ssg63
g4077
sg56
(lp4084
g1077
asbasbasbag49
(g65
g51
NtRp4085
(dp4086
g54
(dp4087
sg63
g4056
sg56
(lp4088
g49
(g70
g51
NtRp4089
(dp4090
g54
(dp4091
sg63
g4085
sg56
(lp4092
g49
(g50
g51
NtRp4093
(dp4094
g54
(dp4095
g62
I3
ssg63
g4089
sg56
(lp4096
S'/admin/default/logout'
p4097
asbasbasbasbasbasbasbag49
(g65
g51
NtRp4098
(dp4099
g54
(dp4100
sg63
g3985
sg56
(lp4101
g49
(g70
g51
NtRp4102
(dp4103
g54
(dp4104
sg63
g4098
sg56
(lp4105
g49
(g50
g51
NtRp4106
(dp4107
g54
(dp4108
g62
I4
ssg63
g4102
sg56
(lp4109
g49
(g58
g51
NtRp4110
(dp4111
g54
(dp4112
g62
I3
ssg63
Nsg56
(lp4113
g49
(g65
g51
NtRp4114
(dp4115
g54
(dp4116
sg63
g4110
sg56
(lp4117
g49
(g70
g51
NtRp4118
(dp4119
g54
(dp4120
sg63
g4114
sg56
(lp4121
g49
(g50
g51
NtRp4122
(dp4123
g54
(dp4124
g62
I3
ssg63
g4118
sg56
(lp4125
g4017
(S's\x05\x00\x00\x00Debug'
tRp4126
asbasbasbag49
(g65
g51
NtRp4127
(dp4128
g54
(dp4129
sg63
g4110
sg56
(lp4130
g49
(g70
g51
NtRp4131
(dp4132
g54
(dp4133
sg63
g4127
sg56
(lp4134
g49
(g50
g51
NtRp4135
(dp4136
g54
(dp4137
g62
I3
ssg63
g4131
sg56
(lp4138
g1077
asbasbasbag49
(g65
g51
NtRp4139
(dp4140
g54
(dp4141
sg63
g4110
sg56
(lp4142
g49
(g70
g51
NtRp4143
(dp4144
g54
(dp4145
sg63
g4139
sg56
(lp4146
g49
(g50
g51
NtRp4147
(dp4148
g54
(dp4149
g62
I3
ssg63
g4143
sg56
(lp4150
S'/admin/debug/interact'
p4151
asbasbasbasbasbasbasbag49
(g65
g51
NtRp4152
(dp4153
g54
(dp4154
sg63
g3985
sg56
(lp4155
g49
(g70
g51
NtRp4156
(dp4157
g54
(dp4158
sg63
g4152
sg56
(lp4159
g49
(g50
g51
NtRp4160
(dp4161
g54
(dp4162
g62
I4
ssg63
g4156
sg56
(lp4163
g49
(g58
g51
NtRp4164
(dp4165
g54
(dp4166
g62
I3
ssg63
Nsg56
(lp4167
g49
(g65
g51
NtRp4168
(dp4169
g54
(dp4170
sg63
g4164
sg56
(lp4171
g49
(g70
g51
NtRp4172
(dp4173
g54
(dp4174
sg63
g4168
sg56
(lp4175
g49
(g50
g51
NtRp4176
(dp4177
g54
(dp4178
g62
I3
ssg63
g4172
sg56
(lp4179
g4017
(S's\x04\x00\x00\x00Help'
tRp4180
asbasbasbag49
(g65
g51
NtRp4181
(dp4182
g54
(dp4183
sg63
g4164
sg56
(lp4184
g49
(g70
g51
NtRp4185
(dp4186
g54
(dp4187
sg63
g4181
sg56
(lp4188
g49
(g50
g51
NtRp4189
(dp4190
g54
(dp4191
g62
I3
ssg63
g4185
sg56
(lp4192
g1077
asbasbasbag49
(g65
g51
NtRp4193
(dp4194
g54
(dp4195
sg63
g4164
sg56
(lp4196
g49
(g70
g51
NtRp4197
(dp4198
g54
(dp4199
sg63
g4193
sg56
(lp4200
g49
(g50
g51
NtRp4201
(dp4202
g54
(dp4203
g62
I3
ssg63
g4197
sg56
(lp4204
S'/examples/default/index'
p4205
asbasbasbasbasbasbasbasbasbasbasbag49
(g65
g51
NtRp4206
(dp4207
g54
(dp4208
sg63
g3441
sg56
(lp4209
g49
(g70
g51
NtRp4210
(dp4211
g54
(dp4212
g74
g75
ssg63
g4206
sg56
(lp4213
S'meta'
p4214
asbag49
(g70
g51
NtRp4215
(dp4216
g54
(dp4217
g81
g82
ssg63
g4206
sg56
(lp4218
S':'
asbag49
(g70
g51
NtRp4219
(dp4220
g54
(dp4221
sg63
g4206
sg56
(lp4222
g49
(g50
g51
NtRp4223
(dp4224
g54
(dp4225
g62
I5
ssg63
g4219
sg56
(lp4226
g49
(g58
g51
NtRp4227
(dp4228
g54
(dp4229
g62
I4
ssg63
Nsg56
(lp4230
sbasbasbasbag49
(g65
g51
NtRp4231
(dp4232
g54
(dp4233
sg63
g3441
sg56
(lp4234
g49
(g70
g51
NtRp4235
(dp4236
g54
(dp4237
g74
g75
ssg63
g4231
sg56
(lp4238
S'postprocessing'
p4239
asbag49
(g70
g51
NtRp4240
(dp4241
g54
(dp4242
g81
g82
ssg63
g4231
sg56
(lp4243
S':'
asbag49
(g70
g51
NtRp4244
(dp4245
g54
(dp4246
sg63
g4231
sg56
(lp4247
g49
(g50
g51
NtRp4248
(dp4249
g54
(dp4250
g62
I5
ssg63
g4244
sg56
(lp4251
g49
(g58
g51
NtRp4252
(dp4253
g54
(dp4254
g62
I4
ssg63
Nsg56
(lp4255
sbasbasbasbag49
(g65
g51
NtRp4256
(dp4257
g54
(dp4258
sg63
g3441
sg56
(lp4259
g49
(g70
g51
NtRp4260
(dp4261
g54
(dp4262
g74
g75
ssg63
g4256
sg56
(lp4263
S'session_file'
p4264
asbag49
(g70
g51
NtRp4265
(dp4266
g54
(dp4267
g81
g82
ssg63
g4256
sg56
(lp4268
S':'
asbag49
(g70
g51
NtRp4269
(dp4270
g54
(dp4271
sg63
g4256
sg56
(lp4272
g49
(g50
g51
NtRp4273
(dp4274
g54
(dp4275
g62
I5
ssg63
g4269
sg56
(lp4276
S"<open file 'D:\\web2py\\applications\\admin\\sessions\\127.0.0.1-b54cd5c5-5484-4756-a0b6-07485af2cf8d', mode 'rb+' at 0x0703D5C0>"
p4277
asbasbasbag49
(g65
g51
NtRp4278
(dp4279
g54
(dp4280
sg63
g3441
sg56
(lp4281
g49
(g70
g51
NtRp4282
(dp4283
g54
(dp4284
g74
g75
ssg63
g4278
sg56
(lp4285
S'session_filename'
p4286
asbag49
(g70
g51
NtRp4287
(dp4288
g54
(dp4289
g81
g82
ssg63
g4278
sg56
(lp4290
S':'
asbag49
(g70
g51
NtRp4291
(dp4292
g54
(dp4293
sg63
g4278
sg56
(lp4294
g49
(g50
g51
NtRp4295
(dp4296
g54
(dp4297
g62
I5
ssg63
g4291
sg56
(lp4298
S'D:\\web2py\\applications\\admin\\sessions\\127.0.0.1-b54cd5c5-5484-4756-a0b6-07485af2cf8d'
p4299
asbasbasbag49
(g65
g51
NtRp4300
(dp4301
g54
(dp4302
sg63
g3441
sg56
(lp4303
g49
(g70
g51
NtRp4304
(dp4305
g54
(dp4306
g74
g75
ssg63
g4300
sg56
(lp4307
S'session_id'
p4308
asbag49
(g70
g51
NtRp4309
(dp4310
g54
(dp4311
g81
g82
ssg63
g4300
sg56
(lp4312
S':'
asbag49
(g70
g51
NtRp4313
(dp4314
g54
(dp4315
sg63
g4300
sg56
(lp4316
g49
(g50
g51
NtRp4317
(dp4318
g54
(dp4319
g62
I5
ssg63
g4313
sg56
(lp4320
S'127.0.0.1-b54cd5c5-5484-4756-a0b6-07485af2cf8d'
p4321
asbasbasbag49
(g65
g51
NtRp4322
(dp4323
g54
(dp4324
sg63
g3441
sg56
(lp4325
g49
(g70
g51
NtRp4326
(dp4327
g54
(dp4328
g74
g75
ssg63
g4322
sg56
(lp4329
S'session_id_name'
p4330
asbag49
(g70
g51
NtRp4331
(dp4332
g54
(dp4333
g81
g82
ssg63
g4322
sg56
(lp4334
S':'
asbag49
(g70
g51
NtRp4335
(dp4336
g54
(dp4337
sg63
g4322
sg56
(lp4338
g49
(g50
g51
NtRp4339
(dp4340
g54
(dp4341
g62
I5
ssg63
g4335
sg56
(lp4342
g3498
asbasbasbag49
(g65
g51
NtRp4343
(dp4344
g54
(dp4345
sg63
g3441
sg56
(lp4346
g49
(g70
g51
NtRp4347
(dp4348
g54
(dp4349
g74
g75
ssg63
g4343
sg56
(lp4350
S'session_locked'
p4351
asbag49
(g70
g51
NtRp4352
(dp4353
g54
(dp4354
g81
g82
ssg63
g4343
sg56
(lp4355
S':'
asbag49
(g70
g51
NtRp4356
(dp4357
g54
(dp4358
sg63
g4343
sg56
(lp4359
g49
(g50
g51
NtRp4360
(dp4361
g54
(dp4362
g62
I5
ssg63
g4356
sg56
(lp4363
g1077
asbasbasbag49
(g65
g51
NtRp4364
(dp4365
g54
(dp4366
sg63
g3441
sg56
(lp4367
g49
(g70
g51
NtRp4368
(dp4369
g54
(dp4370
g74
g75
ssg63
g4364
sg56
(lp4371
S'session_new'
p4372
asbag49
(g70
g51
NtRp4373
(dp4374
g54
(dp4375
g81
g82
ssg63
g4364
sg56
(lp4376
S':'
asbag49
(g70
g51
NtRp4377
(dp4378
g54
(dp4379
sg63
g4364
sg56
(lp4380
g49
(g50
g51
NtRp4381
(dp4382
g54
(dp4383
g62
I5
ssg63
g4377
sg56
(lp4384
g1077
asbasbasbag49
(g65
g51
NtRp4385
(dp4386
g54
(dp4387
sg63
g3441
sg56
(lp4388
g49
(g70
g51
NtRp4389
(dp4390
g54
(dp4391
g74
g75
ssg63
g4385
sg56
(lp4392
S'status'
p4393
asbag49
(g70
g51
NtRp4394
(dp4395
g54
(dp4396
g81
g82
ssg63
g4385
sg56
(lp4397
S':'
asbag49
(g70
g51
NtRp4398
(dp4399
g54
(dp4400
sg63
g4385
sg56
(lp4401
g49
(g50
g51
NtRp4402
(dp4403
g54
(dp4404
g62
I5
ssg63
g4398
sg56
(lp4405
S'200'
p4406
asbasbasbag49
(g65
g51
NtRp4407
(dp4408
g54
(dp4409
sg63
g3441
sg56
(lp4410
g49
(g70
g51
NtRp4411
(dp4412
g54
(dp4413
g74
g75
ssg63
g4407
sg56
(lp4414
S'subtitle'
p4415
asbag49
(g70
g51
NtRp4416
(dp4417
g54
(dp4418
g81
g82
ssg63
g4407
sg56
(lp4419
S':'
asbag49
(g70
g51
NtRp4420
(dp4421
g54
(dp4422
sg63
g4407
sg56
(lp4423
g49
(g50
g51
NtRp4424
(dp4425
g54
(dp4426
g62
I5
ssg63
g4420
sg56
(lp4427
S'admin'
p4428
asbasbasbag49
(g65
g51
NtRp4429
(dp4430
g54
(dp4431
sg63
g3441
sg56
(lp4432
g49
(g70
g51
NtRp4433
(dp4434
g54
(dp4435
g74
g75
ssg63
g4429
sg56
(lp4436
S'title'
p4437
asbag49
(g70
g51
NtRp4438
(dp4439
g54
(dp4440
g81
g82
ssg63
g4429
sg56
(lp4441
S':'
asbag49
(g70
g51
NtRp4442
(dp4443
g54
(dp4444
sg63
g4429
sg56
(lp4445
g49
(g50
g51
NtRp4446
(dp4447
g54
(dp4448
g62
I5
ssg63
g4442
sg56
(lp4449
S'check_version '
p4450
asbasbasbag49
(g65
g51
NtRp4451
(dp4452
g54
(dp4453
sg63
g3441
sg56
(lp4454
g49
(g70
g51
NtRp4455
(dp4456
g54
(dp4457
g74
g75
ssg63
g4451
sg56
(lp4458
g2545
asbag49
(g70
g51
NtRp4459
(dp4460
g54
(dp4461
g81
g82
ssg63
g4451
sg56
(lp4462
S':'
asbag49
(g70
g51
NtRp4463
(dp4464
g54
(dp4465
sg63
g4451
sg56
(lp4466
g49
(g50
g51
NtRp4467
(dp4468
g54
(dp4469
g62
I5
ssg63
g4463
sg56
(lp4470
g2558
asbasbasbag49
(g65
g51
NtRp4471
(dp4472
g54
(dp4473
sg63
g3441
sg56
(lp4474
g49
(g70
g51
NtRp4475
(dp4476
g54
(dp4477
g74
g75
ssg63
g4471
sg56
(lp4478
S'view'
p4479
asbag49
(g70
g51
NtRp4480
(dp4481
g54
(dp4482
g81
g82
ssg63
g4471
sg56
(lp4483
S':'
asbag49
(g70
g51
NtRp4484
(dp4485
g54
(dp4486
sg63
g4471
sg56
(lp4487
g49
(g50
g51
NtRp4488
(dp4489
g54
(dp4490
g62
I5
ssg63
g4484
sg56
(lp4491
S'default/check_version.html'
p4492
asbasbasbasbasbsS'locals'
p4493
(dp4494
S'version_number'
p4495
S"(2, 2, 1, datetime.datetime(2012, 10, 21, 16, 57, 4), 'stable')"
p4496
sS'new_version'
p4497
g92
sssS'traceback'
p4498
S'Traceback (most recent call last):\n  File "gluon/restricted.py", line 205, in restricted\n  File "D:\\web2py\\applications\\admin\\controllers/default.py", line 1352, in <module>\n  File "gluon/globals.py", line 173, in <lambda>\n  File "D:\\web2py\\applications\\admin\\controllers/default.py", line 110, in check_version\nTypeError: not all arguments converted during string formatting\n'
p4499
s.