(dp1
S'output'
p2
S"<type 'exceptions.TypeError'> not all arguments converted during string formatting"
p3
sS'layer'
p4
S'D:\\web2py\\applications\\admin\\controllers/default.py'
p5
sS'code'
p6
S'# coding: utf8\n\nEXPERIMENTAL_STUFF = True\n\nif EXPERIMENTAL_STUFF:\n    is_mobile = request.user_agent().is_mobile\n    if is_mobile:\n        response.view = response.view.replace(\'default/\',\'default.mobile/\')\n        response.menu = []\n\nfrom gluon.admin import *\nfrom gluon.fileutils import abspath, read_file, write_file\nfrom glob import glob\nimport shutil\nimport platform\n\nif DEMO_MODE and request.function in [\'change_password\',\'pack\',\'pack_plugin\',\'upgrade_web2py\',\'uninstall\',\'cleanup\',\'compile_app\',\'remove_compiled_app\',\'delete\',\'delete_plugin\',\'create_file\',\'upload_file\',\'update_languages\',\'reload_routes\']:\n    session.flash = T(\'disabled in demo mode\')\n    redirect(URL(\'site\'))\n\nif not is_manager() and request.function in [\'change_password\',\'upgrade_web2py\']:\n    session.flash = T(\'disabled in multi user mode\')\n    redirect(URL(\'site\'))\n\nif FILTER_APPS and request.args(0) and not request.args(0) in FILTER_APPS:\n    session.flash = T(\'disabled in demo mode\')\n    redirect(URL(\'site\'))\n\ndef safe_open(a,b):\n    if DEMO_MODE and \'w\' in b:\n        class tmp:\n            def write(self,data): pass\n        return tmp()\n    return open(a,b)\n\ndef safe_read(a, b=\'r\'):\n    safe_file = safe_open(a, b)\n    try:\n        return safe_file.read()\n    finally:\n        safe_file.close()\n\ndef safe_write(a, value, b=\'w\'):\n    safe_file = safe_open(a, b)\n    try:\n        safe_file.write(value)\n    finally:\n        safe_file.close()\n\ndef get_app(name=None):\n    app = name or request.args(0)\n    if app and (not MULTI_USER_MODE or db(db.app.name==app)(db.app.owner==auth.user.id).count()):\n        return app\n    session.flash = \'App does not exist or your are not authorized\'\n    redirect(URL(\'site\'))\n\ndef index():\n    """ Index handler """\n\n    send = request.vars.send\n    if DEMO_MODE:\n        session.authorized = True\n        session.last_time = t0\n    if not send:\n        send = URL(\'site\')\n    if session.authorized:\n        redirect(send)\n    elif request.vars.password:\n        if verify_password(request.vars.password):\n            session.authorized = True\n            login_record(True)\n\n            if CHECK_VERSION:\n                session.check_version = True\n            else:\n                session.check_version = False\n\n            session.last_time = t0\n            if isinstance(send, list):  # ## why does this happen?\n                send = str(send[0])\n\n            redirect(send)\n        else:\n            times_denied = login_record(False)\n            if times_denied >= allowed_number_of_attempts:\n                response.flash = \\\n                    T(\'admin disabled because too many invalid login attempts\')\n            elif times_denied == allowed_number_of_attempts - 1:\n                response.flash = \\\n                    T(\'You have one more login attempt before you are locked out\')\n            else:\n                response.flash = T(\'invalid password.\')\n    return dict(send=send)\n\n\ndef check_version():\n    """ Checks if web2py is up to date """\n\n    session.forget()\n    session._unlock(response)\n\n    new_version, version_number = check_new_version(request.env.web2py_version,\n                                    WEB2PY_VERSION_URL)\n\n    if new_version == -1:\n        return A(T(\'Unable to check for upgrades\'), _href=WEB2PY_URL)\n    elif new_version != True:\n        return A(T(\'web2py is up to date\'), _href=WEB2PY_URL)\n    elif platform.system().lower() in (\'windows\',\'win32\',\'win64\') and os.path.exists("web2py.exe"):\n        return SPAN(\'You should upgrade to version %s\' % version_number)\n    else:\n        return sp_button(URL(\'upgrade_web2py\'), T(\'upgrade now\')) \\\n          + XML(\' <strong class="upgrade_version">%s</strong>\' % version_number)\n\n\ndef logout():\n    """ Logout handler """\n    session.authorized = None\n    if MULTI_USER_MODE:\n        redirect(URL(\'user/logout\'))\n    redirect(URL(\'index\'))\n\n\ndef change_password():\n\n    if session.pam_user:\n        session.flash = T(\'PAM authenticated user, cannot change password here\')\n        redirect(URL(\'site\'))\n    form=SQLFORM.factory(Field(\'current_admin_password\',\'password\'),\n                         Field(\'new_admin_password\',\'password\',requires=IS_STRONG()),\n                         Field(\'new_admin_password_again\',\'password\'))\n    if form.accepts(request.vars):\n        if not verify_password(request.vars.current_admin_password):\n            form.errors.current_admin_password = T(\'invalid password\')\n        elif form.vars.new_admin_password != form.vars.new_admin_password_again:\n            form.errors.new_admin_password_again = T(\'no match\')\n        else:\n            path = abspath(\'parameters_%s.py\' % request.env.server_port)\n            safe_write(path, \'password="%s"\' % CRYPT()(request.vars.new_admin_password)[0])\n            session.flash = T(\'password changed\')\n            redirect(URL(\'site\'))\n    return dict(form=form)\n\ndef site():\n    """ Site handler """\n\n    myversion = request.env.web2py_version\n\n    # Shortcut to make the elif statements more legible\n    file_or_appurl = \'file\' in request.vars or \'appurl\' in request.vars\n\n    if DEMO_MODE:\n        pass\n\n    elif request.vars.filename and not \'file\' in request.vars:\n        # create a new application\n        appname = cleanpath(request.vars.filename).replace(\'.\', \'_\')\n        if app_create(appname, request):\n            if MULTI_USER_MODE:\n                db.app.insert(name=appname,owner=auth.user.id)\n            session.flash = T(\'new application "%s" created\', appname)\n            redirect(URL(\'design\',args=appname))\n        else:\n            session.flash = \\\n                T(\'unable to create application "%s" (it may exist already)\', request.vars.filename)\n        redirect(URL(r=request))\n\n    elif file_or_appurl and not request.vars.filename:\n        # can\'t do anything without an app name\n        msg = \'you must specify a name for the uploaded application\'\n        response.flash = T(msg)\n\n    elif file_or_appurl and request.vars.filename:\n        # fetch an application via URL or file upload\n        f = None\n        if request.vars.appurl is not \'\':\n            try:\n                f = urllib.urlopen(request.vars.appurl)\n            except Exception, e:\n                session.flash = DIV(T(\'Unable to download app because:\'),PRE(str(e)))\n                redirect(URL(r=request))\n            fname = request.vars.appurl\n        elif request.vars.file is not \'\':\n            f = request.vars.file.file\n            fname = request.vars.file.filename\n\n        if f:\n            appname = cleanpath(request.vars.filename).replace(\'.\', \'_\')\n            installed = app_install(appname, f, request, fname,\n                                    overwrite=request.vars.overwrite_check)\n        if f and installed:\n            msg = \'application %(appname)s installed with md5sum: %(digest)s\'\n            session.flash = T(msg, dict(appname=appname,\n                                        digest=md5_hash(installed)))\n        elif f and request.vars.overwrite_check:\n            msg = \'unable to install application "%(appname)s"\'\n            session.flash = T(msg, dict(appname=request.vars.filename))\n\n        else:\n            msg = \'unable to install application "%(appname)s"\'\n            session.flash = T(msg, dict(appname=request.vars.filename))\n\n        redirect(URL(r=request))\n\n    regex = re.compile(\'^\\w+$\')\n\n    if is_manager():\n        apps = [f for f in os.listdir(apath(r=request)) if regex.match(f)]\n    else:\n        apps = [f.name for f in db(db.app.owner==auth.user_id).select()]\n\n    if FILTER_APPS:\n        apps = [f for f in apps if f in FILTER_APPS]\n\n    apps = sorted(apps,lambda a,b:cmp(a.upper(),b.upper()))\n\n    return dict(app=None, apps=apps, myversion=myversion)\n\n\ndef pack():\n    app = get_app()\n\n    if len(request.args) == 1:\n        fname = \'web2py.app.%s.w2p\' % app\n        filename = app_pack(app, request)\n    else:\n        fname = \'web2py.app.%s.compiled.w2p\' % app\n        filename = app_pack_compiled(app, request)\n\n    if filename:\n        response.headers[\'Content-Type\'] = \'application/w2p\'\n        disposition = \'attachment; filename=%s\' % fname\n        response.headers[\'Content-Disposition\'] = disposition\n        return safe_read(filename, \'rb\')\n    else:\n        session.flash = T(\'internal error\')\n        redirect(URL(\'site\'))\n\ndef pack_plugin():\n    app = get_app()\n    if len(request.args) == 2:\n        fname = \'web2py.plugin.%s.w2p\' % request.args[1]\n        filename = plugin_pack(app, request.args[1], request)\n    if filename:\n        response.headers[\'Content-Type\'] = \'application/w2p\'\n        disposition = \'attachment; filename=%s\' % fname\n        response.headers[\'Content-Disposition\'] = disposition\n        return safe_read(filename, \'rb\')\n    else:\n        session.flash = T(\'internal error\')\n        redirect(URL(\'plugin\',args=request.args))\n\ndef upgrade_web2py():\n    if \'upgrade\' in request.vars:\n        (success, error) = upgrade(request)\n        if success:\n            session.flash = T(\'web2py upgraded; please restart it\')\n        else:\n            session.flash = T(\'unable to upgrade because "%s"\', error)\n        redirect(URL(\'site\'))\n    elif \'noupgrade\' in request.vars:\n        redirect(URL(\'site\'))\n    return dict()\n\ndef uninstall():\n    app = get_app()\n    if \'delete\' in request.vars:\n        if MULTI_USER_MODE:\n            if is_manager() and db(db.app.name==app).delete():\n                pass\n            elif db(db.app.name==app)(db.app.owner==auth.user.id).delete():\n                pass\n            else:\n                session.flash = T(\'no permission to uninstall "%s"\', app)\n                redirect(URL(\'site\'))\n        if app_uninstall(app, request):\n            session.flash = T(\'application "%s" uninstalled\', app)\n        else:\n            session.flash = T(\'unable to uninstall "%s"\', app)\n        redirect(URL(\'site\'))\n    elif \'nodelete\' in request.vars:\n        redirect(URL(\'site\'))\n    return dict(app=app)\n\n\ndef cleanup():\n    app = get_app()\n    clean = app_cleanup(app, request)\n    if not clean:\n        session.flash = T("some files could not be removed")\n    else:\n        session.flash = T(\'cache, errors and sessions cleaned\')\n\n    redirect(URL(\'site\'))\n\n\ndef compile_app():\n    app = get_app()\n    c = app_compile(app, request)\n    if not c:\n        session.flash = T(\'application compiled\')\n    else:\n        session.flash = DIV(T(\'Cannot compile: there are errors in your app:\'),\n                              CODE(c))\n    redirect(URL(\'site\'))\n\n\ndef remove_compiled_app():\n    """ Remove the compiled application """\n    app = get_app()\n    remove_compiled_application(apath(app, r=request))\n    session.flash = T(\'compiled application removed\')\n    redirect(URL(\'site\'))\n\ndef delete():\n    """ Object delete handler """\n    app = get_app()\n    filename = \'/\'.join(request.args)\n    sender = request.vars.sender\n\n    if isinstance(sender, list):  # ## fix a problem with Vista\n        sender = sender[0]\n\n    if \'nodelete\' in request.vars:\n        redirect(URL(sender))\n    elif \'delete\' in request.vars:\n        try:\n            os.unlink(apath(filename, r=request))\n            session.flash = T(\'file "%(filename)s" deleted\',\n                              dict(filename=filename))\n        except Exception:\n            session.flash = T(\'unable to delete file "%(filename)s"\',\n                              dict(filename=filename))\n        redirect(URL(sender))\n    return dict(filename=filename, sender=sender)\n\ndef enable():\n    app = get_app()\n    filename = os.path.join(apath(app, r=request),\'DISABLED\')\n    if os.path.exists(filename):\n        os.unlink(filename)\n        return SPAN(T(\'Disable\'),_style=\'color:green\')\n    else:\n        open(filename,\'wb\').write(time.ctime())\n        return SPAN(T(\'Enable\'),_style=\'color:red\')\n\ndef peek():\n    """ Visualize object code """\n    app = get_app()\n    filename = \'/\'.join(request.args)\n    try:\n        data = safe_read(apath(filename, r=request)).replace(\'\\r\',\'\')\n    except IOError:\n        session.flash = T(\'file does not exist\')\n        redirect(URL(\'site\'))\n\n    extension = filename[filename.rfind(\'.\') + 1:].lower()\n\n    return dict(app=request.args[0],\n                filename=filename,\n                data=data,\n                extension=extension)\n\n\ndef test():\n    """ Execute controller tests """\n    app = get_app()\n    if len(request.args) > 1:\n        file = request.args[1]\n    else:\n        file = \'.*\\.py\'\n\n    controllers = listdir(apath(\'%s/controllers/\' % app, r=request), file + \'$\')\n\n    return dict(app=app, controllers=controllers)\n\ndef keepalive():\n    return \'\'\n\ndef search():\n    keywords=request.vars.keywords or \'\'\n    app = get_app()\n    def match(filename,keywords):\n        filename=os.path.join(apath(app, r=request),filename)\n        if keywords in read_file(filename,\'rb\'):\n            return True\n        return False\n    path = apath(request.args[0], r=request)\n    files1 = glob(os.path.join(path,\'*/*.py\'))\n    files2 = glob(os.path.join(path,\'*/*.html\'))\n    files3 = glob(os.path.join(path,\'*/*/*.html\'))\n    files=[x[len(path)+1:].replace(\'\\\\\',\'/\') for x in files1+files2+files3 if match(x,keywords)]\n    return response.json({\'files\':files})\n\ndef edit():\n    """ File edit handler """\n    # Load json only if it is ajax edited...\n    app = get_app()\n    filename = \'/\'.join(request.args)\n    # Try to discover the file type\n    if filename[-3:] == \'.py\':\n        filetype = \'python\'\n    elif filename[-5:] == \'.html\':\n        filetype = \'html\'\n    elif filename[-5:] == \'.load\':\n        filetype = \'html\'\n    elif filename[-4:] == \'.css\':\n        filetype = \'css\'\n    elif filename[-3:] == \'.js\':\n        filetype = \'js\'\n    else:\n        filetype = \'html\'\n\n    # ## check if file is not there\n\n    path = apath(filename, r=request)\n\n    if (\'revert\' in request.vars) and os.path.exists(path + \'.bak\'):\n        try:\n            data = safe_read(path + \'.bak\')\n            data1 = safe_read(path)\n        except IOError:\n            session.flash = T(\'Invalid action\')\n            if \'from_ajax\' in request.vars:\n                 return response.json({\'error\': str(T(\'Invalid action\'))})\n            else:\n                redirect(URL(\'site\'))\n\n        safe_write(path, data)\n        file_hash = md5_hash(data)\n        saved_on = time.ctime(os.stat(path)[stat.ST_MTIME])\n        safe_write(path + \'.bak\', data1)\n        response.flash = T(\'file "%s" of %s restored\', (filename, saved_on))\n    else:\n        try:\n            data = safe_read(path)\n        except IOError:\n            session.flash = T(\'Invalid action\')\n            if \'from_ajax\' in request.vars:\n                return response.json({\'error\': str(T(\'Invalid action\'))})\n            else:\n                redirect(URL(\'site\'))\n\n        file_hash = md5_hash(data)\n        saved_on = time.ctime(os.stat(path)[stat.ST_MTIME])\n\n        if request.vars.file_hash and request.vars.file_hash != file_hash:\n            session.flash = T(\'file changed on disk\')\n            data = request.vars.data.replace(\'\\r\\n\', \'\\n\').strip() + \'\\n\'\n            safe_write(path + \'.1\', data)\n            if \'from_ajax\' in request.vars:\n                return response.json({\'error\': str(T(\'file changed on disk\')),\n                                      \'redirect\': URL(\'resolve\',\n                                                      args=request.args)})\n            else:\n                redirect(URL(\'resolve\', args=request.args))\n        elif request.vars.data:\n            safe_write(path + \'.bak\', data)\n            data = request.vars.data.replace(\'\\r\\n\', \'\\n\').strip() + \'\\n\'\n            safe_write(path, data)\n            file_hash = md5_hash(data)\n            saved_on = time.ctime(os.stat(path)[stat.ST_MTIME])\n            response.flash = T(\'file saved on %s\', saved_on)\n\n    data_or_revert = (request.vars.data or request.vars.revert)\n\n    # Check compile errors\n    highlight = None\n    if filetype == \'python\' and request.vars.data:\n        import _ast\n        try:\n            code = request.vars.data.rstrip().replace(\'\\r\\n\',\'\\n\')+\'\\n\'\n            compile(code, path, "exec", _ast.PyCF_ONLY_AST)\n        except Exception, e:\n            start = sum([len(line)+1 for l, line\n                            in enumerate(request.vars.data.split("\\n"))\n                            if l < e.lineno-1])\n            if e.text and e.offset:\n                offset = e.offset - (len(e.text) - len(e.text.splitlines()[-1]))\n            else:\n                offset = 0\n            highlight = {\'start\': start, \'end\': start + offset + 1}\n            try:\n                ex_name = e.__class__.__name__\n            except:\n                ex_name = \'unknown exception!\'\n            response.flash = DIV(T(\'failed to compile file because:\'), BR(),\n                                 B(ex_name), T(\' at line %s\') % e.lineno,\n                                 offset and T(\' at char %s\') % offset or \'\',\n                                 PRE(str(e)))\n\n    if data_or_revert and request.args[1] == \'modules\':\n        # Lets try to reload the modules\n        try:\n            mopath = \'.\'.join(request.args[2:])[:-3]\n            exec \'import applications.%s.modules.%s\' % (request.args[0], mopath)\n            reload(sys.modules[\'applications.%s.modules.%s\'\n                    % (request.args[0], mopath)])\n        except Exception, e:\n            response.flash = DIV(T(\'failed to reload module because:\'),PRE(str(e)))\n\n    edit_controller = None\n    editviewlinks = None\n    view_link = None\n    if filetype == \'html\' and len(request.args) >= 3:\n        cfilename = os.path.join(request.args[0], \'controllers\',\n                                 request.args[2] + \'.py\')\n        if os.path.exists(apath(cfilename, r=request)):\n            edit_controller = URL(\'edit\', args=[cfilename])\n            view = request.args[3].replace(\'.html\',\'\')\n            view_link = URL(request.args[0],request.args[2],view)\n    elif filetype == \'python\' and request.args[1] == \'controllers\':\n        ## it\'s a controller file.\n        ## Create links to all of the associated view files.\n        app = get_app()\n        viewname = os.path.splitext(request.args[2])[0]\n        viewpath = os.path.join(app,\'views\',viewname)\n        aviewpath = apath(viewpath, r=request)\n        viewlist = []\n        if os.path.exists(aviewpath):\n            if os.path.isdir(aviewpath):\n                viewlist = glob(os.path.join(aviewpath,\'*.html\'))\n        elif os.path.exists(aviewpath+\'.html\'):\n            viewlist.append(aviewpath+\'.html\')\n        if len(viewlist):\n            editviewlinks = []\n            for v in viewlist:\n                vf = os.path.split(v)[-1]\n                vargs = "/".join([viewpath.replace(os.sep,"/"),vf])\n                editviewlinks.append(A(T(vf.split(".")[0]),\\\n                    _href=URL(\'edit\',args=[vargs])))\n\n    if len(request.args) > 2 and request.args[1] == \'controllers\':\n        controller = (request.args[2])[:-3]\n        functions = regex_expose.findall(data)\n    else:\n        (controller, functions) = (None, None)\n\n    if \'from_ajax\' in request.vars:\n        return response.json({\'file_hash\': file_hash, \'saved_on\': saved_on, \'functions\':functions, \'controller\': controller, \'application\': request.args[0], \'highlight\': highlight })\n    else:\n\n        editarea_preferences = {}\n        editarea_preferences[\'FONT_SIZE\'] = \'10\'\n        editarea_preferences[\'FULL_SCREEN\'] = \'false\'\n        editarea_preferences[\'ALLOW_TOGGLE\'] = \'true\'\n        editarea_preferences[\'REPLACE_TAB_BY_SPACES\'] = \'4\'\n        editarea_preferences[\'DISPLAY\'] = \'onload\'\n        for key in editarea_preferences:\n            if globals().has_key(key):\n                editarea_preferences[key]=globals()[key]\n        return dict(app=request.args[0],\n                    filename=filename,\n                    filetype=filetype,\n                    data=data,\n                    edit_controller=edit_controller,\n                    file_hash=file_hash,\n                    saved_on=saved_on,\n                    controller=controller,\n                    functions=functions,\n                    view_link=view_link,\n                    editarea_preferences=editarea_preferences,\n                    editviewlinks=editviewlinks)\n\ndef resolve():\n    """\n    """\n\n    filename = \'/\'.join(request.args)\n    # ## check if file is not there\n    path = apath(filename, r=request)\n    a = safe_read(path).split(\'\\n\')\n    try:\n        b = safe_read(path + \'.1\').split(\'\\n\')\n    except IOError:\n        session.flash = \'Other file, no longer there\'\n        redirect(URL(\'edit\', args=request.args))\n\n    d = difflib.ndiff(a, b)\n\n    def leading(line):\n        """  """\n\n        # TODO: we really need to comment this\n        z = \'\'\n        for (k, c) in enumerate(line):\n            if c == \' \':\n                z += \'&nbsp;\'\n            elif c == \' \\t\':\n                z += \'&nbsp;\'\n            elif k == 0 and c == \'?\':\n                pass\n            else:\n                break\n\n        return XML(z)\n\n    def getclass(item):\n        """ Determine item class """\n\n        if item[0] == \' \':\n            return \'normal\'\n        if item[0] == \'+\':\n            return \'plus\'\n        if item[0] == \'-\':\n            return \'minus\'\n\n    if request.vars:\n        c = \'\\n\'.join([item[2:].rstrip() for (i, item) in enumerate(d) if item[0] \\\n                           == \' \' or \'line%i\' % i in request.vars])\n        safe_write(path, c)\n        session.flash = \'files merged\'\n        redirect(URL(\'edit\', args=request.args))\n    else:\n        # Making the short circuit compatible with <= python2.4\n        gen_data = lambda index,item: not item[:1] in [\'+\',\'-\'] and "" \\\n                   or INPUT(_type=\'checkbox\',\n                            _name=\'line%i\' % index,\n                            value=item[0] == \'+\')\n\n        diff = TABLE(*[TR(TD(gen_data(i,item)),\n                          TD(item[0]),\n                          TD(leading(item[2:]),\n                          TT(item[2:].rstrip())), _class=getclass(item))\n                       for (i, item) in enumerate(d) if item[0] != \'?\'])\n\n    return dict(diff=diff, filename=filename)\n\n\ndef edit_language():\n    """ Edit language file """\n    app = get_app()\n    filename = \'/\'.join(request.args)\n    from gluon.languages import read_dict, write_dict\n    strings = read_dict(apath(filename, r=request))\n    keys = sorted(strings.keys(),lambda x,y: cmp(x.lower(), y.lower()))\n    rows = []\n    rows.append(H2(T(\'Original/Translation\')))\n\n    for key in keys:\n        name = md5_hash(key)\n        if key==strings[key]:\n            _class=\'untranslated\'\n        else:\n            _class=\'translated\'\n        if len(key) <= 40:\n            elem = INPUT(_type=\'text\', _name=name,value=strings[key],\n                         _size=70,_class=_class)\n        else:\n            elem = TEXTAREA(_name=name, value=strings[key], _cols=70,\n                            _rows=5, _class=_class)\n\n        # Making the short circuit compatible with <= python2.4\n        k = (strings[key] != key) and key or B(key)\n\n        rows.append(P(k, BR(), elem, TAG.BUTTON(T(\'delete\'),\n                            _onclick=\'return delkey("%s")\' % name), _id=name))\n\n    rows.append(INPUT(_type=\'submit\', _value=T(\'update\')))\n    form = FORM(*rows)\n    if form.accepts(request.vars, keepvalues=True):\n        strs = dict()\n        for key in keys:\n            name = md5_hash(key)\n            if form.vars[name]==chr(127): continue\n            strs[key] = form.vars[name]\n        write_dict(apath(filename, r=request), strs)\n        session.flash = T(\'file saved on %(time)s\', dict(time=time.ctime()))\n        redirect(URL(r=request,args=request.args))\n    return dict(app=request.args[0], filename=filename, form=form)\n\n\ndef about():\n    """ Read about info """\n    app = get_app()\n    # ## check if file is not there\n    about = safe_read(apath(\'%s/ABOUT\' % app, r=request))\n    license = safe_read(apath(\'%s/LICENSE\' % app, r=request))\n    return dict(app=app, about=MARKMIN(about), license=MARKMIN(license))\n\n\ndef design():\n    """ Application design handler """\n    app = get_app()\n\n    if not response.flash and app == request.application:\n        msg = T(\'ATTENTION: you cannot edit the running application!\')\n        response.flash = msg\n\n    if request.vars.pluginfile!=None and not isinstance(request.vars.pluginfile,str):\n        filename=os.path.basename(request.vars.pluginfile.filename)\n        if plugin_install(app, request.vars.pluginfile.file,\n                          request, filename):\n            session.flash = T(\'new plugin installed\')\n            redirect(URL(\'design\',args=app))\n        else:\n            session.flash = \\\n                T(\'unable to create application "%s"\', request.vars.filename)\n        redirect(URL(r=request))\n    elif isinstance(request.vars.pluginfile,str):\n        session.flash = T(\'plugin not specified\')\n        redirect(URL(r=request))\n\n\n    # If we have only pyc files it means that\n    # we cannot design\n    if os.path.exists(apath(\'%s/compiled\' % app, r=request)):\n        session.flash = \\\n            T(\'application is compiled and cannot be designed\')\n        redirect(URL(\'site\'))\n\n    # Get all models\n    models = listdir(apath(\'%s/models/\' % app, r=request), \'.*\\.py$\')\n    models=[x.replace(\'\\\\\',\'/\') for x in models]\n    defines = {}\n    for m in models:\n        data = safe_read(apath(\'%s/models/%s\' % (app, m), r=request))\n        defines[m] = regex_tables.findall(data)\n        defines[m].sort()\n\n    # Get all controllers\n    controllers = sorted(listdir(apath(\'%s/controllers/\' % app, r=request), \'.*\\.py$\'))\n    controllers = [x.replace(\'\\\\\',\'/\') for x in controllers]\n    functions = {}\n    for c in controllers:\n        data = safe_read(apath(\'%s/controllers/%s\' % (app, c), r=request))\n        items = regex_expose.findall(data)\n        functions[c] = items\n\n    # Get all views\n    views = sorted(listdir(apath(\'%s/views/\' % app, r=request), \'[\\w/\\-]+(\\.\\w+)+$\'))\n    views = [x.replace(\'\\\\\',\'/\') for x in views if not x.endswith(\'.bak\')]\n    extend = {}\n    include = {}\n    for c in views:\n        data = safe_read(apath(\'%s/views/%s\' % (app, c), r=request))\n        items = regex_extend.findall(data)\n\n        if items:\n            extend[c] = items[0][1]\n\n        items = regex_include.findall(data)\n        include[c] = [i[1] for i in items]\n\n    # Get all modules\n    modules = listdir(apath(\'%s/modules/\' % app, r=request), \'.*\\.py$\')\n    modules = modules=[x.replace(\'\\\\\',\'/\') for x in modules]\n    modules.sort()\n\n    # Get all static files\n    statics = listdir(apath(\'%s/static/\' % app, r=request), \'[^\\.#].*\')\n    statics = [x.replace(\'\\\\\',\'/\') for x in statics]\n    statics.sort()\n\n    # Get all languages\n    languages = listdir(apath(\'%s/languages/\' % app, r=request), \'[\\w-]*\\.py\')\n\n    #Get crontab\n    cronfolder = apath(\'%s/cron\' % app, r=request)\n    if not os.path.exists(cronfolder): os.mkdir(cronfolder)\n    crontab = apath(\'%s/cron/crontab\' % app, r=request)\n    if not os.path.exists(crontab):\n        safe_write(crontab, \'#crontab\')\n\n    plugins=[]\n    def filter_plugins(items,plugins):\n        plugins+=[item[7:].split(\'/\')[0].split(\'.\')[0] for item in items if item.startswith(\'plugin_\')]\n        plugins[:]=list(set(plugins))\n        plugins.sort()\n        return [item for item in items if not item.startswith(\'plugin_\')]\n\n    return dict(app=app,\n                models=filter_plugins(models,plugins),\n                defines=defines,\n                controllers=filter_plugins(controllers,plugins),\n                functions=functions,\n                views=filter_plugins(views,plugins),\n                modules=filter_plugins(modules,plugins),\n                extend=extend,\n                include=include,\n                statics=filter_plugins(statics,plugins),\n                languages=languages,\n                crontab=crontab,\n                plugins=plugins)\n\ndef delete_plugin():\n    """ Object delete handler """\n    app=request.args(0)\n    plugin = request.args(1)\n    plugin_name=\'plugin_\'+plugin\n    if \'nodelete\' in request.vars:\n        redirect(URL(\'design\',args=app))\n    elif \'delete\' in request.vars:\n        try:\n            for folder in [\'models\',\'views\',\'controllers\',\'static\',\'modules\']:\n                path=os.path.join(apath(app,r=request),folder)\n                for item in os.listdir(path):\n                    if item.rsplit(\'.\',1)[0] == plugin_name:\n                        filename=os.path.join(path,item)\n                        if os.path.isdir(filename):\n                            shutil.rmtree(filename)\n                        else:\n                            os.unlink(filename)\n            session.flash = T(\'plugin "%(plugin)s" deleted\',\n                              dict(plugin=plugin))\n        except Exception:\n            session.flash = T(\'unable to delete file plugin "%(plugin)s"\',\n                              dict(plugin=plugin))\n        redirect(URL(\'design\',args=request.args(0)))\n    return dict(plugin=plugin)\n\ndef plugin():\n    """ Application design handler """\n    app = get_app()\n    plugin = request.args(1)\n\n    if not response.flash and app == request.application:\n        msg = T(\'ATTENTION: you cannot edit the running application!\')\n        response.flash = msg\n\n    # If we have only pyc files it means that\n    # we cannot design\n    if os.path.exists(apath(\'%s/compiled\' % app, r=request)):\n        session.flash = \\\n            T(\'application is compiled and cannot be designed\')\n        redirect(URL(\'site\'))\n\n    # Get all models\n    models = listdir(apath(\'%s/models/\' % app, r=request), \'.*\\.py$\')\n    models=[x.replace(\'\\\\\',\'/\') for x in models]\n    defines = {}\n    for m in models:\n        data = safe_read(apath(\'%s/models/%s\' % (app, m), r=request))\n        defines[m] = regex_tables.findall(data)\n        defines[m].sort()\n\n    # Get all controllers\n    controllers = sorted(listdir(apath(\'%s/controllers/\' % app, r=request), \'.*\\.py$\'))\n    controllers = [x.replace(\'\\\\\',\'/\') for x in controllers]\n    functions = {}\n    for c in controllers:\n        data = safe_read(apath(\'%s/controllers/%s\' % (app, c), r=request))\n        items = regex_expose.findall(data)\n        functions[c] = items\n\n    # Get all views\n    views = sorted(listdir(apath(\'%s/views/\' % app, r=request), \'[\\w/\\-]+\\.\\w+$\'))\n    views = [x.replace(\'\\\\\',\'/\') for x in views]\n    extend = {}\n    include = {}\n    for c in views:\n        data = safe_read(apath(\'%s/views/%s\' % (app, c), r=request))\n        items = regex_extend.findall(data)\n        if items:\n            extend[c] = items[0][1]\n\n        items = regex_include.findall(data)\n        include[c] = [i[1] for i in items]\n\n    # Get all modules\n    modules = listdir(apath(\'%s/modules/\' % app, r=request), \'.*\\.py$\')\n    modules = modules=[x.replace(\'\\\\\',\'/\') for x in modules]\n    modules.sort()\n\n    # Get all static files\n    statics = listdir(apath(\'%s/static/\' % app, r=request), \'[^\\.#].*\')\n    statics = [x.replace(\'\\\\\',\'/\') for x in statics]\n    statics.sort()\n\n    # Get all languages\n    languages = listdir(apath(\'%s/languages/\' % app, r=request), \'[\\w-]*\\.py\')\n\n    #Get crontab\n    crontab = apath(\'%s/cron/crontab\' % app, r=request)\n    if not os.path.exists(crontab):\n        safe_write(crontab, \'#crontab\')\n\n    def filter_plugins(items):\n        regex=re.compile(\'^plugin_\'+plugin+\'(/.*|\\..*)?$\')\n        return [item for item in items if regex.match(item)]\n\n    return dict(app=app,\n                models=filter_plugins(models),\n                defines=defines,\n                controllers=filter_plugins(controllers),\n                functions=functions,\n                views=filter_plugins(views),\n                modules=filter_plugins(modules),\n                extend=extend,\n                include=include,\n                statics=filter_plugins(statics),\n                languages=languages,\n                crontab=crontab)\n\n\ndef create_file():\n    """ Create files handler """\n    try:\n        app = get_app(name=request.vars.location.split(\'/\')[0])\n        path = apath(request.vars.location, r=request)\n        filename = re.sub(\'[^\\w./-]+\', \'_\', request.vars.filename)\n\n        if path[-11:] == \'/languages/\':\n            # Handle language files\n            if len(filename) == 0:\n                raise SyntaxError\n            if not filename[-3:] == \'.py\':\n                filename += \'.py\'\n            app = path.split(\'/\')[-3]\n            path=os.path.join(apath(app, r=request),\'languages\',filename)\n            if not os.path.exists(path):\n                safe_write(path, \'\')\n            findT(apath(app, r=request), filename[:-3])\n            session.flash = T(\'language file "%(filename)s" created/updated\',\n                              dict(filename=filename))\n            redirect(request.vars.sender)\n\n        elif path[-8:] == \'/models/\':\n            # Handle python models\n            if not filename[-3:] == \'.py\':\n                filename += \'.py\'\n\n            if len(filename) == 3:\n                raise SyntaxError\n\n            text = \'# coding: utf8\\n\'\n\n        elif path[-13:] == \'/controllers/\':\n            # Handle python controllers\n            if not filename[-3:] == \'.py\':\n                filename += \'.py\'\n\n            if len(filename) == 3:\n                raise SyntaxError\n\n            text = \'# coding: utf8\\n# %s\\ndef index(): return dict(message="hello from %s")\'\n            text = text % (T(\'try something like\'), filename)\n\n        elif path[-7:] == \'/views/\':\n            if request.vars.plugin and not filename.startswith(\'plugin_%s/\' % request.vars.plugin):\n                filename = \'plugin_%s/%s\' % (request.vars.plugin, filename)\n            # Handle template (html) views\n            if filename.find(\'.\')<0:\n                filename += \'.html\'\n            extension = filename.split(\'.\')[-1].lower()\n\n            if len(filename) == 5:\n                raise SyntaxError\n\n            msg = T(\'This is the %(filename)s template\',\n                    dict(filename=filename))\n            if extension == \'html\':\n                text = dedent("""\n                   {{extend \'layout.html\'}}\n                   <h1>%s</h1>\n                   {{=BEAUTIFY(response._vars)}}""" % msg)\n            else:\n                generic = os.path.join(path,\'generic.\'+extension)\n                if os.path.exists(generic):\n                    text = read_file(generic)\n                else:\n                    text = \'\'\n\n        elif path[-9:] == \'/modules/\':\n            if request.vars.plugin and not filename.startswith(\'plugin_%s/\' % request.vars.plugin):\n                filename = \'plugin_%s/%s\' % (request.vars.plugin, filename)\n            # Handle python module files\n            if not filename[-3:] == \'.py\':\n                filename += \'.py\'\n\n            if len(filename) == 3:\n                raise SyntaxError\n\n            text = dedent("""\n                   #!/usr/bin/env python\n                   # coding: utf8\n                   from gluon import *\\n""")\n\n        elif path[-8:] == \'/static/\':\n            if request.vars.plugin and not filename.startswith(\'plugin_%s/\' % request.vars.plugin):\n                filename = \'plugin_%s/%s\' % (request.vars.plugin, filename)\n            text = \'\'\n        else:\n            redirect(request.vars.sender)\n\n        full_filename = os.path.join(path, filename)\n        dirpath = os.path.dirname(full_filename)\n\n        if not os.path.exists(dirpath):\n            os.makedirs(dirpath)\n\n        if os.path.exists(full_filename):\n            raise SyntaxError\n\n        safe_write(full_filename, text)\n        session.flash = T(\'file "%(filename)s" created\',\n                          dict(filename=full_filename[len(path):]))\n        redirect(URL(\'edit\',\n                 args=[os.path.join(request.vars.location, filename)]))\n    except Exception, e:\n        if not isinstance(e,HTTP):\n            session.flash = T(\'cannot create file\')\n\n    redirect(request.vars.sender)\n\n\ndef upload_file():\n    """ File uploading handler """\n\n    try:\n        filename = None\n        app = get_app(name=request.vars.location.split(\'/\')[0])\n        path = apath(request.vars.location, r=request)\n\n        if request.vars.filename:\n            filename = re.sub(\'[^\\w\\./]+\', \'_\', request.vars.filename)\n        else:\n            filename = os.path.split(request.vars.file.filename)[-1]\n\n        if path[-8:] == \'/models/\' and not filename[-3:] == \'.py\':\n            filename += \'.py\'\n\n        if path[-9:] == \'/modules/\' and not filename[-3:] == \'.py\':\n            filename += \'.py\'\n\n        if path[-13:] == \'/controllers/\' and not filename[-3:] == \'.py\':\n            filename += \'.py\'\n\n        if path[-7:] == \'/views/\' and not filename[-5:] == \'.html\':\n            filename += \'.html\'\n\n        if path[-11:] == \'/languages/\' and not filename[-3:] == \'.py\':\n            filename += \'.py\'\n\n        filename = os.path.join(path, filename)\n        dirpath = os.path.dirname(filename)\n\n        if not os.path.exists(dirpath):\n            os.makedirs(dirpath)\n\n        safe_write(filename, request.vars.file.file.read(), \'wb\')\n        session.flash = T(\'file "%(filename)s" uploaded\',\n                          dict(filename=filename[len(path):]))\n    except Exception:\n        if filename:\n            d = dict(filename = filename[len(path):])\n        else:\n            d = dict(filename = \'unkown\')\n        session.flash = T(\'cannot upload file "%(filename)s"\', d)\n\n    redirect(request.vars.sender)\n\n\ndef errors():\n    """ Error handler """\n    import operator\n    import os\n    import pickle\n    import hashlib\n\n    app = get_app()\n\n    method = request.args(1) or \'new\'\n    db_ready = {}\n    db_ready[\'status\'] = get_ticket_storage(app)\n    db_ready[\'errmessage\'] = "No ticket_storage.txt found under /private folder"\n    db_ready[\'errlink\'] = "http://web2py.com/books/default/chapter/29/13#Collecting-tickets"\n\n    if method == \'new\':\n        errors_path = apath(\'%s/errors\' % app, r=request)\n\n        delete_hashes = []\n        for item in request.vars:\n            if item[:7] == \'delete_\':\n                delete_hashes.append(item[7:])\n\n        hash2error = dict()\n\n        for fn in listdir(errors_path, \'^\\w.*\'):\n            fullpath = os.path.join(errors_path, fn)\n            if not os.path.isfile(fullpath): continue\n            try:\n                fullpath_file = open(fullpath, \'r\')\n                try:\n                    error = pickle.load(fullpath_file)\n                finally:\n                    fullpath_file.close()\n            except IOError:\n                continue\n\n            hash = hashlib.md5(error[\'traceback\']).hexdigest()\n\n            if hash in delete_hashes:\n                os.unlink(fullpath)\n            else:\n                try:\n                    hash2error[hash][\'count\'] += 1\n                except KeyError:\n                    error_lines = error[\'traceback\'].split("\\n")\n                    last_line = error_lines[-2]\n                    error_causer = os.path.split(error[\'layer\'])[1]\n                    hash2error[hash] = dict(count=1, pickel=error,\n                                            causer=error_causer,\n                                            last_line=last_line,\n                                            hash=hash,ticket=fn)\n\n        decorated = [(x[\'count\'], x) for x in hash2error.values()]\n        decorated.sort(key=operator.itemgetter(0), reverse=True)\n\n        return dict(errors = [x[1] for x in decorated], app=app, method=method, db_ready=db_ready)\n\n    elif method == \'dbnew\':\n        errors_path = apath(\'%s/errors\' % app, r=request)\n        tk_db, tk_table = get_ticket_storage(app)\n\n        delete_hashes = []\n        for item in request.vars:\n            if item[:7] == \'delete_\':\n                delete_hashes.append(item[7:])\n\n        hash2error = dict()\n\n        for fn in tk_db(tk_table.id>0).select():\n            try:\n                error = pickle.loads(fn.ticket_data)\n            except AttributeError:\n                tk_db(tk_table.id == fn.id).delete()\n                tk_db.commit()\n\n            hash = hashlib.md5(error[\'traceback\']).hexdigest()\n\n            if hash in delete_hashes:\n                tk_db(tk_table.id == fn.id).delete()\n                tk_db.commit()\n            else:\n                try:\n                    hash2error[\'hash\'][\'count\'] += 1\n                except KeyError:\n                    error_lines = error[\'traceback\'].split("\\n")\n                    last_line = error_lines[-2]\n                    error_causer = os.path.split(error[\'layer\'])[1]\n                    hash2error[hash] = dict(count=1, pickel=error,\n                                            causer=error_causer,\n                                            last_line=last_line,\n                                            hash=hash,ticket=fn.ticket_id)\n\n        decorated = [(x[\'count\'], x) for x in hash2error.values()]\n\n        decorated.sort(key=operator.itemgetter(0), reverse=True)\n\n        return dict(errors = [x[1] for x in decorated], app=app, method=method)\n\n    elif method == \'dbold\':\n        tk_db, tk_table = get_ticket_storage(app)\n        for item in request.vars:\n            if item[:7] == \'delete_\':\n                tk_db(tk_table.ticket_id == item[7:]).delete()\n                tk_db.commit()\n        tickets_ = tk_db(tk_table.id>0).select(tk_table.ticket_id, tk_table.created_datetime, orderby=~tk_table.created_datetime)\n        tickets = [row.ticket_id for row in tickets_]\n        times = dict([(row.ticket_id, row.created_datetime) for row in tickets_])\n\n        return dict(app=app, tickets=tickets, method=method, times=times)\n\n    else:\n        for item in request.vars:\n            if item[:7] == \'delete_\':\n                os.unlink(apath(\'%s/errors/%s\' % (app, item[7:]), r=request))\n        func = lambda p: os.stat(apath(\'%s/errors/%s\' % \\\n                                           (app, p), r=request)).st_mtime\n        tickets = sorted(listdir(apath(\'%s/errors/\' % app, r=request), \'^\\w.*\'),\n                         key=func,\n                         reverse=True)\n\n        return dict(app=app, tickets=tickets, method=method, db_ready=db_ready)\n\ndef get_ticket_storage(app):\n    private_folder = apath(\'%s/private\' % app, r=request)\n    ticket_file = os.path.join(private_folder, \'ticket_storage.txt\')\n    if os.path.exists(ticket_file):\n        db_string = open(ticket_file).read()\n        db_string = db_string.strip().replace(\'\\r\',\'\').replace(\'\\n\',\'\')\n    else:\n        return False\n    tickets_table = \'web2py_ticket\'\n    tablename = tickets_table + \'_\' + app\n    db_path = apath(\'%s/databases\' % app, r=request)\n    ticketsdb = DAL(db_string, folder=db_path, auto_import=True)\n    if not ticketsdb.get(tablename):\n        table = ticketsdb.define_table(\n                tablename,\n                Field(\'ticket_id\', length=100),\n                Field(\'ticket_data\', \'text\'),\n                Field(\'created_datetime\', \'datetime\'),\n                )\n    return ticketsdb , ticketsdb.get(tablename)\n\ndef make_link(path):\n    """ Create a link from a path """\n    tryFile = path.replace(\'\\\\\', \'/\')\n\n    if os.path.isabs(tryFile) and os.path.isfile(tryFile):\n        (folder, filename) = os.path.split(tryFile)\n        (base, ext) = os.path.splitext(filename)\n        app = get_app()\n\n        editable = {\'controllers\': \'.py\', \'models\': \'.py\', \'views\': \'.html\'}\n        for key in editable.keys():\n            check_extension = folder.endswith("%s/%s" % (app,key))\n            if ext.lower() == editable[key] and check_extension:\n                return A(\'"\' + tryFile + \'"\',\n                         _href=URL(r=request,\n                         f=\'edit/%s/%s/%s\' % (app, key, filename))).xml()\n    return \'\'\n\n\ndef make_links(traceback):\n    """ Make links using the given traceback """\n\n    lwords = traceback.split(\'"\')\n\n    # Making the short circuit compatible with <= python2.4\n    result = (len(lwords) != 0) and lwords[0] or \'\'\n\n    i = 1\n\n    while i < len(lwords):\n        link = make_link(lwords[i])\n\n        if link == \'\':\n            result += \'"\' + lwords[i]\n        else:\n            result += link\n\n            if i + 1 < len(lwords):\n                result += lwords[i + 1]\n                i = i + 1\n\n        i = i + 1\n\n    return result\n\n\nclass TRACEBACK(object):\n    """ Generate the traceback """\n\n    def __init__(self, text):\n        """ TRACEBACK constructor """\n\n        self.s = make_links(CODE(text).xml())\n\n    def xml(self):\n        """ Returns the xml """\n\n        return self.s\n\n\ndef ticket():\n    """ Ticket handler """\n\n    if len(request.args) != 2:\n        session.flash = T(\'invalid ticket\')\n        redirect(URL(\'site\'))\n\n    app = get_app()\n    myversion = request.env.web2py_version\n    ticket = request.args[1]\n    e = RestrictedError()\n    e.load(request, app, ticket)\n\n    return dict(app=app,\n                ticket=ticket,\n                output=e.output,\n                traceback=(e.traceback and TRACEBACK(e.traceback)),\n                snapshot=e.snapshot,\n                code=e.code,\n                layer=e.layer,\n                myversion=myversion)\n\ndef ticketdb():\n    """ Ticket handler """\n\n    if len(request.args) != 2:\n        session.flash = T(\'invalid ticket\')\n        redirect(URL(\'site\'))\n\n    app = get_app()\n    myversion = request.env.web2py_version\n    ticket = request.args[1]\n    e = RestrictedError()\n    request.tickets_db = get_ticket_storage(app)[0]\n    e.load(request, app, ticket)\n    response.view = \'default/ticket.html\'\n    return dict(app=app,\n                ticket=ticket,\n                output=e.output,\n                traceback=(e.traceback and TRACEBACK(e.traceback)),\n                snapshot=e.snapshot,\n                code=e.code,\n                layer=e.layer,\n                myversion=myversion)\n\ndef error():\n    """ Generate a ticket (for testing) """\n    raise RuntimeError(\'admin ticket generator at your service\')\n\ndef update_languages():\n    """ Update available languages """\n\n    app = get_app()\n    update_all_languages(apath(app, r=request))\n    session.flash = T(\'Language files (static strings) updated\')\n    redirect(URL(\'design\',args=app,anchor=\'languages\'))\n\n\ndef twitter():\n    session.forget()\n    session._unlock(response)\n    import gluon.tools\n    import gluon.contrib.simplejson as sj\n    try:\n        if TWITTER_HASH:\n            page = urllib.urlopen("http://search.twitter.com/search.json?q=%%40%s" % TWITTER_HASH).read()\n            data = sj.loads(page  , encoding="utf-8")[\'results\']\n            d = dict()\n            for e in data:\n                d[e["id"]] = e\n            r = reversed(sorted(d))\n            return dict(tweets = [d[k] for k in r])\n        else:\n            return \'disabled\'\n    except Exception, e:\n        return DIV(T(\'Unable to download because:\'),BR(),str(e))\n\n\ndef user():\n    if MULTI_USER_MODE:\n        if not db(db.auth_user).count():\n            auth.settings.registration_requires_approval = False\n        return dict(form=auth())\n    else:\n        return dict(form=T("Disabled"))\n\ndef reload_routes():\n    """ Reload routes.py """\n    import gluon.rewrite\n    gluon.rewrite.load()\n    redirect(URL(\'site\'))\n\n\n\nresponse._vars=response._caller(check_version)\n'
p7
sS'snapshot'
p8
(dp9
S'exception'
p10
(dp11
S'__hash__'
p12
S"<method-wrapper '__hash__' of exceptions.TypeError object at 0x03243AD0>"
p13
sS'__setattr__'
p14
S"<method-wrapper '__setattr__' of exceptions.TypeError object at 0x03243AD0>"
p15
sS'__reduce_ex__'
p16
S'<built-in method __reduce_ex__ of exceptions.TypeError object at 0x03243AD0>'
p17
sS'__getslice__'
p18
S"<method-wrapper '__getslice__' of exceptions.TypeError object at 0x03243AD0>"
p19
sS'__getitem__'
p20
S"<method-wrapper '__getitem__' of exceptions.TypeError object at 0x03243AD0>"
p21
sS'__setstate__'
p22
S'<built-in method __setstate__ of exceptions.TypeError object at 0x03243AD0>'
p23
sS'__reduce__'
p24
S'<built-in method __reduce__ of exceptions.TypeError object at 0x03243AD0>'
p25
sS'__str__'
p26
S"<method-wrapper '__str__' of exceptions.TypeError object at 0x03243AD0>"
p27
sS'args'
p28
S"('not all arguments converted during string formatting',)"
p29
sS'__getattribute__'
p30
S"<method-wrapper '__getattribute__' of exceptions.TypeError object at 0x03243AD0>"
p31
sS'__class__'
p32
S"<type 'exceptions.TypeError'>"
p33
sS'__delattr__'
p34
S"<method-wrapper '__delattr__' of exceptions.TypeError object at 0x03243AD0>"
p35
sS'__repr__'
p36
S"<method-wrapper '__repr__' of exceptions.TypeError object at 0x03243AD0>"
p37
sS'__dict__'
p38
S'{}'
p39
sS'__doc__'
p40
S"'Inappropriate argument type.'"
p41
sS'__init__'
p42
S"<method-wrapper '__init__' of exceptions.TypeError object at 0x03243AD0>"
p43
sS'__new__'
p44
S'<built-in method __new__ of type object at 0x1E1CCD78>'
p45
ssS'evalue'
p46
S'not all arguments converted during string formatting'
p47
sS'request'
p48
ccopy_reg
_reconstructor
p49
(cgluon.html
BEAUTIFY
p50
c__builtin__
object
p51
NtRp52
(dp53
S'attributes'
p54
(dp55
sS'components'
p56
(lp57
g49
(cgluon.html
TABLE
p58
g51
NtRp59
(dp60
g54
(dp61
S'level'
p62
I5
ssS'parent'
p63
Nsg56
(lp64
g49
(cgluon.html
TR
p65
g51
NtRp66
(dp67
g54
(dp68
sg63
g59
sg56
(lp69
g49
(cgluon.html
TD
p70
g51
NtRp71
(dp72
g54
(dp73
S'_style'
p74
S'font-weight:bold;vertical-align:top'
p75
ssg63
g66
sg56
(lp76
S'ajax'
p77
asbag49
(g70
g51
NtRp78
(dp79
g54
(dp80
S'_valign'
p81
S'top'
p82
ssg63
g66
sg56
(lp83
S':'
asbag49
(g70
g51
NtRp84
(dp85
g54
(dp86
sg63
g66
sg56
(lp87
g49
(g50
g51
NtRp88
(dp89
g54
(dp90
g62
I5
ssg63
g84
sg56
(lp91
S'True'
p92
asbasbasbag49
(g65
g51
NtRp93
(dp94
g54
(dp95
sg63
g59
sg56
(lp96
g49
(g70
g51
NtRp97
(dp98
g54
(dp99
g74
g75
ssg63
g93
sg56
(lp100
S'application'
p101
asbag49
(g70
g51
NtRp102
(dp103
g54
(dp104
g81
g82
ssg63
g93
sg56
(lp105
S':'
asbag49
(g70
g51
NtRp106
(dp107
g54
(dp108
sg63
g93
sg56
(lp109
g49
(g50
g51
NtRp110
(dp111
g54
(dp112
g62
I5
ssg63
g106
sg56
(lp113
S'admin'
p114
asbasbasbag49
(g65
g51
NtRp115
(dp116
g54
(dp117
sg63
g59
sg56
(lp118
g49
(g70
g51
NtRp119
(dp120
g54
(dp121
g74
g75
ssg63
g115
sg56
(lp122
g28
asbag49
(g70
g51
NtRp123
(dp124
g54
(dp125
g81
g82
ssg63
g115
sg56
(lp126
S':'
asbag49
(g70
g51
NtRp127
(dp128
g54
(dp129
sg63
g115
sg56
(lp130
g49
(g50
g51
NtRp131
(dp132
g54
(dp133
g62
I5
ssg63
g127
sg56
(lp134
g49
(g58
g51
NtRp135
(dp136
g54
(dp137
g62
I4
ssg63
Nsg56
(lp138
sbasbasbasbag49
(g65
g51
NtRp139
(dp140
g54
(dp141
sg63
g59
sg56
(lp142
g49
(g70
g51
NtRp143
(dp144
g54
(dp145
g74
g75
ssg63
g139
sg56
(lp146
S'body'
p147
asbag49
(g70
g51
NtRp148
(dp149
g54
(dp150
g81
g82
ssg63
g139
sg56
(lp151
S':'
asbag49
(g70
g51
NtRp152
(dp153
g54
(dp154
sg63
g139
sg56
(lp155
g49
(g50
g51
NtRp156
(dp157
g54
(dp158
g62
I5
ssg63
g152
sg56
(lp159
S"<open file '<fdopen>', mode 'w+b' at 0x0325B260>"
p160
asbasbasbag49
(g65
g51
NtRp161
(dp162
g54
(dp163
sg63
g59
sg56
(lp164
g49
(g70
g51
NtRp165
(dp166
g54
(dp167
g74
g75
ssg63
g161
sg56
(lp168
S'client'
p169
asbag49
(g70
g51
NtRp170
(dp171
g54
(dp172
g81
g82
ssg63
g161
sg56
(lp173
S':'
asbag49
(g70
g51
NtRp174
(dp175
g54
(dp176
sg63
g161
sg56
(lp177
g49
(g50
g51
NtRp178
(dp179
g54
(dp180
g62
I5
ssg63
g174
sg56
(lp181
S'127.0.0.1'
p182
asbasbasbag49
(g65
g51
NtRp183
(dp184
g54
(dp185
sg63
g59
sg56
(lp186
g49
(g70
g51
NtRp187
(dp188
g54
(dp189
g74
g75
ssg63
g183
sg56
(lp190
S'controller'
p191
asbag49
(g70
g51
NtRp192
(dp193
g54
(dp194
g81
g82
ssg63
g183
sg56
(lp195
S':'
asbag49
(g70
g51
NtRp196
(dp197
g54
(dp198
sg63
g183
sg56
(lp199
g49
(g50
g51
NtRp200
(dp201
g54
(dp202
g62
I5
ssg63
g196
sg56
(lp203
S'default'
p204
asbasbasbag49
(g65
g51
NtRp205
(dp206
g54
(dp207
sg63
g59
sg56
(lp208
g49
(g70
g51
NtRp209
(dp210
g54
(dp211
g74
g75
ssg63
g205
sg56
(lp212
S'cookies'
p213
asbag49
(g70
g51
NtRp214
(dp215
g54
(dp216
g81
g82
ssg63
g205
sg56
(lp217
S':'
asbag49
(g70
g51
NtRp218
(dp219
g54
(dp220
sg63
g205
sg56
(lp221
g49
(g50
g51
NtRp222
(dp223
g54
(dp224
g62
I5
ssg63
g218
sg56
(lp225
g49
(g58
g51
NtRp226
(dp227
g54
(dp228
g62
I4
ssg63
Nsg56
(lp229
g49
(g65
g51
NtRp230
(dp231
g54
(dp232
sg63
g226
sg56
(lp233
g49
(g70
g51
NtRp234
(dp235
g54
(dp236
g74
g75
ssg63
g230
sg56
(lp237
S'session_id_admin'
p238
asbag49
(g70
g51
NtRp239
(dp240
g54
(dp241
g81
g82
ssg63
g230
sg56
(lp242
S':'
asbag49
(g70
g51
NtRp243
(dp244
g54
(dp245
sg63
g230
sg56
(lp246
g49
(g50
g51
NtRp247
(dp248
g54
(dp249
g62
I4
ssg63
g243
sg56
(lp250
g49
(g58
g51
NtRp251
(dp252
g54
(dp253
g62
I3
ssg63
Nsg56
(lp254
g49
(g65
g51
NtRp255
(dp256
g54
(dp257
sg63
g251
sg56
(lp258
g49
(g70
g51
NtRp259
(dp260
g54
(dp261
g74
g75
ssg63
g255
sg56
(lp262
S'comment'
p263
asbag49
(g70
g51
NtRp264
(dp265
g54
(dp266
g81
g82
ssg63
g255
sg56
(lp267
S':'
asbag49
(g70
g51
NtRp268
(dp269
g54
(dp270
sg63
g255
sg56
(lp271
g49
(g50
g51
NtRp272
(dp273
g54
(dp274
g62
I3
ssg63
g268
sg56
(lp275
S''
asbasbasbag49
(g65
g51
NtRp276
(dp277
g54
(dp278
sg63
g251
sg56
(lp279
g49
(g70
g51
NtRp280
(dp281
g54
(dp282
g74
g75
ssg63
g276
sg56
(lp283
S'domain'
p284
asbag49
(g70
g51
NtRp285
(dp286
g54
(dp287
g81
g82
ssg63
g276
sg56
(lp288
S':'
asbag49
(g70
g51
NtRp289
(dp290
g54
(dp291
sg63
g276
sg56
(lp292
g49
(g50
g51
NtRp293
(dp294
g54
(dp295
g62
I3
ssg63
g289
sg56
(lp296
S''
asbasbasbag49
(g65
g51
NtRp297
(dp298
g54
(dp299
sg63
g251
sg56
(lp300
g49
(g70
g51
NtRp301
(dp302
g54
(dp303
g74
g75
ssg63
g297
sg56
(lp304
S'expires'
p305
asbag49
(g70
g51
NtRp306
(dp307
g54
(dp308
g81
g82
ssg63
g297
sg56
(lp309
S':'
asbag49
(g70
g51
NtRp310
(dp311
g54
(dp312
sg63
g297
sg56
(lp313
g49
(g50
g51
NtRp314
(dp315
g54
(dp316
g62
I3
ssg63
g310
sg56
(lp317
S''
asbasbasbag49
(g65
g51
NtRp318
(dp319
g54
(dp320
sg63
g251
sg56
(lp321
g49
(g70
g51
NtRp322
(dp323
g54
(dp324
g74
g75
ssg63
g318
sg56
(lp325
S'max-age'
p326
asbag49
(g70
g51
NtRp327
(dp328
g54
(dp329
g81
g82
ssg63
g318
sg56
(lp330
S':'
asbag49
(g70
g51
NtRp331
(dp332
g54
(dp333
sg63
g318
sg56
(lp334
g49
(g50
g51
NtRp335
(dp336
g54
(dp337
g62
I3
ssg63
g331
sg56
(lp338
S''
asbasbasbag49
(g65
g51
NtRp339
(dp340
g54
(dp341
sg63
g251
sg56
(lp342
g49
(g70
g51
NtRp343
(dp344
g54
(dp345
g74
g75
ssg63
g339
sg56
(lp346
S'path'
p347
asbag49
(g70
g51
NtRp348
(dp349
g54
(dp350
g81
g82
ssg63
g339
sg56
(lp351
S':'
asbag49
(g70
g51
NtRp352
(dp353
g54
(dp354
sg63
g339
sg56
(lp355
g49
(g50
g51
NtRp356
(dp357
g54
(dp358
g62
I3
ssg63
g352
sg56
(lp359
S''
asbasbasbag49
(g65
g51
NtRp360
(dp361
g54
(dp362
sg63
g251
sg56
(lp363
g49
(g70
g51
NtRp364
(dp365
g54
(dp366
g74
g75
ssg63
g360
sg56
(lp367
S'secure'
p368
asbag49
(g70
g51
NtRp369
(dp370
g54
(dp371
g81
g82
ssg63
g360
sg56
(lp372
S':'
asbag49
(g70
g51
NtRp373
(dp374
g54
(dp375
sg63
g360
sg56
(lp376
g49
(g50
g51
NtRp377
(dp378
g54
(dp379
g62
I3
ssg63
g373
sg56
(lp380
S''
asbasbasbag49
(g65
g51
NtRp381
(dp382
g54
(dp383
sg63
g251
sg56
(lp384
g49
(g70
g51
NtRp385
(dp386
g54
(dp387
g74
g75
ssg63
g381
sg56
(lp388
S'version'
p389
asbag49
(g70
g51
NtRp390
(dp391
g54
(dp392
g81
g82
ssg63
g381
sg56
(lp393
S':'
asbag49
(g70
g51
NtRp394
(dp395
g54
(dp396
sg63
g381
sg56
(lp397
g49
(g50
g51
NtRp398
(dp399
g54
(dp400
g62
I3
ssg63
g394
sg56
(lp401
S''
asbasbasbasbasbasbasbag49
(g65
g51
NtRp402
(dp403
g54
(dp404
sg63
g226
sg56
(lp405
g49
(g70
g51
NtRp406
(dp407
g54
(dp408
g74
g75
ssg63
g402
sg56
(lp409
S'session_id_ssad_project'
p410
asbag49
(g70
g51
NtRp411
(dp412
g54
(dp413
g81
g82
ssg63
g402
sg56
(lp414
S':'
asbag49
(g70
g51
NtRp415
(dp416
g54
(dp417
sg63
g402
sg56
(lp418
g49
(g50
g51
NtRp419
(dp420
g54
(dp421
g62
I4
ssg63
g415
sg56
(lp422
g49
(g58
g51
NtRp423
(dp424
g54
(dp425
g62
I3
ssg63
Nsg56
(lp426
g49
(g65
g51
NtRp427
(dp428
g54
(dp429
sg63
g423
sg56
(lp430
g49
(g70
g51
NtRp431
(dp432
g54
(dp433
g74
g75
ssg63
g427
sg56
(lp434
g263
asbag49
(g70
g51
NtRp435
(dp436
g54
(dp437
g81
g82
ssg63
g427
sg56
(lp438
S':'
asbag49
(g70
g51
NtRp439
(dp440
g54
(dp441
sg63
g427
sg56
(lp442
g49
(g50
g51
NtRp443
(dp444
g54
(dp445
g62
I3
ssg63
g439
sg56
(lp446
S''
asbasbasbag49
(g65
g51
NtRp447
(dp448
g54
(dp449
sg63
g423
sg56
(lp450
g49
(g70
g51
NtRp451
(dp452
g54
(dp453
g74
g75
ssg63
g447
sg56
(lp454
g284
asbag49
(g70
g51
NtRp455
(dp456
g54
(dp457
g81
g82
ssg63
g447
sg56
(lp458
S':'
asbag49
(g70
g51
NtRp459
(dp460
g54
(dp461
sg63
g447
sg56
(lp462
g49
(g50
g51
NtRp463
(dp464
g54
(dp465
g62
I3
ssg63
g459
sg56
(lp466
S''
asbasbasbag49
(g65
g51
NtRp467
(dp468
g54
(dp469
sg63
g423
sg56
(lp470
g49
(g70
g51
NtRp471
(dp472
g54
(dp473
g74
g75
ssg63
g467
sg56
(lp474
g305
asbag49
(g70
g51
NtRp475
(dp476
g54
(dp477
g81
g82
ssg63
g467
sg56
(lp478
S':'
asbag49
(g70
g51
NtRp479
(dp480
g54
(dp481
sg63
g467
sg56
(lp482
g49
(g50
g51
NtRp483
(dp484
g54
(dp485
g62
I3
ssg63
g479
sg56
(lp486
S''
asbasbasbag49
(g65
g51
NtRp487
(dp488
g54
(dp489
sg63
g423
sg56
(lp490
g49
(g70
g51
NtRp491
(dp492
g54
(dp493
g74
g75
ssg63
g487
sg56
(lp494
g326
asbag49
(g70
g51
NtRp495
(dp496
g54
(dp497
g81
g82
ssg63
g487
sg56
(lp498
S':'
asbag49
(g70
g51
NtRp499
(dp500
g54
(dp501
sg63
g487
sg56
(lp502
g49
(g50
g51
NtRp503
(dp504
g54
(dp505
g62
I3
ssg63
g499
sg56
(lp506
S''
asbasbasbag49
(g65
g51
NtRp507
(dp508
g54
(dp509
sg63
g423
sg56
(lp510
g49
(g70
g51
NtRp511
(dp512
g54
(dp513
g74
g75
ssg63
g507
sg56
(lp514
g347
asbag49
(g70
g51
NtRp515
(dp516
g54
(dp517
g81
g82
ssg63
g507
sg56
(lp518
S':'
asbag49
(g70
g51
NtRp519
(dp520
g54
(dp521
sg63
g507
sg56
(lp522
g49
(g50
g51
NtRp523
(dp524
g54
(dp525
g62
I3
ssg63
g519
sg56
(lp526
S''
asbasbasbag49
(g65
g51
NtRp527
(dp528
g54
(dp529
sg63
g423
sg56
(lp530
g49
(g70
g51
NtRp531
(dp532
g54
(dp533
g74
g75
ssg63
g527
sg56
(lp534
g368
asbag49
(g70
g51
NtRp535
(dp536
g54
(dp537
g81
g82
ssg63
g527
sg56
(lp538
S':'
asbag49
(g70
g51
NtRp539
(dp540
g54
(dp541
sg63
g527
sg56
(lp542
g49
(g50
g51
NtRp543
(dp544
g54
(dp545
g62
I3
ssg63
g539
sg56
(lp546
S''
asbasbasbag49
(g65
g51
NtRp547
(dp548
g54
(dp549
sg63
g423
sg56
(lp550
g49
(g70
g51
NtRp551
(dp552
g54
(dp553
g74
g75
ssg63
g547
sg56
(lp554
g389
asbag49
(g70
g51
NtRp555
(dp556
g54
(dp557
g81
g82
ssg63
g547
sg56
(lp558
S':'
asbag49
(g70
g51
NtRp559
(dp560
g54
(dp561
sg63
g547
sg56
(lp562
g49
(g50
g51
NtRp563
(dp564
g54
(dp565
g62
I3
ssg63
g559
sg56
(lp566
S''
asbasbasbasbasbasbasbag49
(g65
g51
NtRp567
(dp568
g54
(dp569
sg63
g226
sg56
(lp570
g49
(g70
g51
NtRp571
(dp572
g54
(dp573
g74
g75
ssg63
g567
sg56
(lp574
S'session_id_welcome'
p575
asbag49
(g70
g51
NtRp576
(dp577
g54
(dp578
g81
g82
ssg63
g567
sg56
(lp579
S':'
asbag49
(g70
g51
NtRp580
(dp581
g54
(dp582
sg63
g567
sg56
(lp583
g49
(g50
g51
NtRp584
(dp585
g54
(dp586
g62
I4
ssg63
g580
sg56
(lp587
g49
(g58
g51
NtRp588
(dp589
g54
(dp590
g62
I3
ssg63
Nsg56
(lp591
g49
(g65
g51
NtRp592
(dp593
g54
(dp594
sg63
g588
sg56
(lp595
g49
(g70
g51
NtRp596
(dp597
g54
(dp598
g74
g75
ssg63
g592
sg56
(lp599
g263
asbag49
(g70
g51
NtRp600
(dp601
g54
(dp602
g81
g82
ssg63
g592
sg56
(lp603
S':'
asbag49
(g70
g51
NtRp604
(dp605
g54
(dp606
sg63
g592
sg56
(lp607
g49
(g50
g51
NtRp608
(dp609
g54
(dp610
g62
I3
ssg63
g604
sg56
(lp611
S''
asbasbasbag49
(g65
g51
NtRp612
(dp613
g54
(dp614
sg63
g588
sg56
(lp615
g49
(g70
g51
NtRp616
(dp617
g54
(dp618
g74
g75
ssg63
g612
sg56
(lp619
g284
asbag49
(g70
g51
NtRp620
(dp621
g54
(dp622
g81
g82
ssg63
g612
sg56
(lp623
S':'
asbag49
(g70
g51
NtRp624
(dp625
g54
(dp626
sg63
g612
sg56
(lp627
g49
(g50
g51
NtRp628
(dp629
g54
(dp630
g62
I3
ssg63
g624
sg56
(lp631
S''
asbasbasbag49
(g65
g51
NtRp632
(dp633
g54
(dp634
sg63
g588
sg56
(lp635
g49
(g70
g51
NtRp636
(dp637
g54
(dp638
g74
g75
ssg63
g632
sg56
(lp639
g305
asbag49
(g70
g51
NtRp640
(dp641
g54
(dp642
g81
g82
ssg63
g632
sg56
(lp643
S':'
asbag49
(g70
g51
NtRp644
(dp645
g54
(dp646
sg63
g632
sg56
(lp647
g49
(g50
g51
NtRp648
(dp649
g54
(dp650
g62
I3
ssg63
g644
sg56
(lp651
S''
asbasbasbag49
(g65
g51
NtRp652
(dp653
g54
(dp654
sg63
g588
sg56
(lp655
g49
(g70
g51
NtRp656
(dp657
g54
(dp658
g74
g75
ssg63
g652
sg56
(lp659
g326
asbag49
(g70
g51
NtRp660
(dp661
g54
(dp662
g81
g82
ssg63
g652
sg56
(lp663
S':'
asbag49
(g70
g51
NtRp664
(dp665
g54
(dp666
sg63
g652
sg56
(lp667
g49
(g50
g51
NtRp668
(dp669
g54
(dp670
g62
I3
ssg63
g664
sg56
(lp671
S''
asbasbasbag49
(g65
g51
NtRp672
(dp673
g54
(dp674
sg63
g588
sg56
(lp675
g49
(g70
g51
NtRp676
(dp677
g54
(dp678
g74
g75
ssg63
g672
sg56
(lp679
g347
asbag49
(g70
g51
NtRp680
(dp681
g54
(dp682
g81
g82
ssg63
g672
sg56
(lp683
S':'
asbag49
(g70
g51
NtRp684
(dp685
g54
(dp686
sg63
g672
sg56
(lp687
g49
(g50
g51
NtRp688
(dp689
g54
(dp690
g62
I3
ssg63
g684
sg56
(lp691
S''
asbasbasbag49
(g65
g51
NtRp692
(dp693
g54
(dp694
sg63
g588
sg56
(lp695
g49
(g70
g51
NtRp696
(dp697
g54
(dp698
g74
g75
ssg63
g692
sg56
(lp699
g368
asbag49
(g70
g51
NtRp700
(dp701
g54
(dp702
g81
g82
ssg63
g692
sg56
(lp703
S':'
asbag49
(g70
g51
NtRp704
(dp705
g54
(dp706
sg63
g692
sg56
(lp707
g49
(g50
g51
NtRp708
(dp709
g54
(dp710
g62
I3
ssg63
g704
sg56
(lp711
S''
asbasbasbag49
(g65
g51
NtRp712
(dp713
g54
(dp714
sg63
g588
sg56
(lp715
g49
(g70
g51
NtRp716
(dp717
g54
(dp718
g74
g75
ssg63
g712
sg56
(lp719
g389
asbag49
(g70
g51
NtRp720
(dp721
g54
(dp722
g81
g82
ssg63
g712
sg56
(lp723
S':'
asbag49
(g70
g51
NtRp724
(dp725
g54
(dp726
sg63
g712
sg56
(lp727
g49
(g50
g51
NtRp728
(dp729
g54
(dp730
g62
I3
ssg63
g724
sg56
(lp731
S''
asbasbasbasbasbasbasbasbasbasbasbag49
(g65
g51
NtRp732
(dp733
g54
(dp734
sg63
g59
sg56
(lp735
g49
(g70
g51
NtRp736
(dp737
g54
(dp738
g74
g75
ssg63
g732
sg56
(lp739
S'env'
p740
asbag49
(g70
g51
NtRp741
(dp742
g54
(dp743
g81
g82
ssg63
g732
sg56
(lp744
S':'
asbag49
(g70
g51
NtRp745
(dp746
g54
(dp747
sg63
g732
sg56
(lp748
g49
(g50
g51
NtRp749
(dp750
g54
(dp751
g62
I5
ssg63
g745
sg56
(lp752
g49
(g58
g51
NtRp753
(dp754
g54
(dp755
g62
I4
ssg63
Nsg56
(lp756
g49
(g65
g51
NtRp757
(dp758
g54
(dp759
sg63
g753
sg56
(lp760
g49
(g70
g51
NtRp761
(dp762
g54
(dp763
g74
g75
ssg63
g757
sg56
(lp764
S'app_folders'
p765
asbag49
(g70
g51
NtRp766
(dp767
g54
(dp768
g81
g82
ssg63
g757
sg56
(lp769
S':'
asbag49
(g70
g51
NtRp770
(dp771
g54
(dp772
sg63
g757
sg56
(lp773
g49
(g50
g51
NtRp774
(dp775
g54
(dp776
g62
I4
ssg63
g770
sg56
(lp777
S"set(['D:\\\\web2py\\\\applications\\\\pro\\\\', 'D:\\\\web2py\\\\applications\\\\admin\\\\', 'D:\\\\web2py\\\\applications\\\\welcome\\\\'])"
p778
asbasbasbag49
(g65
g51
NtRp779
(dp780
g54
(dp781
sg63
g753
sg56
(lp782
g49
(g70
g51
NtRp783
(dp784
g54
(dp785
g74
g75
ssg63
g779
sg56
(lp786
S'applications_parent'
p787
asbag49
(g70
g51
NtRp788
(dp789
g54
(dp790
g81
g82
ssg63
g779
sg56
(lp791
S':'
asbag49
(g70
g51
NtRp792
(dp793
g54
(dp794
sg63
g779
sg56
(lp795
g49
(g50
g51
NtRp796
(dp797
g54
(dp798
g62
I4
ssg63
g792
sg56
(lp799
S'D:\\web2py'
p800
asbasbasbag49
(g65
g51
NtRp801
(dp802
g54
(dp803
sg63
g753
sg56
(lp804
g49
(g70
g51
NtRp805
(dp806
g54
(dp807
g74
g75
ssg63
g801
sg56
(lp808
S'cmd_args'
p809
asbag49
(g70
g51
NtRp810
(dp811
g54
(dp812
g81
g82
ssg63
g801
sg56
(lp813
S':'
asbag49
(g70
g51
NtRp814
(dp815
g54
(dp816
sg63
g801
sg56
(lp817
g49
(g50
g51
NtRp818
(dp819
g54
(dp820
g62
I4
ssg63
g814
sg56
(lp821
g49
(g58
g51
NtRp822
(dp823
g54
(dp824
g62
I3
ssg63
Nsg56
(lp825
sbasbasbasbag49
(g65
g51
NtRp826
(dp827
g54
(dp828
sg63
g753
sg56
(lp829
g49
(g70
g51
NtRp830
(dp831
g54
(dp832
g74
g75
ssg63
g826
sg56
(lp833
S'cmd_options'
p834
asbag49
(g70
g51
NtRp835
(dp836
g54
(dp837
g81
g82
ssg63
g826
sg56
(lp838
S':'
asbag49
(g70
g51
NtRp839
(dp840
g54
(dp841
sg63
g826
sg56
(lp842
g49
(g50
g51
NtRp843
(dp844
g54
(dp845
g62
I4
ssg63
g839
sg56
(lp846
S"<Values at 0x3093fa8: {'verbose': False, 'ip': '127.0.0.1', 'shutdown_timeout': 5, 'taskbar': False, 'nocron': False, 'pid_filename': 'httpserver.pid', 'maxthreads': None, 'softcron': False, 'server_name': 'user-PC', 'bpython': False, 'nogui': False, 'port': 8000, 'extcron': False, 'debuglevel': 30, 'test': None, 'folder': 'D:\\\\web2py', 'config': '', 'import_models': False, 'winservice': '', 'shell': None, 'run': '', 'log_filename': 'httpserver.log', 'args': [''], 'socket_timeout': 5, 'ssl_ca_certificate': None, 'scheduler': None, 'profiler_filename': None, 'ssl_private_key': '', 'password': '<ask>', 'request_queue_size': 5, 'ssl_certificate': '', 'cronjob': False, 'numthreads': None, 'quiet': False, 'interfaces': None, 'minthreads': None, 'timeout': 10, 'plain': False, 'nobanner': False}>"
p847
asbasbasbag49
(g65
g51
NtRp848
(dp849
g54
(dp850
sg63
g753
sg56
(lp851
g49
(g70
g51
NtRp852
(dp853
g54
(dp854
g74
g75
ssg63
g848
sg56
(lp855
S'content_length'
p856
asbag49
(g70
g51
NtRp857
(dp858
g54
(dp859
g81
g82
ssg63
g848
sg56
(lp860
S':'
asbag49
(g70
g51
NtRp861
(dp862
g54
(dp863
sg63
g848
sg56
(lp864
g49
(g50
g51
NtRp865
(dp866
g54
(dp867
g62
I4
ssg63
g861
sg56
(lp868
S'0'
asbasbasbag49
(g65
g51
NtRp869
(dp870
g54
(dp871
sg63
g753
sg56
(lp872
g49
(g70
g51
NtRp873
(dp874
g54
(dp875
g74
g75
ssg63
g869
sg56
(lp876
S'db_sessions'
p877
asbag49
(g70
g51
NtRp878
(dp879
g54
(dp880
g81
g82
ssg63
g869
sg56
(lp881
S':'
asbag49
(g70
g51
NtRp882
(dp883
g54
(dp884
sg63
g869
sg56
(lp885
g49
(g50
g51
NtRp886
(dp887
g54
(dp888
g62
I4
ssg63
g882
sg56
(lp889
S'set([])'
p890
asbasbasbag49
(g65
g51
NtRp891
(dp892
g54
(dp893
sg63
g753
sg56
(lp894
g49
(g70
g51
NtRp895
(dp896
g54
(dp897
g74
g75
ssg63
g891
sg56
(lp898
S'debugging'
p899
asbag49
(g70
g51
NtRp900
(dp901
g54
(dp902
g81
g82
ssg63
g891
sg56
(lp903
S':'
asbag49
(g70
g51
NtRp904
(dp905
g54
(dp906
sg63
g891
sg56
(lp907
g49
(g50
g51
NtRp908
(dp909
g54
(dp910
g62
I4
ssg63
g904
sg56
(lp911
S'False'
p912
asbasbasbag49
(g65
g51
NtRp913
(dp914
g54
(dp915
sg63
g753
sg56
(lp916
g49
(g70
g51
NtRp917
(dp918
g54
(dp919
g74
g75
ssg63
g913
sg56
(lp920
S'gluon_parent'
p921
asbag49
(g70
g51
NtRp922
(dp923
g54
(dp924
g81
g82
ssg63
g913
sg56
(lp925
S':'
asbag49
(g70
g51
NtRp926
(dp927
g54
(dp928
sg63
g913
sg56
(lp929
g49
(g50
g51
NtRp930
(dp931
g54
(dp932
g62
I4
ssg63
g926
sg56
(lp933
S'D:\\web2py'
p934
asbasbasbag49
(g65
g51
NtRp935
(dp936
g54
(dp937
sg63
g753
sg56
(lp938
g49
(g70
g51
NtRp939
(dp940
g54
(dp941
g74
g75
ssg63
g935
sg56
(lp942
S'http_accept'
p943
asbag49
(g70
g51
NtRp944
(dp945
g54
(dp946
g81
g82
ssg63
g935
sg56
(lp947
S':'
asbag49
(g70
g51
NtRp948
(dp949
g54
(dp950
sg63
g935
sg56
(lp951
g49
(g50
g51
NtRp952
(dp953
g54
(dp954
g62
I4
ssg63
g948
sg56
(lp955
S'*/*'
p956
asbasbasbag49
(g65
g51
NtRp957
(dp958
g54
(dp959
sg63
g753
sg56
(lp960
g49
(g70
g51
NtRp961
(dp962
g54
(dp963
g74
g75
ssg63
g957
sg56
(lp964
S'http_accept_encoding'
p965
asbag49
(g70
g51
NtRp966
(dp967
g54
(dp968
g81
g82
ssg63
g957
sg56
(lp969
S':'
asbag49
(g70
g51
NtRp970
(dp971
g54
(dp972
sg63
g957
sg56
(lp973
g49
(g50
g51
NtRp974
(dp975
g54
(dp976
g62
I4
ssg63
g970
sg56
(lp977
S'gzip, deflate'
p978
asbasbasbag49
(g65
g51
NtRp979
(dp980
g54
(dp981
sg63
g753
sg56
(lp982
g49
(g70
g51
NtRp983
(dp984
g54
(dp985
g74
g75
ssg63
g979
sg56
(lp986
S'http_accept_language'
p987
asbag49
(g70
g51
NtRp988
(dp989
g54
(dp990
g81
g82
ssg63
g979
sg56
(lp991
S':'
asbag49
(g70
g51
NtRp992
(dp993
g54
(dp994
sg63
g979
sg56
(lp995
g49
(g50
g51
NtRp996
(dp997
g54
(dp998
g62
I4
ssg63
g992
sg56
(lp999
S'en-us,en;q=0.5'
p1000
asbasbasbag49
(g65
g51
NtRp1001
(dp1002
g54
(dp1003
sg63
g753
sg56
(lp1004
g49
(g70
g51
NtRp1005
(dp1006
g54
(dp1007
g74
g75
ssg63
g1001
sg56
(lp1008
S'http_cache_control'
p1009
asbag49
(g70
g51
NtRp1010
(dp1011
g54
(dp1012
g81
g82
ssg63
g1001
sg56
(lp1013
S':'
asbag49
(g70
g51
NtRp1014
(dp1015
g54
(dp1016
sg63
g1001
sg56
(lp1017
g49
(g50
g51
NtRp1018
(dp1019
g54
(dp1020
g62
I4
ssg63
g1014
sg56
(lp1021
S'no-cache'
p1022
asbasbasbag49
(g65
g51
NtRp1023
(dp1024
g54
(dp1025
sg63
g753
sg56
(lp1026
g49
(g70
g51
NtRp1027
(dp1028
g54
(dp1029
g74
g75
ssg63
g1023
sg56
(lp1030
S'http_connection'
p1031
asbag49
(g70
g51
NtRp1032
(dp1033
g54
(dp1034
g81
g82
ssg63
g1023
sg56
(lp1035
S':'
asbag49
(g70
g51
NtRp1036
(dp1037
g54
(dp1038
sg63
g1023
sg56
(lp1039
g49
(g50
g51
NtRp1040
(dp1041
g54
(dp1042
g62
I4
ssg63
g1036
sg56
(lp1043
S'keep-alive'
p1044
asbasbasbag49
(g65
g51
NtRp1045
(dp1046
g54
(dp1047
sg63
g753
sg56
(lp1048
g49
(g70
g51
NtRp1049
(dp1050
g54
(dp1051
g74
g75
ssg63
g1045
sg56
(lp1052
S'http_content_length'
p1053
asbag49
(g70
g51
NtRp1054
(dp1055
g54
(dp1056
g81
g82
ssg63
g1045
sg56
(lp1057
S':'
asbag49
(g70
g51
NtRp1058
(dp1059
g54
(dp1060
sg63
g1045
sg56
(lp1061
g49
(g50
g51
NtRp1062
(dp1063
g54
(dp1064
g62
I4
ssg63
g1058
sg56
(lp1065
S'0'
asbasbasbag49
(g65
g51
NtRp1066
(dp1067
g54
(dp1068
sg63
g753
sg56
(lp1069
g49
(g70
g51
NtRp1070
(dp1071
g54
(dp1072
g74
g75
ssg63
g1066
sg56
(lp1073
S'http_cookie'
p1074
asbag49
(g70
g51
NtRp1075
(dp1076
g54
(dp1077
g81
g82
ssg63
g1066
sg56
(lp1078
S':'
asbag49
(g70
g51
NtRp1079
(dp1080
g54
(dp1081
sg63
g1066
sg56
(lp1082
g49
(g50
g51
NtRp1083
(dp1084
g54
(dp1085
g62
I4
ssg63
g1079
sg56
(lp1086
S'session_id_ssad_project=127.0.0.1-7925c1a6-3250-4da6-9a5e-dad9088b6c6b; session_id_welcome=127.0.0.1-22a55a20-665f-463f-b2ee-34e58f215947; session_id_admin=127.0.0.1-b54cd5c5-5484-4756-a0b6-07485af2cf8d'
p1087
asbasbasbag49
(g65
g51
NtRp1088
(dp1089
g54
(dp1090
sg63
g753
sg56
(lp1091
g49
(g70
g51
NtRp1092
(dp1093
g54
(dp1094
g74
g75
ssg63
g1088
sg56
(lp1095
S'http_dnt'
p1096
asbag49
(g70
g51
NtRp1097
(dp1098
g54
(dp1099
g81
g82
ssg63
g1088
sg56
(lp1100
S':'
asbag49
(g70
g51
NtRp1101
(dp1102
g54
(dp1103
sg63
g1088
sg56
(lp1104
g49
(g50
g51
NtRp1105
(dp1106
g54
(dp1107
g62
I4
ssg63
g1101
sg56
(lp1108
S'1'
asbasbasbag49
(g65
g51
NtRp1109
(dp1110
g54
(dp1111
sg63
g753
sg56
(lp1112
g49
(g70
g51
NtRp1113
(dp1114
g54
(dp1115
g74
g75
ssg63
g1109
sg56
(lp1116
S'http_host'
p1117
asbag49
(g70
g51
NtRp1118
(dp1119
g54
(dp1120
g81
g82
ssg63
g1109
sg56
(lp1121
S':'
asbag49
(g70
g51
NtRp1122
(dp1123
g54
(dp1124
sg63
g1109
sg56
(lp1125
g49
(g50
g51
NtRp1126
(dp1127
g54
(dp1128
g62
I4
ssg63
g1122
sg56
(lp1129
S'127.0.0.1:8000'
p1130
asbasbasbag49
(g65
g51
NtRp1131
(dp1132
g54
(dp1133
sg63
g753
sg56
(lp1134
g49
(g70
g51
NtRp1135
(dp1136
g54
(dp1137
g74
g75
ssg63
g1131
sg56
(lp1138
S'http_pragma'
p1139
asbag49
(g70
g51
NtRp1140
(dp1141
g54
(dp1142
g81
g82
ssg63
g1131
sg56
(lp1143
S':'
asbag49
(g70
g51
NtRp1144
(dp1145
g54
(dp1146
sg63
g1131
sg56
(lp1147
g49
(g50
g51
NtRp1148
(dp1149
g54
(dp1150
g62
I4
ssg63
g1144
sg56
(lp1151
S'no-cache'
p1152
asbasbasbag49
(g65
g51
NtRp1153
(dp1154
g54
(dp1155
sg63
g753
sg56
(lp1156
g49
(g70
g51
NtRp1157
(dp1158
g54
(dp1159
g74
g75
ssg63
g1153
sg56
(lp1160
S'http_referer'
p1161
asbag49
(g70
g51
NtRp1162
(dp1163
g54
(dp1164
g81
g82
ssg63
g1153
sg56
(lp1165
S':'
asbag49
(g70
g51
NtRp1166
(dp1167
g54
(dp1168
sg63
g1153
sg56
(lp1169
g49
(g50
g51
NtRp1170
(dp1171
g54
(dp1172
g62
I4
ssg63
g1166
sg56
(lp1173
S'http://127.0.0.1:8000/admin/default/site'
p1174
asbasbasbag49
(g65
g51
NtRp1175
(dp1176
g54
(dp1177
sg63
g753
sg56
(lp1178
g49
(g70
g51
NtRp1179
(dp1180
g54
(dp1181
g74
g75
ssg63
g1175
sg56
(lp1182
S'http_user_agent'
p1183
asbag49
(g70
g51
NtRp1184
(dp1185
g54
(dp1186
g81
g82
ssg63
g1175
sg56
(lp1187
S':'
asbag49
(g70
g51
NtRp1188
(dp1189
g54
(dp1190
sg63
g1175
sg56
(lp1191
g49
(g50
g51
NtRp1192
(dp1193
g54
(dp1194
g62
I4
ssg63
g1188
sg56
(lp1195
S'Mozilla/5.0 (Windows NT 6.1; WOW64; rv:11.0) Gecko/20100101 Firefox/11.0'
p1196
asbasbasbag49
(g65
g51
NtRp1197
(dp1198
g54
(dp1199
sg63
g753
sg56
(lp1200
g49
(g70
g51
NtRp1201
(dp1202
g54
(dp1203
g74
g75
ssg63
g1197
sg56
(lp1204
S'http_x_requested_with'
p1205
asbag49
(g70
g51
NtRp1206
(dp1207
g54
(dp1208
g81
g82
ssg63
g1197
sg56
(lp1209
S':'
asbag49
(g70
g51
NtRp1210
(dp1211
g54
(dp1212
sg63
g1197
sg56
(lp1213
g49
(g50
g51
NtRp1214
(dp1215
g54
(dp1216
g62
I4
ssg63
g1210
sg56
(lp1217
S'XMLHttpRequest'
p1218
asbasbasbag49
(g65
g51
NtRp1219
(dp1220
g54
(dp1221
sg63
g753
sg56
(lp1222
g49
(g70
g51
NtRp1223
(dp1224
g54
(dp1225
g74
g75
ssg63
g1219
sg56
(lp1226
S'is_jython'
p1227
asbag49
(g70
g51
NtRp1228
(dp1229
g54
(dp1230
g81
g82
ssg63
g1219
sg56
(lp1231
S':'
asbag49
(g70
g51
NtRp1232
(dp1233
g54
(dp1234
sg63
g1219
sg56
(lp1235
g49
(g50
g51
NtRp1236
(dp1237
g54
(dp1238
g62
I4
ssg63
g1232
sg56
(lp1239
g912
asbasbasbag49
(g65
g51
NtRp1240
(dp1241
g54
(dp1242
sg63
g753
sg56
(lp1243
g49
(g70
g51
NtRp1244
(dp1245
g54
(dp1246
g74
g75
ssg63
g1240
sg56
(lp1247
S'is_pypy'
p1248
asbag49
(g70
g51
NtRp1249
(dp1250
g54
(dp1251
g81
g82
ssg63
g1240
sg56
(lp1252
S':'
asbag49
(g70
g51
NtRp1253
(dp1254
g54
(dp1255
sg63
g1240
sg56
(lp1256
g49
(g50
g51
NtRp1257
(dp1258
g54
(dp1259
g62
I4
ssg63
g1253
sg56
(lp1260
g912
asbasbasbag49
(g65
g51
NtRp1261
(dp1262
g54
(dp1263
sg63
g753
sg56
(lp1264
g49
(g70
g51
NtRp1265
(dp1266
g54
(dp1267
g74
g75
ssg63
g1261
sg56
(lp1268
S'path_info'
p1269
asbag49
(g70
g51
NtRp1270
(dp1271
g54
(dp1272
g81
g82
ssg63
g1261
sg56
(lp1273
S':'
asbag49
(g70
g51
NtRp1274
(dp1275
g54
(dp1276
sg63
g1261
sg56
(lp1277
g49
(g50
g51
NtRp1278
(dp1279
g54
(dp1280
g62
I4
ssg63
g1274
sg56
(lp1281
S'/admin/default/check_version'
p1282
asbasbasbag49
(g65
g51
NtRp1283
(dp1284
g54
(dp1285
sg63
g753
sg56
(lp1286
g49
(g70
g51
NtRp1287
(dp1288
g54
(dp1289
g74
g75
ssg63
g1283
sg56
(lp1290
S'query_string'
p1291
asbag49
(g70
g51
NtRp1292
(dp1293
g54
(dp1294
g81
g82
ssg63
g1283
sg56
(lp1295
S':'
asbag49
(g70
g51
NtRp1296
(dp1297
g54
(dp1298
sg63
g1283
sg56
(lp1299
g49
(g50
g51
NtRp1300
(dp1301
g54
(dp1302
g62
I4
ssg63
g1296
sg56
(lp1303
S''
asbasbasbag49
(g65
g51
NtRp1304
(dp1305
g54
(dp1306
sg63
g753
sg56
(lp1307
g49
(g70
g51
NtRp1308
(dp1309
g54
(dp1310
g74
g75
ssg63
g1304
sg56
(lp1311
S'remote_addr'
p1312
asbag49
(g70
g51
NtRp1313
(dp1314
g54
(dp1315
g81
g82
ssg63
g1304
sg56
(lp1316
S':'
asbag49
(g70
g51
NtRp1317
(dp1318
g54
(dp1319
sg63
g1304
sg56
(lp1320
g49
(g50
g51
NtRp1321
(dp1322
g54
(dp1323
g62
I4
ssg63
g1317
sg56
(lp1324
g182
asbasbasbag49
(g65
g51
NtRp1325
(dp1326
g54
(dp1327
sg63
g753
sg56
(lp1328
g49
(g70
g51
NtRp1329
(dp1330
g54
(dp1331
g74
g75
ssg63
g1325
sg56
(lp1332
S'remote_port'
p1333
asbag49
(g70
g51
NtRp1334
(dp1335
g54
(dp1336
g81
g82
ssg63
g1325
sg56
(lp1337
S':'
asbag49
(g70
g51
NtRp1338
(dp1339
g54
(dp1340
sg63
g1325
sg56
(lp1341
g49
(g50
g51
NtRp1342
(dp1343
g54
(dp1344
g62
I4
ssg63
g1338
sg56
(lp1345
S'50094'
p1346
asbasbasbag49
(g65
g51
NtRp1347
(dp1348
g54
(dp1349
sg63
g753
sg56
(lp1350
g49
(g70
g51
NtRp1351
(dp1352
g54
(dp1353
g74
g75
ssg63
g1347
sg56
(lp1354
S'request_method'
p1355
asbag49
(g70
g51
NtRp1356
(dp1357
g54
(dp1358
g81
g82
ssg63
g1347
sg56
(lp1359
S':'
asbag49
(g70
g51
NtRp1360
(dp1361
g54
(dp1362
sg63
g1347
sg56
(lp1363
g49
(g50
g51
NtRp1364
(dp1365
g54
(dp1366
g62
I4
ssg63
g1360
sg56
(lp1367
S'POST'
p1368
asbasbasbag49
(g65
g51
NtRp1369
(dp1370
g54
(dp1371
sg63
g753
sg56
(lp1372
g49
(g70
g51
NtRp1373
(dp1374
g54
(dp1375
g74
g75
ssg63
g1369
sg56
(lp1376
S'script_name'
p1377
asbag49
(g70
g51
NtRp1378
(dp1379
g54
(dp1380
g81
g82
ssg63
g1369
sg56
(lp1381
S':'
asbag49
(g70
g51
NtRp1382
(dp1383
g54
(dp1384
sg63
g1369
sg56
(lp1385
g49
(g50
g51
NtRp1386
(dp1387
g54
(dp1388
g62
I4
ssg63
g1382
sg56
(lp1389
S''
asbasbasbag49
(g65
g51
NtRp1390
(dp1391
g54
(dp1392
sg63
g753
sg56
(lp1393
g49
(g70
g51
NtRp1394
(dp1395
g54
(dp1396
g74
g75
ssg63
g1390
sg56
(lp1397
S'server_name'
p1398
asbag49
(g70
g51
NtRp1399
(dp1400
g54
(dp1401
g81
g82
ssg63
g1390
sg56
(lp1402
S':'
asbag49
(g70
g51
NtRp1403
(dp1404
g54
(dp1405
sg63
g1390
sg56
(lp1406
g49
(g50
g51
NtRp1407
(dp1408
g54
(dp1409
g62
I4
ssg63
g1403
sg56
(lp1410
S'user-PC'
p1411
asbasbasbag49
(g65
g51
NtRp1412
(dp1413
g54
(dp1414
sg63
g753
sg56
(lp1415
g49
(g70
g51
NtRp1416
(dp1417
g54
(dp1418
g74
g75
ssg63
g1412
sg56
(lp1419
S'server_port'
p1420
asbag49
(g70
g51
NtRp1421
(dp1422
g54
(dp1423
g81
g82
ssg63
g1412
sg56
(lp1424
S':'
asbag49
(g70
g51
NtRp1425
(dp1426
g54
(dp1427
sg63
g1412
sg56
(lp1428
g49
(g50
g51
NtRp1429
(dp1430
g54
(dp1431
g62
I4
ssg63
g1425
sg56
(lp1432
S'8000'
p1433
asbasbasbag49
(g65
g51
NtRp1434
(dp1435
g54
(dp1436
sg63
g753
sg56
(lp1437
g49
(g70
g51
NtRp1438
(dp1439
g54
(dp1440
g74
g75
ssg63
g1434
sg56
(lp1441
S'server_protocol'
p1442
asbag49
(g70
g51
NtRp1443
(dp1444
g54
(dp1445
g81
g82
ssg63
g1434
sg56
(lp1446
S':'
asbag49
(g70
g51
NtRp1447
(dp1448
g54
(dp1449
sg63
g1434
sg56
(lp1450
g49
(g50
g51
NtRp1451
(dp1452
g54
(dp1453
g62
I4
ssg63
g1447
sg56
(lp1454
S'HTTP/1.1'
p1455
asbasbasbag49
(g65
g51
NtRp1456
(dp1457
g54
(dp1458
sg63
g753
sg56
(lp1459
g49
(g70
g51
NtRp1460
(dp1461
g54
(dp1462
g74
g75
ssg63
g1456
sg56
(lp1463
S'server_software'
p1464
asbag49
(g70
g51
NtRp1465
(dp1466
g54
(dp1467
g81
g82
ssg63
g1456
sg56
(lp1468
S':'
asbag49
(g70
g51
NtRp1469
(dp1470
g54
(dp1471
sg63
g1456
sg56
(lp1472
g49
(g50
g51
NtRp1473
(dp1474
g54
(dp1475
g62
I4
ssg63
g1469
sg56
(lp1476
S'Rocket 1.2.4'
p1477
asbasbasbag49
(g65
g51
NtRp1478
(dp1479
g54
(dp1480
sg63
g753
sg56
(lp1481
g49
(g70
g51
NtRp1482
(dp1483
g54
(dp1484
g74
g75
ssg63
g1478
sg56
(lp1485
S'web2py_crontype'
p1486
asbag49
(g70
g51
NtRp1487
(dp1488
g54
(dp1489
g81
g82
ssg63
g1478
sg56
(lp1490
S':'
asbag49
(g70
g51
NtRp1491
(dp1492
g54
(dp1493
sg63
g1478
sg56
(lp1494
g49
(g50
g51
NtRp1495
(dp1496
g54
(dp1497
g62
I4
ssg63
g1491
sg56
(lp1498
S'hard'
p1499
asbasbasbag49
(g65
g51
NtRp1500
(dp1501
g54
(dp1502
sg63
g753
sg56
(lp1503
g49
(g70
g51
NtRp1504
(dp1505
g54
(dp1506
g74
g75
ssg63
g1500
sg56
(lp1507
S'web2py_path'
p1508
asbag49
(g70
g51
NtRp1509
(dp1510
g54
(dp1511
g81
g82
ssg63
g1500
sg56
(lp1512
S':'
asbag49
(g70
g51
NtRp1513
(dp1514
g54
(dp1515
sg63
g1500
sg56
(lp1516
g49
(g50
g51
NtRp1517
(dp1518
g54
(dp1519
g62
I4
ssg63
g1513
sg56
(lp1520
g800
asbasbasbag49
(g65
g51
NtRp1521
(dp1522
g54
(dp1523
sg63
g753
sg56
(lp1524
g49
(g70
g51
NtRp1525
(dp1526
g54
(dp1527
g74
g75
ssg63
g1521
sg56
(lp1528
S'web2py_version'
p1529
asbag49
(g70
g51
NtRp1530
(dp1531
g54
(dp1532
g81
g82
ssg63
g1521
sg56
(lp1533
S':'
asbag49
(g70
g51
NtRp1534
(dp1535
g54
(dp1536
sg63
g1521
sg56
(lp1537
g49
(g50
g51
NtRp1538
(dp1539
g54
(dp1540
g62
I4
ssg63
g1534
sg56
(lp1541
g49
(g58
g51
NtRp1542
(dp1543
g54
(dp1544
g62
I3
ssg63
Nsg56
(lp1545
g49
(g65
g51
NtRp1546
(dp1547
g54
(dp1548
sg63
g1542
sg56
(lp1549
g49
(g70
g51
NtRp1550
(dp1551
g54
(dp1552
sg63
g1546
sg56
(lp1553
g49
(g50
g51
NtRp1554
(dp1555
g54
(dp1556
g62
I3
ssg63
g1550
sg56
(lp1557
S'1'
asbasbasbag49
(g65
g51
NtRp1558
(dp1559
g54
(dp1560
sg63
g1542
sg56
(lp1561
g49
(g70
g51
NtRp1562
(dp1563
g54
(dp1564
sg63
g1558
sg56
(lp1565
g49
(g50
g51
NtRp1566
(dp1567
g54
(dp1568
g62
I3
ssg63
g1562
sg56
(lp1569
S'99'
p1570
asbasbasbag49
(g65
g51
NtRp1571
(dp1572
g54
(dp1573
sg63
g1542
sg56
(lp1574
g49
(g70
g51
NtRp1575
(dp1576
g54
(dp1577
sg63
g1571
sg56
(lp1578
g49
(g50
g51
NtRp1579
(dp1580
g54
(dp1581
g62
I3
ssg63
g1575
sg56
(lp1582
S'7'
asbasbasbag49
(g65
g51
NtRp1583
(dp1584
g54
(dp1585
sg63
g1542
sg56
(lp1586
g49
(g70
g51
NtRp1587
(dp1588
g54
(dp1589
sg63
g1583
sg56
(lp1590
g49
(g50
g51
NtRp1591
(dp1592
g54
(dp1593
g62
I3
ssg63
g1587
sg56
(lp1594
S'datetime.datetime(2012, 3, 4, 22, 12, 8)'
p1595
asbasbasbag49
(g65
g51
NtRp1596
(dp1597
g54
(dp1598
sg63
g1542
sg56
(lp1599
g49
(g70
g51
NtRp1600
(dp1601
g54
(dp1602
sg63
g1596
sg56
(lp1603
g49
(g50
g51
NtRp1604
(dp1605
g54
(dp1606
g62
I3
ssg63
g1600
sg56
(lp1607
S'stable'
p1608
asbasbasbasbasbasbasbag49
(g65
g51
NtRp1609
(dp1610
g54
(dp1611
sg63
g753
sg56
(lp1612
g49
(g70
g51
NtRp1613
(dp1614
g54
(dp1615
g74
g75
ssg63
g1609
sg56
(lp1616
S'wsgi_errors'
p1617
asbag49
(g70
g51
NtRp1618
(dp1619
g54
(dp1620
g81
g82
ssg63
g1609
sg56
(lp1621
S':'
asbag49
(g70
g51
NtRp1622
(dp1623
g54
(dp1624
sg63
g1609
sg56
(lp1625
g49
(g50
g51
NtRp1626
(dp1627
g54
(dp1628
g62
I4
ssg63
g1622
sg56
(lp1629
S"<open file '<stderr>', mode 'w' at 0x002D00B0>"
p1630
asbasbasbag49
(g65
g51
NtRp1631
(dp1632
g54
(dp1633
sg63
g753
sg56
(lp1634
g49
(g70
g51
NtRp1635
(dp1636
g54
(dp1637
g74
g75
ssg63
g1631
sg56
(lp1638
S'wsgi_file_wrapper'
p1639
asbag49
(g70
g51
NtRp1640
(dp1641
g54
(dp1642
g81
g82
ssg63
g1631
sg56
(lp1643
S':'
asbag49
(g70
g51
NtRp1644
(dp1645
g54
(dp1646
sg63
g1631
sg56
(lp1647
g49
(g50
g51
NtRp1648
(dp1649
g54
(dp1650
g62
I4
ssg63
g1644
sg56
(lp1651
S'<class wsgiref.util.FileWrapper at 0x02E32E40>'
p1652
asbasbasbag49
(g65
g51
NtRp1653
(dp1654
g54
(dp1655
sg63
g753
sg56
(lp1656
g49
(g70
g51
NtRp1657
(dp1658
g54
(dp1659
g74
g75
ssg63
g1653
sg56
(lp1660
S'wsgi_input'
p1661
asbag49
(g70
g51
NtRp1662
(dp1663
g54
(dp1664
g81
g82
ssg63
g1653
sg56
(lp1665
S':'
asbag49
(g70
g51
NtRp1666
(dp1667
g54
(dp1668
sg63
g1653
sg56
(lp1669
g49
(g50
g51
NtRp1670
(dp1671
g54
(dp1672
g62
I4
ssg63
g1666
sg56
(lp1673
S'<socket._fileobject object at 0x03254FB0>'
p1674
asbasbasbag49
(g65
g51
NtRp1675
(dp1676
g54
(dp1677
sg63
g753
sg56
(lp1678
g49
(g70
g51
NtRp1679
(dp1680
g54
(dp1681
g74
g75
ssg63
g1675
sg56
(lp1682
S'wsgi_multiprocess'
p1683
asbag49
(g70
g51
NtRp1684
(dp1685
g54
(dp1686
g81
g82
ssg63
g1675
sg56
(lp1687
S':'
asbag49
(g70
g51
NtRp1688
(dp1689
g54
(dp1690
sg63
g1675
sg56
(lp1691
g49
(g50
g51
NtRp1692
(dp1693
g54
(dp1694
g62
I4
ssg63
g1688
sg56
(lp1695
g912
asbasbasbag49
(g65
g51
NtRp1696
(dp1697
g54
(dp1698
sg63
g753
sg56
(lp1699
g49
(g70
g51
NtRp1700
(dp1701
g54
(dp1702
g74
g75
ssg63
g1696
sg56
(lp1703
S'wsgi_multithread'
p1704
asbag49
(g70
g51
NtRp1705
(dp1706
g54
(dp1707
g81
g82
ssg63
g1696
sg56
(lp1708
S':'
asbag49
(g70
g51
NtRp1709
(dp1710
g54
(dp1711
sg63
g1696
sg56
(lp1712
g49
(g50
g51
NtRp1713
(dp1714
g54
(dp1715
g62
I4
ssg63
g1709
sg56
(lp1716
g92
asbasbasbag49
(g65
g51
NtRp1717
(dp1718
g54
(dp1719
sg63
g753
sg56
(lp1720
g49
(g70
g51
NtRp1721
(dp1722
g54
(dp1723
g74
g75
ssg63
g1717
sg56
(lp1724
S'wsgi_run_once'
p1725
asbag49
(g70
g51
NtRp1726
(dp1727
g54
(dp1728
g81
g82
ssg63
g1717
sg56
(lp1729
S':'
asbag49
(g70
g51
NtRp1730
(dp1731
g54
(dp1732
sg63
g1717
sg56
(lp1733
g49
(g50
g51
NtRp1734
(dp1735
g54
(dp1736
g62
I4
ssg63
g1730
sg56
(lp1737
g912
asbasbasbag49
(g65
g51
NtRp1738
(dp1739
g54
(dp1740
sg63
g753
sg56
(lp1741
g49
(g70
g51
NtRp1742
(dp1743
g54
(dp1744
g74
g75
ssg63
g1738
sg56
(lp1745
S'wsgi_url_scheme'
p1746
asbag49
(g70
g51
NtRp1747
(dp1748
g54
(dp1749
g81
g82
ssg63
g1738
sg56
(lp1750
S':'
asbag49
(g70
g51
NtRp1751
(dp1752
g54
(dp1753
sg63
g1738
sg56
(lp1754
g49
(g50
g51
NtRp1755
(dp1756
g54
(dp1757
g62
I4
ssg63
g1751
sg56
(lp1758
S'http'
p1759
asbasbasbag49
(g65
g51
NtRp1760
(dp1761
g54
(dp1762
sg63
g753
sg56
(lp1763
g49
(g70
g51
NtRp1764
(dp1765
g54
(dp1766
g74
g75
ssg63
g1760
sg56
(lp1767
S'wsgi_version'
p1768
asbag49
(g70
g51
NtRp1769
(dp1770
g54
(dp1771
g81
g82
ssg63
g1760
sg56
(lp1772
S':'
asbag49
(g70
g51
NtRp1773
(dp1774
g54
(dp1775
sg63
g1760
sg56
(lp1776
g49
(g50
g51
NtRp1777
(dp1778
g54
(dp1779
g62
I4
ssg63
g1773
sg56
(lp1780
g49
(g58
g51
NtRp1781
(dp1782
g54
(dp1783
g62
I3
ssg63
Nsg56
(lp1784
g49
(g65
g51
NtRp1785
(dp1786
g54
(dp1787
sg63
g1781
sg56
(lp1788
g49
(g70
g51
NtRp1789
(dp1790
g54
(dp1791
sg63
g1785
sg56
(lp1792
g49
(g50
g51
NtRp1793
(dp1794
g54
(dp1795
g62
I3
ssg63
g1789
sg56
(lp1796
S'1'
asbasbasbag49
(g65
g51
NtRp1797
(dp1798
g54
(dp1799
sg63
g1781
sg56
(lp1800
g49
(g70
g51
NtRp1801
(dp1802
g54
(dp1803
sg63
g1797
sg56
(lp1804
g49
(g50
g51
NtRp1805
(dp1806
g54
(dp1807
g62
I3
ssg63
g1801
sg56
(lp1808
S'0'
asbasbasbasbasbasbasbasbasbasbasbag49
(g65
g51
NtRp1809
(dp1810
g54
(dp1811
sg63
g59
sg56
(lp1812
g49
(g70
g51
NtRp1813
(dp1814
g54
(dp1815
g74
g75
ssg63
g1809
sg56
(lp1816
S'extension'
p1817
asbag49
(g70
g51
NtRp1818
(dp1819
g54
(dp1820
g81
g82
ssg63
g1809
sg56
(lp1821
S':'
asbag49
(g70
g51
NtRp1822
(dp1823
g54
(dp1824
sg63
g1809
sg56
(lp1825
g49
(g50
g51
NtRp1826
(dp1827
g54
(dp1828
g62
I5
ssg63
g1822
sg56
(lp1829
S'html'
p1830
asbasbasbag49
(g65
g51
NtRp1831
(dp1832
g54
(dp1833
sg63
g59
sg56
(lp1834
g49
(g70
g51
NtRp1835
(dp1836
g54
(dp1837
g74
g75
ssg63
g1831
sg56
(lp1838
S'folder'
p1839
asbag49
(g70
g51
NtRp1840
(dp1841
g54
(dp1842
g81
g82
ssg63
g1831
sg56
(lp1843
S':'
asbag49
(g70
g51
NtRp1844
(dp1845
g54
(dp1846
sg63
g1831
sg56
(lp1847
g49
(g50
g51
NtRp1848
(dp1849
g54
(dp1850
g62
I5
ssg63
g1844
sg56
(lp1851
S'D:\\web2py\\applications\\admin\\'
p1852
asbasbasbag49
(g65
g51
NtRp1853
(dp1854
g54
(dp1855
sg63
g59
sg56
(lp1856
g49
(g70
g51
NtRp1857
(dp1858
g54
(dp1859
g74
g75
ssg63
g1853
sg56
(lp1860
S'function'
p1861
asbag49
(g70
g51
NtRp1862
(dp1863
g54
(dp1864
g81
g82
ssg63
g1853
sg56
(lp1865
S':'
asbag49
(g70
g51
NtRp1866
(dp1867
g54
(dp1868
sg63
g1853
sg56
(lp1869
g49
(g50
g51
NtRp1870
(dp1871
g54
(dp1872
g62
I5
ssg63
g1866
sg56
(lp1873
S'check_version'
p1874
asbasbasbag49
(g65
g51
NtRp1875
(dp1876
g54
(dp1877
sg63
g59
sg56
(lp1878
g49
(g70
g51
NtRp1879
(dp1880
g54
(dp1881
g74
g75
ssg63
g1875
sg56
(lp1882
S'get_vars'
p1883
asbag49
(g70
g51
NtRp1884
(dp1885
g54
(dp1886
g81
g82
ssg63
g1875
sg56
(lp1887
S':'
asbag49
(g70
g51
NtRp1888
(dp1889
g54
(dp1890
sg63
g1875
sg56
(lp1891
g49
(g50
g51
NtRp1892
(dp1893
g54
(dp1894
g62
I5
ssg63
g1888
sg56
(lp1895
g49
(g58
g51
NtRp1896
(dp1897
g54
(dp1898
g62
I4
ssg63
Nsg56
(lp1899
sbasbasbasbag49
(g65
g51
NtRp1900
(dp1901
g54
(dp1902
sg63
g59
sg56
(lp1903
g49
(g70
g51
NtRp1904
(dp1905
g54
(dp1906
g74
g75
ssg63
g1900
sg56
(lp1907
S'global_settings'
p1908
asbag49
(g70
g51
NtRp1909
(dp1910
g54
(dp1911
g81
g82
ssg63
g1900
sg56
(lp1912
S':'
asbag49
(g70
g51
NtRp1913
(dp1914
g54
(dp1915
sg63
g1900
sg56
(lp1916
g49
(g50
g51
NtRp1917
(dp1918
g54
(dp1919
g62
I5
ssg63
g1913
sg56
(lp1920
g49
(g58
g51
NtRp1921
(dp1922
g54
(dp1923
g62
I4
ssg63
Nsg56
(lp1924
g49
(g65
g51
NtRp1925
(dp1926
g54
(dp1927
sg63
g1921
sg56
(lp1928
g49
(g70
g51
NtRp1929
(dp1930
g54
(dp1931
g74
g75
ssg63
g1925
sg56
(lp1932
g765
asbag49
(g70
g51
NtRp1933
(dp1934
g54
(dp1935
g81
g82
ssg63
g1925
sg56
(lp1936
S':'
asbag49
(g70
g51
NtRp1937
(dp1938
g54
(dp1939
sg63
g1925
sg56
(lp1940
g49
(g50
g51
NtRp1941
(dp1942
g54
(dp1943
g62
I4
ssg63
g1937
sg56
(lp1944
S"set(['D:\\\\web2py\\\\applications\\\\pro\\\\', 'D:\\\\web2py\\\\applications\\\\admin\\\\', 'D:\\\\web2py\\\\applications\\\\welcome\\\\'])"
p1945
asbasbasbag49
(g65
g51
NtRp1946
(dp1947
g54
(dp1948
sg63
g1921
sg56
(lp1949
g49
(g70
g51
NtRp1950
(dp1951
g54
(dp1952
g74
g75
ssg63
g1946
sg56
(lp1953
g787
asbag49
(g70
g51
NtRp1954
(dp1955
g54
(dp1956
g81
g82
ssg63
g1946
sg56
(lp1957
S':'
asbag49
(g70
g51
NtRp1958
(dp1959
g54
(dp1960
sg63
g1946
sg56
(lp1961
g49
(g50
g51
NtRp1962
(dp1963
g54
(dp1964
g62
I4
ssg63
g1958
sg56
(lp1965
g800
asbasbasbag49
(g65
g51
NtRp1966
(dp1967
g54
(dp1968
sg63
g1921
sg56
(lp1969
g49
(g70
g51
NtRp1970
(dp1971
g54
(dp1972
g74
g75
ssg63
g1966
sg56
(lp1973
g809
asbag49
(g70
g51
NtRp1974
(dp1975
g54
(dp1976
g81
g82
ssg63
g1966
sg56
(lp1977
S':'
asbag49
(g70
g51
NtRp1978
(dp1979
g54
(dp1980
sg63
g1966
sg56
(lp1981
g49
(g50
g51
NtRp1982
(dp1983
g54
(dp1984
g62
I4
ssg63
g1978
sg56
(lp1985
g49
(g58
g51
NtRp1986
(dp1987
g54
(dp1988
g62
I3
ssg63
Nsg56
(lp1989
sbasbasbasbag49
(g65
g51
NtRp1990
(dp1991
g54
(dp1992
sg63
g1921
sg56
(lp1993
g49
(g70
g51
NtRp1994
(dp1995
g54
(dp1996
g74
g75
ssg63
g1990
sg56
(lp1997
g834
asbag49
(g70
g51
NtRp1998
(dp1999
g54
(dp2000
g81
g82
ssg63
g1990
sg56
(lp2001
S':'
asbag49
(g70
g51
NtRp2002
(dp2003
g54
(dp2004
sg63
g1990
sg56
(lp2005
g49
(g50
g51
NtRp2006
(dp2007
g54
(dp2008
g62
I4
ssg63
g2002
sg56
(lp2009
S"<Values at 0x3093fa8: {'verbose': False, 'ip': '127.0.0.1', 'shutdown_timeout': 5, 'taskbar': False, 'nocron': False, 'pid_filename': 'httpserver.pid', 'maxthreads': None, 'softcron': False, 'server_name': 'user-PC', 'bpython': False, 'nogui': False, 'port': 8000, 'extcron': False, 'debuglevel': 30, 'test': None, 'folder': 'D:\\\\web2py', 'config': '', 'import_models': False, 'winservice': '', 'shell': None, 'run': '', 'log_filename': 'httpserver.log', 'args': [''], 'socket_timeout': 5, 'ssl_ca_certificate': None, 'scheduler': None, 'profiler_filename': None, 'ssl_private_key': '', 'password': '<ask>', 'request_queue_size': 5, 'ssl_certificate': '', 'cronjob': False, 'numthreads': None, 'quiet': False, 'interfaces': None, 'minthreads': None, 'timeout': 10, 'plain': False, 'nobanner': False}>"
p2010
asbasbasbag49
(g65
g51
NtRp2011
(dp2012
g54
(dp2013
sg63
g1921
sg56
(lp2014
g49
(g70
g51
NtRp2015
(dp2016
g54
(dp2017
g74
g75
ssg63
g2011
sg56
(lp2018
g877
asbag49
(g70
g51
NtRp2019
(dp2020
g54
(dp2021
g81
g82
ssg63
g2011
sg56
(lp2022
S':'
asbag49
(g70
g51
NtRp2023
(dp2024
g54
(dp2025
sg63
g2011
sg56
(lp2026
g49
(g50
g51
NtRp2027
(dp2028
g54
(dp2029
g62
I4
ssg63
g2023
sg56
(lp2030
S'set([])'
p2031
asbasbasbag49
(g65
g51
NtRp2032
(dp2033
g54
(dp2034
sg63
g1921
sg56
(lp2035
g49
(g70
g51
NtRp2036
(dp2037
g54
(dp2038
g74
g75
ssg63
g2032
sg56
(lp2039
g899
asbag49
(g70
g51
NtRp2040
(dp2041
g54
(dp2042
g81
g82
ssg63
g2032
sg56
(lp2043
S':'
asbag49
(g70
g51
NtRp2044
(dp2045
g54
(dp2046
sg63
g2032
sg56
(lp2047
g49
(g50
g51
NtRp2048
(dp2049
g54
(dp2050
g62
I4
ssg63
g2044
sg56
(lp2051
g912
asbasbasbag49
(g65
g51
NtRp2052
(dp2053
g54
(dp2054
sg63
g1921
sg56
(lp2055
g49
(g70
g51
NtRp2056
(dp2057
g54
(dp2058
g74
g75
ssg63
g2052
sg56
(lp2059
g921
asbag49
(g70
g51
NtRp2060
(dp2061
g54
(dp2062
g81
g82
ssg63
g2052
sg56
(lp2063
S':'
asbag49
(g70
g51
NtRp2064
(dp2065
g54
(dp2066
sg63
g2052
sg56
(lp2067
g49
(g50
g51
NtRp2068
(dp2069
g54
(dp2070
g62
I4
ssg63
g2064
sg56
(lp2071
g934
asbasbasbag49
(g65
g51
NtRp2072
(dp2073
g54
(dp2074
sg63
g1921
sg56
(lp2075
g49
(g70
g51
NtRp2076
(dp2077
g54
(dp2078
g74
g75
ssg63
g2072
sg56
(lp2079
g1227
asbag49
(g70
g51
NtRp2080
(dp2081
g54
(dp2082
g81
g82
ssg63
g2072
sg56
(lp2083
S':'
asbag49
(g70
g51
NtRp2084
(dp2085
g54
(dp2086
sg63
g2072
sg56
(lp2087
g49
(g50
g51
NtRp2088
(dp2089
g54
(dp2090
g62
I4
ssg63
g2084
sg56
(lp2091
g912
asbasbasbag49
(g65
g51
NtRp2092
(dp2093
g54
(dp2094
sg63
g1921
sg56
(lp2095
g49
(g70
g51
NtRp2096
(dp2097
g54
(dp2098
g74
g75
ssg63
g2092
sg56
(lp2099
g1248
asbag49
(g70
g51
NtRp2100
(dp2101
g54
(dp2102
g81
g82
ssg63
g2092
sg56
(lp2103
S':'
asbag49
(g70
g51
NtRp2104
(dp2105
g54
(dp2106
sg63
g2092
sg56
(lp2107
g49
(g50
g51
NtRp2108
(dp2109
g54
(dp2110
g62
I4
ssg63
g2104
sg56
(lp2111
g912
asbasbasbag49
(g65
g51
NtRp2112
(dp2113
g54
(dp2114
sg63
g1921
sg56
(lp2115
g49
(g70
g51
NtRp2116
(dp2117
g54
(dp2118
g74
g75
ssg63
g2112
sg56
(lp2119
g1486
asbag49
(g70
g51
NtRp2120
(dp2121
g54
(dp2122
g81
g82
ssg63
g2112
sg56
(lp2123
S':'
asbag49
(g70
g51
NtRp2124
(dp2125
g54
(dp2126
sg63
g2112
sg56
(lp2127
g49
(g50
g51
NtRp2128
(dp2129
g54
(dp2130
g62
I4
ssg63
g2124
sg56
(lp2131
g1499
asbasbasbag49
(g65
g51
NtRp2132
(dp2133
g54
(dp2134
sg63
g1921
sg56
(lp2135
g49
(g70
g51
NtRp2136
(dp2137
g54
(dp2138
g74
g75
ssg63
g2132
sg56
(lp2139
g1529
asbag49
(g70
g51
NtRp2140
(dp2141
g54
(dp2142
g81
g82
ssg63
g2132
sg56
(lp2143
S':'
asbag49
(g70
g51
NtRp2144
(dp2145
g54
(dp2146
sg63
g2132
sg56
(lp2147
g49
(g50
g51
NtRp2148
(dp2149
g54
(dp2150
g62
I4
ssg63
g2144
sg56
(lp2151
g49
(g58
g51
NtRp2152
(dp2153
g54
(dp2154
g62
I3
ssg63
Nsg56
(lp2155
g49
(g65
g51
NtRp2156
(dp2157
g54
(dp2158
sg63
g2152
sg56
(lp2159
g49
(g70
g51
NtRp2160
(dp2161
g54
(dp2162
sg63
g2156
sg56
(lp2163
g49
(g50
g51
NtRp2164
(dp2165
g54
(dp2166
g62
I3
ssg63
g2160
sg56
(lp2167
S'1'
asbasbasbag49
(g65
g51
NtRp2168
(dp2169
g54
(dp2170
sg63
g2152
sg56
(lp2171
g49
(g70
g51
NtRp2172
(dp2173
g54
(dp2174
sg63
g2168
sg56
(lp2175
g49
(g50
g51
NtRp2176
(dp2177
g54
(dp2178
g62
I3
ssg63
g2172
sg56
(lp2179
S'99'
p2180
asbasbasbag49
(g65
g51
NtRp2181
(dp2182
g54
(dp2183
sg63
g2152
sg56
(lp2184
g49
(g70
g51
NtRp2185
(dp2186
g54
(dp2187
sg63
g2181
sg56
(lp2188
g49
(g50
g51
NtRp2189
(dp2190
g54
(dp2191
g62
I3
ssg63
g2185
sg56
(lp2192
S'7'
asbasbasbag49
(g65
g51
NtRp2193
(dp2194
g54
(dp2195
sg63
g2152
sg56
(lp2196
g49
(g70
g51
NtRp2197
(dp2198
g54
(dp2199
sg63
g2193
sg56
(lp2200
g49
(g50
g51
NtRp2201
(dp2202
g54
(dp2203
g62
I3
ssg63
g2197
sg56
(lp2204
S'datetime.datetime(2012, 3, 4, 22, 12, 8)'
p2205
asbasbasbag49
(g65
g51
NtRp2206
(dp2207
g54
(dp2208
sg63
g2152
sg56
(lp2209
g49
(g70
g51
NtRp2210
(dp2211
g54
(dp2212
sg63
g2206
sg56
(lp2213
g49
(g50
g51
NtRp2214
(dp2215
g54
(dp2216
g62
I3
ssg63
g2210
sg56
(lp2217
g1608
asbasbasbasbasbasbasbasbasbasbasbag49
(g65
g51
NtRp2218
(dp2219
g54
(dp2220
sg63
g59
sg56
(lp2221
g49
(g70
g51
NtRp2222
(dp2223
g54
(dp2224
g74
g75
ssg63
g2218
sg56
(lp2225
S'is_https'
p2226
asbag49
(g70
g51
NtRp2227
(dp2228
g54
(dp2229
g81
g82
ssg63
g2218
sg56
(lp2230
S':'
asbag49
(g70
g51
NtRp2231
(dp2232
g54
(dp2233
sg63
g2218
sg56
(lp2234
g49
(g50
g51
NtRp2235
(dp2236
g54
(dp2237
g62
I5
ssg63
g2231
sg56
(lp2238
g912
asbasbasbag49
(g65
g51
NtRp2239
(dp2240
g54
(dp2241
sg63
g59
sg56
(lp2242
g49
(g70
g51
NtRp2243
(dp2244
g54
(dp2245
g74
g75
ssg63
g2239
sg56
(lp2246
S'is_local'
p2247
asbag49
(g70
g51
NtRp2248
(dp2249
g54
(dp2250
g81
g82
ssg63
g2239
sg56
(lp2251
S':'
asbag49
(g70
g51
NtRp2252
(dp2253
g54
(dp2254
sg63
g2239
sg56
(lp2255
g49
(g50
g51
NtRp2256
(dp2257
g54
(dp2258
g62
I5
ssg63
g2252
sg56
(lp2259
g92
asbasbasbag49
(g65
g51
NtRp2260
(dp2261
g54
(dp2262
sg63
g59
sg56
(lp2263
g49
(g70
g51
NtRp2264
(dp2265
g54
(dp2266
g74
g75
ssg63
g2260
sg56
(lp2267
S'is_restful'
p2268
asbag49
(g70
g51
NtRp2269
(dp2270
g54
(dp2271
g81
g82
ssg63
g2260
sg56
(lp2272
S':'
asbag49
(g70
g51
NtRp2273
(dp2274
g54
(dp2275
sg63
g2260
sg56
(lp2276
g49
(g50
g51
NtRp2277
(dp2278
g54
(dp2279
g62
I5
ssg63
g2273
sg56
(lp2280
g912
asbasbasbag49
(g65
g51
NtRp2281
(dp2282
g54
(dp2283
sg63
g59
sg56
(lp2284
g49
(g70
g51
NtRp2285
(dp2286
g54
(dp2287
g74
g75
ssg63
g2281
sg56
(lp2288
S'now'
p2289
asbag49
(g70
g51
NtRp2290
(dp2291
g54
(dp2292
g81
g82
ssg63
g2281
sg56
(lp2293
S':'
asbag49
(g70
g51
NtRp2294
(dp2295
g54
(dp2296
sg63
g2281
sg56
(lp2297
g49
(g50
g51
NtRp2298
(dp2299
g54
(dp2300
g62
I5
ssg63
g2294
sg56
(lp2301
S'datetime.datetime(2012, 11, 14, 16, 42, 6, 305000)'
p2302
asbasbasbag49
(g65
g51
NtRp2303
(dp2304
g54
(dp2305
sg63
g59
sg56
(lp2306
g49
(g70
g51
NtRp2307
(dp2308
g54
(dp2309
g74
g75
ssg63
g2303
sg56
(lp2310
S'post_vars'
p2311
asbag49
(g70
g51
NtRp2312
(dp2313
g54
(dp2314
g81
g82
ssg63
g2303
sg56
(lp2315
S':'
asbag49
(g70
g51
NtRp2316
(dp2317
g54
(dp2318
sg63
g2303
sg56
(lp2319
g49
(g50
g51
NtRp2320
(dp2321
g54
(dp2322
g62
I5
ssg63
g2316
sg56
(lp2323
g49
(g58
g51
NtRp2324
(dp2325
g54
(dp2326
g62
I4
ssg63
Nsg56
(lp2327
sbasbasbasbag49
(g65
g51
NtRp2328
(dp2329
g54
(dp2330
sg63
g59
sg56
(lp2331
g49
(g70
g51
NtRp2332
(dp2333
g54
(dp2334
g74
g75
ssg63
g2328
sg56
(lp2335
S'url'
p2336
asbag49
(g70
g51
NtRp2337
(dp2338
g54
(dp2339
g81
g82
ssg63
g2328
sg56
(lp2340
S':'
asbag49
(g70
g51
NtRp2341
(dp2342
g54
(dp2343
sg63
g2328
sg56
(lp2344
g49
(g50
g51
NtRp2345
(dp2346
g54
(dp2347
g62
I5
ssg63
g2341
sg56
(lp2348
S'/admin/default/check_version'
p2349
asbasbasbag49
(g65
g51
NtRp2350
(dp2351
g54
(dp2352
sg63
g59
sg56
(lp2353
g49
(g70
g51
NtRp2354
(dp2355
g54
(dp2356
g74
g75
ssg63
g2350
sg56
(lp2357
S'utcnow'
p2358
asbag49
(g70
g51
NtRp2359
(dp2360
g54
(dp2361
g81
g82
ssg63
g2350
sg56
(lp2362
S':'
asbag49
(g70
g51
NtRp2363
(dp2364
g54
(dp2365
sg63
g2350
sg56
(lp2366
g49
(g50
g51
NtRp2367
(dp2368
g54
(dp2369
g62
I5
ssg63
g2363
sg56
(lp2370
S'datetime.datetime(2012, 11, 14, 11, 12, 6, 305000)'
p2371
asbasbasbag49
(g65
g51
NtRp2372
(dp2373
g54
(dp2374
sg63
g59
sg56
(lp2375
g49
(g70
g51
NtRp2376
(dp2377
g54
(dp2378
g74
g75
ssg63
g2372
sg56
(lp2379
S'uuid'
p2380
asbag49
(g70
g51
NtRp2381
(dp2382
g54
(dp2383
g81
g82
ssg63
g2372
sg56
(lp2384
S':'
asbag49
(g70
g51
NtRp2385
(dp2386
g54
(dp2387
sg63
g2372
sg56
(lp2388
g49
(g50
g51
NtRp2389
(dp2390
g54
(dp2391
g62
I5
ssg63
g2385
sg56
(lp2392
S'admin/127.0.0.1.2012-11-14.16-42-06.3c2d9a4b-d455-4fc4-9926-f0de27e3c8bf'
p2393
asbasbasbag49
(g65
g51
NtRp2394
(dp2395
g54
(dp2396
sg63
g59
sg56
(lp2397
g49
(g70
g51
NtRp2398
(dp2399
g54
(dp2400
g74
g75
ssg63
g2394
sg56
(lp2401
S'vars'
p2402
asbag49
(g70
g51
NtRp2403
(dp2404
g54
(dp2405
g81
g82
ssg63
g2394
sg56
(lp2406
S':'
asbag49
(g70
g51
NtRp2407
(dp2408
g54
(dp2409
sg63
g2394
sg56
(lp2410
g49
(g50
g51
NtRp2411
(dp2412
g54
(dp2413
g62
I5
ssg63
g2407
sg56
(lp2414
g49
(g58
g51
NtRp2415
(dp2416
g54
(dp2417
g62
I4
ssg63
Nsg56
(lp2418
sbasbasbasbag49
(g65
g51
NtRp2419
(dp2420
g54
(dp2421
sg63
g59
sg56
(lp2422
g49
(g70
g51
NtRp2423
(dp2424
g54
(dp2425
g74
g75
ssg63
g2419
sg56
(lp2426
S'wsgi'
p2427
asbag49
(g70
g51
NtRp2428
(dp2429
g54
(dp2430
g81
g82
ssg63
g2419
sg56
(lp2431
S':'
asbag49
(g70
g51
NtRp2432
(dp2433
g54
(dp2434
sg63
g2419
sg56
(lp2435
g49
(g50
g51
NtRp2436
(dp2437
g54
(dp2438
g62
I5
ssg63
g2432
sg56
(lp2439
g49
(g58
g51
NtRp2440
(dp2441
g54
(dp2442
g62
I4
ssg63
Nsg56
(lp2443
g49
(g65
g51
NtRp2444
(dp2445
g54
(dp2446
sg63
g2440
sg56
(lp2447
g49
(g70
g51
NtRp2448
(dp2449
g54
(dp2450
g74
g75
ssg63
g2444
sg56
(lp2451
S'environ'
p2452
asbag49
(g70
g51
NtRp2453
(dp2454
g54
(dp2455
g81
g82
ssg63
g2444
sg56
(lp2456
S':'
asbag49
(g70
g51
NtRp2457
(dp2458
g54
(dp2459
sg63
g2444
sg56
(lp2460
g49
(g50
g51
NtRp2461
(dp2462
g54
(dp2463
g62
I4
ssg63
g2457
sg56
(lp2464
g49
(g58
g51
NtRp2465
(dp2466
g54
(dp2467
g62
I3
ssg63
Nsg56
(lp2468
g49
(g65
g51
NtRp2469
(dp2470
g54
(dp2471
sg63
g2465
sg56
(lp2472
g49
(g70
g51
NtRp2473
(dp2474
g54
(dp2475
g74
g75
ssg63
g2469
sg56
(lp2476
S'CONTENT_LENGTH'
p2477
asbag49
(g70
g51
NtRp2478
(dp2479
g54
(dp2480
g81
g82
ssg63
g2469
sg56
(lp2481
S':'
asbag49
(g70
g51
NtRp2482
(dp2483
g54
(dp2484
sg63
g2469
sg56
(lp2485
g49
(g50
g51
NtRp2486
(dp2487
g54
(dp2488
g62
I3
ssg63
g2482
sg56
(lp2489
S'0'
asbasbasbag49
(g65
g51
NtRp2490
(dp2491
g54
(dp2492
sg63
g2465
sg56
(lp2493
g49
(g70
g51
NtRp2494
(dp2495
g54
(dp2496
g74
g75
ssg63
g2490
sg56
(lp2497
S'HTTP_ACCEPT'
p2498
asbag49
(g70
g51
NtRp2499
(dp2500
g54
(dp2501
g81
g82
ssg63
g2490
sg56
(lp2502
S':'
asbag49
(g70
g51
NtRp2503
(dp2504
g54
(dp2505
sg63
g2490
sg56
(lp2506
g49
(g50
g51
NtRp2507
(dp2508
g54
(dp2509
g62
I3
ssg63
g2503
sg56
(lp2510
g956
asbasbasbag49
(g65
g51
NtRp2511
(dp2512
g54
(dp2513
sg63
g2465
sg56
(lp2514
g49
(g70
g51
NtRp2515
(dp2516
g54
(dp2517
g74
g75
ssg63
g2511
sg56
(lp2518
S'HTTP_ACCEPT_ENCODING'
p2519
asbag49
(g70
g51
NtRp2520
(dp2521
g54
(dp2522
g81
g82
ssg63
g2511
sg56
(lp2523
S':'
asbag49
(g70
g51
NtRp2524
(dp2525
g54
(dp2526
sg63
g2511
sg56
(lp2527
g49
(g50
g51
NtRp2528
(dp2529
g54
(dp2530
g62
I3
ssg63
g2524
sg56
(lp2531
g978
asbasbasbag49
(g65
g51
NtRp2532
(dp2533
g54
(dp2534
sg63
g2465
sg56
(lp2535
g49
(g70
g51
NtRp2536
(dp2537
g54
(dp2538
g74
g75
ssg63
g2532
sg56
(lp2539
S'HTTP_ACCEPT_LANGUAGE'
p2540
asbag49
(g70
g51
NtRp2541
(dp2542
g54
(dp2543
g81
g82
ssg63
g2532
sg56
(lp2544
S':'
asbag49
(g70
g51
NtRp2545
(dp2546
g54
(dp2547
sg63
g2532
sg56
(lp2548
g49
(g50
g51
NtRp2549
(dp2550
g54
(dp2551
g62
I3
ssg63
g2545
sg56
(lp2552
g1000
asbasbasbag49
(g65
g51
NtRp2553
(dp2554
g54
(dp2555
sg63
g2465
sg56
(lp2556
g49
(g70
g51
NtRp2557
(dp2558
g54
(dp2559
g74
g75
ssg63
g2553
sg56
(lp2560
S'HTTP_CACHE_CONTROL'
p2561
asbag49
(g70
g51
NtRp2562
(dp2563
g54
(dp2564
g81
g82
ssg63
g2553
sg56
(lp2565
S':'
asbag49
(g70
g51
NtRp2566
(dp2567
g54
(dp2568
sg63
g2553
sg56
(lp2569
g49
(g50
g51
NtRp2570
(dp2571
g54
(dp2572
g62
I3
ssg63
g2566
sg56
(lp2573
g1022
asbasbasbag49
(g65
g51
NtRp2574
(dp2575
g54
(dp2576
sg63
g2465
sg56
(lp2577
g49
(g70
g51
NtRp2578
(dp2579
g54
(dp2580
g74
g75
ssg63
g2574
sg56
(lp2581
S'HTTP_CONNECTION'
p2582
asbag49
(g70
g51
NtRp2583
(dp2584
g54
(dp2585
g81
g82
ssg63
g2574
sg56
(lp2586
S':'
asbag49
(g70
g51
NtRp2587
(dp2588
g54
(dp2589
sg63
g2574
sg56
(lp2590
g49
(g50
g51
NtRp2591
(dp2592
g54
(dp2593
g62
I3
ssg63
g2587
sg56
(lp2594
g1044
asbasbasbag49
(g65
g51
NtRp2595
(dp2596
g54
(dp2597
sg63
g2465
sg56
(lp2598
g49
(g70
g51
NtRp2599
(dp2600
g54
(dp2601
g74
g75
ssg63
g2595
sg56
(lp2602
S'HTTP_CONTENT_LENGTH'
p2603
asbag49
(g70
g51
NtRp2604
(dp2605
g54
(dp2606
g81
g82
ssg63
g2595
sg56
(lp2607
S':'
asbag49
(g70
g51
NtRp2608
(dp2609
g54
(dp2610
sg63
g2595
sg56
(lp2611
g49
(g50
g51
NtRp2612
(dp2613
g54
(dp2614
g62
I3
ssg63
g2608
sg56
(lp2615
S'0'
asbasbasbag49
(g65
g51
NtRp2616
(dp2617
g54
(dp2618
sg63
g2465
sg56
(lp2619
g49
(g70
g51
NtRp2620
(dp2621
g54
(dp2622
g74
g75
ssg63
g2616
sg56
(lp2623
S'HTTP_COOKIE'
p2624
asbag49
(g70
g51
NtRp2625
(dp2626
g54
(dp2627
g81
g82
ssg63
g2616
sg56
(lp2628
S':'
asbag49
(g70
g51
NtRp2629
(dp2630
g54
(dp2631
sg63
g2616
sg56
(lp2632
g49
(g50
g51
NtRp2633
(dp2634
g54
(dp2635
g62
I3
ssg63
g2629
sg56
(lp2636
g1087
asbasbasbag49
(g65
g51
NtRp2637
(dp2638
g54
(dp2639
sg63
g2465
sg56
(lp2640
g49
(g70
g51
NtRp2641
(dp2642
g54
(dp2643
g74
g75
ssg63
g2637
sg56
(lp2644
S'HTTP_DNT'
p2645
asbag49
(g70
g51
NtRp2646
(dp2647
g54
(dp2648
g81
g82
ssg63
g2637
sg56
(lp2649
S':'
asbag49
(g70
g51
NtRp2650
(dp2651
g54
(dp2652
sg63
g2637
sg56
(lp2653
g49
(g50
g51
NtRp2654
(dp2655
g54
(dp2656
g62
I3
ssg63
g2650
sg56
(lp2657
S'1'
asbasbasbag49
(g65
g51
NtRp2658
(dp2659
g54
(dp2660
sg63
g2465
sg56
(lp2661
g49
(g70
g51
NtRp2662
(dp2663
g54
(dp2664
g74
g75
ssg63
g2658
sg56
(lp2665
S'HTTP_HOST'
p2666
asbag49
(g70
g51
NtRp2667
(dp2668
g54
(dp2669
g81
g82
ssg63
g2658
sg56
(lp2670
S':'
asbag49
(g70
g51
NtRp2671
(dp2672
g54
(dp2673
sg63
g2658
sg56
(lp2674
g49
(g50
g51
NtRp2675
(dp2676
g54
(dp2677
g62
I3
ssg63
g2671
sg56
(lp2678
g1130
asbasbasbag49
(g65
g51
NtRp2679
(dp2680
g54
(dp2681
sg63
g2465
sg56
(lp2682
g49
(g70
g51
NtRp2683
(dp2684
g54
(dp2685
g74
g75
ssg63
g2679
sg56
(lp2686
S'HTTP_PRAGMA'
p2687
asbag49
(g70
g51
NtRp2688
(dp2689
g54
(dp2690
g81
g82
ssg63
g2679
sg56
(lp2691
S':'
asbag49
(g70
g51
NtRp2692
(dp2693
g54
(dp2694
sg63
g2679
sg56
(lp2695
g49
(g50
g51
NtRp2696
(dp2697
g54
(dp2698
g62
I3
ssg63
g2692
sg56
(lp2699
g1152
asbasbasbag49
(g65
g51
NtRp2700
(dp2701
g54
(dp2702
sg63
g2465
sg56
(lp2703
g49
(g70
g51
NtRp2704
(dp2705
g54
(dp2706
g74
g75
ssg63
g2700
sg56
(lp2707
S'HTTP_REFERER'
p2708
asbag49
(g70
g51
NtRp2709
(dp2710
g54
(dp2711
g81
g82
ssg63
g2700
sg56
(lp2712
S':'
asbag49
(g70
g51
NtRp2713
(dp2714
g54
(dp2715
sg63
g2700
sg56
(lp2716
g49
(g50
g51
NtRp2717
(dp2718
g54
(dp2719
g62
I3
ssg63
g2713
sg56
(lp2720
g1174
asbasbasbag49
(g65
g51
NtRp2721
(dp2722
g54
(dp2723
sg63
g2465
sg56
(lp2724
g49
(g70
g51
NtRp2725
(dp2726
g54
(dp2727
g74
g75
ssg63
g2721
sg56
(lp2728
S'HTTP_USER_AGENT'
p2729
asbag49
(g70
g51
NtRp2730
(dp2731
g54
(dp2732
g81
g82
ssg63
g2721
sg56
(lp2733
S':'
asbag49
(g70
g51
NtRp2734
(dp2735
g54
(dp2736
sg63
g2721
sg56
(lp2737
g49
(g50
g51
NtRp2738
(dp2739
g54
(dp2740
g62
I3
ssg63
g2734
sg56
(lp2741
g1196
asbasbasbag49
(g65
g51
NtRp2742
(dp2743
g54
(dp2744
sg63
g2465
sg56
(lp2745
g49
(g70
g51
NtRp2746
(dp2747
g54
(dp2748
g74
g75
ssg63
g2742
sg56
(lp2749
S'HTTP_X_REQUESTED_WITH'
p2750
asbag49
(g70
g51
NtRp2751
(dp2752
g54
(dp2753
g81
g82
ssg63
g2742
sg56
(lp2754
S':'
asbag49
(g70
g51
NtRp2755
(dp2756
g54
(dp2757
sg63
g2742
sg56
(lp2758
g49
(g50
g51
NtRp2759
(dp2760
g54
(dp2761
g62
I3
ssg63
g2755
sg56
(lp2762
g1218
asbasbasbag49
(g65
g51
NtRp2763
(dp2764
g54
(dp2765
sg63
g2465
sg56
(lp2766
g49
(g70
g51
NtRp2767
(dp2768
g54
(dp2769
g74
g75
ssg63
g2763
sg56
(lp2770
S'PATH_INFO'
p2771
asbag49
(g70
g51
NtRp2772
(dp2773
g54
(dp2774
g81
g82
ssg63
g2763
sg56
(lp2775
S':'
asbag49
(g70
g51
NtRp2776
(dp2777
g54
(dp2778
sg63
g2763
sg56
(lp2779
g49
(g50
g51
NtRp2780
(dp2781
g54
(dp2782
g62
I3
ssg63
g2776
sg56
(lp2783
g1282
asbasbasbag49
(g65
g51
NtRp2784
(dp2785
g54
(dp2786
sg63
g2465
sg56
(lp2787
g49
(g70
g51
NtRp2788
(dp2789
g54
(dp2790
g74
g75
ssg63
g2784
sg56
(lp2791
S'QUERY_STRING'
p2792
asbag49
(g70
g51
NtRp2793
(dp2794
g54
(dp2795
g81
g82
ssg63
g2784
sg56
(lp2796
S':'
asbag49
(g70
g51
NtRp2797
(dp2798
g54
(dp2799
sg63
g2784
sg56
(lp2800
g49
(g50
g51
NtRp2801
(dp2802
g54
(dp2803
g62
I3
ssg63
g2797
sg56
(lp2804
S''
asbasbasbag49
(g65
g51
NtRp2805
(dp2806
g54
(dp2807
sg63
g2465
sg56
(lp2808
g49
(g70
g51
NtRp2809
(dp2810
g54
(dp2811
g74
g75
ssg63
g2805
sg56
(lp2812
S'REMOTE_ADDR'
p2813
asbag49
(g70
g51
NtRp2814
(dp2815
g54
(dp2816
g81
g82
ssg63
g2805
sg56
(lp2817
S':'
asbag49
(g70
g51
NtRp2818
(dp2819
g54
(dp2820
sg63
g2805
sg56
(lp2821
g49
(g50
g51
NtRp2822
(dp2823
g54
(dp2824
g62
I3
ssg63
g2818
sg56
(lp2825
g182
asbasbasbag49
(g65
g51
NtRp2826
(dp2827
g54
(dp2828
sg63
g2465
sg56
(lp2829
g49
(g70
g51
NtRp2830
(dp2831
g54
(dp2832
g74
g75
ssg63
g2826
sg56
(lp2833
S'REMOTE_PORT'
p2834
asbag49
(g70
g51
NtRp2835
(dp2836
g54
(dp2837
g81
g82
ssg63
g2826
sg56
(lp2838
S':'
asbag49
(g70
g51
NtRp2839
(dp2840
g54
(dp2841
sg63
g2826
sg56
(lp2842
g49
(g50
g51
NtRp2843
(dp2844
g54
(dp2845
g62
I3
ssg63
g2839
sg56
(lp2846
g1346
asbasbasbag49
(g65
g51
NtRp2847
(dp2848
g54
(dp2849
sg63
g2465
sg56
(lp2850
g49
(g70
g51
NtRp2851
(dp2852
g54
(dp2853
g74
g75
ssg63
g2847
sg56
(lp2854
S'REQUEST_METHOD'
p2855
asbag49
(g70
g51
NtRp2856
(dp2857
g54
(dp2858
g81
g82
ssg63
g2847
sg56
(lp2859
S':'
asbag49
(g70
g51
NtRp2860
(dp2861
g54
(dp2862
sg63
g2847
sg56
(lp2863
g49
(g50
g51
NtRp2864
(dp2865
g54
(dp2866
g62
I3
ssg63
g2860
sg56
(lp2867
g1368
asbasbasbag49
(g65
g51
NtRp2868
(dp2869
g54
(dp2870
sg63
g2465
sg56
(lp2871
g49
(g70
g51
NtRp2872
(dp2873
g54
(dp2874
g74
g75
ssg63
g2868
sg56
(lp2875
S'SCRIPT_NAME'
p2876
asbag49
(g70
g51
NtRp2877
(dp2878
g54
(dp2879
g81
g82
ssg63
g2868
sg56
(lp2880
S':'
asbag49
(g70
g51
NtRp2881
(dp2882
g54
(dp2883
sg63
g2868
sg56
(lp2884
g49
(g50
g51
NtRp2885
(dp2886
g54
(dp2887
g62
I3
ssg63
g2881
sg56
(lp2888
S''
asbasbasbag49
(g65
g51
NtRp2889
(dp2890
g54
(dp2891
sg63
g2465
sg56
(lp2892
g49
(g70
g51
NtRp2893
(dp2894
g54
(dp2895
g74
g75
ssg63
g2889
sg56
(lp2896
S'SERVER_NAME'
p2897
asbag49
(g70
g51
NtRp2898
(dp2899
g54
(dp2900
g81
g82
ssg63
g2889
sg56
(lp2901
S':'
asbag49
(g70
g51
NtRp2902
(dp2903
g54
(dp2904
sg63
g2889
sg56
(lp2905
g49
(g50
g51
NtRp2906
(dp2907
g54
(dp2908
g62
I3
ssg63
g2902
sg56
(lp2909
g1411
asbasbasbag49
(g65
g51
NtRp2910
(dp2911
g54
(dp2912
sg63
g2465
sg56
(lp2913
g49
(g70
g51
NtRp2914
(dp2915
g54
(dp2916
g74
g75
ssg63
g2910
sg56
(lp2917
S'SERVER_PORT'
p2918
asbag49
(g70
g51
NtRp2919
(dp2920
g54
(dp2921
g81
g82
ssg63
g2910
sg56
(lp2922
S':'
asbag49
(g70
g51
NtRp2923
(dp2924
g54
(dp2925
sg63
g2910
sg56
(lp2926
g49
(g50
g51
NtRp2927
(dp2928
g54
(dp2929
g62
I3
ssg63
g2923
sg56
(lp2930
g1433
asbasbasbag49
(g65
g51
NtRp2931
(dp2932
g54
(dp2933
sg63
g2465
sg56
(lp2934
g49
(g70
g51
NtRp2935
(dp2936
g54
(dp2937
g74
g75
ssg63
g2931
sg56
(lp2938
S'SERVER_PROTOCOL'
p2939
asbag49
(g70
g51
NtRp2940
(dp2941
g54
(dp2942
g81
g82
ssg63
g2931
sg56
(lp2943
S':'
asbag49
(g70
g51
NtRp2944
(dp2945
g54
(dp2946
sg63
g2931
sg56
(lp2947
g49
(g50
g51
NtRp2948
(dp2949
g54
(dp2950
g62
I3
ssg63
g2944
sg56
(lp2951
g1455
asbasbasbag49
(g65
g51
NtRp2952
(dp2953
g54
(dp2954
sg63
g2465
sg56
(lp2955
g49
(g70
g51
NtRp2956
(dp2957
g54
(dp2958
g74
g75
ssg63
g2952
sg56
(lp2959
S'SERVER_SOFTWARE'
p2960
asbag49
(g70
g51
NtRp2961
(dp2962
g54
(dp2963
g81
g82
ssg63
g2952
sg56
(lp2964
S':'
asbag49
(g70
g51
NtRp2965
(dp2966
g54
(dp2967
sg63
g2952
sg56
(lp2968
g49
(g50
g51
NtRp2969
(dp2970
g54
(dp2971
g62
I3
ssg63
g2965
sg56
(lp2972
g1477
asbasbasbag49
(g65
g51
NtRp2973
(dp2974
g54
(dp2975
sg63
g2465
sg56
(lp2976
g49
(g70
g51
NtRp2977
(dp2978
g54
(dp2979
g74
g75
ssg63
g2973
sg56
(lp2980
S'wsgi.errors'
p2981
asbag49
(g70
g51
NtRp2982
(dp2983
g54
(dp2984
g81
g82
ssg63
g2973
sg56
(lp2985
S':'
asbag49
(g70
g51
NtRp2986
(dp2987
g54
(dp2988
sg63
g2973
sg56
(lp2989
g49
(g50
g51
NtRp2990
(dp2991
g54
(dp2992
g62
I3
ssg63
g2986
sg56
(lp2993
S"<open file '<stderr>', mode 'w' at 0x002D00B0>"
p2994
asbasbasbag49
(g65
g51
NtRp2995
(dp2996
g54
(dp2997
sg63
g2465
sg56
(lp2998
g49
(g70
g51
NtRp2999
(dp3000
g54
(dp3001
g74
g75
ssg63
g2995
sg56
(lp3002
S'wsgi.file_wrapper'
p3003
asbag49
(g70
g51
NtRp3004
(dp3005
g54
(dp3006
g81
g82
ssg63
g2995
sg56
(lp3007
S':'
asbag49
(g70
g51
NtRp3008
(dp3009
g54
(dp3010
sg63
g2995
sg56
(lp3011
g49
(g50
g51
NtRp3012
(dp3013
g54
(dp3014
g62
I3
ssg63
g3008
sg56
(lp3015
S'<class wsgiref.util.FileWrapper at 0x02E32E40>'
p3016
asbasbasbag49
(g65
g51
NtRp3017
(dp3018
g54
(dp3019
sg63
g2465
sg56
(lp3020
g49
(g70
g51
NtRp3021
(dp3022
g54
(dp3023
g74
g75
ssg63
g3017
sg56
(lp3024
S'wsgi.input'
p3025
asbag49
(g70
g51
NtRp3026
(dp3027
g54
(dp3028
g81
g82
ssg63
g3017
sg56
(lp3029
S':'
asbag49
(g70
g51
NtRp3030
(dp3031
g54
(dp3032
sg63
g3017
sg56
(lp3033
g49
(g50
g51
NtRp3034
(dp3035
g54
(dp3036
g62
I3
ssg63
g3030
sg56
(lp3037
S"<open file '<fdopen>', mode 'w+b' at 0x0325B260>"
p3038
asbasbasbag49
(g65
g51
NtRp3039
(dp3040
g54
(dp3041
sg63
g2465
sg56
(lp3042
g49
(g70
g51
NtRp3043
(dp3044
g54
(dp3045
g74
g75
ssg63
g3039
sg56
(lp3046
S'wsgi.multiprocess'
p3047
asbag49
(g70
g51
NtRp3048
(dp3049
g54
(dp3050
g81
g82
ssg63
g3039
sg56
(lp3051
S':'
asbag49
(g70
g51
NtRp3052
(dp3053
g54
(dp3054
sg63
g3039
sg56
(lp3055
g49
(g50
g51
NtRp3056
(dp3057
g54
(dp3058
g62
I3
ssg63
g3052
sg56
(lp3059
g912
asbasbasbag49
(g65
g51
NtRp3060
(dp3061
g54
(dp3062
sg63
g2465
sg56
(lp3063
g49
(g70
g51
NtRp3064
(dp3065
g54
(dp3066
g74
g75
ssg63
g3060
sg56
(lp3067
S'wsgi.multithread'
p3068
asbag49
(g70
g51
NtRp3069
(dp3070
g54
(dp3071
g81
g82
ssg63
g3060
sg56
(lp3072
S':'
asbag49
(g70
g51
NtRp3073
(dp3074
g54
(dp3075
sg63
g3060
sg56
(lp3076
g49
(g50
g51
NtRp3077
(dp3078
g54
(dp3079
g62
I3
ssg63
g3073
sg56
(lp3080
g92
asbasbasbag49
(g65
g51
NtRp3081
(dp3082
g54
(dp3083
sg63
g2465
sg56
(lp3084
g49
(g70
g51
NtRp3085
(dp3086
g54
(dp3087
g74
g75
ssg63
g3081
sg56
(lp3088
S'wsgi.run_once'
p3089
asbag49
(g70
g51
NtRp3090
(dp3091
g54
(dp3092
g81
g82
ssg63
g3081
sg56
(lp3093
S':'
asbag49
(g70
g51
NtRp3094
(dp3095
g54
(dp3096
sg63
g3081
sg56
(lp3097
g49
(g50
g51
NtRp3098
(dp3099
g54
(dp3100
g62
I3
ssg63
g3094
sg56
(lp3101
g912
asbasbasbag49
(g65
g51
NtRp3102
(dp3103
g54
(dp3104
sg63
g2465
sg56
(lp3105
g49
(g70
g51
NtRp3106
(dp3107
g54
(dp3108
g74
g75
ssg63
g3102
sg56
(lp3109
S'wsgi.url_scheme'
p3110
asbag49
(g70
g51
NtRp3111
(dp3112
g54
(dp3113
g81
g82
ssg63
g3102
sg56
(lp3114
S':'
asbag49
(g70
g51
NtRp3115
(dp3116
g54
(dp3117
sg63
g3102
sg56
(lp3118
g49
(g50
g51
NtRp3119
(dp3120
g54
(dp3121
g62
I3
ssg63
g3115
sg56
(lp3122
g1759
asbasbasbag49
(g65
g51
NtRp3123
(dp3124
g54
(dp3125
sg63
g2465
sg56
(lp3126
g49
(g70
g51
NtRp3127
(dp3128
g54
(dp3129
g74
g75
ssg63
g3123
sg56
(lp3130
S'wsgi.version'
p3131
asbag49
(g70
g51
NtRp3132
(dp3133
g54
(dp3134
g81
g82
ssg63
g3123
sg56
(lp3135
S':'
asbag49
(g70
g51
NtRp3136
(dp3137
g54
(dp3138
sg63
g3123
sg56
(lp3139
g49
(g50
g51
NtRp3140
(dp3141
g54
(dp3142
g62
I3
ssg63
g3136
sg56
(lp3143
S'1'
asbasbasbasbasbasbasbasbasbasbasbasbasbsS'frames'
p3144
(lp3145
(dp3146
S'file'
p3147
S'D:\\web2py\\gluon\\restricted.py'
p3148
sS'dump'
p3149
(dp3150
sS'lnum'
p3151
I205
sS'lines'
p3152
(dp3153
sS'call'
p3154
S"(code='# coding: utf8\\n\\nEXPERIMENTAL_STUFF = True\\n\\nif EX...\\n\\nresponse._vars=response._caller(check_version)\\n', environment={'A': <class 'gluon.html.A'>, 'ALLOW_TOGGLE': 'true', 'A_button': <function A_button at 0x06F0D0F0>, 'B': <class 'gluon.html.B'>, 'BEAUTIFY': <class 'gluon.html.BEAUTIFY'>, 'BODY': <class 'gluon.html.BODY'>, 'BR': <class 'gluon.html.BR'>, 'BUTTON': <class 'gluon.html.BUTTON'>, 'CAT': <class 'gluon.html.CAT'>, 'CENTER': <class 'gluon.html.CENTER'>, ...}, layer=r'D:\\web2py\\applications\\admin\\controllers/default.py')"
p3155
sS'func'
p3156
S'restricted'
p3157
sa(dp3158
g3147
S'D:\\web2py\\applications\\admin\\controllers\\default.py'
p3159
sg3149
(dp3160
sg3151
I1352
sg3152
(dp3161
I1344
S'def reload_routes():'
p3162
sI1345
S'    """ Reload routes.py """'
p3163
sI1346
S'    import gluon.rewrite'
p3164
sI1347
S'    gluon.rewrite.load()'
p3165
sI1348
S"    redirect(URL('site'))"
p3166
sI1349
S''
sI1350
S''
sI1341
S'    else:'
p3167
sI1342
S'        return dict(form=T("Disabled"))'
p3168
sI1343
S''
ssg3154
S'()'
p3169
sg3156
S'<module>'
p3170
sa(dp3171
g3147
S'D:\\web2py\\gluon\\globals.py'
p3172
sg3149
(dp3173
sg3151
I173
sg3152
(dp3174
sg3154
S'(f=<function check_version at 0x06F0DD30>)'
p3175
sg3156
S'<lambda>'
p3176
sa(dp3177
g3147
S'D:\\web2py\\applications\\admin\\controllers\\default.py'
p3178
sg3149
(dp3179
sg3151
I110
sg3152
(dp3180
I105
S'    if new_version == -1:'
p3181
sI106
S"        return A(T('Unable to check for upgrades'), _href=WEB2PY_URL)"
p3182
sI107
S'    elif new_version != True:'
p3183
sI108
S"        return A(T('web2py is up to date'), _href=WEB2PY_URL)"
p3184
sI109
S'    elif platform.system().lower() in (\'windows\',\'win32\',\'win64\') and os.path.exists("web2py.exe"):'
p3185
sI110
S"        return SPAN('You should upgrade to version %s' % version_number)"
p3186
sI111
S'    else:'
p3187
sI112
S"        return sp_button(URL('upgrade_web2py'), T('upgrade now')) \\"
p3188
sI113
S'          + XML(\' <strong class="upgrade_version">%s</strong>\' % version_number)'
p3189
sI114
S''
ssg3154
S'()'
p3190
sg3156
S'check_version'
p3191
sasS'pyver'
p3192
S'Python 2.5.4: D:\\web2py\\web2py.exe'
p3193
sS'session'
p3194
g49
(g50
g51
NtRp3195
(dp3196
g54
(dp3197
sg56
(lp3198
g49
(g58
g51
NtRp3199
(dp3200
g54
(dp3201
g62
I5
ssg63
Nsg56
(lp3202
g49
(g65
g51
NtRp3203
(dp3204
g54
(dp3205
sg63
g3199
sg56
(lp3206
g49
(g70
g51
NtRp3207
(dp3208
g54
(dp3209
g74
g75
ssg63
g3203
sg56
(lp3210
S'authorized'
p3211
asbag49
(g70
g51
NtRp3212
(dp3213
g54
(dp3214
g81
g82
ssg63
g3203
sg56
(lp3215
S':'
asbag49
(g70
g51
NtRp3216
(dp3217
g54
(dp3218
sg63
g3203
sg56
(lp3219
g49
(g50
g51
NtRp3220
(dp3221
g54
(dp3222
g62
I5
ssg63
g3216
sg56
(lp3223
g92
asbasbasbag49
(g65
g51
NtRp3224
(dp3225
g54
(dp3226
sg63
g3199
sg56
(lp3227
g49
(g70
g51
NtRp3228
(dp3229
g54
(dp3230
g74
g75
ssg63
g3224
sg56
(lp3231
S'check_version'
p3232
asbag49
(g70
g51
NtRp3233
(dp3234
g54
(dp3235
g81
g82
ssg63
g3224
sg56
(lp3236
S':'
asbag49
(g70
g51
NtRp3237
(dp3238
g54
(dp3239
sg63
g3224
sg56
(lp3240
g49
(g50
g51
NtRp3241
(dp3242
g54
(dp3243
g62
I5
ssg63
g3237
sg56
(lp3244
g912
asbasbasbag49
(g65
g51
NtRp3245
(dp3246
g54
(dp3247
sg63
g3199
sg56
(lp3248
g49
(g70
g51
NtRp3249
(dp3250
g54
(dp3251
g74
g75
ssg63
g3245
sg56
(lp3252
S'last_time'
p3253
asbag49
(g70
g51
NtRp3254
(dp3255
g54
(dp3256
g81
g82
ssg63
g3245
sg56
(lp3257
S':'
asbag49
(g70
g51
NtRp3258
(dp3259
g54
(dp3260
sg63
g3245
sg56
(lp3261
g49
(g50
g51
NtRp3262
(dp3263
g54
(dp3264
g62
I5
ssg63
g3258
sg56
(lp3265
S'1352891526.322'
p3266
asbasbasbasbasbsS'etype'
p3267
S"<type 'exceptions.TypeError'>"
p3268
sS'date'
p3269
S'Wed Nov 14 16:42:13 2012'
p3270
sS'response'
p3271
g49
(g50
g51
NtRp3272
(dp3273
g54
(dp3274
sg56
(lp3275
g49
(g58
g51
NtRp3276
(dp3277
g54
(dp3278
g62
I5
ssg63
Nsg56
(lp3279
g49
(g65
g51
NtRp3280
(dp3281
g54
(dp3282
sg63
g3276
sg56
(lp3283
g49
(g70
g51
NtRp3284
(dp3285
g54
(dp3286
g74
g75
ssg63
g3280
sg56
(lp3287
g147
asbag49
(g70
g51
NtRp3288
(dp3289
g54
(dp3290
g81
g82
ssg63
g3280
sg56
(lp3291
S':'
asbag49
(g70
g51
NtRp3292
(dp3293
g54
(dp3294
sg63
g3280
sg56
(lp3295
g49
(g50
g51
NtRp3296
(dp3297
g54
(dp3298
g62
I5
ssg63
g3292
sg56
(lp3299
S'<cStringIO.StringO object at 0x06F08640>'
p3300
asbasbasbag49
(g65
g51
NtRp3301
(dp3302
g54
(dp3303
sg63
g3276
sg56
(lp3304
g49
(g70
g51
NtRp3305
(dp3306
g54
(dp3307
g74
g75
ssg63
g3301
sg56
(lp3308
g213
asbag49
(g70
g51
NtRp3309
(dp3310
g54
(dp3311
g81
g82
ssg63
g3301
sg56
(lp3312
S':'
asbag49
(g70
g51
NtRp3313
(dp3314
g54
(dp3315
sg63
g3301
sg56
(lp3316
g49
(g50
g51
NtRp3317
(dp3318
g54
(dp3319
g62
I5
ssg63
g3313
sg56
(lp3320
g49
(g58
g51
NtRp3321
(dp3322
g54
(dp3323
g62
I4
ssg63
Nsg56
(lp3324
g49
(g65
g51
NtRp3325
(dp3326
g54
(dp3327
sg63
g3321
sg56
(lp3328
g49
(g70
g51
NtRp3329
(dp3330
g54
(dp3331
g74
g75
ssg63
g3325
sg56
(lp3332
S'session_id_admin'
p3333
asbag49
(g70
g51
NtRp3334
(dp3335
g54
(dp3336
g81
g82
ssg63
g3325
sg56
(lp3337
S':'
asbag49
(g70
g51
NtRp3338
(dp3339
g54
(dp3340
sg63
g3325
sg56
(lp3341
g49
(g50
g51
NtRp3342
(dp3343
g54
(dp3344
g62
I4
ssg63
g3338
sg56
(lp3345
g49
(g58
g51
NtRp3346
(dp3347
g54
(dp3348
g62
I3
ssg63
Nsg56
(lp3349
g49
(g65
g51
NtRp3350
(dp3351
g54
(dp3352
sg63
g3346
sg56
(lp3353
g49
(g70
g51
NtRp3354
(dp3355
g54
(dp3356
g74
g75
ssg63
g3350
sg56
(lp3357
g263
asbag49
(g70
g51
NtRp3358
(dp3359
g54
(dp3360
g81
g82
ssg63
g3350
sg56
(lp3361
S':'
asbag49
(g70
g51
NtRp3362
(dp3363
g54
(dp3364
sg63
g3350
sg56
(lp3365
g49
(g50
g51
NtRp3366
(dp3367
g54
(dp3368
g62
I3
ssg63
g3362
sg56
(lp3369
S''
asbasbasbag49
(g65
g51
NtRp3370
(dp3371
g54
(dp3372
sg63
g3346
sg56
(lp3373
g49
(g70
g51
NtRp3374
(dp3375
g54
(dp3376
g74
g75
ssg63
g3370
sg56
(lp3377
g284
asbag49
(g70
g51
NtRp3378
(dp3379
g54
(dp3380
g81
g82
ssg63
g3370
sg56
(lp3381
S':'
asbag49
(g70
g51
NtRp3382
(dp3383
g54
(dp3384
sg63
g3370
sg56
(lp3385
g49
(g50
g51
NtRp3386
(dp3387
g54
(dp3388
g62
I3
ssg63
g3382
sg56
(lp3389
S''
asbasbasbag49
(g65
g51
NtRp3390
(dp3391
g54
(dp3392
sg63
g3346
sg56
(lp3393
g49
(g70
g51
NtRp3394
(dp3395
g54
(dp3396
g74
g75
ssg63
g3390
sg56
(lp3397
g305
asbag49
(g70
g51
NtRp3398
(dp3399
g54
(dp3400
g81
g82
ssg63
g3390
sg56
(lp3401
S':'
asbag49
(g70
g51
NtRp3402
(dp3403
g54
(dp3404
sg63
g3390
sg56
(lp3405
g49
(g50
g51
NtRp3406
(dp3407
g54
(dp3408
g62
I3
ssg63
g3402
sg56
(lp3409
S''
asbasbasbag49
(g65
g51
NtRp3410
(dp3411
g54
(dp3412
sg63
g3346
sg56
(lp3413
g49
(g70
g51
NtRp3414
(dp3415
g54
(dp3416
g74
g75
ssg63
g3410
sg56
(lp3417
g326
asbag49
(g70
g51
NtRp3418
(dp3419
g54
(dp3420
g81
g82
ssg63
g3410
sg56
(lp3421
S':'
asbag49
(g70
g51
NtRp3422
(dp3423
g54
(dp3424
sg63
g3410
sg56
(lp3425
g49
(g50
g51
NtRp3426
(dp3427
g54
(dp3428
g62
I3
ssg63
g3422
sg56
(lp3429
S''
asbasbasbag49
(g65
g51
NtRp3430
(dp3431
g54
(dp3432
sg63
g3346
sg56
(lp3433
g49
(g70
g51
NtRp3434
(dp3435
g54
(dp3436
g74
g75
ssg63
g3430
sg56
(lp3437
g347
asbag49
(g70
g51
NtRp3438
(dp3439
g54
(dp3440
g81
g82
ssg63
g3430
sg56
(lp3441
S':'
asbag49
(g70
g51
NtRp3442
(dp3443
g54
(dp3444
sg63
g3430
sg56
(lp3445
g49
(g50
g51
NtRp3446
(dp3447
g54
(dp3448
g62
I3
ssg63
g3442
sg56
(lp3449
S'/'
asbasbasbag49
(g65
g51
NtRp3450
(dp3451
g54
(dp3452
sg63
g3346
sg56
(lp3453
g49
(g70
g51
NtRp3454
(dp3455
g54
(dp3456
g74
g75
ssg63
g3450
sg56
(lp3457
g368
asbag49
(g70
g51
NtRp3458
(dp3459
g54
(dp3460
g81
g82
ssg63
g3450
sg56
(lp3461
S':'
asbag49
(g70
g51
NtRp3462
(dp3463
g54
(dp3464
sg63
g3450
sg56
(lp3465
g49
(g50
g51
NtRp3466
(dp3467
g54
(dp3468
g62
I3
ssg63
g3462
sg56
(lp3469
S''
asbasbasbag49
(g65
g51
NtRp3470
(dp3471
g54
(dp3472
sg63
g3346
sg56
(lp3473
g49
(g70
g51
NtRp3474
(dp3475
g54
(dp3476
g74
g75
ssg63
g3470
sg56
(lp3477
g389
asbag49
(g70
g51
NtRp3478
(dp3479
g54
(dp3480
g81
g82
ssg63
g3470
sg56
(lp3481
S':'
asbag49
(g70
g51
NtRp3482
(dp3483
g54
(dp3484
sg63
g3470
sg56
(lp3485
g49
(g50
g51
NtRp3486
(dp3487
g54
(dp3488
g62
I3
ssg63
g3482
sg56
(lp3489
S''
asbasbasbasbasbasbasbasbasbasbasbag49
(g65
g51
NtRp3490
(dp3491
g54
(dp3492
sg63
g3276
sg56
(lp3493
g49
(g70
g51
NtRp3494
(dp3495
g54
(dp3496
g74
g75
ssg63
g3490
sg56
(lp3497
S'delimiters'
p3498
asbag49
(g70
g51
NtRp3499
(dp3500
g54
(dp3501
g81
g82
ssg63
g3490
sg56
(lp3502
S':'
asbag49
(g70
g51
NtRp3503
(dp3504
g54
(dp3505
sg63
g3490
sg56
(lp3506
g49
(g50
g51
NtRp3507
(dp3508
g54
(dp3509
g62
I5
ssg63
g3503
sg56
(lp3510
g49
(g58
g51
NtRp3511
(dp3512
g54
(dp3513
g62
I4
ssg63
Nsg56
(lp3514
g49
(g65
g51
NtRp3515
(dp3516
g54
(dp3517
sg63
g3511
sg56
(lp3518
g49
(g70
g51
NtRp3519
(dp3520
g54
(dp3521
sg63
g3515
sg56
(lp3522
g49
(g50
g51
NtRp3523
(dp3524
g54
(dp3525
g62
I4
ssg63
g3519
sg56
(lp3526
S'{{'
p3527
asbasbasbag49
(g65
g51
NtRp3528
(dp3529
g54
(dp3530
sg63
g3511
sg56
(lp3531
g49
(g70
g51
NtRp3532
(dp3533
g54
(dp3534
sg63
g3528
sg56
(lp3535
g49
(g50
g51
NtRp3536
(dp3537
g54
(dp3538
g62
I4
ssg63
g3532
sg56
(lp3539
S'}}'
p3540
asbasbasbasbasbasbasbag49
(g65
g51
NtRp3541
(dp3542
g54
(dp3543
sg63
g3276
sg56
(lp3544
g49
(g70
g51
NtRp3545
(dp3546
g54
(dp3547
g74
g75
ssg63
g3541
sg56
(lp3548
S'files'
p3549
asbag49
(g70
g51
NtRp3550
(dp3551
g54
(dp3552
g81
g82
ssg63
g3541
sg56
(lp3553
S':'
asbag49
(g70
g51
NtRp3554
(dp3555
g54
(dp3556
sg63
g3541
sg56
(lp3557
g49
(g50
g51
NtRp3558
(dp3559
g54
(dp3560
g62
I5
ssg63
g3554
sg56
(lp3561
g49
(g58
g51
NtRp3562
(dp3563
g54
(dp3564
g62
I4
ssg63
Nsg56
(lp3565
g49
(g65
g51
NtRp3566
(dp3567
g54
(dp3568
sg63
g3562
sg56
(lp3569
g49
(g70
g51
NtRp3570
(dp3571
g54
(dp3572
sg63
g3566
sg56
(lp3573
g49
(g50
g51
NtRp3574
(dp3575
g54
(dp3576
g62
I4
ssg63
g3570
sg56
(lp3577
S'/admin/static/plugin_multiselect/jquery.dimensions.js'
p3578
asbasbasbag49
(g65
g51
NtRp3579
(dp3580
g54
(dp3581
sg63
g3562
sg56
(lp3582
g49
(g70
g51
NtRp3583
(dp3584
g54
(dp3585
sg63
g3579
sg56
(lp3586
g49
(g50
g51
NtRp3587
(dp3588
g54
(dp3589
g62
I4
ssg63
g3583
sg56
(lp3590
S'/admin/static/plugin_multiselect/jquery.multiselect.js'
p3591
asbasbasbag49
(g65
g51
NtRp3592
(dp3593
g54
(dp3594
sg63
g3562
sg56
(lp3595
g49
(g70
g51
NtRp3596
(dp3597
g54
(dp3598
sg63
g3592
sg56
(lp3599
g49
(g50
g51
NtRp3600
(dp3601
g54
(dp3602
g62
I4
ssg63
g3596
sg56
(lp3603
S'/admin/static/plugin_multiselect/jquery.multiselect.css'
p3604
asbasbasbag49
(g65
g51
NtRp3605
(dp3606
g54
(dp3607
sg63
g3562
sg56
(lp3608
g49
(g70
g51
NtRp3609
(dp3610
g54
(dp3611
sg63
g3605
sg56
(lp3612
g49
(g50
g51
NtRp3613
(dp3614
g54
(dp3615
g62
I4
ssg63
g3609
sg56
(lp3616
S'/admin/static/plugin_multiselect/start.js'
p3617
asbasbasbasbasbasbasbag49
(g65
g51
NtRp3618
(dp3619
g54
(dp3620
sg63
g3276
sg56
(lp3621
g49
(g70
g51
NtRp3622
(dp3623
g54
(dp3624
g74
g75
ssg63
g3618
sg56
(lp3625
S'flash'
p3626
asbag49
(g70
g51
NtRp3627
(dp3628
g54
(dp3629
g81
g82
ssg63
g3618
sg56
(lp3630
S':'
asbag49
(g70
g51
NtRp3631
(dp3632
g54
(dp3633
sg63
g3618
sg56
(lp3634
g49
(g50
g51
NtRp3635
(dp3636
g54
(dp3637
g62
I5
ssg63
g3631
sg56
(lp3638
S''
asbasbasbag49
(g65
g51
NtRp3639
(dp3640
g54
(dp3641
sg63
g3276
sg56
(lp3642
g49
(g70
g51
NtRp3643
(dp3644
g54
(dp3645
g74
g75
ssg63
g3639
sg56
(lp3646
S'generic_patterns'
p3647
asbag49
(g70
g51
NtRp3648
(dp3649
g54
(dp3650
g81
g82
ssg63
g3639
sg56
(lp3651
S':'
asbag49
(g70
g51
NtRp3652
(dp3653
g54
(dp3654
sg63
g3639
sg56
(lp3655
g49
(g50
g51
NtRp3656
(dp3657
g54
(dp3658
g62
I5
ssg63
g3652
sg56
(lp3659
g49
(g58
g51
NtRp3660
(dp3661
g54
(dp3662
g62
I4
ssg63
Nsg56
(lp3663
sbasbasbasbag49
(g65
g51
NtRp3664
(dp3665
g54
(dp3666
sg63
g3276
sg56
(lp3667
g49
(g70
g51
NtRp3668
(dp3669
g54
(dp3670
g74
g75
ssg63
g3664
sg56
(lp3671
S'headers'
p3672
asbag49
(g70
g51
NtRp3673
(dp3674
g54
(dp3675
g81
g82
ssg63
g3664
sg56
(lp3676
S':'
asbag49
(g70
g51
NtRp3677
(dp3678
g54
(dp3679
sg63
g3664
sg56
(lp3680
g49
(g50
g51
NtRp3681
(dp3682
g54
(dp3683
g62
I5
ssg63
g3677
sg56
(lp3684
g49
(g58
g51
NtRp3685
(dp3686
g54
(dp3687
g62
I4
ssg63
Nsg56
(lp3688
g49
(g65
g51
NtRp3689
(dp3690
g54
(dp3691
sg63
g3685
sg56
(lp3692
g49
(g70
g51
NtRp3693
(dp3694
g54
(dp3695
g74
g75
ssg63
g3689
sg56
(lp3696
S'Cache-Control'
p3697
asbag49
(g70
g51
NtRp3698
(dp3699
g54
(dp3700
g81
g82
ssg63
g3689
sg56
(lp3701
S':'
asbag49
(g70
g51
NtRp3702
(dp3703
g54
(dp3704
sg63
g3689
sg56
(lp3705
g49
(g50
g51
NtRp3706
(dp3707
g54
(dp3708
g62
I4
ssg63
g3702
sg56
(lp3709
S'no-store, no-cache, must-revalidate, post-check=0, pre-check=0'
p3710
asbasbasbag49
(g65
g51
NtRp3711
(dp3712
g54
(dp3713
sg63
g3685
sg56
(lp3714
g49
(g70
g51
NtRp3715
(dp3716
g54
(dp3717
g74
g75
ssg63
g3711
sg56
(lp3718
S'Content-Type'
p3719
asbag49
(g70
g51
NtRp3720
(dp3721
g54
(dp3722
g81
g82
ssg63
g3711
sg56
(lp3723
S':'
asbag49
(g70
g51
NtRp3724
(dp3725
g54
(dp3726
sg63
g3711
sg56
(lp3727
g49
(g50
g51
NtRp3728
(dp3729
g54
(dp3730
g62
I4
ssg63
g3724
sg56
(lp3731
S'text/html; charset=utf-8'
p3732
asbasbasbag49
(g65
g51
NtRp3733
(dp3734
g54
(dp3735
sg63
g3685
sg56
(lp3736
g49
(g70
g51
NtRp3737
(dp3738
g54
(dp3739
g74
g75
ssg63
g3733
sg56
(lp3740
S'Expires'
p3741
asbag49
(g70
g51
NtRp3742
(dp3743
g54
(dp3744
g81
g82
ssg63
g3733
sg56
(lp3745
S':'
asbag49
(g70
g51
NtRp3746
(dp3747
g54
(dp3748
sg63
g3733
sg56
(lp3749
g49
(g50
g51
NtRp3750
(dp3751
g54
(dp3752
g62
I4
ssg63
g3746
sg56
(lp3753
S'Wed, 14 Nov 2012 11:12:06 GMT'
p3754
asbasbasbag49
(g65
g51
NtRp3755
(dp3756
g54
(dp3757
sg63
g3685
sg56
(lp3758
g49
(g70
g51
NtRp3759
(dp3760
g54
(dp3761
g74
g75
ssg63
g3755
sg56
(lp3762
S'Pragma'
p3763
asbag49
(g70
g51
NtRp3764
(dp3765
g54
(dp3766
g81
g82
ssg63
g3755
sg56
(lp3767
S':'
asbag49
(g70
g51
NtRp3768
(dp3769
g54
(dp3770
sg63
g3755
sg56
(lp3771
g49
(g50
g51
NtRp3772
(dp3773
g54
(dp3774
g62
I4
ssg63
g3768
sg56
(lp3775
S'no-cache'
p3776
asbasbasbag49
(g65
g51
NtRp3777
(dp3778
g54
(dp3779
sg63
g3685
sg56
(lp3780
g49
(g70
g51
NtRp3781
(dp3782
g54
(dp3783
g74
g75
ssg63
g3777
sg56
(lp3784
S'X-Powered-By'
p3785
asbag49
(g70
g51
NtRp3786
(dp3787
g54
(dp3788
g81
g82
ssg63
g3777
sg56
(lp3789
S':'
asbag49
(g70
g51
NtRp3790
(dp3791
g54
(dp3792
sg63
g3777
sg56
(lp3793
g49
(g50
g51
NtRp3794
(dp3795
g54
(dp3796
g62
I4
ssg63
g3790
sg56
(lp3797
S'web2py'
p3798
asbasbasbasbasbasbasbag49
(g65
g51
NtRp3799
(dp3800
g54
(dp3801
sg63
g3276
sg56
(lp3802
g49
(g70
g51
NtRp3803
(dp3804
g54
(dp3805
g74
g75
ssg63
g3799
sg56
(lp3806
S'menu'
p3807
asbag49
(g70
g51
NtRp3808
(dp3809
g54
(dp3810
g81
g82
ssg63
g3799
sg56
(lp3811
S':'
asbag49
(g70
g51
NtRp3812
(dp3813
g54
(dp3814
sg63
g3799
sg56
(lp3815
g49
(g50
g51
NtRp3816
(dp3817
g54
(dp3818
g62
I5
ssg63
g3812
sg56
(lp3819
g49
(g58
g51
NtRp3820
(dp3821
g54
(dp3822
g62
I4
ssg63
Nsg56
(lp3823
g49
(g65
g51
NtRp3824
(dp3825
g54
(dp3826
sg63
g3820
sg56
(lp3827
g49
(g70
g51
NtRp3828
(dp3829
g54
(dp3830
sg63
g3824
sg56
(lp3831
g49
(g50
g51
NtRp3832
(dp3833
g54
(dp3834
g62
I4
ssg63
g3828
sg56
(lp3835
g49
(g58
g51
NtRp3836
(dp3837
g54
(dp3838
g62
I3
ssg63
Nsg56
(lp3839
g49
(g65
g51
NtRp3840
(dp3841
g54
(dp3842
sg63
g3836
sg56
(lp3843
g49
(g70
g51
NtRp3844
(dp3845
g54
(dp3846
sg63
g3840
sg56
(lp3847
g49
(g50
g51
NtRp3848
(dp3849
g54
(dp3850
g62
I3
ssg63
g3844
sg56
(lp3851
cgluon.languages
lazyT_unpickle
p3852
(S's\x04\x00\x00\x00Site'
tRp3853
asbasbasbag49
(g65
g51
NtRp3854
(dp3855
g54
(dp3856
sg63
g3836
sg56
(lp3857
g49
(g70
g51
NtRp3858
(dp3859
g54
(dp3860
sg63
g3854
sg56
(lp3861
g49
(g50
g51
NtRp3862
(dp3863
g54
(dp3864
g62
I3
ssg63
g3858
sg56
(lp3865
g912
asbasbasbag49
(g65
g51
NtRp3866
(dp3867
g54
(dp3868
sg63
g3836
sg56
(lp3869
g49
(g70
g51
NtRp3870
(dp3871
g54
(dp3872
sg63
g3866
sg56
(lp3873
g49
(g50
g51
NtRp3874
(dp3875
g54
(dp3876
g62
I3
ssg63
g3870
sg56
(lp3877
S'/admin/default/site'
p3878
asbasbasbasbasbasbasbag49
(g65
g51
NtRp3879
(dp3880
g54
(dp3881
sg63
g3820
sg56
(lp3882
g49
(g70
g51
NtRp3883
(dp3884
g54
(dp3885
sg63
g3879
sg56
(lp3886
g49
(g50
g51
NtRp3887
(dp3888
g54
(dp3889
g62
I4
ssg63
g3883
sg56
(lp3890
g49
(g58
g51
NtRp3891
(dp3892
g54
(dp3893
g62
I3
ssg63
Nsg56
(lp3894
g49
(g65
g51
NtRp3895
(dp3896
g54
(dp3897
sg63
g3891
sg56
(lp3898
g49
(g70
g51
NtRp3899
(dp3900
g54
(dp3901
sg63
g3895
sg56
(lp3902
g49
(g50
g51
NtRp3903
(dp3904
g54
(dp3905
g62
I3
ssg63
g3899
sg56
(lp3906
g3852
(S's\x06\x00\x00\x00Logout'
tRp3907
asbasbasbag49
(g65
g51
NtRp3908
(dp3909
g54
(dp3910
sg63
g3891
sg56
(lp3911
g49
(g70
g51
NtRp3912
(dp3913
g54
(dp3914
sg63
g3908
sg56
(lp3915
g49
(g50
g51
NtRp3916
(dp3917
g54
(dp3918
g62
I3
ssg63
g3912
sg56
(lp3919
g912
asbasbasbag49
(g65
g51
NtRp3920
(dp3921
g54
(dp3922
sg63
g3891
sg56
(lp3923
g49
(g70
g51
NtRp3924
(dp3925
g54
(dp3926
sg63
g3920
sg56
(lp3927
g49
(g50
g51
NtRp3928
(dp3929
g54
(dp3930
g62
I3
ssg63
g3924
sg56
(lp3931
S'/admin/default/logout'
p3932
asbasbasbasbasbasbasbag49
(g65
g51
NtRp3933
(dp3934
g54
(dp3935
sg63
g3820
sg56
(lp3936
g49
(g70
g51
NtRp3937
(dp3938
g54
(dp3939
sg63
g3933
sg56
(lp3940
g49
(g50
g51
NtRp3941
(dp3942
g54
(dp3943
g62
I4
ssg63
g3937
sg56
(lp3944
g49
(g58
g51
NtRp3945
(dp3946
g54
(dp3947
g62
I3
ssg63
Nsg56
(lp3948
g49
(g65
g51
NtRp3949
(dp3950
g54
(dp3951
sg63
g3945
sg56
(lp3952
g49
(g70
g51
NtRp3953
(dp3954
g54
(dp3955
sg63
g3949
sg56
(lp3956
g49
(g50
g51
NtRp3957
(dp3958
g54
(dp3959
g62
I3
ssg63
g3953
sg56
(lp3960
g3852
(S's\x05\x00\x00\x00Debug'
tRp3961
asbasbasbag49
(g65
g51
NtRp3962
(dp3963
g54
(dp3964
sg63
g3945
sg56
(lp3965
g49
(g70
g51
NtRp3966
(dp3967
g54
(dp3968
sg63
g3962
sg56
(lp3969
g49
(g50
g51
NtRp3970
(dp3971
g54
(dp3972
g62
I3
ssg63
g3966
sg56
(lp3973
g912
asbasbasbag49
(g65
g51
NtRp3974
(dp3975
g54
(dp3976
sg63
g3945
sg56
(lp3977
g49
(g70
g51
NtRp3978
(dp3979
g54
(dp3980
sg63
g3974
sg56
(lp3981
g49
(g50
g51
NtRp3982
(dp3983
g54
(dp3984
g62
I3
ssg63
g3978
sg56
(lp3985
S'/admin/debug/interact'
p3986
asbasbasbasbasbasbasbag49
(g65
g51
NtRp3987
(dp3988
g54
(dp3989
sg63
g3820
sg56
(lp3990
g49
(g70
g51
NtRp3991
(dp3992
g54
(dp3993
sg63
g3987
sg56
(lp3994
g49
(g50
g51
NtRp3995
(dp3996
g54
(dp3997
g62
I4
ssg63
g3991
sg56
(lp3998
g49
(g58
g51
NtRp3999
(dp4000
g54
(dp4001
g62
I3
ssg63
Nsg56
(lp4002
g49
(g65
g51
NtRp4003
(dp4004
g54
(dp4005
sg63
g3999
sg56
(lp4006
g49
(g70
g51
NtRp4007
(dp4008
g54
(dp4009
sg63
g4003
sg56
(lp4010
g49
(g50
g51
NtRp4011
(dp4012
g54
(dp4013
g62
I3
ssg63
g4007
sg56
(lp4014
g3852
(S's\x04\x00\x00\x00Help'
tRp4015
asbasbasbag49
(g65
g51
NtRp4016
(dp4017
g54
(dp4018
sg63
g3999
sg56
(lp4019
g49
(g70
g51
NtRp4020
(dp4021
g54
(dp4022
sg63
g4016
sg56
(lp4023
g49
(g50
g51
NtRp4024
(dp4025
g54
(dp4026
g62
I3
ssg63
g4020
sg56
(lp4027
g912
asbasbasbag49
(g65
g51
NtRp4028
(dp4029
g54
(dp4030
sg63
g3999
sg56
(lp4031
g49
(g70
g51
NtRp4032
(dp4033
g54
(dp4034
sg63
g4028
sg56
(lp4035
g49
(g50
g51
NtRp4036
(dp4037
g54
(dp4038
g62
I3
ssg63
g4032
sg56
(lp4039
S'/examples/default/index'
p4040
asbasbasbasbasbasbasbasbasbasbasbag49
(g65
g51
NtRp4041
(dp4042
g54
(dp4043
sg63
g3276
sg56
(lp4044
g49
(g70
g51
NtRp4045
(dp4046
g54
(dp4047
g74
g75
ssg63
g4041
sg56
(lp4048
S'meta'
p4049
asbag49
(g70
g51
NtRp4050
(dp4051
g54
(dp4052
g81
g82
ssg63
g4041
sg56
(lp4053
S':'
asbag49
(g70
g51
NtRp4054
(dp4055
g54
(dp4056
sg63
g4041
sg56
(lp4057
g49
(g50
g51
NtRp4058
(dp4059
g54
(dp4060
g62
I5
ssg63
g4054
sg56
(lp4061
g49
(g58
g51
NtRp4062
(dp4063
g54
(dp4064
g62
I4
ssg63
Nsg56
(lp4065
sbasbasbasbag49
(g65
g51
NtRp4066
(dp4067
g54
(dp4068
sg63
g3276
sg56
(lp4069
g49
(g70
g51
NtRp4070
(dp4071
g54
(dp4072
g74
g75
ssg63
g4066
sg56
(lp4073
S'postprocessing'
p4074
asbag49
(g70
g51
NtRp4075
(dp4076
g54
(dp4077
g81
g82
ssg63
g4066
sg56
(lp4078
S':'
asbag49
(g70
g51
NtRp4079
(dp4080
g54
(dp4081
sg63
g4066
sg56
(lp4082
g49
(g50
g51
NtRp4083
(dp4084
g54
(dp4085
g62
I5
ssg63
g4079
sg56
(lp4086
g49
(g58
g51
NtRp4087
(dp4088
g54
(dp4089
g62
I4
ssg63
Nsg56
(lp4090
sbasbasbasbag49
(g65
g51
NtRp4091
(dp4092
g54
(dp4093
sg63
g3276
sg56
(lp4094
g49
(g70
g51
NtRp4095
(dp4096
g54
(dp4097
g74
g75
ssg63
g4091
sg56
(lp4098
S'session_file'
p4099
asbag49
(g70
g51
NtRp4100
(dp4101
g54
(dp4102
g81
g82
ssg63
g4091
sg56
(lp4103
S':'
asbag49
(g70
g51
NtRp4104
(dp4105
g54
(dp4106
sg63
g4091
sg56
(lp4107
g49
(g50
g51
NtRp4108
(dp4109
g54
(dp4110
g62
I5
ssg63
g4104
sg56
(lp4111
S"<open file 'D:\\web2py\\applications\\admin\\sessions\\127.0.0.1-b54cd5c5-5484-4756-a0b6-07485af2cf8d', mode 'rb+' at 0x03269890>"
p4112
asbasbasbag49
(g65
g51
NtRp4113
(dp4114
g54
(dp4115
sg63
g3276
sg56
(lp4116
g49
(g70
g51
NtRp4117
(dp4118
g54
(dp4119
g74
g75
ssg63
g4113
sg56
(lp4120
S'session_filename'
p4121
asbag49
(g70
g51
NtRp4122
(dp4123
g54
(dp4124
g81
g82
ssg63
g4113
sg56
(lp4125
S':'
asbag49
(g70
g51
NtRp4126
(dp4127
g54
(dp4128
sg63
g4113
sg56
(lp4129
g49
(g50
g51
NtRp4130
(dp4131
g54
(dp4132
g62
I5
ssg63
g4126
sg56
(lp4133
S'D:\\web2py\\applications\\admin\\sessions\\127.0.0.1-b54cd5c5-5484-4756-a0b6-07485af2cf8d'
p4134
asbasbasbag49
(g65
g51
NtRp4135
(dp4136
g54
(dp4137
sg63
g3276
sg56
(lp4138
g49
(g70
g51
NtRp4139
(dp4140
g54
(dp4141
g74
g75
ssg63
g4135
sg56
(lp4142
S'session_id'
p4143
asbag49
(g70
g51
NtRp4144
(dp4145
g54
(dp4146
g81
g82
ssg63
g4135
sg56
(lp4147
S':'
asbag49
(g70
g51
NtRp4148
(dp4149
g54
(dp4150
sg63
g4135
sg56
(lp4151
g49
(g50
g51
NtRp4152
(dp4153
g54
(dp4154
g62
I5
ssg63
g4148
sg56
(lp4155
S'127.0.0.1-b54cd5c5-5484-4756-a0b6-07485af2cf8d'
p4156
asbasbasbag49
(g65
g51
NtRp4157
(dp4158
g54
(dp4159
sg63
g3276
sg56
(lp4160
g49
(g70
g51
NtRp4161
(dp4162
g54
(dp4163
g74
g75
ssg63
g4157
sg56
(lp4164
S'session_id_name'
p4165
asbag49
(g70
g51
NtRp4166
(dp4167
g54
(dp4168
g81
g82
ssg63
g4157
sg56
(lp4169
S':'
asbag49
(g70
g51
NtRp4170
(dp4171
g54
(dp4172
sg63
g4157
sg56
(lp4173
g49
(g50
g51
NtRp4174
(dp4175
g54
(dp4176
g62
I5
ssg63
g4170
sg56
(lp4177
g3333
asbasbasbag49
(g65
g51
NtRp4178
(dp4179
g54
(dp4180
sg63
g3276
sg56
(lp4181
g49
(g70
g51
NtRp4182
(dp4183
g54
(dp4184
g74
g75
ssg63
g4178
sg56
(lp4185
S'session_locked'
p4186
asbag49
(g70
g51
NtRp4187
(dp4188
g54
(dp4189
g81
g82
ssg63
g4178
sg56
(lp4190
S':'
asbag49
(g70
g51
NtRp4191
(dp4192
g54
(dp4193
sg63
g4178
sg56
(lp4194
g49
(g50
g51
NtRp4195
(dp4196
g54
(dp4197
g62
I5
ssg63
g4191
sg56
(lp4198
g912
asbasbasbag49
(g65
g51
NtRp4199
(dp4200
g54
(dp4201
sg63
g3276
sg56
(lp4202
g49
(g70
g51
NtRp4203
(dp4204
g54
(dp4205
g74
g75
ssg63
g4199
sg56
(lp4206
S'session_new'
p4207
asbag49
(g70
g51
NtRp4208
(dp4209
g54
(dp4210
g81
g82
ssg63
g4199
sg56
(lp4211
S':'
asbag49
(g70
g51
NtRp4212
(dp4213
g54
(dp4214
sg63
g4199
sg56
(lp4215
g49
(g50
g51
NtRp4216
(dp4217
g54
(dp4218
g62
I5
ssg63
g4212
sg56
(lp4219
g912
asbasbasbag49
(g65
g51
NtRp4220
(dp4221
g54
(dp4222
sg63
g3276
sg56
(lp4223
g49
(g70
g51
NtRp4224
(dp4225
g54
(dp4226
g74
g75
ssg63
g4220
sg56
(lp4227
S'status'
p4228
asbag49
(g70
g51
NtRp4229
(dp4230
g54
(dp4231
g81
g82
ssg63
g4220
sg56
(lp4232
S':'
asbag49
(g70
g51
NtRp4233
(dp4234
g54
(dp4235
sg63
g4220
sg56
(lp4236
g49
(g50
g51
NtRp4237
(dp4238
g54
(dp4239
g62
I5
ssg63
g4233
sg56
(lp4240
S'200'
p4241
asbasbasbag49
(g65
g51
NtRp4242
(dp4243
g54
(dp4244
sg63
g3276
sg56
(lp4245
g49
(g70
g51
NtRp4246
(dp4247
g54
(dp4248
g74
g75
ssg63
g4242
sg56
(lp4249
S'subtitle'
p4250
asbag49
(g70
g51
NtRp4251
(dp4252
g54
(dp4253
g81
g82
ssg63
g4242
sg56
(lp4254
S':'
asbag49
(g70
g51
NtRp4255
(dp4256
g54
(dp4257
sg63
g4242
sg56
(lp4258
g49
(g50
g51
NtRp4259
(dp4260
g54
(dp4261
g62
I5
ssg63
g4255
sg56
(lp4262
S'admin'
p4263
asbasbasbag49
(g65
g51
NtRp4264
(dp4265
g54
(dp4266
sg63
g3276
sg56
(lp4267
g49
(g70
g51
NtRp4268
(dp4269
g54
(dp4270
g74
g75
ssg63
g4264
sg56
(lp4271
S'title'
p4272
asbag49
(g70
g51
NtRp4273
(dp4274
g54
(dp4275
g81
g82
ssg63
g4264
sg56
(lp4276
S':'
asbag49
(g70
g51
NtRp4277
(dp4278
g54
(dp4279
sg63
g4264
sg56
(lp4280
g49
(g50
g51
NtRp4281
(dp4282
g54
(dp4283
g62
I5
ssg63
g4277
sg56
(lp4284
S'check_version '
p4285
asbasbasbag49
(g65
g51
NtRp4286
(dp4287
g54
(dp4288
sg63
g3276
sg56
(lp4289
g49
(g70
g51
NtRp4290
(dp4291
g54
(dp4292
g74
g75
ssg63
g4286
sg56
(lp4293
g2380
asbag49
(g70
g51
NtRp4294
(dp4295
g54
(dp4296
g81
g82
ssg63
g4286
sg56
(lp4297
S':'
asbag49
(g70
g51
NtRp4298
(dp4299
g54
(dp4300
sg63
g4286
sg56
(lp4301
g49
(g50
g51
NtRp4302
(dp4303
g54
(dp4304
g62
I5
ssg63
g4298
sg56
(lp4305
g2393
asbasbasbag49
(g65
g51
NtRp4306
(dp4307
g54
(dp4308
sg63
g3276
sg56
(lp4309
g49
(g70
g51
NtRp4310
(dp4311
g54
(dp4312
g74
g75
ssg63
g4306
sg56
(lp4313
S'view'
p4314
asbag49
(g70
g51
NtRp4315
(dp4316
g54
(dp4317
g81
g82
ssg63
g4306
sg56
(lp4318
S':'
asbag49
(g70
g51
NtRp4319
(dp4320
g54
(dp4321
sg63
g4306
sg56
(lp4322
g49
(g50
g51
NtRp4323
(dp4324
g54
(dp4325
g62
I5
ssg63
g4319
sg56
(lp4326
S'default/check_version.html'
p4327
asbasbasbasbasbsS'locals'
p4328
(dp4329
S'version_number'
p4330
S"(2, 2, 1, datetime.datetime(2012, 10, 21, 16, 57, 4), 'stable')"
p4331
sS'new_version'
p4332
g92
sssS'traceback'
p4333
S'Traceback (most recent call last):\n  File "gluon/restricted.py", line 205, in restricted\n  File "D:\\web2py\\applications\\admin\\controllers/default.py", line 1352, in <module>\n  File "gluon/globals.py", line 173, in <lambda>\n  File "D:\\web2py\\applications\\admin\\controllers/default.py", line 110, in check_version\nTypeError: not all arguments converted during string formatting\n'
p4334
s.