(dp1
S'output'
p2
S"<type 'exceptions.TypeError'> write() got an unexpected keyword argument 'text_file'"
p3
sS'layer'
p4
S'C:\\web2py\\applications\\ssad_project_f\\views\\default/kruskal.html'
p5
sS'code'
p6
S'response.write(\'<!DOCTYPE html PUBLIC "-//W3C//DTD XHTML 1.0 Strict//EN" "http://www.w3.org/TR/xhtml1/DTD/xhtml1-strict.dtd">\\n<!-- Template Design by TheWebhub.com | http://www.thewebhub.com | Released for free under a Creative Commons Attribution-Share Alike 3.0 Philippines -->\\n<html xmlns="http://www.w3.org/1999/xhtml">\\n <head>\\n  <title>\\n   \', escape=False)\nresponse.write(response.title or request.application)\nresponse.write(\'\\n  </title>\\n  \', escape=False)\nresponse.files.append(URL(request.application,\'static\',\'plugin_layouts/layouts/CorporateOffice/style.css\'))\nresponse.write(\'\\n  \', escape=False)\nresponse.files.append(URL(\'static\',\'plugin_layouts/superfish.js\'))\nresponse.write(\'\\n  \', escape=False)\nresponse.write(\'<script type="text/javascript"><!--\\n    // These variables are used by the web2py_ajax_init function in web2py_ajax.js (which is loaded below).\\n    var w2p_ajax_confirm_message = "\', escape=False)\nresponse.write(T(\'Are you sure you want to delete this object?\'))\nresponse.write(\'";\\n    var w2p_ajax_date_format = "\', escape=False)\nresponse.write(T(\'%Y-%m-%d\'))\nresponse.write(\'";\\n    var w2p_ajax_datetime_format = "\', escape=False)\nresponse.write(T(\'%Y-%m-%d %H:%M:%S\'))\nresponse.write(\'";\\n    //--></script>\\n\', escape=False)\nresponse.files.insert(0,URL(\'static\',\'js/jquery.js\'))\nresponse.files.insert(1,URL(\'static\',\'css/calendar.css\'))\nresponse.files.insert(2,URL(\'static\',\'js/calendar.js\'))\nresponse.files.insert(3,URL(\'static\',\'js/web2py.js\'))\nresponse.include_meta()\nresponse.include_files()\nresponse.write(\'\\n\', escape=False)\nresponse.write(\'\\n  <style>\\nul.web2py-menu-vertical { width: 150px; position: relative; top:1em; left:1em;  z-index:30; border:0; margin:0; padding: 0; list-style: none; text-decoration: none;}\\nul.web2py-menu-vertical li { margin:0; padding:0; border:0; width: 150px; background: black; text-align:left;}\\nul.web2py-menu-vertical li a { margin:0; padding: 1px 3px 1px 3px; border:0; width: 144px; color: white; font-size:12px;}\\ndiv.flash { position: fixed; float: right; padding: 10px; top: 10px; right: 30px; opacity: 0.75; margin: 10px 10px 10px 10px; text-align: center; clear: both; color: #fff; font-size: 11pt; text-align: center; vertical-align: middle; cursor: pointer; background: black; border: 2px solid #fff; -moz-border-radius: 5px; -webkit-border-radius: 5px; z-index: 2; }\\ndiv.error { background-color: red; color: white; padding: 3px; }\\n.auth_navbar { text-align:right; z-index:20; position: absolute; top: 2px; right:30px; border:0; padding:0 }\\n  </style>\\n </head>\\n <body>\\n  <!-- start header -->\\n  \', escape=False)\ntry:\n    response.write(auth.navbar(action=URL(\'default\',\'user\')))\nexcept:pass\nresponse.write(\'\\n\\n  <div id="wrapper">\\n  <div id="header"> \\n    <h1>\\n    Hierarchy Generator\\n    </h1>\\n  <!--  <h2>\\n     \', escape=False)\nresponse.write(response.subtitle or \'=response.subtitle\')\nresponse.write(\'\\n    </h2> -->\\n   </div>\\n  <!-- <div id="menu">\\n    \', escape=False)\nresponse.write(MENU(response.menu,_class=\'web2py-menu\'))\nresponse.write(\'\\n    <script>\\n      jQuery(document).ready(function(){jQuery(\\\'ul.web2py-menu\\\').superfish({delay:400});});\\n    </script>\\n   </div> -->\\n   <div id="content">\\n    <div class="flash">\', escape=False)\nresponse.write(response.flash or \'\')\nresponse.write(\'</div>\\n    \', escape=False)\nresponse.write(\'\\r\\n<a href="index">Home</a>\\r\\n<br>\\r\\n<h5>ith element of p forms edge with corresponding employee of q in the minimum spanning tree</h5>\\r\\n</br>\\r\\n"Creating a text file with the write() method."\\r\\n\', escape=False)\nresponse.write(text_file = open("write_it.txt", "w"))\nresponse.write(\'\\r\\n\', escape=False)\nresponse.write(text_file.write("Line 1\\n"))\nresponse.write(\'\\r\\n\', escape=False)\nresponse.write(text_file.write("This is line 2\\n"))\nresponse.write(\'\\r\\n\', escape=False)\nresponse.write(text_file.write("That makes this line 3\\n"))\nresponse.write(\'\\r\\n\', escape=False)\nresponse.write(text_file.close())\nresponse.write(\'\\r\\n\', escape=False)\nresponse.write(BEAUTIFY(response._vars))\nresponse.write(\'\\r\\n\', escape=False)\nresponse.write(\'\\n   </div> \\n <!--  <div id="footer">\\n    <p class="copyright">\\n     Copyright &copy; 2006 Sitename.com. Template Designed by\\n     <a href="http://www.thewebhub.com/">\\n      TheWebHub.com\\n     </a>\\n     &nbsp;&nbsp;&nbsp;Free Icons by\\n     <a href="http://famfamfam.com/">\\n      FAMFAMFAM\\n     </a>\\n    </p>\\n    <p class="links">\\n     <a href="http://validator.w3.org/check/referer" class="xhtml">\\n      Valid XHTML\\n     </a>\\n     &nbsp;&nbsp;&nbsp;\\n     <a href="http://jigsaw.w3.org/css-validator/check/referer" class="css">\\n      Valid CSS\\n     </a>\\n    </p>\\n   </div>\\n  </div> -->\\n </body>\\n</html>\\n\', escape=False)'
p7
sS'snapshot'
p8
(dp9
S'exception'
p10
(dp11
S'__hash__'
p12
S"<method-wrapper '__hash__' of exceptions.TypeError object at 0x06ABF990>"
p13
sS'__setattr__'
p14
S"<method-wrapper '__setattr__' of exceptions.TypeError object at 0x06ABF990>"
p15
sS'__reduce_ex__'
p16
S'<built-in method __reduce_ex__ of exceptions.TypeError object at 0x06ABF990>'
p17
sS'__getslice__'
p18
S"<method-wrapper '__getslice__' of exceptions.TypeError object at 0x06ABF990>"
p19
sS'__getitem__'
p20
S"<method-wrapper '__getitem__' of exceptions.TypeError object at 0x06ABF990>"
p21
sS'__setstate__'
p22
S'<built-in method __setstate__ of exceptions.TypeError object at 0x06ABF990>'
p23
sS'__reduce__'
p24
S'<built-in method __reduce__ of exceptions.TypeError object at 0x06ABF990>'
p25
sS'__str__'
p26
S"<method-wrapper '__str__' of exceptions.TypeError object at 0x06ABF990>"
p27
sS'args'
p28
S'("write() got an unexpected keyword argument \'text_file\'",)'
p29
sS'__getattribute__'
p30
S"<method-wrapper '__getattribute__' of exceptions.TypeError object at 0x06ABF990>"
p31
sS'__class__'
p32
S"<type 'exceptions.TypeError'>"
p33
sS'__delattr__'
p34
S"<method-wrapper '__delattr__' of exceptions.TypeError object at 0x06ABF990>"
p35
sS'__repr__'
p36
S"<method-wrapper '__repr__' of exceptions.TypeError object at 0x06ABF990>"
p37
sS'__dict__'
p38
S'{}'
p39
sS'__doc__'
p40
S"'Inappropriate argument type.'"
p41
sS'__init__'
p42
S"<method-wrapper '__init__' of exceptions.TypeError object at 0x06ABF990>"
p43
sS'__new__'
p44
S'<built-in method __new__ of type object at 0x1E1CCD78>'
p45
ssS'evalue'
p46
S"write() got an unexpected keyword argument 'text_file'"
p47
sS'request'
p48
ccopy_reg
_reconstructor
p49
(cgluon.html
BEAUTIFY
p50
c__builtin__
object
p51
NtRp52
(dp53
S'attributes'
p54
(dp55
sS'components'
p56
(lp57
g49
(cgluon.html
TABLE
p58
g51
NtRp59
(dp60
g54
(dp61
S'level'
p62
I5
ssS'parent'
p63
Nsg56
(lp64
g49
(cgluon.html
TR
p65
g51
NtRp66
(dp67
g54
(dp68
sg63
g59
sg56
(lp69
g49
(cgluon.html
TD
p70
g51
NtRp71
(dp72
g54
(dp73
S'_style'
p74
S'font-weight:bold;vertical-align:top'
p75
ssg63
g66
sg56
(lp76
S'ajax'
p77
asbag49
(g70
g51
NtRp78
(dp79
g54
(dp80
S'_valign'
p81
S'top'
p82
ssg63
g66
sg56
(lp83
S':'
asbag49
(g70
g51
NtRp84
(dp85
g54
(dp86
sg63
g66
sg56
(lp87
g49
(g50
g51
NtRp88
(dp89
g54
(dp90
g62
I5
ssg63
g84
sg56
(lp91
S'False'
p92
asbasbasbag49
(g65
g51
NtRp93
(dp94
g54
(dp95
sg63
g59
sg56
(lp96
g49
(g70
g51
NtRp97
(dp98
g54
(dp99
g74
g75
ssg63
g93
sg56
(lp100
S'application'
p101
asbag49
(g70
g51
NtRp102
(dp103
g54
(dp104
g81
g82
ssg63
g93
sg56
(lp105
S':'
asbag49
(g70
g51
NtRp106
(dp107
g54
(dp108
sg63
g93
sg56
(lp109
g49
(g50
g51
NtRp110
(dp111
g54
(dp112
g62
I5
ssg63
g106
sg56
(lp113
S'ssad_project_f'
p114
asbasbasbag49
(g65
g51
NtRp115
(dp116
g54
(dp117
sg63
g59
sg56
(lp118
g49
(g70
g51
NtRp119
(dp120
g54
(dp121
g74
g75
ssg63
g115
sg56
(lp122
g28
asbag49
(g70
g51
NtRp123
(dp124
g54
(dp125
g81
g82
ssg63
g115
sg56
(lp126
S':'
asbag49
(g70
g51
NtRp127
(dp128
g54
(dp129
sg63
g115
sg56
(lp130
g49
(g50
g51
NtRp131
(dp132
g54
(dp133
g62
I5
ssg63
g127
sg56
(lp134
g49
(g58
g51
NtRp135
(dp136
g54
(dp137
g62
I4
ssg63
Nsg56
(lp138
sbasbasbasbag49
(g65
g51
NtRp139
(dp140
g54
(dp141
sg63
g59
sg56
(lp142
g49
(g70
g51
NtRp143
(dp144
g54
(dp145
g74
g75
ssg63
g139
sg56
(lp146
S'body'
p147
asbag49
(g70
g51
NtRp148
(dp149
g54
(dp150
g81
g82
ssg63
g139
sg56
(lp151
S':'
asbag49
(g70
g51
NtRp152
(dp153
g54
(dp154
sg63
g139
sg56
(lp155
g49
(g50
g51
NtRp156
(dp157
g54
(dp158
g62
I5
ssg63
g152
sg56
(lp159
S'<cStringIO.StringO object at 0x068D2300>'
p160
asbasbasbag49
(g65
g51
NtRp161
(dp162
g54
(dp163
sg63
g59
sg56
(lp164
g49
(g70
g51
NtRp165
(dp166
g54
(dp167
g74
g75
ssg63
g161
sg56
(lp168
S'client'
p169
asbag49
(g70
g51
NtRp170
(dp171
g54
(dp172
g81
g82
ssg63
g161
sg56
(lp173
S':'
asbag49
(g70
g51
NtRp174
(dp175
g54
(dp176
sg63
g161
sg56
(lp177
g49
(g50
g51
NtRp178
(dp179
g54
(dp180
g62
I5
ssg63
g174
sg56
(lp181
S'127.0.0.1'
p182
asbasbasbag49
(g65
g51
NtRp183
(dp184
g54
(dp185
sg63
g59
sg56
(lp186
g49
(g70
g51
NtRp187
(dp188
g54
(dp189
g74
g75
ssg63
g183
sg56
(lp190
S'controller'
p191
asbag49
(g70
g51
NtRp192
(dp193
g54
(dp194
g81
g82
ssg63
g183
sg56
(lp195
S':'
asbag49
(g70
g51
NtRp196
(dp197
g54
(dp198
sg63
g183
sg56
(lp199
g49
(g50
g51
NtRp200
(dp201
g54
(dp202
g62
I5
ssg63
g196
sg56
(lp203
S'default'
p204
asbasbasbag49
(g65
g51
NtRp205
(dp206
g54
(dp207
sg63
g59
sg56
(lp208
g49
(g70
g51
NtRp209
(dp210
g54
(dp211
g74
g75
ssg63
g205
sg56
(lp212
S'cookies'
p213
asbag49
(g70
g51
NtRp214
(dp215
g54
(dp216
g81
g82
ssg63
g205
sg56
(lp217
S':'
asbag49
(g70
g51
NtRp218
(dp219
g54
(dp220
sg63
g205
sg56
(lp221
g49
(g50
g51
NtRp222
(dp223
g54
(dp224
g62
I5
ssg63
g218
sg56
(lp225
g49
(g58
g51
NtRp226
(dp227
g54
(dp228
g62
I4
ssg63
Nsg56
(lp229
g49
(g65
g51
NtRp230
(dp231
g54
(dp232
sg63
g226
sg56
(lp233
g49
(g70
g51
NtRp234
(dp235
g54
(dp236
g74
g75
ssg63
g230
sg56
(lp237
S'session_id_admin'
p238
asbag49
(g70
g51
NtRp239
(dp240
g54
(dp241
g81
g82
ssg63
g230
sg56
(lp242
S':'
asbag49
(g70
g51
NtRp243
(dp244
g54
(dp245
sg63
g230
sg56
(lp246
g49
(g50
g51
NtRp247
(dp248
g54
(dp249
g62
I4
ssg63
g243
sg56
(lp250
g49
(g58
g51
NtRp251
(dp252
g54
(dp253
g62
I3
ssg63
Nsg56
(lp254
g49
(g65
g51
NtRp255
(dp256
g54
(dp257
sg63
g251
sg56
(lp258
g49
(g70
g51
NtRp259
(dp260
g54
(dp261
g74
g75
ssg63
g255
sg56
(lp262
S'comment'
p263
asbag49
(g70
g51
NtRp264
(dp265
g54
(dp266
g81
g82
ssg63
g255
sg56
(lp267
S':'
asbag49
(g70
g51
NtRp268
(dp269
g54
(dp270
sg63
g255
sg56
(lp271
g49
(g50
g51
NtRp272
(dp273
g54
(dp274
g62
I3
ssg63
g268
sg56
(lp275
S''
asbasbasbag49
(g65
g51
NtRp276
(dp277
g54
(dp278
sg63
g251
sg56
(lp279
g49
(g70
g51
NtRp280
(dp281
g54
(dp282
g74
g75
ssg63
g276
sg56
(lp283
S'domain'
p284
asbag49
(g70
g51
NtRp285
(dp286
g54
(dp287
g81
g82
ssg63
g276
sg56
(lp288
S':'
asbag49
(g70
g51
NtRp289
(dp290
g54
(dp291
sg63
g276
sg56
(lp292
g49
(g50
g51
NtRp293
(dp294
g54
(dp295
g62
I3
ssg63
g289
sg56
(lp296
S''
asbasbasbag49
(g65
g51
NtRp297
(dp298
g54
(dp299
sg63
g251
sg56
(lp300
g49
(g70
g51
NtRp301
(dp302
g54
(dp303
g74
g75
ssg63
g297
sg56
(lp304
S'expires'
p305
asbag49
(g70
g51
NtRp306
(dp307
g54
(dp308
g81
g82
ssg63
g297
sg56
(lp309
S':'
asbag49
(g70
g51
NtRp310
(dp311
g54
(dp312
sg63
g297
sg56
(lp313
g49
(g50
g51
NtRp314
(dp315
g54
(dp316
g62
I3
ssg63
g310
sg56
(lp317
S''
asbasbasbag49
(g65
g51
NtRp318
(dp319
g54
(dp320
sg63
g251
sg56
(lp321
g49
(g70
g51
NtRp322
(dp323
g54
(dp324
g74
g75
ssg63
g318
sg56
(lp325
S'max-age'
p326
asbag49
(g70
g51
NtRp327
(dp328
g54
(dp329
g81
g82
ssg63
g318
sg56
(lp330
S':'
asbag49
(g70
g51
NtRp331
(dp332
g54
(dp333
sg63
g318
sg56
(lp334
g49
(g50
g51
NtRp335
(dp336
g54
(dp337
g62
I3
ssg63
g331
sg56
(lp338
S''
asbasbasbag49
(g65
g51
NtRp339
(dp340
g54
(dp341
sg63
g251
sg56
(lp342
g49
(g70
g51
NtRp343
(dp344
g54
(dp345
g74
g75
ssg63
g339
sg56
(lp346
S'path'
p347
asbag49
(g70
g51
NtRp348
(dp349
g54
(dp350
g81
g82
ssg63
g339
sg56
(lp351
S':'
asbag49
(g70
g51
NtRp352
(dp353
g54
(dp354
sg63
g339
sg56
(lp355
g49
(g50
g51
NtRp356
(dp357
g54
(dp358
g62
I3
ssg63
g352
sg56
(lp359
S''
asbasbasbag49
(g65
g51
NtRp360
(dp361
g54
(dp362
sg63
g251
sg56
(lp363
g49
(g70
g51
NtRp364
(dp365
g54
(dp366
g74
g75
ssg63
g360
sg56
(lp367
S'secure'
p368
asbag49
(g70
g51
NtRp369
(dp370
g54
(dp371
g81
g82
ssg63
g360
sg56
(lp372
S':'
asbag49
(g70
g51
NtRp373
(dp374
g54
(dp375
sg63
g360
sg56
(lp376
g49
(g50
g51
NtRp377
(dp378
g54
(dp379
g62
I3
ssg63
g373
sg56
(lp380
S''
asbasbasbag49
(g65
g51
NtRp381
(dp382
g54
(dp383
sg63
g251
sg56
(lp384
g49
(g70
g51
NtRp385
(dp386
g54
(dp387
g74
g75
ssg63
g381
sg56
(lp388
S'version'
p389
asbag49
(g70
g51
NtRp390
(dp391
g54
(dp392
g81
g82
ssg63
g381
sg56
(lp393
S':'
asbag49
(g70
g51
NtRp394
(dp395
g54
(dp396
sg63
g381
sg56
(lp397
g49
(g50
g51
NtRp398
(dp399
g54
(dp400
g62
I3
ssg63
g394
sg56
(lp401
S''
asbasbasbasbasbasbasbag49
(g65
g51
NtRp402
(dp403
g54
(dp404
sg63
g226
sg56
(lp405
g49
(g70
g51
NtRp406
(dp407
g54
(dp408
g74
g75
ssg63
g402
sg56
(lp409
S'session_id_ssad_project'
p410
asbag49
(g70
g51
NtRp411
(dp412
g54
(dp413
g81
g82
ssg63
g402
sg56
(lp414
S':'
asbag49
(g70
g51
NtRp415
(dp416
g54
(dp417
sg63
g402
sg56
(lp418
g49
(g50
g51
NtRp419
(dp420
g54
(dp421
g62
I4
ssg63
g415
sg56
(lp422
g49
(g58
g51
NtRp423
(dp424
g54
(dp425
g62
I3
ssg63
Nsg56
(lp426
g49
(g65
g51
NtRp427
(dp428
g54
(dp429
sg63
g423
sg56
(lp430
g49
(g70
g51
NtRp431
(dp432
g54
(dp433
g74
g75
ssg63
g427
sg56
(lp434
g263
asbag49
(g70
g51
NtRp435
(dp436
g54
(dp437
g81
g82
ssg63
g427
sg56
(lp438
S':'
asbag49
(g70
g51
NtRp439
(dp440
g54
(dp441
sg63
g427
sg56
(lp442
g49
(g50
g51
NtRp443
(dp444
g54
(dp445
g62
I3
ssg63
g439
sg56
(lp446
S''
asbasbasbag49
(g65
g51
NtRp447
(dp448
g54
(dp449
sg63
g423
sg56
(lp450
g49
(g70
g51
NtRp451
(dp452
g54
(dp453
g74
g75
ssg63
g447
sg56
(lp454
g284
asbag49
(g70
g51
NtRp455
(dp456
g54
(dp457
g81
g82
ssg63
g447
sg56
(lp458
S':'
asbag49
(g70
g51
NtRp459
(dp460
g54
(dp461
sg63
g447
sg56
(lp462
g49
(g50
g51
NtRp463
(dp464
g54
(dp465
g62
I3
ssg63
g459
sg56
(lp466
S''
asbasbasbag49
(g65
g51
NtRp467
(dp468
g54
(dp469
sg63
g423
sg56
(lp470
g49
(g70
g51
NtRp471
(dp472
g54
(dp473
g74
g75
ssg63
g467
sg56
(lp474
g305
asbag49
(g70
g51
NtRp475
(dp476
g54
(dp477
g81
g82
ssg63
g467
sg56
(lp478
S':'
asbag49
(g70
g51
NtRp479
(dp480
g54
(dp481
sg63
g467
sg56
(lp482
g49
(g50
g51
NtRp483
(dp484
g54
(dp485
g62
I3
ssg63
g479
sg56
(lp486
S''
asbasbasbag49
(g65
g51
NtRp487
(dp488
g54
(dp489
sg63
g423
sg56
(lp490
g49
(g70
g51
NtRp491
(dp492
g54
(dp493
g74
g75
ssg63
g487
sg56
(lp494
g326
asbag49
(g70
g51
NtRp495
(dp496
g54
(dp497
g81
g82
ssg63
g487
sg56
(lp498
S':'
asbag49
(g70
g51
NtRp499
(dp500
g54
(dp501
sg63
g487
sg56
(lp502
g49
(g50
g51
NtRp503
(dp504
g54
(dp505
g62
I3
ssg63
g499
sg56
(lp506
S''
asbasbasbag49
(g65
g51
NtRp507
(dp508
g54
(dp509
sg63
g423
sg56
(lp510
g49
(g70
g51
NtRp511
(dp512
g54
(dp513
g74
g75
ssg63
g507
sg56
(lp514
g347
asbag49
(g70
g51
NtRp515
(dp516
g54
(dp517
g81
g82
ssg63
g507
sg56
(lp518
S':'
asbag49
(g70
g51
NtRp519
(dp520
g54
(dp521
sg63
g507
sg56
(lp522
g49
(g50
g51
NtRp523
(dp524
g54
(dp525
g62
I3
ssg63
g519
sg56
(lp526
S''
asbasbasbag49
(g65
g51
NtRp527
(dp528
g54
(dp529
sg63
g423
sg56
(lp530
g49
(g70
g51
NtRp531
(dp532
g54
(dp533
g74
g75
ssg63
g527
sg56
(lp534
g368
asbag49
(g70
g51
NtRp535
(dp536
g54
(dp537
g81
g82
ssg63
g527
sg56
(lp538
S':'
asbag49
(g70
g51
NtRp539
(dp540
g54
(dp541
sg63
g527
sg56
(lp542
g49
(g50
g51
NtRp543
(dp544
g54
(dp545
g62
I3
ssg63
g539
sg56
(lp546
S''
asbasbasbag49
(g65
g51
NtRp547
(dp548
g54
(dp549
sg63
g423
sg56
(lp550
g49
(g70
g51
NtRp551
(dp552
g54
(dp553
g74
g75
ssg63
g547
sg56
(lp554
g389
asbag49
(g70
g51
NtRp555
(dp556
g54
(dp557
g81
g82
ssg63
g547
sg56
(lp558
S':'
asbag49
(g70
g51
NtRp559
(dp560
g54
(dp561
sg63
g547
sg56
(lp562
g49
(g50
g51
NtRp563
(dp564
g54
(dp565
g62
I3
ssg63
g559
sg56
(lp566
S''
asbasbasbasbasbasbasbag49
(g65
g51
NtRp567
(dp568
g54
(dp569
sg63
g226
sg56
(lp570
g49
(g70
g51
NtRp571
(dp572
g54
(dp573
g74
g75
ssg63
g567
sg56
(lp574
S'session_id_ssad_project_f'
p575
asbag49
(g70
g51
NtRp576
(dp577
g54
(dp578
g81
g82
ssg63
g567
sg56
(lp579
S':'
asbag49
(g70
g51
NtRp580
(dp581
g54
(dp582
sg63
g567
sg56
(lp583
g49
(g50
g51
NtRp584
(dp585
g54
(dp586
g62
I4
ssg63
g580
sg56
(lp587
g49
(g58
g51
NtRp588
(dp589
g54
(dp590
g62
I3
ssg63
Nsg56
(lp591
g49
(g65
g51
NtRp592
(dp593
g54
(dp594
sg63
g588
sg56
(lp595
g49
(g70
g51
NtRp596
(dp597
g54
(dp598
g74
g75
ssg63
g592
sg56
(lp599
g263
asbag49
(g70
g51
NtRp600
(dp601
g54
(dp602
g81
g82
ssg63
g592
sg56
(lp603
S':'
asbag49
(g70
g51
NtRp604
(dp605
g54
(dp606
sg63
g592
sg56
(lp607
g49
(g50
g51
NtRp608
(dp609
g54
(dp610
g62
I3
ssg63
g604
sg56
(lp611
S''
asbasbasbag49
(g65
g51
NtRp612
(dp613
g54
(dp614
sg63
g588
sg56
(lp615
g49
(g70
g51
NtRp616
(dp617
g54
(dp618
g74
g75
ssg63
g612
sg56
(lp619
g284
asbag49
(g70
g51
NtRp620
(dp621
g54
(dp622
g81
g82
ssg63
g612
sg56
(lp623
S':'
asbag49
(g70
g51
NtRp624
(dp625
g54
(dp626
sg63
g612
sg56
(lp627
g49
(g50
g51
NtRp628
(dp629
g54
(dp630
g62
I3
ssg63
g624
sg56
(lp631
S''
asbasbasbag49
(g65
g51
NtRp632
(dp633
g54
(dp634
sg63
g588
sg56
(lp635
g49
(g70
g51
NtRp636
(dp637
g54
(dp638
g74
g75
ssg63
g632
sg56
(lp639
g305
asbag49
(g70
g51
NtRp640
(dp641
g54
(dp642
g81
g82
ssg63
g632
sg56
(lp643
S':'
asbag49
(g70
g51
NtRp644
(dp645
g54
(dp646
sg63
g632
sg56
(lp647
g49
(g50
g51
NtRp648
(dp649
g54
(dp650
g62
I3
ssg63
g644
sg56
(lp651
S''
asbasbasbag49
(g65
g51
NtRp652
(dp653
g54
(dp654
sg63
g588
sg56
(lp655
g49
(g70
g51
NtRp656
(dp657
g54
(dp658
g74
g75
ssg63
g652
sg56
(lp659
g326
asbag49
(g70
g51
NtRp660
(dp661
g54
(dp662
g81
g82
ssg63
g652
sg56
(lp663
S':'
asbag49
(g70
g51
NtRp664
(dp665
g54
(dp666
sg63
g652
sg56
(lp667
g49
(g50
g51
NtRp668
(dp669
g54
(dp670
g62
I3
ssg63
g664
sg56
(lp671
S''
asbasbasbag49
(g65
g51
NtRp672
(dp673
g54
(dp674
sg63
g588
sg56
(lp675
g49
(g70
g51
NtRp676
(dp677
g54
(dp678
g74
g75
ssg63
g672
sg56
(lp679
g347
asbag49
(g70
g51
NtRp680
(dp681
g54
(dp682
g81
g82
ssg63
g672
sg56
(lp683
S':'
asbag49
(g70
g51
NtRp684
(dp685
g54
(dp686
sg63
g672
sg56
(lp687
g49
(g50
g51
NtRp688
(dp689
g54
(dp690
g62
I3
ssg63
g684
sg56
(lp691
S''
asbasbasbag49
(g65
g51
NtRp692
(dp693
g54
(dp694
sg63
g588
sg56
(lp695
g49
(g70
g51
NtRp696
(dp697
g54
(dp698
g74
g75
ssg63
g692
sg56
(lp699
g368
asbag49
(g70
g51
NtRp700
(dp701
g54
(dp702
g81
g82
ssg63
g692
sg56
(lp703
S':'
asbag49
(g70
g51
NtRp704
(dp705
g54
(dp706
sg63
g692
sg56
(lp707
g49
(g50
g51
NtRp708
(dp709
g54
(dp710
g62
I3
ssg63
g704
sg56
(lp711
S''
asbasbasbag49
(g65
g51
NtRp712
(dp713
g54
(dp714
sg63
g588
sg56
(lp715
g49
(g70
g51
NtRp716
(dp717
g54
(dp718
g74
g75
ssg63
g712
sg56
(lp719
g389
asbag49
(g70
g51
NtRp720
(dp721
g54
(dp722
g81
g82
ssg63
g712
sg56
(lp723
S':'
asbag49
(g70
g51
NtRp724
(dp725
g54
(dp726
sg63
g712
sg56
(lp727
g49
(g50
g51
NtRp728
(dp729
g54
(dp730
g62
I3
ssg63
g724
sg56
(lp731
S''
asbasbasbasbasbasbasbag49
(g65
g51
NtRp732
(dp733
g54
(dp734
sg63
g226
sg56
(lp735
g49
(g70
g51
NtRp736
(dp737
g54
(dp738
g74
g75
ssg63
g732
sg56
(lp739
S'session_id_welcome'
p740
asbag49
(g70
g51
NtRp741
(dp742
g54
(dp743
g81
g82
ssg63
g732
sg56
(lp744
S':'
asbag49
(g70
g51
NtRp745
(dp746
g54
(dp747
sg63
g732
sg56
(lp748
g49
(g50
g51
NtRp749
(dp750
g54
(dp751
g62
I4
ssg63
g745
sg56
(lp752
g49
(g58
g51
NtRp753
(dp754
g54
(dp755
g62
I3
ssg63
Nsg56
(lp756
g49
(g65
g51
NtRp757
(dp758
g54
(dp759
sg63
g753
sg56
(lp760
g49
(g70
g51
NtRp761
(dp762
g54
(dp763
g74
g75
ssg63
g757
sg56
(lp764
g263
asbag49
(g70
g51
NtRp765
(dp766
g54
(dp767
g81
g82
ssg63
g757
sg56
(lp768
S':'
asbag49
(g70
g51
NtRp769
(dp770
g54
(dp771
sg63
g757
sg56
(lp772
g49
(g50
g51
NtRp773
(dp774
g54
(dp775
g62
I3
ssg63
g769
sg56
(lp776
S''
asbasbasbag49
(g65
g51
NtRp777
(dp778
g54
(dp779
sg63
g753
sg56
(lp780
g49
(g70
g51
NtRp781
(dp782
g54
(dp783
g74
g75
ssg63
g777
sg56
(lp784
g284
asbag49
(g70
g51
NtRp785
(dp786
g54
(dp787
g81
g82
ssg63
g777
sg56
(lp788
S':'
asbag49
(g70
g51
NtRp789
(dp790
g54
(dp791
sg63
g777
sg56
(lp792
g49
(g50
g51
NtRp793
(dp794
g54
(dp795
g62
I3
ssg63
g789
sg56
(lp796
S''
asbasbasbag49
(g65
g51
NtRp797
(dp798
g54
(dp799
sg63
g753
sg56
(lp800
g49
(g70
g51
NtRp801
(dp802
g54
(dp803
g74
g75
ssg63
g797
sg56
(lp804
g305
asbag49
(g70
g51
NtRp805
(dp806
g54
(dp807
g81
g82
ssg63
g797
sg56
(lp808
S':'
asbag49
(g70
g51
NtRp809
(dp810
g54
(dp811
sg63
g797
sg56
(lp812
g49
(g50
g51
NtRp813
(dp814
g54
(dp815
g62
I3
ssg63
g809
sg56
(lp816
S''
asbasbasbag49
(g65
g51
NtRp817
(dp818
g54
(dp819
sg63
g753
sg56
(lp820
g49
(g70
g51
NtRp821
(dp822
g54
(dp823
g74
g75
ssg63
g817
sg56
(lp824
g326
asbag49
(g70
g51
NtRp825
(dp826
g54
(dp827
g81
g82
ssg63
g817
sg56
(lp828
S':'
asbag49
(g70
g51
NtRp829
(dp830
g54
(dp831
sg63
g817
sg56
(lp832
g49
(g50
g51
NtRp833
(dp834
g54
(dp835
g62
I3
ssg63
g829
sg56
(lp836
S''
asbasbasbag49
(g65
g51
NtRp837
(dp838
g54
(dp839
sg63
g753
sg56
(lp840
g49
(g70
g51
NtRp841
(dp842
g54
(dp843
g74
g75
ssg63
g837
sg56
(lp844
g347
asbag49
(g70
g51
NtRp845
(dp846
g54
(dp847
g81
g82
ssg63
g837
sg56
(lp848
S':'
asbag49
(g70
g51
NtRp849
(dp850
g54
(dp851
sg63
g837
sg56
(lp852
g49
(g50
g51
NtRp853
(dp854
g54
(dp855
g62
I3
ssg63
g849
sg56
(lp856
S''
asbasbasbag49
(g65
g51
NtRp857
(dp858
g54
(dp859
sg63
g753
sg56
(lp860
g49
(g70
g51
NtRp861
(dp862
g54
(dp863
g74
g75
ssg63
g857
sg56
(lp864
g368
asbag49
(g70
g51
NtRp865
(dp866
g54
(dp867
g81
g82
ssg63
g857
sg56
(lp868
S':'
asbag49
(g70
g51
NtRp869
(dp870
g54
(dp871
sg63
g857
sg56
(lp872
g49
(g50
g51
NtRp873
(dp874
g54
(dp875
g62
I3
ssg63
g869
sg56
(lp876
S''
asbasbasbag49
(g65
g51
NtRp877
(dp878
g54
(dp879
sg63
g753
sg56
(lp880
g49
(g70
g51
NtRp881
(dp882
g54
(dp883
g74
g75
ssg63
g877
sg56
(lp884
g389
asbag49
(g70
g51
NtRp885
(dp886
g54
(dp887
g81
g82
ssg63
g877
sg56
(lp888
S':'
asbag49
(g70
g51
NtRp889
(dp890
g54
(dp891
sg63
g877
sg56
(lp892
g49
(g50
g51
NtRp893
(dp894
g54
(dp895
g62
I3
ssg63
g889
sg56
(lp896
S''
asbasbasbasbasbasbasbasbasbasbasbag49
(g65
g51
NtRp897
(dp898
g54
(dp899
sg63
g59
sg56
(lp900
g49
(g70
g51
NtRp901
(dp902
g54
(dp903
g74
g75
ssg63
g897
sg56
(lp904
S'env'
p905
asbag49
(g70
g51
NtRp906
(dp907
g54
(dp908
g81
g82
ssg63
g897
sg56
(lp909
S':'
asbag49
(g70
g51
NtRp910
(dp911
g54
(dp912
sg63
g897
sg56
(lp913
g49
(g50
g51
NtRp914
(dp915
g54
(dp916
g62
I5
ssg63
g910
sg56
(lp917
g49
(g58
g51
NtRp918
(dp919
g54
(dp920
g62
I4
ssg63
Nsg56
(lp921
g49
(g65
g51
NtRp922
(dp923
g54
(dp924
sg63
g918
sg56
(lp925
g49
(g70
g51
NtRp926
(dp927
g54
(dp928
g74
g75
ssg63
g922
sg56
(lp929
S'app_folders'
p930
asbag49
(g70
g51
NtRp931
(dp932
g54
(dp933
g81
g82
ssg63
g922
sg56
(lp934
S':'
asbag49
(g70
g51
NtRp935
(dp936
g54
(dp937
sg63
g922
sg56
(lp938
g49
(g50
g51
NtRp939
(dp940
g54
(dp941
g62
I4
ssg63
g935
sg56
(lp942
S"set(['C:\\\\web2py\\\\applications\\\\admin\\\\', 'C:\\\\web2py\\\\applications\\\\welcome\\\\', 'C:\\\\web2py\\\\applications\\\\ssad_project\\\\', 'C:\\\\web2py\\\\applications\\\\ssad_project_f\\\\'])"
p943
asbasbasbag49
(g65
g51
NtRp944
(dp945
g54
(dp946
sg63
g918
sg56
(lp947
g49
(g70
g51
NtRp948
(dp949
g54
(dp950
g74
g75
ssg63
g944
sg56
(lp951
S'applications_parent'
p952
asbag49
(g70
g51
NtRp953
(dp954
g54
(dp955
g81
g82
ssg63
g944
sg56
(lp956
S':'
asbag49
(g70
g51
NtRp957
(dp958
g54
(dp959
sg63
g944
sg56
(lp960
g49
(g50
g51
NtRp961
(dp962
g54
(dp963
g62
I4
ssg63
g957
sg56
(lp964
S'C:\\web2py'
p965
asbasbasbag49
(g65
g51
NtRp966
(dp967
g54
(dp968
sg63
g918
sg56
(lp969
g49
(g70
g51
NtRp970
(dp971
g54
(dp972
g74
g75
ssg63
g966
sg56
(lp973
S'cmd_args'
p974
asbag49
(g70
g51
NtRp975
(dp976
g54
(dp977
g81
g82
ssg63
g966
sg56
(lp978
S':'
asbag49
(g70
g51
NtRp979
(dp980
g54
(dp981
sg63
g966
sg56
(lp982
g49
(g50
g51
NtRp983
(dp984
g54
(dp985
g62
I4
ssg63
g979
sg56
(lp986
g49
(g58
g51
NtRp987
(dp988
g54
(dp989
g62
I3
ssg63
Nsg56
(lp990
sbasbasbasbag49
(g65
g51
NtRp991
(dp992
g54
(dp993
sg63
g918
sg56
(lp994
g49
(g70
g51
NtRp995
(dp996
g54
(dp997
g74
g75
ssg63
g991
sg56
(lp998
S'cmd_options'
p999
asbag49
(g70
g51
NtRp1000
(dp1001
g54
(dp1002
g81
g82
ssg63
g991
sg56
(lp1003
S':'
asbag49
(g70
g51
NtRp1004
(dp1005
g54
(dp1006
sg63
g991
sg56
(lp1007
g49
(g50
g51
NtRp1008
(dp1009
g54
(dp1010
g62
I4
ssg63
g1004
sg56
(lp1011
S"<Values at 0x3053fa8: {'verbose': False, 'ip': '127.0.0.1', 'shutdown_timeout': 5, 'taskbar': False, 'nocron': False, 'pid_filename': 'httpserver.pid', 'maxthreads': None, 'softcron': False, 'server_name': 'user-PC', 'bpython': False, 'nogui': False, 'port': 8000, 'extcron': False, 'debuglevel': 30, 'test': None, 'folder': 'C:\\\\web2py', 'config': '', 'import_models': False, 'winservice': '', 'shell': None, 'run': '', 'log_filename': 'httpserver.log', 'args': [''], 'socket_timeout': 5, 'ssl_ca_certificate': None, 'scheduler': None, 'profiler_filename': None, 'ssl_private_key': '', 'password': '<ask>', 'request_queue_size': 5, 'ssl_certificate': '', 'cronjob': False, 'numthreads': None, 'quiet': False, 'interfaces': None, 'minthreads': None, 'timeout': 10, 'plain': False, 'nobanner': False}>"
p1012
asbasbasbag49
(g65
g51
NtRp1013
(dp1014
g54
(dp1015
sg63
g918
sg56
(lp1016
g49
(g70
g51
NtRp1017
(dp1018
g54
(dp1019
g74
g75
ssg63
g1013
sg56
(lp1020
S'db_sessions'
p1021
asbag49
(g70
g51
NtRp1022
(dp1023
g54
(dp1024
g81
g82
ssg63
g1013
sg56
(lp1025
S':'
asbag49
(g70
g51
NtRp1026
(dp1027
g54
(dp1028
sg63
g1013
sg56
(lp1029
g49
(g50
g51
NtRp1030
(dp1031
g54
(dp1032
g62
I4
ssg63
g1026
sg56
(lp1033
S'set([])'
p1034
asbasbasbag49
(g65
g51
NtRp1035
(dp1036
g54
(dp1037
sg63
g918
sg56
(lp1038
g49
(g70
g51
NtRp1039
(dp1040
g54
(dp1041
g74
g75
ssg63
g1035
sg56
(lp1042
S'debugging'
p1043
asbag49
(g70
g51
NtRp1044
(dp1045
g54
(dp1046
g81
g82
ssg63
g1035
sg56
(lp1047
S':'
asbag49
(g70
g51
NtRp1048
(dp1049
g54
(dp1050
sg63
g1035
sg56
(lp1051
g49
(g50
g51
NtRp1052
(dp1053
g54
(dp1054
g62
I4
ssg63
g1048
sg56
(lp1055
g92
asbasbasbag49
(g65
g51
NtRp1056
(dp1057
g54
(dp1058
sg63
g918
sg56
(lp1059
g49
(g70
g51
NtRp1060
(dp1061
g54
(dp1062
g74
g75
ssg63
g1056
sg56
(lp1063
S'gluon_parent'
p1064
asbag49
(g70
g51
NtRp1065
(dp1066
g54
(dp1067
g81
g82
ssg63
g1056
sg56
(lp1068
S':'
asbag49
(g70
g51
NtRp1069
(dp1070
g54
(dp1071
sg63
g1056
sg56
(lp1072
g49
(g50
g51
NtRp1073
(dp1074
g54
(dp1075
g62
I4
ssg63
g1069
sg56
(lp1076
S'C:\\web2py'
p1077
asbasbasbag49
(g65
g51
NtRp1078
(dp1079
g54
(dp1080
sg63
g918
sg56
(lp1081
g49
(g70
g51
NtRp1082
(dp1083
g54
(dp1084
g74
g75
ssg63
g1078
sg56
(lp1085
S'http_accept'
p1086
asbag49
(g70
g51
NtRp1087
(dp1088
g54
(dp1089
g81
g82
ssg63
g1078
sg56
(lp1090
S':'
asbag49
(g70
g51
NtRp1091
(dp1092
g54
(dp1093
sg63
g1078
sg56
(lp1094
g49
(g50
g51
NtRp1095
(dp1096
g54
(dp1097
g62
I4
ssg63
g1091
sg56
(lp1098
S'text/html,application/xhtml+xml,application/xml;q=0.9,*/*;q=0.8'
p1099
asbasbasbag49
(g65
g51
NtRp1100
(dp1101
g54
(dp1102
sg63
g918
sg56
(lp1103
g49
(g70
g51
NtRp1104
(dp1105
g54
(dp1106
g74
g75
ssg63
g1100
sg56
(lp1107
S'http_accept_encoding'
p1108
asbag49
(g70
g51
NtRp1109
(dp1110
g54
(dp1111
g81
g82
ssg63
g1100
sg56
(lp1112
S':'
asbag49
(g70
g51
NtRp1113
(dp1114
g54
(dp1115
sg63
g1100
sg56
(lp1116
g49
(g50
g51
NtRp1117
(dp1118
g54
(dp1119
g62
I4
ssg63
g1113
sg56
(lp1120
S'gzip, deflate'
p1121
asbasbasbag49
(g65
g51
NtRp1122
(dp1123
g54
(dp1124
sg63
g918
sg56
(lp1125
g49
(g70
g51
NtRp1126
(dp1127
g54
(dp1128
g74
g75
ssg63
g1122
sg56
(lp1129
S'http_accept_language'
p1130
asbag49
(g70
g51
NtRp1131
(dp1132
g54
(dp1133
g81
g82
ssg63
g1122
sg56
(lp1134
S':'
asbag49
(g70
g51
NtRp1135
(dp1136
g54
(dp1137
sg63
g1122
sg56
(lp1138
g49
(g50
g51
NtRp1139
(dp1140
g54
(dp1141
g62
I4
ssg63
g1135
sg56
(lp1142
S'en-us,en;q=0.5'
p1143
asbasbasbag49
(g65
g51
NtRp1144
(dp1145
g54
(dp1146
sg63
g918
sg56
(lp1147
g49
(g70
g51
NtRp1148
(dp1149
g54
(dp1150
g74
g75
ssg63
g1144
sg56
(lp1151
S'http_connection'
p1152
asbag49
(g70
g51
NtRp1153
(dp1154
g54
(dp1155
g81
g82
ssg63
g1144
sg56
(lp1156
S':'
asbag49
(g70
g51
NtRp1157
(dp1158
g54
(dp1159
sg63
g1144
sg56
(lp1160
g49
(g50
g51
NtRp1161
(dp1162
g54
(dp1163
g62
I4
ssg63
g1157
sg56
(lp1164
S'keep-alive'
p1165
asbasbasbag49
(g65
g51
NtRp1166
(dp1167
g54
(dp1168
sg63
g918
sg56
(lp1169
g49
(g70
g51
NtRp1170
(dp1171
g54
(dp1172
g74
g75
ssg63
g1166
sg56
(lp1173
S'http_cookie'
p1174
asbag49
(g70
g51
NtRp1175
(dp1176
g54
(dp1177
g81
g82
ssg63
g1166
sg56
(lp1178
S':'
asbag49
(g70
g51
NtRp1179
(dp1180
g54
(dp1181
sg63
g1166
sg56
(lp1182
g49
(g50
g51
NtRp1183
(dp1184
g54
(dp1185
g62
I4
ssg63
g1179
sg56
(lp1186
S'session_id_welcome=127.0.0.1-f092f555-5df0-46ec-9a87-5aac3eed92bc; session_id_admin=127.0.0.1-d6ef1267-b04c-4f80-b32f-ca10885fdfd5; session_id_ssad_project=127.0.0.1-7925c1a6-3250-4da6-9a5e-dad9088b6c6b; session_id_ssad_project_f=127.0.0.1-57070ae7-68f3-4ebc-9aab-9306043089c9'
p1187
asbasbasbag49
(g65
g51
NtRp1188
(dp1189
g54
(dp1190
sg63
g918
sg56
(lp1191
g49
(g70
g51
NtRp1192
(dp1193
g54
(dp1194
g74
g75
ssg63
g1188
sg56
(lp1195
S'http_dnt'
p1196
asbag49
(g70
g51
NtRp1197
(dp1198
g54
(dp1199
g81
g82
ssg63
g1188
sg56
(lp1200
S':'
asbag49
(g70
g51
NtRp1201
(dp1202
g54
(dp1203
sg63
g1188
sg56
(lp1204
g49
(g50
g51
NtRp1205
(dp1206
g54
(dp1207
g62
I4
ssg63
g1201
sg56
(lp1208
S'1'
asbasbasbag49
(g65
g51
NtRp1209
(dp1210
g54
(dp1211
sg63
g918
sg56
(lp1212
g49
(g70
g51
NtRp1213
(dp1214
g54
(dp1215
g74
g75
ssg63
g1209
sg56
(lp1216
S'http_host'
p1217
asbag49
(g70
g51
NtRp1218
(dp1219
g54
(dp1220
g81
g82
ssg63
g1209
sg56
(lp1221
S':'
asbag49
(g70
g51
NtRp1222
(dp1223
g54
(dp1224
sg63
g1209
sg56
(lp1225
g49
(g50
g51
NtRp1226
(dp1227
g54
(dp1228
g62
I4
ssg63
g1222
sg56
(lp1229
S'127.0.0.1:8000'
p1230
asbasbasbag49
(g65
g51
NtRp1231
(dp1232
g54
(dp1233
sg63
g918
sg56
(lp1234
g49
(g70
g51
NtRp1235
(dp1236
g54
(dp1237
g74
g75
ssg63
g1231
sg56
(lp1238
S'http_referer'
p1239
asbag49
(g70
g51
NtRp1240
(dp1241
g54
(dp1242
g81
g82
ssg63
g1231
sg56
(lp1243
S':'
asbag49
(g70
g51
NtRp1244
(dp1245
g54
(dp1246
sg63
g1231
sg56
(lp1247
g49
(g50
g51
NtRp1248
(dp1249
g54
(dp1250
g62
I4
ssg63
g1244
sg56
(lp1251
S'http://127.0.0.1:8000/ssad_project_f/default/relate'
p1252
asbasbasbag49
(g65
g51
NtRp1253
(dp1254
g54
(dp1255
sg63
g918
sg56
(lp1256
g49
(g70
g51
NtRp1257
(dp1258
g54
(dp1259
g74
g75
ssg63
g1253
sg56
(lp1260
S'http_user_agent'
p1261
asbag49
(g70
g51
NtRp1262
(dp1263
g54
(dp1264
g81
g82
ssg63
g1253
sg56
(lp1265
S':'
asbag49
(g70
g51
NtRp1266
(dp1267
g54
(dp1268
sg63
g1253
sg56
(lp1269
g49
(g50
g51
NtRp1270
(dp1271
g54
(dp1272
g62
I4
ssg63
g1266
sg56
(lp1273
S'Mozilla/5.0 (Windows NT 6.1; WOW64; rv:11.0) Gecko/20100101 Firefox/11.0'
p1274
asbasbasbag49
(g65
g51
NtRp1275
(dp1276
g54
(dp1277
sg63
g918
sg56
(lp1278
g49
(g70
g51
NtRp1279
(dp1280
g54
(dp1281
g74
g75
ssg63
g1275
sg56
(lp1282
S'is_jython'
p1283
asbag49
(g70
g51
NtRp1284
(dp1285
g54
(dp1286
g81
g82
ssg63
g1275
sg56
(lp1287
S':'
asbag49
(g70
g51
NtRp1288
(dp1289
g54
(dp1290
sg63
g1275
sg56
(lp1291
g49
(g50
g51
NtRp1292
(dp1293
g54
(dp1294
g62
I4
ssg63
g1288
sg56
(lp1295
g92
asbasbasbag49
(g65
g51
NtRp1296
(dp1297
g54
(dp1298
sg63
g918
sg56
(lp1299
g49
(g70
g51
NtRp1300
(dp1301
g54
(dp1302
g74
g75
ssg63
g1296
sg56
(lp1303
S'is_pypy'
p1304
asbag49
(g70
g51
NtRp1305
(dp1306
g54
(dp1307
g81
g82
ssg63
g1296
sg56
(lp1308
S':'
asbag49
(g70
g51
NtRp1309
(dp1310
g54
(dp1311
sg63
g1296
sg56
(lp1312
g49
(g50
g51
NtRp1313
(dp1314
g54
(dp1315
g62
I4
ssg63
g1309
sg56
(lp1316
g92
asbasbasbag49
(g65
g51
NtRp1317
(dp1318
g54
(dp1319
sg63
g918
sg56
(lp1320
g49
(g70
g51
NtRp1321
(dp1322
g54
(dp1323
g74
g75
ssg63
g1317
sg56
(lp1324
S'path_info'
p1325
asbag49
(g70
g51
NtRp1326
(dp1327
g54
(dp1328
g81
g82
ssg63
g1317
sg56
(lp1329
S':'
asbag49
(g70
g51
NtRp1330
(dp1331
g54
(dp1332
sg63
g1317
sg56
(lp1333
g49
(g50
g51
NtRp1334
(dp1335
g54
(dp1336
g62
I4
ssg63
g1330
sg56
(lp1337
S'/ssad_project_f/default/kruskal'
p1338
asbasbasbag49
(g65
g51
NtRp1339
(dp1340
g54
(dp1341
sg63
g918
sg56
(lp1342
g49
(g70
g51
NtRp1343
(dp1344
g54
(dp1345
g74
g75
ssg63
g1339
sg56
(lp1346
S'query_string'
p1347
asbag49
(g70
g51
NtRp1348
(dp1349
g54
(dp1350
g81
g82
ssg63
g1339
sg56
(lp1351
S':'
asbag49
(g70
g51
NtRp1352
(dp1353
g54
(dp1354
sg63
g1339
sg56
(lp1355
g49
(g50
g51
NtRp1356
(dp1357
g54
(dp1358
g62
I4
ssg63
g1352
sg56
(lp1359
S''
asbasbasbag49
(g65
g51
NtRp1360
(dp1361
g54
(dp1362
sg63
g918
sg56
(lp1363
g49
(g70
g51
NtRp1364
(dp1365
g54
(dp1366
g74
g75
ssg63
g1360
sg56
(lp1367
S'remote_addr'
p1368
asbag49
(g70
g51
NtRp1369
(dp1370
g54
(dp1371
g81
g82
ssg63
g1360
sg56
(lp1372
S':'
asbag49
(g70
g51
NtRp1373
(dp1374
g54
(dp1375
sg63
g1360
sg56
(lp1376
g49
(g50
g51
NtRp1377
(dp1378
g54
(dp1379
g62
I4
ssg63
g1373
sg56
(lp1380
g182
asbasbasbag49
(g65
g51
NtRp1381
(dp1382
g54
(dp1383
sg63
g918
sg56
(lp1384
g49
(g70
g51
NtRp1385
(dp1386
g54
(dp1387
g74
g75
ssg63
g1381
sg56
(lp1388
S'remote_port'
p1389
asbag49
(g70
g51
NtRp1390
(dp1391
g54
(dp1392
g81
g82
ssg63
g1381
sg56
(lp1393
S':'
asbag49
(g70
g51
NtRp1394
(dp1395
g54
(dp1396
sg63
g1381
sg56
(lp1397
g49
(g50
g51
NtRp1398
(dp1399
g54
(dp1400
g62
I4
ssg63
g1394
sg56
(lp1401
S'62059'
p1402
asbasbasbag49
(g65
g51
NtRp1403
(dp1404
g54
(dp1405
sg63
g918
sg56
(lp1406
g49
(g70
g51
NtRp1407
(dp1408
g54
(dp1409
g74
g75
ssg63
g1403
sg56
(lp1410
S'request_method'
p1411
asbag49
(g70
g51
NtRp1412
(dp1413
g54
(dp1414
g81
g82
ssg63
g1403
sg56
(lp1415
S':'
asbag49
(g70
g51
NtRp1416
(dp1417
g54
(dp1418
sg63
g1403
sg56
(lp1419
g49
(g50
g51
NtRp1420
(dp1421
g54
(dp1422
g62
I4
ssg63
g1416
sg56
(lp1423
S'GET'
p1424
asbasbasbag49
(g65
g51
NtRp1425
(dp1426
g54
(dp1427
sg63
g918
sg56
(lp1428
g49
(g70
g51
NtRp1429
(dp1430
g54
(dp1431
g74
g75
ssg63
g1425
sg56
(lp1432
S'script_name'
p1433
asbag49
(g70
g51
NtRp1434
(dp1435
g54
(dp1436
g81
g82
ssg63
g1425
sg56
(lp1437
S':'
asbag49
(g70
g51
NtRp1438
(dp1439
g54
(dp1440
sg63
g1425
sg56
(lp1441
g49
(g50
g51
NtRp1442
(dp1443
g54
(dp1444
g62
I4
ssg63
g1438
sg56
(lp1445
S''
asbasbasbag49
(g65
g51
NtRp1446
(dp1447
g54
(dp1448
sg63
g918
sg56
(lp1449
g49
(g70
g51
NtRp1450
(dp1451
g54
(dp1452
g74
g75
ssg63
g1446
sg56
(lp1453
S'server_name'
p1454
asbag49
(g70
g51
NtRp1455
(dp1456
g54
(dp1457
g81
g82
ssg63
g1446
sg56
(lp1458
S':'
asbag49
(g70
g51
NtRp1459
(dp1460
g54
(dp1461
sg63
g1446
sg56
(lp1462
g49
(g50
g51
NtRp1463
(dp1464
g54
(dp1465
g62
I4
ssg63
g1459
sg56
(lp1466
S'user-PC'
p1467
asbasbasbag49
(g65
g51
NtRp1468
(dp1469
g54
(dp1470
sg63
g918
sg56
(lp1471
g49
(g70
g51
NtRp1472
(dp1473
g54
(dp1474
g74
g75
ssg63
g1468
sg56
(lp1475
S'server_port'
p1476
asbag49
(g70
g51
NtRp1477
(dp1478
g54
(dp1479
g81
g82
ssg63
g1468
sg56
(lp1480
S':'
asbag49
(g70
g51
NtRp1481
(dp1482
g54
(dp1483
sg63
g1468
sg56
(lp1484
g49
(g50
g51
NtRp1485
(dp1486
g54
(dp1487
g62
I4
ssg63
g1481
sg56
(lp1488
S'8000'
p1489
asbasbasbag49
(g65
g51
NtRp1490
(dp1491
g54
(dp1492
sg63
g918
sg56
(lp1493
g49
(g70
g51
NtRp1494
(dp1495
g54
(dp1496
g74
g75
ssg63
g1490
sg56
(lp1497
S'server_protocol'
p1498
asbag49
(g70
g51
NtRp1499
(dp1500
g54
(dp1501
g81
g82
ssg63
g1490
sg56
(lp1502
S':'
asbag49
(g70
g51
NtRp1503
(dp1504
g54
(dp1505
sg63
g1490
sg56
(lp1506
g49
(g50
g51
NtRp1507
(dp1508
g54
(dp1509
g62
I4
ssg63
g1503
sg56
(lp1510
S'HTTP/1.1'
p1511
asbasbasbag49
(g65
g51
NtRp1512
(dp1513
g54
(dp1514
sg63
g918
sg56
(lp1515
g49
(g70
g51
NtRp1516
(dp1517
g54
(dp1518
g74
g75
ssg63
g1512
sg56
(lp1519
S'server_software'
p1520
asbag49
(g70
g51
NtRp1521
(dp1522
g54
(dp1523
g81
g82
ssg63
g1512
sg56
(lp1524
S':'
asbag49
(g70
g51
NtRp1525
(dp1526
g54
(dp1527
sg63
g1512
sg56
(lp1528
g49
(g50
g51
NtRp1529
(dp1530
g54
(dp1531
g62
I4
ssg63
g1525
sg56
(lp1532
S'Rocket 1.2.4'
p1533
asbasbasbag49
(g65
g51
NtRp1534
(dp1535
g54
(dp1536
sg63
g918
sg56
(lp1537
g49
(g70
g51
NtRp1538
(dp1539
g54
(dp1540
g74
g75
ssg63
g1534
sg56
(lp1541
S'web2py_crontype'
p1542
asbag49
(g70
g51
NtRp1543
(dp1544
g54
(dp1545
g81
g82
ssg63
g1534
sg56
(lp1546
S':'
asbag49
(g70
g51
NtRp1547
(dp1548
g54
(dp1549
sg63
g1534
sg56
(lp1550
g49
(g50
g51
NtRp1551
(dp1552
g54
(dp1553
g62
I4
ssg63
g1547
sg56
(lp1554
S'hard'
p1555
asbasbasbag49
(g65
g51
NtRp1556
(dp1557
g54
(dp1558
sg63
g918
sg56
(lp1559
g49
(g70
g51
NtRp1560
(dp1561
g54
(dp1562
g74
g75
ssg63
g1556
sg56
(lp1563
S'web2py_path'
p1564
asbag49
(g70
g51
NtRp1565
(dp1566
g54
(dp1567
g81
g82
ssg63
g1556
sg56
(lp1568
S':'
asbag49
(g70
g51
NtRp1569
(dp1570
g54
(dp1571
sg63
g1556
sg56
(lp1572
g49
(g50
g51
NtRp1573
(dp1574
g54
(dp1575
g62
I4
ssg63
g1569
sg56
(lp1576
g965
asbasbasbag49
(g65
g51
NtRp1577
(dp1578
g54
(dp1579
sg63
g918
sg56
(lp1580
g49
(g70
g51
NtRp1581
(dp1582
g54
(dp1583
g74
g75
ssg63
g1577
sg56
(lp1584
S'web2py_version'
p1585
asbag49
(g70
g51
NtRp1586
(dp1587
g54
(dp1588
g81
g82
ssg63
g1577
sg56
(lp1589
S':'
asbag49
(g70
g51
NtRp1590
(dp1591
g54
(dp1592
sg63
g1577
sg56
(lp1593
g49
(g50
g51
NtRp1594
(dp1595
g54
(dp1596
g62
I4
ssg63
g1590
sg56
(lp1597
g49
(g58
g51
NtRp1598
(dp1599
g54
(dp1600
g62
I3
ssg63
Nsg56
(lp1601
g49
(g65
g51
NtRp1602
(dp1603
g54
(dp1604
sg63
g1598
sg56
(lp1605
g49
(g70
g51
NtRp1606
(dp1607
g54
(dp1608
sg63
g1602
sg56
(lp1609
g49
(g50
g51
NtRp1610
(dp1611
g54
(dp1612
g62
I3
ssg63
g1606
sg56
(lp1613
S'1'
asbasbasbag49
(g65
g51
NtRp1614
(dp1615
g54
(dp1616
sg63
g1598
sg56
(lp1617
g49
(g70
g51
NtRp1618
(dp1619
g54
(dp1620
sg63
g1614
sg56
(lp1621
g49
(g50
g51
NtRp1622
(dp1623
g54
(dp1624
g62
I3
ssg63
g1618
sg56
(lp1625
S'99'
p1626
asbasbasbag49
(g65
g51
NtRp1627
(dp1628
g54
(dp1629
sg63
g1598
sg56
(lp1630
g49
(g70
g51
NtRp1631
(dp1632
g54
(dp1633
sg63
g1627
sg56
(lp1634
g49
(g50
g51
NtRp1635
(dp1636
g54
(dp1637
g62
I3
ssg63
g1631
sg56
(lp1638
S'7'
asbasbasbag49
(g65
g51
NtRp1639
(dp1640
g54
(dp1641
sg63
g1598
sg56
(lp1642
g49
(g70
g51
NtRp1643
(dp1644
g54
(dp1645
sg63
g1639
sg56
(lp1646
g49
(g50
g51
NtRp1647
(dp1648
g54
(dp1649
g62
I3
ssg63
g1643
sg56
(lp1650
S'datetime.datetime(2012, 3, 4, 22, 12, 8)'
p1651
asbasbasbag49
(g65
g51
NtRp1652
(dp1653
g54
(dp1654
sg63
g1598
sg56
(lp1655
g49
(g70
g51
NtRp1656
(dp1657
g54
(dp1658
sg63
g1652
sg56
(lp1659
g49
(g50
g51
NtRp1660
(dp1661
g54
(dp1662
g62
I3
ssg63
g1656
sg56
(lp1663
S'stable'
p1664
asbasbasbasbasbasbasbag49
(g65
g51
NtRp1665
(dp1666
g54
(dp1667
sg63
g918
sg56
(lp1668
g49
(g70
g51
NtRp1669
(dp1670
g54
(dp1671
g74
g75
ssg63
g1665
sg56
(lp1672
S'wsgi_errors'
p1673
asbag49
(g70
g51
NtRp1674
(dp1675
g54
(dp1676
g81
g82
ssg63
g1665
sg56
(lp1677
S':'
asbag49
(g70
g51
NtRp1678
(dp1679
g54
(dp1680
sg63
g1665
sg56
(lp1681
g49
(g50
g51
NtRp1682
(dp1683
g54
(dp1684
g62
I4
ssg63
g1678
sg56
(lp1685
S"<open file '<stderr>', mode 'w' at 0x004200B0>"
p1686
asbasbasbag49
(g65
g51
NtRp1687
(dp1688
g54
(dp1689
sg63
g918
sg56
(lp1690
g49
(g70
g51
NtRp1691
(dp1692
g54
(dp1693
g74
g75
ssg63
g1687
sg56
(lp1694
S'wsgi_file_wrapper'
p1695
asbag49
(g70
g51
NtRp1696
(dp1697
g54
(dp1698
g81
g82
ssg63
g1687
sg56
(lp1699
S':'
asbag49
(g70
g51
NtRp1700
(dp1701
g54
(dp1702
sg63
g1687
sg56
(lp1703
g49
(g50
g51
NtRp1704
(dp1705
g54
(dp1706
g62
I4
ssg63
g1700
sg56
(lp1707
S'<class wsgiref.util.FileWrapper at 0x02DF2E40>'
p1708
asbasbasbag49
(g65
g51
NtRp1709
(dp1710
g54
(dp1711
sg63
g918
sg56
(lp1712
g49
(g70
g51
NtRp1713
(dp1714
g54
(dp1715
g74
g75
ssg63
g1709
sg56
(lp1716
S'wsgi_input'
p1717
asbag49
(g70
g51
NtRp1718
(dp1719
g54
(dp1720
g81
g82
ssg63
g1709
sg56
(lp1721
S':'
asbag49
(g70
g51
NtRp1722
(dp1723
g54
(dp1724
sg63
g1709
sg56
(lp1725
g49
(g50
g51
NtRp1726
(dp1727
g54
(dp1728
g62
I4
ssg63
g1722
sg56
(lp1729
S'<socket._fileobject object at 0x068C9DB0>'
p1730
asbasbasbag49
(g65
g51
NtRp1731
(dp1732
g54
(dp1733
sg63
g918
sg56
(lp1734
g49
(g70
g51
NtRp1735
(dp1736
g54
(dp1737
g74
g75
ssg63
g1731
sg56
(lp1738
S'wsgi_multiprocess'
p1739
asbag49
(g70
g51
NtRp1740
(dp1741
g54
(dp1742
g81
g82
ssg63
g1731
sg56
(lp1743
S':'
asbag49
(g70
g51
NtRp1744
(dp1745
g54
(dp1746
sg63
g1731
sg56
(lp1747
g49
(g50
g51
NtRp1748
(dp1749
g54
(dp1750
g62
I4
ssg63
g1744
sg56
(lp1751
g92
asbasbasbag49
(g65
g51
NtRp1752
(dp1753
g54
(dp1754
sg63
g918
sg56
(lp1755
g49
(g70
g51
NtRp1756
(dp1757
g54
(dp1758
g74
g75
ssg63
g1752
sg56
(lp1759
S'wsgi_multithread'
p1760
asbag49
(g70
g51
NtRp1761
(dp1762
g54
(dp1763
g81
g82
ssg63
g1752
sg56
(lp1764
S':'
asbag49
(g70
g51
NtRp1765
(dp1766
g54
(dp1767
sg63
g1752
sg56
(lp1768
g49
(g50
g51
NtRp1769
(dp1770
g54
(dp1771
g62
I4
ssg63
g1765
sg56
(lp1772
S'True'
p1773
asbasbasbag49
(g65
g51
NtRp1774
(dp1775
g54
(dp1776
sg63
g918
sg56
(lp1777
g49
(g70
g51
NtRp1778
(dp1779
g54
(dp1780
g74
g75
ssg63
g1774
sg56
(lp1781
S'wsgi_run_once'
p1782
asbag49
(g70
g51
NtRp1783
(dp1784
g54
(dp1785
g81
g82
ssg63
g1774
sg56
(lp1786
S':'
asbag49
(g70
g51
NtRp1787
(dp1788
g54
(dp1789
sg63
g1774
sg56
(lp1790
g49
(g50
g51
NtRp1791
(dp1792
g54
(dp1793
g62
I4
ssg63
g1787
sg56
(lp1794
g92
asbasbasbag49
(g65
g51
NtRp1795
(dp1796
g54
(dp1797
sg63
g918
sg56
(lp1798
g49
(g70
g51
NtRp1799
(dp1800
g54
(dp1801
g74
g75
ssg63
g1795
sg56
(lp1802
S'wsgi_url_scheme'
p1803
asbag49
(g70
g51
NtRp1804
(dp1805
g54
(dp1806
g81
g82
ssg63
g1795
sg56
(lp1807
S':'
asbag49
(g70
g51
NtRp1808
(dp1809
g54
(dp1810
sg63
g1795
sg56
(lp1811
g49
(g50
g51
NtRp1812
(dp1813
g54
(dp1814
g62
I4
ssg63
g1808
sg56
(lp1815
S'http'
p1816
asbasbasbag49
(g65
g51
NtRp1817
(dp1818
g54
(dp1819
sg63
g918
sg56
(lp1820
g49
(g70
g51
NtRp1821
(dp1822
g54
(dp1823
g74
g75
ssg63
g1817
sg56
(lp1824
S'wsgi_version'
p1825
asbag49
(g70
g51
NtRp1826
(dp1827
g54
(dp1828
g81
g82
ssg63
g1817
sg56
(lp1829
S':'
asbag49
(g70
g51
NtRp1830
(dp1831
g54
(dp1832
sg63
g1817
sg56
(lp1833
g49
(g50
g51
NtRp1834
(dp1835
g54
(dp1836
g62
I4
ssg63
g1830
sg56
(lp1837
g49
(g58
g51
NtRp1838
(dp1839
g54
(dp1840
g62
I3
ssg63
Nsg56
(lp1841
g49
(g65
g51
NtRp1842
(dp1843
g54
(dp1844
sg63
g1838
sg56
(lp1845
g49
(g70
g51
NtRp1846
(dp1847
g54
(dp1848
sg63
g1842
sg56
(lp1849
g49
(g50
g51
NtRp1850
(dp1851
g54
(dp1852
g62
I3
ssg63
g1846
sg56
(lp1853
S'1'
asbasbasbag49
(g65
g51
NtRp1854
(dp1855
g54
(dp1856
sg63
g1838
sg56
(lp1857
g49
(g70
g51
NtRp1858
(dp1859
g54
(dp1860
sg63
g1854
sg56
(lp1861
g49
(g50
g51
NtRp1862
(dp1863
g54
(dp1864
g62
I3
ssg63
g1858
sg56
(lp1865
S'0'
asbasbasbasbasbasbasbasbasbasbasbag49
(g65
g51
NtRp1866
(dp1867
g54
(dp1868
sg63
g59
sg56
(lp1869
g49
(g70
g51
NtRp1870
(dp1871
g54
(dp1872
g74
g75
ssg63
g1866
sg56
(lp1873
S'extension'
p1874
asbag49
(g70
g51
NtRp1875
(dp1876
g54
(dp1877
g81
g82
ssg63
g1866
sg56
(lp1878
S':'
asbag49
(g70
g51
NtRp1879
(dp1880
g54
(dp1881
sg63
g1866
sg56
(lp1882
g49
(g50
g51
NtRp1883
(dp1884
g54
(dp1885
g62
I5
ssg63
g1879
sg56
(lp1886
S'html'
p1887
asbasbasbag49
(g65
g51
NtRp1888
(dp1889
g54
(dp1890
sg63
g59
sg56
(lp1891
g49
(g70
g51
NtRp1892
(dp1893
g54
(dp1894
g74
g75
ssg63
g1888
sg56
(lp1895
S'folder'
p1896
asbag49
(g70
g51
NtRp1897
(dp1898
g54
(dp1899
g81
g82
ssg63
g1888
sg56
(lp1900
S':'
asbag49
(g70
g51
NtRp1901
(dp1902
g54
(dp1903
sg63
g1888
sg56
(lp1904
g49
(g50
g51
NtRp1905
(dp1906
g54
(dp1907
g62
I5
ssg63
g1901
sg56
(lp1908
S'C:\\web2py\\applications\\ssad_project_f\\'
p1909
asbasbasbag49
(g65
g51
NtRp1910
(dp1911
g54
(dp1912
sg63
g59
sg56
(lp1913
g49
(g70
g51
NtRp1914
(dp1915
g54
(dp1916
g74
g75
ssg63
g1910
sg56
(lp1917
S'function'
p1918
asbag49
(g70
g51
NtRp1919
(dp1920
g54
(dp1921
g81
g82
ssg63
g1910
sg56
(lp1922
S':'
asbag49
(g70
g51
NtRp1923
(dp1924
g54
(dp1925
sg63
g1910
sg56
(lp1926
g49
(g50
g51
NtRp1927
(dp1928
g54
(dp1929
g62
I5
ssg63
g1923
sg56
(lp1930
S'kruskal'
p1931
asbasbasbag49
(g65
g51
NtRp1932
(dp1933
g54
(dp1934
sg63
g59
sg56
(lp1935
g49
(g70
g51
NtRp1936
(dp1937
g54
(dp1938
g74
g75
ssg63
g1932
sg56
(lp1939
S'get_vars'
p1940
asbag49
(g70
g51
NtRp1941
(dp1942
g54
(dp1943
g81
g82
ssg63
g1932
sg56
(lp1944
S':'
asbag49
(g70
g51
NtRp1945
(dp1946
g54
(dp1947
sg63
g1932
sg56
(lp1948
g49
(g50
g51
NtRp1949
(dp1950
g54
(dp1951
g62
I5
ssg63
g1945
sg56
(lp1952
g49
(g58
g51
NtRp1953
(dp1954
g54
(dp1955
g62
I4
ssg63
Nsg56
(lp1956
sbasbasbasbag49
(g65
g51
NtRp1957
(dp1958
g54
(dp1959
sg63
g59
sg56
(lp1960
g49
(g70
g51
NtRp1961
(dp1962
g54
(dp1963
g74
g75
ssg63
g1957
sg56
(lp1964
S'global_settings'
p1965
asbag49
(g70
g51
NtRp1966
(dp1967
g54
(dp1968
g81
g82
ssg63
g1957
sg56
(lp1969
S':'
asbag49
(g70
g51
NtRp1970
(dp1971
g54
(dp1972
sg63
g1957
sg56
(lp1973
g49
(g50
g51
NtRp1974
(dp1975
g54
(dp1976
g62
I5
ssg63
g1970
sg56
(lp1977
g49
(g58
g51
NtRp1978
(dp1979
g54
(dp1980
g62
I4
ssg63
Nsg56
(lp1981
g49
(g65
g51
NtRp1982
(dp1983
g54
(dp1984
sg63
g1978
sg56
(lp1985
g49
(g70
g51
NtRp1986
(dp1987
g54
(dp1988
g74
g75
ssg63
g1982
sg56
(lp1989
g930
asbag49
(g70
g51
NtRp1990
(dp1991
g54
(dp1992
g81
g82
ssg63
g1982
sg56
(lp1993
S':'
asbag49
(g70
g51
NtRp1994
(dp1995
g54
(dp1996
sg63
g1982
sg56
(lp1997
g49
(g50
g51
NtRp1998
(dp1999
g54
(dp2000
g62
I4
ssg63
g1994
sg56
(lp2001
S"set(['C:\\\\web2py\\\\applications\\\\admin\\\\', 'C:\\\\web2py\\\\applications\\\\welcome\\\\', 'C:\\\\web2py\\\\applications\\\\ssad_project\\\\', 'C:\\\\web2py\\\\applications\\\\ssad_project_f\\\\'])"
p2002
asbasbasbag49
(g65
g51
NtRp2003
(dp2004
g54
(dp2005
sg63
g1978
sg56
(lp2006
g49
(g70
g51
NtRp2007
(dp2008
g54
(dp2009
g74
g75
ssg63
g2003
sg56
(lp2010
g952
asbag49
(g70
g51
NtRp2011
(dp2012
g54
(dp2013
g81
g82
ssg63
g2003
sg56
(lp2014
S':'
asbag49
(g70
g51
NtRp2015
(dp2016
g54
(dp2017
sg63
g2003
sg56
(lp2018
g49
(g50
g51
NtRp2019
(dp2020
g54
(dp2021
g62
I4
ssg63
g2015
sg56
(lp2022
g965
asbasbasbag49
(g65
g51
NtRp2023
(dp2024
g54
(dp2025
sg63
g1978
sg56
(lp2026
g49
(g70
g51
NtRp2027
(dp2028
g54
(dp2029
g74
g75
ssg63
g2023
sg56
(lp2030
g974
asbag49
(g70
g51
NtRp2031
(dp2032
g54
(dp2033
g81
g82
ssg63
g2023
sg56
(lp2034
S':'
asbag49
(g70
g51
NtRp2035
(dp2036
g54
(dp2037
sg63
g2023
sg56
(lp2038
g49
(g50
g51
NtRp2039
(dp2040
g54
(dp2041
g62
I4
ssg63
g2035
sg56
(lp2042
g49
(g58
g51
NtRp2043
(dp2044
g54
(dp2045
g62
I3
ssg63
Nsg56
(lp2046
sbasbasbasbag49
(g65
g51
NtRp2047
(dp2048
g54
(dp2049
sg63
g1978
sg56
(lp2050
g49
(g70
g51
NtRp2051
(dp2052
g54
(dp2053
g74
g75
ssg63
g2047
sg56
(lp2054
g999
asbag49
(g70
g51
NtRp2055
(dp2056
g54
(dp2057
g81
g82
ssg63
g2047
sg56
(lp2058
S':'
asbag49
(g70
g51
NtRp2059
(dp2060
g54
(dp2061
sg63
g2047
sg56
(lp2062
g49
(g50
g51
NtRp2063
(dp2064
g54
(dp2065
g62
I4
ssg63
g2059
sg56
(lp2066
S"<Values at 0x3053fa8: {'verbose': False, 'ip': '127.0.0.1', 'shutdown_timeout': 5, 'taskbar': False, 'nocron': False, 'pid_filename': 'httpserver.pid', 'maxthreads': None, 'softcron': False, 'server_name': 'user-PC', 'bpython': False, 'nogui': False, 'port': 8000, 'extcron': False, 'debuglevel': 30, 'test': None, 'folder': 'C:\\\\web2py', 'config': '', 'import_models': False, 'winservice': '', 'shell': None, 'run': '', 'log_filename': 'httpserver.log', 'args': [''], 'socket_timeout': 5, 'ssl_ca_certificate': None, 'scheduler': None, 'profiler_filename': None, 'ssl_private_key': '', 'password': '<ask>', 'request_queue_size': 5, 'ssl_certificate': '', 'cronjob': False, 'numthreads': None, 'quiet': False, 'interfaces': None, 'minthreads': None, 'timeout': 10, 'plain': False, 'nobanner': False}>"
p2067
asbasbasbag49
(g65
g51
NtRp2068
(dp2069
g54
(dp2070
sg63
g1978
sg56
(lp2071
g49
(g70
g51
NtRp2072
(dp2073
g54
(dp2074
g74
g75
ssg63
g2068
sg56
(lp2075
g1021
asbag49
(g70
g51
NtRp2076
(dp2077
g54
(dp2078
g81
g82
ssg63
g2068
sg56
(lp2079
S':'
asbag49
(g70
g51
NtRp2080
(dp2081
g54
(dp2082
sg63
g2068
sg56
(lp2083
g49
(g50
g51
NtRp2084
(dp2085
g54
(dp2086
g62
I4
ssg63
g2080
sg56
(lp2087
S'set([])'
p2088
asbasbasbag49
(g65
g51
NtRp2089
(dp2090
g54
(dp2091
sg63
g1978
sg56
(lp2092
g49
(g70
g51
NtRp2093
(dp2094
g54
(dp2095
g74
g75
ssg63
g2089
sg56
(lp2096
g1043
asbag49
(g70
g51
NtRp2097
(dp2098
g54
(dp2099
g81
g82
ssg63
g2089
sg56
(lp2100
S':'
asbag49
(g70
g51
NtRp2101
(dp2102
g54
(dp2103
sg63
g2089
sg56
(lp2104
g49
(g50
g51
NtRp2105
(dp2106
g54
(dp2107
g62
I4
ssg63
g2101
sg56
(lp2108
g92
asbasbasbag49
(g65
g51
NtRp2109
(dp2110
g54
(dp2111
sg63
g1978
sg56
(lp2112
g49
(g70
g51
NtRp2113
(dp2114
g54
(dp2115
g74
g75
ssg63
g2109
sg56
(lp2116
g1064
asbag49
(g70
g51
NtRp2117
(dp2118
g54
(dp2119
g81
g82
ssg63
g2109
sg56
(lp2120
S':'
asbag49
(g70
g51
NtRp2121
(dp2122
g54
(dp2123
sg63
g2109
sg56
(lp2124
g49
(g50
g51
NtRp2125
(dp2126
g54
(dp2127
g62
I4
ssg63
g2121
sg56
(lp2128
g1077
asbasbasbag49
(g65
g51
NtRp2129
(dp2130
g54
(dp2131
sg63
g1978
sg56
(lp2132
g49
(g70
g51
NtRp2133
(dp2134
g54
(dp2135
g74
g75
ssg63
g2129
sg56
(lp2136
g1283
asbag49
(g70
g51
NtRp2137
(dp2138
g54
(dp2139
g81
g82
ssg63
g2129
sg56
(lp2140
S':'
asbag49
(g70
g51
NtRp2141
(dp2142
g54
(dp2143
sg63
g2129
sg56
(lp2144
g49
(g50
g51
NtRp2145
(dp2146
g54
(dp2147
g62
I4
ssg63
g2141
sg56
(lp2148
g92
asbasbasbag49
(g65
g51
NtRp2149
(dp2150
g54
(dp2151
sg63
g1978
sg56
(lp2152
g49
(g70
g51
NtRp2153
(dp2154
g54
(dp2155
g74
g75
ssg63
g2149
sg56
(lp2156
g1304
asbag49
(g70
g51
NtRp2157
(dp2158
g54
(dp2159
g81
g82
ssg63
g2149
sg56
(lp2160
S':'
asbag49
(g70
g51
NtRp2161
(dp2162
g54
(dp2163
sg63
g2149
sg56
(lp2164
g49
(g50
g51
NtRp2165
(dp2166
g54
(dp2167
g62
I4
ssg63
g2161
sg56
(lp2168
g92
asbasbasbag49
(g65
g51
NtRp2169
(dp2170
g54
(dp2171
sg63
g1978
sg56
(lp2172
g49
(g70
g51
NtRp2173
(dp2174
g54
(dp2175
g74
g75
ssg63
g2169
sg56
(lp2176
g1542
asbag49
(g70
g51
NtRp2177
(dp2178
g54
(dp2179
g81
g82
ssg63
g2169
sg56
(lp2180
S':'
asbag49
(g70
g51
NtRp2181
(dp2182
g54
(dp2183
sg63
g2169
sg56
(lp2184
g49
(g50
g51
NtRp2185
(dp2186
g54
(dp2187
g62
I4
ssg63
g2181
sg56
(lp2188
g1555
asbasbasbag49
(g65
g51
NtRp2189
(dp2190
g54
(dp2191
sg63
g1978
sg56
(lp2192
g49
(g70
g51
NtRp2193
(dp2194
g54
(dp2195
g74
g75
ssg63
g2189
sg56
(lp2196
g1585
asbag49
(g70
g51
NtRp2197
(dp2198
g54
(dp2199
g81
g82
ssg63
g2189
sg56
(lp2200
S':'
asbag49
(g70
g51
NtRp2201
(dp2202
g54
(dp2203
sg63
g2189
sg56
(lp2204
g49
(g50
g51
NtRp2205
(dp2206
g54
(dp2207
g62
I4
ssg63
g2201
sg56
(lp2208
g49
(g58
g51
NtRp2209
(dp2210
g54
(dp2211
g62
I3
ssg63
Nsg56
(lp2212
g49
(g65
g51
NtRp2213
(dp2214
g54
(dp2215
sg63
g2209
sg56
(lp2216
g49
(g70
g51
NtRp2217
(dp2218
g54
(dp2219
sg63
g2213
sg56
(lp2220
g49
(g50
g51
NtRp2221
(dp2222
g54
(dp2223
g62
I3
ssg63
g2217
sg56
(lp2224
S'1'
asbasbasbag49
(g65
g51
NtRp2225
(dp2226
g54
(dp2227
sg63
g2209
sg56
(lp2228
g49
(g70
g51
NtRp2229
(dp2230
g54
(dp2231
sg63
g2225
sg56
(lp2232
g49
(g50
g51
NtRp2233
(dp2234
g54
(dp2235
g62
I3
ssg63
g2229
sg56
(lp2236
S'99'
p2237
asbasbasbag49
(g65
g51
NtRp2238
(dp2239
g54
(dp2240
sg63
g2209
sg56
(lp2241
g49
(g70
g51
NtRp2242
(dp2243
g54
(dp2244
sg63
g2238
sg56
(lp2245
g49
(g50
g51
NtRp2246
(dp2247
g54
(dp2248
g62
I3
ssg63
g2242
sg56
(lp2249
S'7'
asbasbasbag49
(g65
g51
NtRp2250
(dp2251
g54
(dp2252
sg63
g2209
sg56
(lp2253
g49
(g70
g51
NtRp2254
(dp2255
g54
(dp2256
sg63
g2250
sg56
(lp2257
g49
(g50
g51
NtRp2258
(dp2259
g54
(dp2260
g62
I3
ssg63
g2254
sg56
(lp2261
S'datetime.datetime(2012, 3, 4, 22, 12, 8)'
p2262
asbasbasbag49
(g65
g51
NtRp2263
(dp2264
g54
(dp2265
sg63
g2209
sg56
(lp2266
g49
(g70
g51
NtRp2267
(dp2268
g54
(dp2269
sg63
g2263
sg56
(lp2270
g49
(g50
g51
NtRp2271
(dp2272
g54
(dp2273
g62
I3
ssg63
g2267
sg56
(lp2274
g1664
asbasbasbasbasbasbasbasbasbasbasbag49
(g65
g51
NtRp2275
(dp2276
g54
(dp2277
sg63
g59
sg56
(lp2278
g49
(g70
g51
NtRp2279
(dp2280
g54
(dp2281
g74
g75
ssg63
g2275
sg56
(lp2282
S'is_https'
p2283
asbag49
(g70
g51
NtRp2284
(dp2285
g54
(dp2286
g81
g82
ssg63
g2275
sg56
(lp2287
S':'
asbag49
(g70
g51
NtRp2288
(dp2289
g54
(dp2290
sg63
g2275
sg56
(lp2291
g49
(g50
g51
NtRp2292
(dp2293
g54
(dp2294
g62
I5
ssg63
g2288
sg56
(lp2295
g92
asbasbasbag49
(g65
g51
NtRp2296
(dp2297
g54
(dp2298
sg63
g59
sg56
(lp2299
g49
(g70
g51
NtRp2300
(dp2301
g54
(dp2302
g74
g75
ssg63
g2296
sg56
(lp2303
S'is_local'
p2304
asbag49
(g70
g51
NtRp2305
(dp2306
g54
(dp2307
g81
g82
ssg63
g2296
sg56
(lp2308
S':'
asbag49
(g70
g51
NtRp2309
(dp2310
g54
(dp2311
sg63
g2296
sg56
(lp2312
g49
(g50
g51
NtRp2313
(dp2314
g54
(dp2315
g62
I5
ssg63
g2309
sg56
(lp2316
g1773
asbasbasbag49
(g65
g51
NtRp2317
(dp2318
g54
(dp2319
sg63
g59
sg56
(lp2320
g49
(g70
g51
NtRp2321
(dp2322
g54
(dp2323
g74
g75
ssg63
g2317
sg56
(lp2324
S'is_restful'
p2325
asbag49
(g70
g51
NtRp2326
(dp2327
g54
(dp2328
g81
g82
ssg63
g2317
sg56
(lp2329
S':'
asbag49
(g70
g51
NtRp2330
(dp2331
g54
(dp2332
sg63
g2317
sg56
(lp2333
g49
(g50
g51
NtRp2334
(dp2335
g54
(dp2336
g62
I5
ssg63
g2330
sg56
(lp2337
g92
asbasbasbag49
(g65
g51
NtRp2338
(dp2339
g54
(dp2340
sg63
g59
sg56
(lp2341
g49
(g70
g51
NtRp2342
(dp2343
g54
(dp2344
g74
g75
ssg63
g2338
sg56
(lp2345
S'now'
p2346
asbag49
(g70
g51
NtRp2347
(dp2348
g54
(dp2349
g81
g82
ssg63
g2338
sg56
(lp2350
S':'
asbag49
(g70
g51
NtRp2351
(dp2352
g54
(dp2353
sg63
g2338
sg56
(lp2354
g49
(g50
g51
NtRp2355
(dp2356
g54
(dp2357
g62
I5
ssg63
g2351
sg56
(lp2358
S'datetime.datetime(2012, 11, 6, 2, 43, 3, 460000)'
p2359
asbasbasbag49
(g65
g51
NtRp2360
(dp2361
g54
(dp2362
sg63
g59
sg56
(lp2363
g49
(g70
g51
NtRp2364
(dp2365
g54
(dp2366
g74
g75
ssg63
g2360
sg56
(lp2367
S'post_vars'
p2368
asbag49
(g70
g51
NtRp2369
(dp2370
g54
(dp2371
g81
g82
ssg63
g2360
sg56
(lp2372
S':'
asbag49
(g70
g51
NtRp2373
(dp2374
g54
(dp2375
sg63
g2360
sg56
(lp2376
g49
(g50
g51
NtRp2377
(dp2378
g54
(dp2379
g62
I5
ssg63
g2373
sg56
(lp2380
g49
(g58
g51
NtRp2381
(dp2382
g54
(dp2383
g62
I4
ssg63
Nsg56
(lp2384
sbasbasbasbag49
(g65
g51
NtRp2385
(dp2386
g54
(dp2387
sg63
g59
sg56
(lp2388
g49
(g70
g51
NtRp2389
(dp2390
g54
(dp2391
g74
g75
ssg63
g2385
sg56
(lp2392
S'url'
p2393
asbag49
(g70
g51
NtRp2394
(dp2395
g54
(dp2396
g81
g82
ssg63
g2385
sg56
(lp2397
S':'
asbag49
(g70
g51
NtRp2398
(dp2399
g54
(dp2400
sg63
g2385
sg56
(lp2401
g49
(g50
g51
NtRp2402
(dp2403
g54
(dp2404
g62
I5
ssg63
g2398
sg56
(lp2405
S'/ssad_project_f/default/kruskal'
p2406
asbasbasbag49
(g65
g51
NtRp2407
(dp2408
g54
(dp2409
sg63
g59
sg56
(lp2410
g49
(g70
g51
NtRp2411
(dp2412
g54
(dp2413
g74
g75
ssg63
g2407
sg56
(lp2414
S'utcnow'
p2415
asbag49
(g70
g51
NtRp2416
(dp2417
g54
(dp2418
g81
g82
ssg63
g2407
sg56
(lp2419
S':'
asbag49
(g70
g51
NtRp2420
(dp2421
g54
(dp2422
sg63
g2407
sg56
(lp2423
g49
(g50
g51
NtRp2424
(dp2425
g54
(dp2426
g62
I5
ssg63
g2420
sg56
(lp2427
S'datetime.datetime(2012, 11, 5, 21, 13, 3, 460000)'
p2428
asbasbasbag49
(g65
g51
NtRp2429
(dp2430
g54
(dp2431
sg63
g59
sg56
(lp2432
g49
(g70
g51
NtRp2433
(dp2434
g54
(dp2435
g74
g75
ssg63
g2429
sg56
(lp2436
S'uuid'
p2437
asbag49
(g70
g51
NtRp2438
(dp2439
g54
(dp2440
g81
g82
ssg63
g2429
sg56
(lp2441
S':'
asbag49
(g70
g51
NtRp2442
(dp2443
g54
(dp2444
sg63
g2429
sg56
(lp2445
g49
(g50
g51
NtRp2446
(dp2447
g54
(dp2448
g62
I5
ssg63
g2442
sg56
(lp2449
S'ssad_project_f/127.0.0.1.2012-11-06.02-43-03.0f1832cf-4254-4636-95f9-2b90ac4a8944'
p2450
asbasbasbag49
(g65
g51
NtRp2451
(dp2452
g54
(dp2453
sg63
g59
sg56
(lp2454
g49
(g70
g51
NtRp2455
(dp2456
g54
(dp2457
g74
g75
ssg63
g2451
sg56
(lp2458
S'vars'
p2459
asbag49
(g70
g51
NtRp2460
(dp2461
g54
(dp2462
g81
g82
ssg63
g2451
sg56
(lp2463
S':'
asbag49
(g70
g51
NtRp2464
(dp2465
g54
(dp2466
sg63
g2451
sg56
(lp2467
g49
(g50
g51
NtRp2468
(dp2469
g54
(dp2470
g62
I5
ssg63
g2464
sg56
(lp2471
g49
(g58
g51
NtRp2472
(dp2473
g54
(dp2474
g62
I4
ssg63
Nsg56
(lp2475
sbasbasbasbag49
(g65
g51
NtRp2476
(dp2477
g54
(dp2478
sg63
g59
sg56
(lp2479
g49
(g70
g51
NtRp2480
(dp2481
g54
(dp2482
g74
g75
ssg63
g2476
sg56
(lp2483
S'wsgi'
p2484
asbag49
(g70
g51
NtRp2485
(dp2486
g54
(dp2487
g81
g82
ssg63
g2476
sg56
(lp2488
S':'
asbag49
(g70
g51
NtRp2489
(dp2490
g54
(dp2491
sg63
g2476
sg56
(lp2492
g49
(g50
g51
NtRp2493
(dp2494
g54
(dp2495
g62
I5
ssg63
g2489
sg56
(lp2496
g49
(g58
g51
NtRp2497
(dp2498
g54
(dp2499
g62
I4
ssg63
Nsg56
(lp2500
g49
(g65
g51
NtRp2501
(dp2502
g54
(dp2503
sg63
g2497
sg56
(lp2504
g49
(g70
g51
NtRp2505
(dp2506
g54
(dp2507
g74
g75
ssg63
g2501
sg56
(lp2508
S'environ'
p2509
asbag49
(g70
g51
NtRp2510
(dp2511
g54
(dp2512
g81
g82
ssg63
g2501
sg56
(lp2513
S':'
asbag49
(g70
g51
NtRp2514
(dp2515
g54
(dp2516
sg63
g2501
sg56
(lp2517
g49
(g50
g51
NtRp2518
(dp2519
g54
(dp2520
g62
I4
ssg63
g2514
sg56
(lp2521
g49
(g58
g51
NtRp2522
(dp2523
g54
(dp2524
g62
I3
ssg63
Nsg56
(lp2525
g49
(g65
g51
NtRp2526
(dp2527
g54
(dp2528
sg63
g2522
sg56
(lp2529
g49
(g70
g51
NtRp2530
(dp2531
g54
(dp2532
g74
g75
ssg63
g2526
sg56
(lp2533
S'HTTP_ACCEPT'
p2534
asbag49
(g70
g51
NtRp2535
(dp2536
g54
(dp2537
g81
g82
ssg63
g2526
sg56
(lp2538
S':'
asbag49
(g70
g51
NtRp2539
(dp2540
g54
(dp2541
sg63
g2526
sg56
(lp2542
g49
(g50
g51
NtRp2543
(dp2544
g54
(dp2545
g62
I3
ssg63
g2539
sg56
(lp2546
g1099
asbasbasbag49
(g65
g51
NtRp2547
(dp2548
g54
(dp2549
sg63
g2522
sg56
(lp2550
g49
(g70
g51
NtRp2551
(dp2552
g54
(dp2553
g74
g75
ssg63
g2547
sg56
(lp2554
S'HTTP_ACCEPT_ENCODING'
p2555
asbag49
(g70
g51
NtRp2556
(dp2557
g54
(dp2558
g81
g82
ssg63
g2547
sg56
(lp2559
S':'
asbag49
(g70
g51
NtRp2560
(dp2561
g54
(dp2562
sg63
g2547
sg56
(lp2563
g49
(g50
g51
NtRp2564
(dp2565
g54
(dp2566
g62
I3
ssg63
g2560
sg56
(lp2567
g1121
asbasbasbag49
(g65
g51
NtRp2568
(dp2569
g54
(dp2570
sg63
g2522
sg56
(lp2571
g49
(g70
g51
NtRp2572
(dp2573
g54
(dp2574
g74
g75
ssg63
g2568
sg56
(lp2575
S'HTTP_ACCEPT_LANGUAGE'
p2576
asbag49
(g70
g51
NtRp2577
(dp2578
g54
(dp2579
g81
g82
ssg63
g2568
sg56
(lp2580
S':'
asbag49
(g70
g51
NtRp2581
(dp2582
g54
(dp2583
sg63
g2568
sg56
(lp2584
g49
(g50
g51
NtRp2585
(dp2586
g54
(dp2587
g62
I3
ssg63
g2581
sg56
(lp2588
g1143
asbasbasbag49
(g65
g51
NtRp2589
(dp2590
g54
(dp2591
sg63
g2522
sg56
(lp2592
g49
(g70
g51
NtRp2593
(dp2594
g54
(dp2595
g74
g75
ssg63
g2589
sg56
(lp2596
S'HTTP_CONNECTION'
p2597
asbag49
(g70
g51
NtRp2598
(dp2599
g54
(dp2600
g81
g82
ssg63
g2589
sg56
(lp2601
S':'
asbag49
(g70
g51
NtRp2602
(dp2603
g54
(dp2604
sg63
g2589
sg56
(lp2605
g49
(g50
g51
NtRp2606
(dp2607
g54
(dp2608
g62
I3
ssg63
g2602
sg56
(lp2609
g1165
asbasbasbag49
(g65
g51
NtRp2610
(dp2611
g54
(dp2612
sg63
g2522
sg56
(lp2613
g49
(g70
g51
NtRp2614
(dp2615
g54
(dp2616
g74
g75
ssg63
g2610
sg56
(lp2617
S'HTTP_COOKIE'
p2618
asbag49
(g70
g51
NtRp2619
(dp2620
g54
(dp2621
g81
g82
ssg63
g2610
sg56
(lp2622
S':'
asbag49
(g70
g51
NtRp2623
(dp2624
g54
(dp2625
sg63
g2610
sg56
(lp2626
g49
(g50
g51
NtRp2627
(dp2628
g54
(dp2629
g62
I3
ssg63
g2623
sg56
(lp2630
g1187
asbasbasbag49
(g65
g51
NtRp2631
(dp2632
g54
(dp2633
sg63
g2522
sg56
(lp2634
g49
(g70
g51
NtRp2635
(dp2636
g54
(dp2637
g74
g75
ssg63
g2631
sg56
(lp2638
S'HTTP_DNT'
p2639
asbag49
(g70
g51
NtRp2640
(dp2641
g54
(dp2642
g81
g82
ssg63
g2631
sg56
(lp2643
S':'
asbag49
(g70
g51
NtRp2644
(dp2645
g54
(dp2646
sg63
g2631
sg56
(lp2647
g49
(g50
g51
NtRp2648
(dp2649
g54
(dp2650
g62
I3
ssg63
g2644
sg56
(lp2651
S'1'
asbasbasbag49
(g65
g51
NtRp2652
(dp2653
g54
(dp2654
sg63
g2522
sg56
(lp2655
g49
(g70
g51
NtRp2656
(dp2657
g54
(dp2658
g74
g75
ssg63
g2652
sg56
(lp2659
S'HTTP_HOST'
p2660
asbag49
(g70
g51
NtRp2661
(dp2662
g54
(dp2663
g81
g82
ssg63
g2652
sg56
(lp2664
S':'
asbag49
(g70
g51
NtRp2665
(dp2666
g54
(dp2667
sg63
g2652
sg56
(lp2668
g49
(g50
g51
NtRp2669
(dp2670
g54
(dp2671
g62
I3
ssg63
g2665
sg56
(lp2672
g1230
asbasbasbag49
(g65
g51
NtRp2673
(dp2674
g54
(dp2675
sg63
g2522
sg56
(lp2676
g49
(g70
g51
NtRp2677
(dp2678
g54
(dp2679
g74
g75
ssg63
g2673
sg56
(lp2680
S'HTTP_REFERER'
p2681
asbag49
(g70
g51
NtRp2682
(dp2683
g54
(dp2684
g81
g82
ssg63
g2673
sg56
(lp2685
S':'
asbag49
(g70
g51
NtRp2686
(dp2687
g54
(dp2688
sg63
g2673
sg56
(lp2689
g49
(g50
g51
NtRp2690
(dp2691
g54
(dp2692
g62
I3
ssg63
g2686
sg56
(lp2693
g1252
asbasbasbag49
(g65
g51
NtRp2694
(dp2695
g54
(dp2696
sg63
g2522
sg56
(lp2697
g49
(g70
g51
NtRp2698
(dp2699
g54
(dp2700
g74
g75
ssg63
g2694
sg56
(lp2701
S'HTTP_USER_AGENT'
p2702
asbag49
(g70
g51
NtRp2703
(dp2704
g54
(dp2705
g81
g82
ssg63
g2694
sg56
(lp2706
S':'
asbag49
(g70
g51
NtRp2707
(dp2708
g54
(dp2709
sg63
g2694
sg56
(lp2710
g49
(g50
g51
NtRp2711
(dp2712
g54
(dp2713
g62
I3
ssg63
g2707
sg56
(lp2714
g1274
asbasbasbag49
(g65
g51
NtRp2715
(dp2716
g54
(dp2717
sg63
g2522
sg56
(lp2718
g49
(g70
g51
NtRp2719
(dp2720
g54
(dp2721
g74
g75
ssg63
g2715
sg56
(lp2722
S'PATH_INFO'
p2723
asbag49
(g70
g51
NtRp2724
(dp2725
g54
(dp2726
g81
g82
ssg63
g2715
sg56
(lp2727
S':'
asbag49
(g70
g51
NtRp2728
(dp2729
g54
(dp2730
sg63
g2715
sg56
(lp2731
g49
(g50
g51
NtRp2732
(dp2733
g54
(dp2734
g62
I3
ssg63
g2728
sg56
(lp2735
g1338
asbasbasbag49
(g65
g51
NtRp2736
(dp2737
g54
(dp2738
sg63
g2522
sg56
(lp2739
g49
(g70
g51
NtRp2740
(dp2741
g54
(dp2742
g74
g75
ssg63
g2736
sg56
(lp2743
S'QUERY_STRING'
p2744
asbag49
(g70
g51
NtRp2745
(dp2746
g54
(dp2747
g81
g82
ssg63
g2736
sg56
(lp2748
S':'
asbag49
(g70
g51
NtRp2749
(dp2750
g54
(dp2751
sg63
g2736
sg56
(lp2752
g49
(g50
g51
NtRp2753
(dp2754
g54
(dp2755
g62
I3
ssg63
g2749
sg56
(lp2756
S''
asbasbasbag49
(g65
g51
NtRp2757
(dp2758
g54
(dp2759
sg63
g2522
sg56
(lp2760
g49
(g70
g51
NtRp2761
(dp2762
g54
(dp2763
g74
g75
ssg63
g2757
sg56
(lp2764
S'REMOTE_ADDR'
p2765
asbag49
(g70
g51
NtRp2766
(dp2767
g54
(dp2768
g81
g82
ssg63
g2757
sg56
(lp2769
S':'
asbag49
(g70
g51
NtRp2770
(dp2771
g54
(dp2772
sg63
g2757
sg56
(lp2773
g49
(g50
g51
NtRp2774
(dp2775
g54
(dp2776
g62
I3
ssg63
g2770
sg56
(lp2777
g182
asbasbasbag49
(g65
g51
NtRp2778
(dp2779
g54
(dp2780
sg63
g2522
sg56
(lp2781
g49
(g70
g51
NtRp2782
(dp2783
g54
(dp2784
g74
g75
ssg63
g2778
sg56
(lp2785
S'REMOTE_PORT'
p2786
asbag49
(g70
g51
NtRp2787
(dp2788
g54
(dp2789
g81
g82
ssg63
g2778
sg56
(lp2790
S':'
asbag49
(g70
g51
NtRp2791
(dp2792
g54
(dp2793
sg63
g2778
sg56
(lp2794
g49
(g50
g51
NtRp2795
(dp2796
g54
(dp2797
g62
I3
ssg63
g2791
sg56
(lp2798
g1402
asbasbasbag49
(g65
g51
NtRp2799
(dp2800
g54
(dp2801
sg63
g2522
sg56
(lp2802
g49
(g70
g51
NtRp2803
(dp2804
g54
(dp2805
g74
g75
ssg63
g2799
sg56
(lp2806
S'REQUEST_METHOD'
p2807
asbag49
(g70
g51
NtRp2808
(dp2809
g54
(dp2810
g81
g82
ssg63
g2799
sg56
(lp2811
S':'
asbag49
(g70
g51
NtRp2812
(dp2813
g54
(dp2814
sg63
g2799
sg56
(lp2815
g49
(g50
g51
NtRp2816
(dp2817
g54
(dp2818
g62
I3
ssg63
g2812
sg56
(lp2819
g1424
asbasbasbag49
(g65
g51
NtRp2820
(dp2821
g54
(dp2822
sg63
g2522
sg56
(lp2823
g49
(g70
g51
NtRp2824
(dp2825
g54
(dp2826
g74
g75
ssg63
g2820
sg56
(lp2827
S'SCRIPT_NAME'
p2828
asbag49
(g70
g51
NtRp2829
(dp2830
g54
(dp2831
g81
g82
ssg63
g2820
sg56
(lp2832
S':'
asbag49
(g70
g51
NtRp2833
(dp2834
g54
(dp2835
sg63
g2820
sg56
(lp2836
g49
(g50
g51
NtRp2837
(dp2838
g54
(dp2839
g62
I3
ssg63
g2833
sg56
(lp2840
S''
asbasbasbag49
(g65
g51
NtRp2841
(dp2842
g54
(dp2843
sg63
g2522
sg56
(lp2844
g49
(g70
g51
NtRp2845
(dp2846
g54
(dp2847
g74
g75
ssg63
g2841
sg56
(lp2848
S'SERVER_NAME'
p2849
asbag49
(g70
g51
NtRp2850
(dp2851
g54
(dp2852
g81
g82
ssg63
g2841
sg56
(lp2853
S':'
asbag49
(g70
g51
NtRp2854
(dp2855
g54
(dp2856
sg63
g2841
sg56
(lp2857
g49
(g50
g51
NtRp2858
(dp2859
g54
(dp2860
g62
I3
ssg63
g2854
sg56
(lp2861
g1467
asbasbasbag49
(g65
g51
NtRp2862
(dp2863
g54
(dp2864
sg63
g2522
sg56
(lp2865
g49
(g70
g51
NtRp2866
(dp2867
g54
(dp2868
g74
g75
ssg63
g2862
sg56
(lp2869
S'SERVER_PORT'
p2870
asbag49
(g70
g51
NtRp2871
(dp2872
g54
(dp2873
g81
g82
ssg63
g2862
sg56
(lp2874
S':'
asbag49
(g70
g51
NtRp2875
(dp2876
g54
(dp2877
sg63
g2862
sg56
(lp2878
g49
(g50
g51
NtRp2879
(dp2880
g54
(dp2881
g62
I3
ssg63
g2875
sg56
(lp2882
g1489
asbasbasbag49
(g65
g51
NtRp2883
(dp2884
g54
(dp2885
sg63
g2522
sg56
(lp2886
g49
(g70
g51
NtRp2887
(dp2888
g54
(dp2889
g74
g75
ssg63
g2883
sg56
(lp2890
S'SERVER_PROTOCOL'
p2891
asbag49
(g70
g51
NtRp2892
(dp2893
g54
(dp2894
g81
g82
ssg63
g2883
sg56
(lp2895
S':'
asbag49
(g70
g51
NtRp2896
(dp2897
g54
(dp2898
sg63
g2883
sg56
(lp2899
g49
(g50
g51
NtRp2900
(dp2901
g54
(dp2902
g62
I3
ssg63
g2896
sg56
(lp2903
g1511
asbasbasbag49
(g65
g51
NtRp2904
(dp2905
g54
(dp2906
sg63
g2522
sg56
(lp2907
g49
(g70
g51
NtRp2908
(dp2909
g54
(dp2910
g74
g75
ssg63
g2904
sg56
(lp2911
S'SERVER_SOFTWARE'
p2912
asbag49
(g70
g51
NtRp2913
(dp2914
g54
(dp2915
g81
g82
ssg63
g2904
sg56
(lp2916
S':'
asbag49
(g70
g51
NtRp2917
(dp2918
g54
(dp2919
sg63
g2904
sg56
(lp2920
g49
(g50
g51
NtRp2921
(dp2922
g54
(dp2923
g62
I3
ssg63
g2917
sg56
(lp2924
g1533
asbasbasbag49
(g65
g51
NtRp2925
(dp2926
g54
(dp2927
sg63
g2522
sg56
(lp2928
g49
(g70
g51
NtRp2929
(dp2930
g54
(dp2931
g74
g75
ssg63
g2925
sg56
(lp2932
S'wsgi.errors'
p2933
asbag49
(g70
g51
NtRp2934
(dp2935
g54
(dp2936
g81
g82
ssg63
g2925
sg56
(lp2937
S':'
asbag49
(g70
g51
NtRp2938
(dp2939
g54
(dp2940
sg63
g2925
sg56
(lp2941
g49
(g50
g51
NtRp2942
(dp2943
g54
(dp2944
g62
I3
ssg63
g2938
sg56
(lp2945
S"<open file '<stderr>', mode 'w' at 0x004200B0>"
p2946
asbasbasbag49
(g65
g51
NtRp2947
(dp2948
g54
(dp2949
sg63
g2522
sg56
(lp2950
g49
(g70
g51
NtRp2951
(dp2952
g54
(dp2953
g74
g75
ssg63
g2947
sg56
(lp2954
S'wsgi.file_wrapper'
p2955
asbag49
(g70
g51
NtRp2956
(dp2957
g54
(dp2958
g81
g82
ssg63
g2947
sg56
(lp2959
S':'
asbag49
(g70
g51
NtRp2960
(dp2961
g54
(dp2962
sg63
g2947
sg56
(lp2963
g49
(g50
g51
NtRp2964
(dp2965
g54
(dp2966
g62
I3
ssg63
g2960
sg56
(lp2967
S'<class wsgiref.util.FileWrapper at 0x02DF2E40>'
p2968
asbasbasbag49
(g65
g51
NtRp2969
(dp2970
g54
(dp2971
sg63
g2522
sg56
(lp2972
g49
(g70
g51
NtRp2973
(dp2974
g54
(dp2975
g74
g75
ssg63
g2969
sg56
(lp2976
S'wsgi.input'
p2977
asbag49
(g70
g51
NtRp2978
(dp2979
g54
(dp2980
g81
g82
ssg63
g2969
sg56
(lp2981
S':'
asbag49
(g70
g51
NtRp2982
(dp2983
g54
(dp2984
sg63
g2969
sg56
(lp2985
g49
(g50
g51
NtRp2986
(dp2987
g54
(dp2988
g62
I3
ssg63
g2982
sg56
(lp2989
S'<cStringIO.StringO object at 0x068D2300>'
p2990
asbasbasbag49
(g65
g51
NtRp2991
(dp2992
g54
(dp2993
sg63
g2522
sg56
(lp2994
g49
(g70
g51
NtRp2995
(dp2996
g54
(dp2997
g74
g75
ssg63
g2991
sg56
(lp2998
S'wsgi.multiprocess'
p2999
asbag49
(g70
g51
NtRp3000
(dp3001
g54
(dp3002
g81
g82
ssg63
g2991
sg56
(lp3003
S':'
asbag49
(g70
g51
NtRp3004
(dp3005
g54
(dp3006
sg63
g2991
sg56
(lp3007
g49
(g50
g51
NtRp3008
(dp3009
g54
(dp3010
g62
I3
ssg63
g3004
sg56
(lp3011
g92
asbasbasbag49
(g65
g51
NtRp3012
(dp3013
g54
(dp3014
sg63
g2522
sg56
(lp3015
g49
(g70
g51
NtRp3016
(dp3017
g54
(dp3018
g74
g75
ssg63
g3012
sg56
(lp3019
S'wsgi.multithread'
p3020
asbag49
(g70
g51
NtRp3021
(dp3022
g54
(dp3023
g81
g82
ssg63
g3012
sg56
(lp3024
S':'
asbag49
(g70
g51
NtRp3025
(dp3026
g54
(dp3027
sg63
g3012
sg56
(lp3028
g49
(g50
g51
NtRp3029
(dp3030
g54
(dp3031
g62
I3
ssg63
g3025
sg56
(lp3032
g1773
asbasbasbag49
(g65
g51
NtRp3033
(dp3034
g54
(dp3035
sg63
g2522
sg56
(lp3036
g49
(g70
g51
NtRp3037
(dp3038
g54
(dp3039
g74
g75
ssg63
g3033
sg56
(lp3040
S'wsgi.run_once'
p3041
asbag49
(g70
g51
NtRp3042
(dp3043
g54
(dp3044
g81
g82
ssg63
g3033
sg56
(lp3045
S':'
asbag49
(g70
g51
NtRp3046
(dp3047
g54
(dp3048
sg63
g3033
sg56
(lp3049
g49
(g50
g51
NtRp3050
(dp3051
g54
(dp3052
g62
I3
ssg63
g3046
sg56
(lp3053
g92
asbasbasbag49
(g65
g51
NtRp3054
(dp3055
g54
(dp3056
sg63
g2522
sg56
(lp3057
g49
(g70
g51
NtRp3058
(dp3059
g54
(dp3060
g74
g75
ssg63
g3054
sg56
(lp3061
S'wsgi.url_scheme'
p3062
asbag49
(g70
g51
NtRp3063
(dp3064
g54
(dp3065
g81
g82
ssg63
g3054
sg56
(lp3066
S':'
asbag49
(g70
g51
NtRp3067
(dp3068
g54
(dp3069
sg63
g3054
sg56
(lp3070
g49
(g50
g51
NtRp3071
(dp3072
g54
(dp3073
g62
I3
ssg63
g3067
sg56
(lp3074
g1816
asbasbasbag49
(g65
g51
NtRp3075
(dp3076
g54
(dp3077
sg63
g2522
sg56
(lp3078
g49
(g70
g51
NtRp3079
(dp3080
g54
(dp3081
g74
g75
ssg63
g3075
sg56
(lp3082
S'wsgi.version'
p3083
asbag49
(g70
g51
NtRp3084
(dp3085
g54
(dp3086
g81
g82
ssg63
g3075
sg56
(lp3087
S':'
asbag49
(g70
g51
NtRp3088
(dp3089
g54
(dp3090
sg63
g3075
sg56
(lp3091
g49
(g50
g51
NtRp3092
(dp3093
g54
(dp3094
g62
I3
ssg63
g3088
sg56
(lp3095
S'1'
asbasbasbasbasbasbasbasbasbasbasbasbasbsS'frames'
p3096
(lp3097
(dp3098
S'file'
p3099
S'C:\\web2py\\gluon\\restricted.py'
p3100
sS'dump'
p3101
(dp3102
sS'lnum'
p3103
I205
sS'lines'
p3104
(dp3105
sS'call'
p3106
S'(code=\'response.write(\\\'<!DOCTYPE html PUBLIC "-//W3C//D...  </div> -->\\\\n </body>\\\\n</html>\\\\n\\\', escape=False)\', environment={\'A\': <class \'gluon.html.A\'>, \'Auth\': <class \'gluon.tools.Auth\'>, \'B\': <class \'gluon.html.B\'>, \'BEAUTIFY\': <class \'gluon.html.BEAUTIFY\'>, \'BODY\': <class \'gluon.html.BODY\'>, \'BR\': <class \'gluon.html.BR\'>, \'BUTTON\': <class \'gluon.html.BUTTON\'>, \'CAT\': <class \'gluon.html.CAT\'>, \'CENTER\': <class \'gluon.html.CENTER\'>, \'CLEANUP\': <class \'gluon.validators.CLEANUP\'>, ...}, layer=r\'C:\\web2py\\applications\\ssad_project_f\\views\\default/kruskal.html\')'
p3107
sS'func'
p3108
S'restricted'
p3109
sa(dp3110
g3099
S'C:\\web2py\\applications\\ssad_project_f\\views\\default\\kruskal.html'
p3111
sg3101
(dp3112
sg3103
I34
sg3104
(dp3113
I32
S"response.write('</div>\\n    ', escape=False)"
p3114
sI33
S'response.write(\'\\r\\n<a href="index">Home</a>\\r\\n<br>\\r\\n<h5>ith element of p forms edge with corresponding employee of q in the minimum spanning tree</h5>\\r\\n</br>\\r\\n"Creating a text file with the write() method."\\r\\n\', escape=False)'
p3115
sI34
S'response.write(text_file = open("write_it.txt", "w"))'
p3116
sI35
S"response.write('\\r\\n', escape=False)"
p3117
sI36
S'response.write(text_file.write("Line 1\\n"))'
p3118
sI37
S"response.write('\\r\\n', escape=False)"
p3119
sI38
S'response.write(text_file.write("This is line 2\\n"))'
p3120
sI39
S"response.write('\\r\\n', escape=False)"
p3121
sI40
S'response.write(text_file.write("That makes this line 3\\n"))'
p3122
sI41
S"response.write('\\r\\n', escape=False)"
p3123
sI42
S'response.write(text_file.close())'
p3124
sI43
S"response.write('\\r\\n', escape=False)"
p3125
sI44
S'response.write(BEAUTIFY(response._vars))'
p3126
sI25
S'except:pass'
p3127
sI26
S'response.write(\'\\n\\n  <div id="wrapper">\\n  <div id="header"> \\n    <h1>\\n    Hierarchy Generator\\n    </h1>\\n  <!--  <h2>\\n     \', escape=False)'
p3128
sI27
S"response.write(response.subtitle or '=response.subtitle')"
p3129
sI28
S'response.write(\'\\n    </h2> -->\\n   </div>\\n  <!-- <div id="menu">\\n    \', escape=False)'
p3130
sI29
S"response.write(MENU(response.menu,_class='web2py-menu'))"
p3131
sI30
S'response.write(\'\\n    <script>\\n      jQuery(document).ready(function(){jQuery(\\\'ul.web2py-menu\\\').superfish({delay:400});});\\n    </script>\\n   </div> -->\\n   <div id="content">\\n    <div class="flash">\', escape=False)'
p3132
sI31
S"response.write(response.flash or '')"
p3133
ssg3106
S'()'
p3134
sg3108
S'<module>'
p3135
sasS'pyver'
p3136
S'Python 2.5.4: C:\\web2py\\web2py.exe'
p3137
sS'session'
p3138
g49
(g50
g51
NtRp3139
(dp3140
g54
(dp3141
sg56
(lp3142
g49
(g58
g51
NtRp3143
(dp3144
g54
(dp3145
g62
I5
ssg63
Nsg56
(lp3146
g49
(g65
g51
NtRp3147
(dp3148
g54
(dp3149
sg63
g3143
sg56
(lp3150
g49
(g70
g51
NtRp3151
(dp3152
g54
(dp3153
g74
g75
ssg63
g3147
sg56
(lp3154
S'auth'
p3155
asbag49
(g70
g51
NtRp3156
(dp3157
g54
(dp3158
g81
g82
ssg63
g3147
sg56
(lp3159
S':'
asbag49
(g70
g51
NtRp3160
(dp3161
g54
(dp3162
sg63
g3147
sg56
(lp3163
g49
(g50
g51
NtRp3164
(dp3165
g54
(dp3166
g62
I5
ssg63
g3160
sg56
(lp3167
g49
(g58
g51
NtRp3168
(dp3169
g54
(dp3170
g62
I4
ssg63
Nsg56
(lp3171
g49
(g65
g51
NtRp3172
(dp3173
g54
(dp3174
sg63
g3168
sg56
(lp3175
g49
(g70
g51
NtRp3176
(dp3177
g54
(dp3178
g74
g75
ssg63
g3172
sg56
(lp3179
S'expiration'
p3180
asbag49
(g70
g51
NtRp3181
(dp3182
g54
(dp3183
g81
g82
ssg63
g3172
sg56
(lp3184
S':'
asbag49
(g70
g51
NtRp3185
(dp3186
g54
(dp3187
sg63
g3172
sg56
(lp3188
g49
(g50
g51
NtRp3189
(dp3190
g54
(dp3191
g62
I4
ssg63
g3185
sg56
(lp3192
S'3600'
p3193
asbasbasbag49
(g65
g51
NtRp3194
(dp3195
g54
(dp3196
sg63
g3168
sg56
(lp3197
g49
(g70
g51
NtRp3198
(dp3199
g54
(dp3200
g74
g75
ssg63
g3194
sg56
(lp3201
S'hmac_key'
p3202
asbag49
(g70
g51
NtRp3203
(dp3204
g54
(dp3205
g81
g82
ssg63
g3194
sg56
(lp3206
S':'
asbag49
(g70
g51
NtRp3207
(dp3208
g54
(dp3209
sg63
g3194
sg56
(lp3210
g49
(g50
g51
NtRp3211
(dp3212
g54
(dp3213
g62
I4
ssg63
g3207
sg56
(lp3214
S'2004cc89-00fb-4ffe-a259-1fc103faa152'
p3215
asbasbasbag49
(g65
g51
NtRp3216
(dp3217
g54
(dp3218
sg63
g3168
sg56
(lp3219
g49
(g70
g51
NtRp3220
(dp3221
g54
(dp3222
g74
g75
ssg63
g3216
sg56
(lp3223
S'last_visit'
p3224
asbag49
(g70
g51
NtRp3225
(dp3226
g54
(dp3227
g81
g82
ssg63
g3216
sg56
(lp3228
S':'
asbag49
(g70
g51
NtRp3229
(dp3230
g54
(dp3231
sg63
g3216
sg56
(lp3232
g49
(g50
g51
NtRp3233
(dp3234
g54
(dp3235
g62
I4
ssg63
g3229
sg56
(lp3236
S'datetime.datetime(2012, 11, 6, 2, 40, 8, 343000)'
p3237
asbasbasbag49
(g65
g51
NtRp3238
(dp3239
g54
(dp3240
sg63
g3168
sg56
(lp3241
g49
(g70
g51
NtRp3242
(dp3243
g54
(dp3244
g74
g75
ssg63
g3238
sg56
(lp3245
S'remember'
p3246
asbag49
(g70
g51
NtRp3247
(dp3248
g54
(dp3249
g81
g82
ssg63
g3238
sg56
(lp3250
S':'
asbag49
(g70
g51
NtRp3251
(dp3252
g54
(dp3253
sg63
g3238
sg56
(lp3254
g49
(g50
g51
NtRp3255
(dp3256
g54
(dp3257
g62
I4
ssg63
g3251
sg56
(lp3258
g92
asbasbasbag49
(g65
g51
NtRp3259
(dp3260
g54
(dp3261
sg63
g3168
sg56
(lp3262
g49
(g70
g51
NtRp3263
(dp3264
g54
(dp3265
g74
g75
ssg63
g3259
sg56
(lp3266
S'user'
p3267
asbag49
(g70
g51
NtRp3268
(dp3269
g54
(dp3270
g81
g82
ssg63
g3259
sg56
(lp3271
S':'
asbag49
(g70
g51
NtRp3272
(dp3273
g54
(dp3274
sg63
g3259
sg56
(lp3275
g49
(g50
g51
NtRp3276
(dp3277
g54
(dp3278
g62
I4
ssg63
g3272
sg56
(lp3279
g49
(g58
g51
NtRp3280
(dp3281
g54
(dp3282
g62
I3
ssg63
Nsg56
(lp3283
g49
(g65
g51
NtRp3284
(dp3285
g54
(dp3286
sg63
g3280
sg56
(lp3287
g49
(g70
g51
NtRp3288
(dp3289
g54
(dp3290
g74
g75
ssg63
g3284
sg56
(lp3291
S'email'
p3292
asbag49
(g70
g51
NtRp3293
(dp3294
g54
(dp3295
g81
g82
ssg63
g3284
sg56
(lp3296
S':'
asbag49
(g70
g51
NtRp3297
(dp3298
g54
(dp3299
sg63
g3284
sg56
(lp3300
g49
(g50
g51
NtRp3301
(dp3302
g54
(dp3303
g62
I3
ssg63
g3297
sg56
(lp3304
S'rammurthy@faculty.iiit.ac.in'
p3305
asbasbasbag49
(g65
g51
NtRp3306
(dp3307
g54
(dp3308
sg63
g3280
sg56
(lp3309
g49
(g70
g51
NtRp3310
(dp3311
g54
(dp3312
g74
g75
ssg63
g3306
sg56
(lp3313
S'first_name'
p3314
asbag49
(g70
g51
NtRp3315
(dp3316
g54
(dp3317
g81
g82
ssg63
g3306
sg56
(lp3318
S':'
asbag49
(g70
g51
NtRp3319
(dp3320
g54
(dp3321
sg63
g3306
sg56
(lp3322
g49
(g50
g51
NtRp3323
(dp3324
g54
(dp3325
g62
I3
ssg63
g3319
sg56
(lp3326
S'rammurthy'
p3327
asbasbasbag49
(g65
g51
NtRp3328
(dp3329
g54
(dp3330
sg63
g3280
sg56
(lp3331
g49
(g70
g51
NtRp3332
(dp3333
g54
(dp3334
g74
g75
ssg63
g3328
sg56
(lp3335
S'id'
p3336
asbag49
(g70
g51
NtRp3337
(dp3338
g54
(dp3339
g81
g82
ssg63
g3328
sg56
(lp3340
S':'
asbag49
(g70
g51
NtRp3341
(dp3342
g54
(dp3343
sg63
g3328
sg56
(lp3344
g49
(g50
g51
NtRp3345
(dp3346
g54
(dp3347
g62
I3
ssg63
g3341
sg56
(lp3348
S'1'
asbasbasbag49
(g65
g51
NtRp3349
(dp3350
g54
(dp3351
sg63
g3280
sg56
(lp3352
g49
(g70
g51
NtRp3353
(dp3354
g54
(dp3355
g74
g75
ssg63
g3349
sg56
(lp3356
S'last_name'
p3357
asbag49
(g70
g51
NtRp3358
(dp3359
g54
(dp3360
g81
g82
ssg63
g3349
sg56
(lp3361
S':'
asbag49
(g70
g51
NtRp3362
(dp3363
g54
(dp3364
sg63
g3349
sg56
(lp3365
g49
(g50
g51
NtRp3366
(dp3367
g54
(dp3368
g62
I3
ssg63
g3362
sg56
(lp3369
S'sir'
p3370
asbasbasbag49
(g65
g51
NtRp3371
(dp3372
g54
(dp3373
sg63
g3280
sg56
(lp3374
g49
(g70
g51
NtRp3375
(dp3376
g54
(dp3377
g74
g75
ssg63
g3371
sg56
(lp3378
S'password'
p3379
asbag49
(g70
g51
NtRp3380
(dp3381
g54
(dp3382
g81
g82
ssg63
g3371
sg56
(lp3383
S':'
asbag49
(g70
g51
NtRp3384
(dp3385
g54
(dp3386
sg63
g3371
sg56
(lp3387
g49
(g50
g51
NtRp3388
(dp3389
g54
(dp3390
g62
I3
ssg63
g3384
sg56
(lp3391
S'9da56e6636f0f89c2a2b7b54a400c423'
p3392
asbasbasbag49
(g65
g51
NtRp3393
(dp3394
g54
(dp3395
sg63
g3280
sg56
(lp3396
g49
(g70
g51
NtRp3397
(dp3398
g54
(dp3399
g74
g75
ssg63
g3393
sg56
(lp3400
S'registration_id'
p3401
asbag49
(g70
g51
NtRp3402
(dp3403
g54
(dp3404
g81
g82
ssg63
g3393
sg56
(lp3405
S':'
asbag49
(g70
g51
NtRp3406
(dp3407
g54
(dp3408
sg63
g3393
sg56
(lp3409
g49
(g50
g51
NtRp3410
(dp3411
g54
(dp3412
g62
I3
ssg63
g3406
sg56
(lp3413
S''
asbasbasbag49
(g65
g51
NtRp3414
(dp3415
g54
(dp3416
sg63
g3280
sg56
(lp3417
g49
(g70
g51
NtRp3418
(dp3419
g54
(dp3420
g74
g75
ssg63
g3414
sg56
(lp3421
S'registration_key'
p3422
asbag49
(g70
g51
NtRp3423
(dp3424
g54
(dp3425
g81
g82
ssg63
g3414
sg56
(lp3426
S':'
asbag49
(g70
g51
NtRp3427
(dp3428
g54
(dp3429
sg63
g3414
sg56
(lp3430
g49
(g50
g51
NtRp3431
(dp3432
g54
(dp3433
g62
I3
ssg63
g3427
sg56
(lp3434
S''
asbasbasbag49
(g65
g51
NtRp3435
(dp3436
g54
(dp3437
sg63
g3280
sg56
(lp3438
g49
(g70
g51
NtRp3439
(dp3440
g54
(dp3441
g74
g75
ssg63
g3435
sg56
(lp3442
S'reset_password_key'
p3443
asbag49
(g70
g51
NtRp3444
(dp3445
g54
(dp3446
g81
g82
ssg63
g3435
sg56
(lp3447
S':'
asbag49
(g70
g51
NtRp3448
(dp3449
g54
(dp3450
sg63
g3435
sg56
(lp3451
g49
(g50
g51
NtRp3452
(dp3453
g54
(dp3454
g62
I3
ssg63
g3448
sg56
(lp3455
S''
asbasbasbasbasbasbasbag49
(g65
g51
NtRp3456
(dp3457
g54
(dp3458
sg63
g3168
sg56
(lp3459
g49
(g70
g51
NtRp3460
(dp3461
g54
(dp3462
g74
g75
ssg63
g3456
sg56
(lp3463
S'user_groups'
p3464
asbag49
(g70
g51
NtRp3465
(dp3466
g54
(dp3467
g81
g82
ssg63
g3456
sg56
(lp3468
S':'
asbag49
(g70
g51
NtRp3469
(dp3470
g54
(dp3471
sg63
g3456
sg56
(lp3472
g49
(g50
g51
NtRp3473
(dp3474
g54
(dp3475
g62
I4
ssg63
g3469
sg56
(lp3476
g49
(g58
g51
NtRp3477
(dp3478
g54
(dp3479
g62
I3
ssg63
Nsg56
(lp3480
g49
(g65
g51
NtRp3481
(dp3482
g54
(dp3483
sg63
g3477
sg56
(lp3484
g49
(g70
g51
NtRp3485
(dp3486
g54
(dp3487
g74
g75
ssg63
g3481
sg56
(lp3488
S'1'
asbag49
(g70
g51
NtRp3489
(dp3490
g54
(dp3491
g81
g82
ssg63
g3481
sg56
(lp3492
S':'
asbag49
(g70
g51
NtRp3493
(dp3494
g54
(dp3495
sg63
g3481
sg56
(lp3496
g49
(g50
g51
NtRp3497
(dp3498
g54
(dp3499
g62
I3
ssg63
g3493
sg56
(lp3500
S'user_1'
p3501
asbasbasbag49
(g65
g51
NtRp3502
(dp3503
g54
(dp3504
sg63
g3477
sg56
(lp3505
g49
(g70
g51
NtRp3506
(dp3507
g54
(dp3508
g74
g75
ssg63
g3502
sg56
(lp3509
S'2'
asbag49
(g70
g51
NtRp3510
(dp3511
g54
(dp3512
g81
g82
ssg63
g3502
sg56
(lp3513
S':'
asbag49
(g70
g51
NtRp3514
(dp3515
g54
(dp3516
sg63
g3502
sg56
(lp3517
g49
(g50
g51
NtRp3518
(dp3519
g54
(dp3520
g62
I3
ssg63
g3514
sg56
(lp3521
S'Administrator'
p3522
asbasbasbasbasbasbasbasbasbasbasbag49
(g65
g51
NtRp3523
(dp3524
g54
(dp3525
sg63
g3143
sg56
(lp3526
g49
(g70
g51
NtRp3527
(dp3528
g54
(dp3529
g74
g75
ssg63
g3523
sg56
(lp3530
S'last_query'
p3531
asbag49
(g70
g51
NtRp3532
(dp3533
g54
(dp3534
g81
g82
ssg63
g3523
sg56
(lp3535
S':'
asbag49
(g70
g51
NtRp3536
(dp3537
g54
(dp3538
sg63
g3523
sg56
(lp3539
g49
(g50
g51
NtRp3540
(dp3541
g54
(dp3542
g62
I5
ssg63
g3536
sg56
(lp3543
S'db.Relation.id>0'
p3544
asbasbasbasbasbsS'etype'
p3545
S"<type 'exceptions.TypeError'>"
p3546
sS'date'
p3547
S'Tue Nov 06 02:43:03 2012'
p3548
sS'response'
p3549
g49
(g50
g51
NtRp3550
(dp3551
g54
(dp3552
sg56
(lp3553
g49
(g58
g51
NtRp3554
(dp3555
g54
(dp3556
g62
I5
ssg63
Nsg56
(lp3557
g49
(g65
g51
NtRp3558
(dp3559
g54
(dp3560
sg63
g3554
sg56
(lp3561
g49
(g70
g51
NtRp3562
(dp3563
g54
(dp3564
g74
g75
ssg63
g3558
sg56
(lp3565
g147
asbag49
(g70
g51
NtRp3566
(dp3567
g54
(dp3568
g81
g82
ssg63
g3558
sg56
(lp3569
S':'
asbag49
(g70
g51
NtRp3570
(dp3571
g54
(dp3572
sg63
g3558
sg56
(lp3573
g49
(g50
g51
NtRp3574
(dp3575
g54
(dp3576
g62
I5
ssg63
g3570
sg56
(lp3577
S'<cStringIO.StringO object at 0x031F0700>'
p3578
asbasbasbag49
(g65
g51
NtRp3579
(dp3580
g54
(dp3581
sg63
g3554
sg56
(lp3582
g49
(g70
g51
NtRp3583
(dp3584
g54
(dp3585
g74
g75
ssg63
g3579
sg56
(lp3586
g213
asbag49
(g70
g51
NtRp3587
(dp3588
g54
(dp3589
g81
g82
ssg63
g3579
sg56
(lp3590
S':'
asbag49
(g70
g51
NtRp3591
(dp3592
g54
(dp3593
sg63
g3579
sg56
(lp3594
g49
(g50
g51
NtRp3595
(dp3596
g54
(dp3597
g62
I5
ssg63
g3591
sg56
(lp3598
g49
(g58
g51
NtRp3599
(dp3600
g54
(dp3601
g62
I4
ssg63
Nsg56
(lp3602
g49
(g65
g51
NtRp3603
(dp3604
g54
(dp3605
sg63
g3599
sg56
(lp3606
g49
(g70
g51
NtRp3607
(dp3608
g54
(dp3609
g74
g75
ssg63
g3603
sg56
(lp3610
S'session_id_ssad_project_f'
p3611
asbag49
(g70
g51
NtRp3612
(dp3613
g54
(dp3614
g81
g82
ssg63
g3603
sg56
(lp3615
S':'
asbag49
(g70
g51
NtRp3616
(dp3617
g54
(dp3618
sg63
g3603
sg56
(lp3619
g49
(g50
g51
NtRp3620
(dp3621
g54
(dp3622
g62
I4
ssg63
g3616
sg56
(lp3623
g49
(g58
g51
NtRp3624
(dp3625
g54
(dp3626
g62
I3
ssg63
Nsg56
(lp3627
g49
(g65
g51
NtRp3628
(dp3629
g54
(dp3630
sg63
g3624
sg56
(lp3631
g49
(g70
g51
NtRp3632
(dp3633
g54
(dp3634
g74
g75
ssg63
g3628
sg56
(lp3635
g263
asbag49
(g70
g51
NtRp3636
(dp3637
g54
(dp3638
g81
g82
ssg63
g3628
sg56
(lp3639
S':'
asbag49
(g70
g51
NtRp3640
(dp3641
g54
(dp3642
sg63
g3628
sg56
(lp3643
g49
(g50
g51
NtRp3644
(dp3645
g54
(dp3646
g62
I3
ssg63
g3640
sg56
(lp3647
S''
asbasbasbag49
(g65
g51
NtRp3648
(dp3649
g54
(dp3650
sg63
g3624
sg56
(lp3651
g49
(g70
g51
NtRp3652
(dp3653
g54
(dp3654
g74
g75
ssg63
g3648
sg56
(lp3655
g284
asbag49
(g70
g51
NtRp3656
(dp3657
g54
(dp3658
g81
g82
ssg63
g3648
sg56
(lp3659
S':'
asbag49
(g70
g51
NtRp3660
(dp3661
g54
(dp3662
sg63
g3648
sg56
(lp3663
g49
(g50
g51
NtRp3664
(dp3665
g54
(dp3666
g62
I3
ssg63
g3660
sg56
(lp3667
S''
asbasbasbag49
(g65
g51
NtRp3668
(dp3669
g54
(dp3670
sg63
g3624
sg56
(lp3671
g49
(g70
g51
NtRp3672
(dp3673
g54
(dp3674
g74
g75
ssg63
g3668
sg56
(lp3675
g305
asbag49
(g70
g51
NtRp3676
(dp3677
g54
(dp3678
g81
g82
ssg63
g3668
sg56
(lp3679
S':'
asbag49
(g70
g51
NtRp3680
(dp3681
g54
(dp3682
sg63
g3668
sg56
(lp3683
g49
(g50
g51
NtRp3684
(dp3685
g54
(dp3686
g62
I3
ssg63
g3680
sg56
(lp3687
S''
asbasbasbag49
(g65
g51
NtRp3688
(dp3689
g54
(dp3690
sg63
g3624
sg56
(lp3691
g49
(g70
g51
NtRp3692
(dp3693
g54
(dp3694
g74
g75
ssg63
g3688
sg56
(lp3695
g326
asbag49
(g70
g51
NtRp3696
(dp3697
g54
(dp3698
g81
g82
ssg63
g3688
sg56
(lp3699
S':'
asbag49
(g70
g51
NtRp3700
(dp3701
g54
(dp3702
sg63
g3688
sg56
(lp3703
g49
(g50
g51
NtRp3704
(dp3705
g54
(dp3706
g62
I3
ssg63
g3700
sg56
(lp3707
S''
asbasbasbag49
(g65
g51
NtRp3708
(dp3709
g54
(dp3710
sg63
g3624
sg56
(lp3711
g49
(g70
g51
NtRp3712
(dp3713
g54
(dp3714
g74
g75
ssg63
g3708
sg56
(lp3715
g347
asbag49
(g70
g51
NtRp3716
(dp3717
g54
(dp3718
g81
g82
ssg63
g3708
sg56
(lp3719
S':'
asbag49
(g70
g51
NtRp3720
(dp3721
g54
(dp3722
sg63
g3708
sg56
(lp3723
g49
(g50
g51
NtRp3724
(dp3725
g54
(dp3726
g62
I3
ssg63
g3720
sg56
(lp3727
S'/'
asbasbasbag49
(g65
g51
NtRp3728
(dp3729
g54
(dp3730
sg63
g3624
sg56
(lp3731
g49
(g70
g51
NtRp3732
(dp3733
g54
(dp3734
g74
g75
ssg63
g3728
sg56
(lp3735
g368
asbag49
(g70
g51
NtRp3736
(dp3737
g54
(dp3738
g81
g82
ssg63
g3728
sg56
(lp3739
S':'
asbag49
(g70
g51
NtRp3740
(dp3741
g54
(dp3742
sg63
g3728
sg56
(lp3743
g49
(g50
g51
NtRp3744
(dp3745
g54
(dp3746
g62
I3
ssg63
g3740
sg56
(lp3747
S''
asbasbasbag49
(g65
g51
NtRp3748
(dp3749
g54
(dp3750
sg63
g3624
sg56
(lp3751
g49
(g70
g51
NtRp3752
(dp3753
g54
(dp3754
g74
g75
ssg63
g3748
sg56
(lp3755
g389
asbag49
(g70
g51
NtRp3756
(dp3757
g54
(dp3758
g81
g82
ssg63
g3748
sg56
(lp3759
S':'
asbag49
(g70
g51
NtRp3760
(dp3761
g54
(dp3762
sg63
g3748
sg56
(lp3763
g49
(g50
g51
NtRp3764
(dp3765
g54
(dp3766
g62
I3
ssg63
g3760
sg56
(lp3767
S''
asbasbasbasbasbasbasbasbasbasbasbag49
(g65
g51
NtRp3768
(dp3769
g54
(dp3770
sg63
g3554
sg56
(lp3771
g49
(g70
g51
NtRp3772
(dp3773
g54
(dp3774
g74
g75
ssg63
g3768
sg56
(lp3775
S'delimiters'
p3776
asbag49
(g70
g51
NtRp3777
(dp3778
g54
(dp3779
g81
g82
ssg63
g3768
sg56
(lp3780
S':'
asbag49
(g70
g51
NtRp3781
(dp3782
g54
(dp3783
sg63
g3768
sg56
(lp3784
g49
(g50
g51
NtRp3785
(dp3786
g54
(dp3787
g62
I5
ssg63
g3781
sg56
(lp3788
g49
(g58
g51
NtRp3789
(dp3790
g54
(dp3791
g62
I4
ssg63
Nsg56
(lp3792
g49
(g65
g51
NtRp3793
(dp3794
g54
(dp3795
sg63
g3789
sg56
(lp3796
g49
(g70
g51
NtRp3797
(dp3798
g54
(dp3799
sg63
g3793
sg56
(lp3800
g49
(g50
g51
NtRp3801
(dp3802
g54
(dp3803
g62
I4
ssg63
g3797
sg56
(lp3804
S'{{'
p3805
asbasbasbag49
(g65
g51
NtRp3806
(dp3807
g54
(dp3808
sg63
g3789
sg56
(lp3809
g49
(g70
g51
NtRp3810
(dp3811
g54
(dp3812
sg63
g3806
sg56
(lp3813
g49
(g50
g51
NtRp3814
(dp3815
g54
(dp3816
g62
I4
ssg63
g3810
sg56
(lp3817
S'}}'
p3818
asbasbasbasbasbasbasbag49
(g65
g51
NtRp3819
(dp3820
g54
(dp3821
sg63
g3554
sg56
(lp3822
g49
(g70
g51
NtRp3823
(dp3824
g54
(dp3825
g74
g75
ssg63
g3819
sg56
(lp3826
S'files'
p3827
asbag49
(g70
g51
NtRp3828
(dp3829
g54
(dp3830
g81
g82
ssg63
g3819
sg56
(lp3831
S':'
asbag49
(g70
g51
NtRp3832
(dp3833
g54
(dp3834
sg63
g3819
sg56
(lp3835
g49
(g50
g51
NtRp3836
(dp3837
g54
(dp3838
g62
I5
ssg63
g3832
sg56
(lp3839
g49
(g58
g51
NtRp3840
(dp3841
g54
(dp3842
g62
I4
ssg63
Nsg56
(lp3843
g49
(g65
g51
NtRp3844
(dp3845
g54
(dp3846
sg63
g3840
sg56
(lp3847
g49
(g70
g51
NtRp3848
(dp3849
g54
(dp3850
sg63
g3844
sg56
(lp3851
g49
(g50
g51
NtRp3852
(dp3853
g54
(dp3854
g62
I4
ssg63
g3848
sg56
(lp3855
S'/ssad_project_f/static/js/jquery.js'
p3856
asbasbasbag49
(g65
g51
NtRp3857
(dp3858
g54
(dp3859
sg63
g3840
sg56
(lp3860
g49
(g70
g51
NtRp3861
(dp3862
g54
(dp3863
sg63
g3857
sg56
(lp3864
g49
(g50
g51
NtRp3865
(dp3866
g54
(dp3867
g62
I4
ssg63
g3861
sg56
(lp3868
S'/ssad_project_f/static/css/calendar.css'
p3869
asbasbasbag49
(g65
g51
NtRp3870
(dp3871
g54
(dp3872
sg63
g3840
sg56
(lp3873
g49
(g70
g51
NtRp3874
(dp3875
g54
(dp3876
sg63
g3870
sg56
(lp3877
g49
(g50
g51
NtRp3878
(dp3879
g54
(dp3880
g62
I4
ssg63
g3874
sg56
(lp3881
S'/ssad_project_f/static/js/calendar.js'
p3882
asbasbasbag49
(g65
g51
NtRp3883
(dp3884
g54
(dp3885
sg63
g3840
sg56
(lp3886
g49
(g70
g51
NtRp3887
(dp3888
g54
(dp3889
sg63
g3883
sg56
(lp3890
g49
(g50
g51
NtRp3891
(dp3892
g54
(dp3893
g62
I4
ssg63
g3887
sg56
(lp3894
S'/ssad_project_f/static/js/web2py.js'
p3895
asbasbasbag49
(g65
g51
NtRp3896
(dp3897
g54
(dp3898
sg63
g3840
sg56
(lp3899
g49
(g70
g51
NtRp3900
(dp3901
g54
(dp3902
sg63
g3896
sg56
(lp3903
g49
(g50
g51
NtRp3904
(dp3905
g54
(dp3906
g62
I4
ssg63
g3900
sg56
(lp3907
S'/ssad_project_f/static/plugin_layouts/layouts/CorporateOffice/style.css'
p3908
asbasbasbag49
(g65
g51
NtRp3909
(dp3910
g54
(dp3911
sg63
g3840
sg56
(lp3912
g49
(g70
g51
NtRp3913
(dp3914
g54
(dp3915
sg63
g3909
sg56
(lp3916
g49
(g50
g51
NtRp3917
(dp3918
g54
(dp3919
g62
I4
ssg63
g3913
sg56
(lp3920
S'/ssad_project_f/static/plugin_layouts/superfish.js'
p3921
asbasbasbasbasbasbasbag49
(g65
g51
NtRp3922
(dp3923
g54
(dp3924
sg63
g3554
sg56
(lp3925
g49
(g70
g51
NtRp3926
(dp3927
g54
(dp3928
g74
g75
ssg63
g3922
sg56
(lp3929
S'flash'
p3930
asbag49
(g70
g51
NtRp3931
(dp3932
g54
(dp3933
g81
g82
ssg63
g3922
sg56
(lp3934
S':'
asbag49
(g70
g51
NtRp3935
(dp3936
g54
(dp3937
sg63
g3922
sg56
(lp3938
g49
(g50
g51
NtRp3939
(dp3940
g54
(dp3941
g62
I5
ssg63
g3935
sg56
(lp3942
S''
asbasbasbag49
(g65
g51
NtRp3943
(dp3944
g54
(dp3945
sg63
g3554
sg56
(lp3946
g49
(g70
g51
NtRp3947
(dp3948
g54
(dp3949
g74
g75
ssg63
g3943
sg56
(lp3950
S'generic_patterns'
p3951
asbag49
(g70
g51
NtRp3952
(dp3953
g54
(dp3954
g81
g82
ssg63
g3943
sg56
(lp3955
S':'
asbag49
(g70
g51
NtRp3956
(dp3957
g54
(dp3958
sg63
g3943
sg56
(lp3959
g49
(g50
g51
NtRp3960
(dp3961
g54
(dp3962
g62
I5
ssg63
g3956
sg56
(lp3963
g49
(g58
g51
NtRp3964
(dp3965
g54
(dp3966
g62
I4
ssg63
Nsg56
(lp3967
g49
(g65
g51
NtRp3968
(dp3969
g54
(dp3970
sg63
g3964
sg56
(lp3971
g49
(g70
g51
NtRp3972
(dp3973
g54
(dp3974
sg63
g3968
sg56
(lp3975
g49
(g50
g51
NtRp3976
(dp3977
g54
(dp3978
g62
I4
ssg63
g3972
sg56
(lp3979
S'*'
asbasbasbasbasbasbasbag49
(g65
g51
NtRp3980
(dp3981
g54
(dp3982
sg63
g3554
sg56
(lp3983
g49
(g70
g51
NtRp3984
(dp3985
g54
(dp3986
g74
g75
ssg63
g3980
sg56
(lp3987
S'headers'
p3988
asbag49
(g70
g51
NtRp3989
(dp3990
g54
(dp3991
g81
g82
ssg63
g3980
sg56
(lp3992
S':'
asbag49
(g70
g51
NtRp3993
(dp3994
g54
(dp3995
sg63
g3980
sg56
(lp3996
g49
(g50
g51
NtRp3997
(dp3998
g54
(dp3999
g62
I5
ssg63
g3993
sg56
(lp4000
g49
(g58
g51
NtRp4001
(dp4002
g54
(dp4003
g62
I4
ssg63
Nsg56
(lp4004
g49
(g65
g51
NtRp4005
(dp4006
g54
(dp4007
sg63
g4001
sg56
(lp4008
g49
(g70
g51
NtRp4009
(dp4010
g54
(dp4011
g74
g75
ssg63
g4005
sg56
(lp4012
S'Cache-Control'
p4013
asbag49
(g70
g51
NtRp4014
(dp4015
g54
(dp4016
g81
g82
ssg63
g4005
sg56
(lp4017
S':'
asbag49
(g70
g51
NtRp4018
(dp4019
g54
(dp4020
sg63
g4005
sg56
(lp4021
g49
(g50
g51
NtRp4022
(dp4023
g54
(dp4024
g62
I4
ssg63
g4018
sg56
(lp4025
S'no-store, no-cache, must-revalidate, post-check=0, pre-check=0'
p4026
asbasbasbag49
(g65
g51
NtRp4027
(dp4028
g54
(dp4029
sg63
g4001
sg56
(lp4030
g49
(g70
g51
NtRp4031
(dp4032
g54
(dp4033
g74
g75
ssg63
g4027
sg56
(lp4034
S'Content-Type'
p4035
asbag49
(g70
g51
NtRp4036
(dp4037
g54
(dp4038
g81
g82
ssg63
g4027
sg56
(lp4039
S':'
asbag49
(g70
g51
NtRp4040
(dp4041
g54
(dp4042
sg63
g4027
sg56
(lp4043
g49
(g50
g51
NtRp4044
(dp4045
g54
(dp4046
g62
I4
ssg63
g4040
sg56
(lp4047
S'text/html; charset=utf-8'
p4048
asbasbasbag49
(g65
g51
NtRp4049
(dp4050
g54
(dp4051
sg63
g4001
sg56
(lp4052
g49
(g70
g51
NtRp4053
(dp4054
g54
(dp4055
g74
g75
ssg63
g4049
sg56
(lp4056
S'Expires'
p4057
asbag49
(g70
g51
NtRp4058
(dp4059
g54
(dp4060
g81
g82
ssg63
g4049
sg56
(lp4061
S':'
asbag49
(g70
g51
NtRp4062
(dp4063
g54
(dp4064
sg63
g4049
sg56
(lp4065
g49
(g50
g51
NtRp4066
(dp4067
g54
(dp4068
g62
I4
ssg63
g4062
sg56
(lp4069
S'Mon, 05 Nov 2012 21:13:03 GMT'
p4070
asbasbasbag49
(g65
g51
NtRp4071
(dp4072
g54
(dp4073
sg63
g4001
sg56
(lp4074
g49
(g70
g51
NtRp4075
(dp4076
g54
(dp4077
g74
g75
ssg63
g4071
sg56
(lp4078
S'Pragma'
p4079
asbag49
(g70
g51
NtRp4080
(dp4081
g54
(dp4082
g81
g82
ssg63
g4071
sg56
(lp4083
S':'
asbag49
(g70
g51
NtRp4084
(dp4085
g54
(dp4086
sg63
g4071
sg56
(lp4087
g49
(g50
g51
NtRp4088
(dp4089
g54
(dp4090
g62
I4
ssg63
g4084
sg56
(lp4091
S'no-cache'
p4092
asbasbasbag49
(g65
g51
NtRp4093
(dp4094
g54
(dp4095
sg63
g4001
sg56
(lp4096
g49
(g70
g51
NtRp4097
(dp4098
g54
(dp4099
g74
g75
ssg63
g4093
sg56
(lp4100
S'X-Powered-By'
p4101
asbag49
(g70
g51
NtRp4102
(dp4103
g54
(dp4104
g81
g82
ssg63
g4093
sg56
(lp4105
S':'
asbag49
(g70
g51
NtRp4106
(dp4107
g54
(dp4108
sg63
g4093
sg56
(lp4109
g49
(g50
g51
NtRp4110
(dp4111
g54
(dp4112
g62
I4
ssg63
g4106
sg56
(lp4113
S'web2py'
p4114
asbasbasbasbasbasbasbag49
(g65
g51
NtRp4115
(dp4116
g54
(dp4117
sg63
g3554
sg56
(lp4118
g49
(g70
g51
NtRp4119
(dp4120
g54
(dp4121
g74
g75
ssg63
g4115
sg56
(lp4122
S'menu'
p4123
asbag49
(g70
g51
NtRp4124
(dp4125
g54
(dp4126
g81
g82
ssg63
g4115
sg56
(lp4127
S':'
asbag49
(g70
g51
NtRp4128
(dp4129
g54
(dp4130
sg63
g4115
sg56
(lp4131
g49
(g50
g51
NtRp4132
(dp4133
g54
(dp4134
g62
I5
ssg63
g4128
sg56
(lp4135
g49
(g58
g51
NtRp4136
(dp4137
g54
(dp4138
g62
I4
ssg63
Nsg56
(lp4139
g49
(g65
g51
NtRp4140
(dp4141
g54
(dp4142
sg63
g4136
sg56
(lp4143
g49
(g70
g51
NtRp4144
(dp4145
g54
(dp4146
sg63
g4140
sg56
(lp4147
g49
(g50
g51
NtRp4148
(dp4149
g54
(dp4150
g62
I4
ssg63
g4144
sg56
(lp4151
g49
(g58
g51
NtRp4152
(dp4153
g54
(dp4154
g62
I3
ssg63
Nsg56
(lp4155
g49
(g65
g51
NtRp4156
(dp4157
g54
(dp4158
sg63
g4152
sg56
(lp4159
g49
(g70
g51
NtRp4160
(dp4161
g54
(dp4162
sg63
g4156
sg56
(lp4163
g49
(g50
g51
NtRp4164
(dp4165
g54
(dp4166
g62
I3
ssg63
g4160
sg56
(lp4167
cgluon.languages
lazyT_unpickle
p4168
(S's\x04\x00\x00\x00Home'
tRp4169
asbasbasbag49
(g65
g51
NtRp4170
(dp4171
g54
(dp4172
sg63
g4152
sg56
(lp4173
g49
(g70
g51
NtRp4174
(dp4175
g54
(dp4176
sg63
g4170
sg56
(lp4177
g49
(g50
g51
NtRp4178
(dp4179
g54
(dp4180
g62
I3
ssg63
g4174
sg56
(lp4181
g92
asbasbasbag49
(g65
g51
NtRp4182
(dp4183
g54
(dp4184
sg63
g4152
sg56
(lp4185
g49
(g70
g51
NtRp4186
(dp4187
g54
(dp4188
sg63
g4182
sg56
(lp4189
g49
(g50
g51
NtRp4190
(dp4191
g54
(dp4192
g62
I3
ssg63
g4186
sg56
(lp4193
S'/ssad_project_f/default/index'
p4194
asbasbasbag49
(g65
g51
NtRp4195
(dp4196
g54
(dp4197
sg63
g4152
sg56
(lp4198
g49
(g70
g51
NtRp4199
(dp4200
g54
(dp4201
sg63
g4195
sg56
(lp4202
g49
(g50
g51
NtRp4203
(dp4204
g54
(dp4205
g62
I3
ssg63
g4199
sg56
(lp4206
g49
(g58
g51
NtRp4207
(dp4208
g54
(dp4209
g62
I2
ssg63
Nsg56
(lp4210
sbasbasbasbasbasbasbasbag49
(g65
g51
NtRp4211
(dp4212
g54
(dp4213
sg63
g4136
sg56
(lp4214
g49
(g70
g51
NtRp4215
(dp4216
g54
(dp4217
sg63
g4211
sg56
(lp4218
g49
(g50
g51
NtRp4219
(dp4220
g54
(dp4221
g62
I4
ssg63
g4215
sg56
(lp4222
g49
(g58
g51
NtRp4223
(dp4224
g54
(dp4225
g62
I3
ssg63
Nsg56
(lp4226
g49
(g65
g51
NtRp4227
(dp4228
g54
(dp4229
sg63
g4223
sg56
(lp4230
g49
(g70
g51
NtRp4231
(dp4232
g54
(dp4233
sg63
g4227
sg56
(lp4234
g49
(g50
g51
NtRp4235
(dp4236
g54
(dp4237
g62
I3
ssg63
g4231
sg56
(lp4238
g49
(cgluon.html
SPAN
p4239
g51
NtRp4240
(dp4241
g54
(dp4242
g74
S'color:yellow'
p4243
ssg63
g49
(cgluon.html
A
p4244
g51
NtRp4245
(dp4246
g54
(dp4247
S'_onclick'
p4248
S'javascript:void(0);return false;'
p4249
sS'_href'
p4250
S'#'
ssg63
g49
(cgluon.html
LI
p4251
g51
NtRp4252
(dp4253
g54
(dp4254
S'_class'
p4255
S'web2py-menu-expand'
p4256
ssg63
g49
(cgluon.html
UL
p4257
g51
NtRp4258
(dp4259
g54
(dp4260
S'li_class'
p4261
g4256
sS'mobile'
p4262
I00
sg4255
S'web2py-menu'
p4263
sS'ul_class'
p4264
S'web2py-menu-vertical'
p4265
sS'li_active'
p4266
S'web2py-menu-active'
p4267
ssg63
Nsg56
(lp4268
g49
(g4251
g51
NtRp4269
(dp4270
g54
(dp4271
sg63
g4258
sg56
(lp4272
g49
(g4244
g51
NtRp4273
(dp4274
g54
(dp4275
g4250
g4194
ssg63
g4269
sg56
(lp4276
g4169
asbasbag4252
asbsg56
(lp4277
g4245
ag49
(g4257
g51
NtRp4278
(dp4279
g54
(dp4280
g4255
g4265
ssg63
g4252
sg56
(lp4281
g49
(g4251
g51
NtRp4282
(dp4283
g54
(dp4284
sg63
g4278
sg56
(lp4285
g49
(g4244
g51
NtRp4286
(dp4287
g54
(dp4288
g4250
S'/admin/default/site'
p4289
ssg63
g4282
sg56
(lp4290
g4168
(S's\x08\x00\x00\x00My Sites'
tRp4291
asbasbag49
(g4251
g51
NtRp4292
(dp4293
g54
(dp4294
g4255
g4256
ssg63
g4278
sg56
(lp4295
g49
(g4244
g51
NtRp4296
(dp4297
g54
(dp4298
g4250
S'/admin/default/design/ssad_project_f'
p4299
ssg63
g4292
sg56
(lp4300
g4168
(S's\x08\x00\x00\x00This App'
tRp4301
asbag49
(g4257
g51
NtRp4302
(dp4303
g54
(dp4304
g4255
g4265
ssg63
g4292
sg56
(lp4305
g49
(g4251
g51
NtRp4306
(dp4307
g54
(dp4308
sg63
g4302
sg56
(lp4309
g49
(g4244
g51
NtRp4310
(dp4311
g54
(dp4312
g4250
S'/admin/default/edit/ssad_project_f/controllers/default.py'
p4313
ssg63
g4306
sg56
(lp4314
g4168
(S's\n\x00\x00\x00Controller'
tRp4315
asbasbag49
(g4251
g51
NtRp4316
(dp4317
g54
(dp4318
sg63
g4302
sg56
(lp4319
g49
(g4244
g51
NtRp4320
(dp4321
g54
(dp4322
g4250
S'/admin/default/edit/ssad_project_f/views/default/kruskal.html'
p4323
ssg63
g4316
sg56
(lp4324
g4168
(S's\x04\x00\x00\x00View'
tRp4325
asbasbag49
(g4251
g51
NtRp4326
(dp4327
g54
(dp4328
sg63
g4302
sg56
(lp4329
g49
(g4244
g51
NtRp4330
(dp4331
g54
(dp4332
g4250
S'/admin/default/edit/ssad_project_f/views/layout.html'
p4333
ssg63
g4326
sg56
(lp4334
g4168
(S's\x06\x00\x00\x00Layout'
tRp4335
asbasbag49
(g4251
g51
NtRp4336
(dp4337
g54
(dp4338
sg63
g4302
sg56
(lp4339
g49
(g4244
g51
NtRp4340
(dp4341
g54
(dp4342
g4250
S'/admin/default/edit/ssad_project_f/static/css/web2py.css'
p4343
ssg63
g4336
sg56
(lp4344
g4168
(S's\n\x00\x00\x00Stylesheet'
tRp4345
asbasbag49
(g4251
g51
NtRp4346
(dp4347
g54
(dp4348
sg63
g4302
sg56
(lp4349
g49
(g4244
g51
NtRp4350
(dp4351
g54
(dp4352
g4250
S'/admin/default/edit/ssad_project_f/models/db.py'
p4353
ssg63
g4346
sg56
(lp4354
g4168
(S's\x08\x00\x00\x00DB Model'
tRp4355
asbasbag49
(g4251
g51
NtRp4356
(dp4357
g54
(dp4358
sg63
g4302
sg56
(lp4359
g49
(g4244
g51
NtRp4360
(dp4361
g54
(dp4362
g4250
S'/admin/default/edit/ssad_project_f/models/menu.py'
p4363
ssg63
g4356
sg56
(lp4364
g4168
(S's\n\x00\x00\x00Menu Model'
tRp4365
asbasbag49
(g4251
g51
NtRp4366
(dp4367
g54
(dp4368
sg63
g4302
sg56
(lp4369
g49
(g4244
g51
NtRp4370
(dp4371
g54
(dp4372
g4250
S'/ssad_project_f/appadmin/index'
p4373
ssg63
g4366
sg56
(lp4374
g4168
(S's\x08\x00\x00\x00Database'
tRp4375
asbasbag49
(g4251
g51
NtRp4376
(dp4377
g54
(dp4378
sg63
g4302
sg56
(lp4379
g49
(g4244
g51
NtRp4380
(dp4381
g54
(dp4382
g4250
S'/admin/default/errors/ssad_project_f'
p4383
ssg63
g4376
sg56
(lp4384
g4168
(S's\x06\x00\x00\x00Errors'
tRp4385
asbasbag49
(g4251
g51
NtRp4386
(dp4387
g54
(dp4388
sg63
g4302
sg56
(lp4389
g49
(g4244
g51
NtRp4390
(dp4391
g54
(dp4392
g4250
S'/admin/default/about/ssad_project_f'
p4393
ssg63
g4386
sg56
(lp4394
g4168
(S's\x05\x00\x00\x00About'
tRp4395
asbasbasbasbag49
(g4251
g51
NtRp4396
(dp4397
g54
(dp4398
g4255
g4256
ssg63
g4278
sg56
(lp4399
g49
(g4244
g51
NtRp4400
(dp4401
g54
(dp4402
g4250
S'http://www.web2py.com'
p4403
ssg63
g4396
sg56
(lp4404
S'web2py.com'
p4405
asbag49
(g4257
g51
NtRp4406
(dp4407
g54
(dp4408
g4255
g4265
ssg63
g4396
sg56
(lp4409
g49
(g4251
g51
NtRp4410
(dp4411
g54
(dp4412
sg63
g4406
sg56
(lp4413
g49
(g4244
g51
NtRp4414
(dp4415
g54
(dp4416
g4250
S'http://www.web2py.com/examples/default/download'
p4417
ssg63
g4410
sg56
(lp4418
g4168
(S's\x08\x00\x00\x00Download'
tRp4419
asbasbag49
(g4251
g51
NtRp4420
(dp4421
g54
(dp4422
sg63
g4406
sg56
(lp4423
g49
(g4244
g51
NtRp4424
(dp4425
g54
(dp4426
g4250
S'http://www.web2py.com/examples/default/support'
p4427
ssg63
g4420
sg56
(lp4428
g4168
(S's\x07\x00\x00\x00Support'
tRp4429
asbasbag49
(g4251
g51
NtRp4430
(dp4431
g54
(dp4432
sg63
g4406
sg56
(lp4433
g49
(g4244
g51
NtRp4434
(dp4435
g54
(dp4436
g4250
S'http://web2py.com/demo_admin'
p4437
ssg63
g4430
sg56
(lp4438
g4168
(S's\x04\x00\x00\x00Demo'
tRp4439
asbasbag49
(g4251
g51
NtRp4440
(dp4441
g54
(dp4442
sg63
g4406
sg56
(lp4443
g49
(g4244
g51
NtRp4444
(dp4445
g54
(dp4446
g4250
S'http://web2py.com/examples/default/examples'
p4447
ssg63
g4440
sg56
(lp4448
g4168
(S's\x0e\x00\x00\x00Quick Examples'
tRp4449
asbasbag49
(g4251
g51
NtRp4450
(dp4451
g54
(dp4452
sg63
g4406
sg56
(lp4453
g49
(g4244
g51
NtRp4454
(dp4455
g54
(dp4456
g4250
S'http://web2py.com/AlterEgo'
p4457
ssg63
g4450
sg56
(lp4458
g4168
(S's\x03\x00\x00\x00FAQ'
tRp4459
asbasbag49
(g4251
g51
NtRp4460
(dp4461
g54
(dp4462
sg63
g4406
sg56
(lp4463
g49
(g4244
g51
NtRp4464
(dp4465
g54
(dp4466
g4250
S'http://www.web2py.com/examples/default/videos/'
p4467
ssg63
g4460
sg56
(lp4468
g4168
(S's\x06\x00\x00\x00Videos'
tRp4469
asbasbag49
(g4251
g51
NtRp4470
(dp4471
g54
(dp4472
sg63
g4406
sg56
(lp4473
g49
(g4244
g51
NtRp4474
(dp4475
g54
(dp4476
g4250
S'http://web2py.com/appliances'
p4477
ssg63
g4470
sg56
(lp4478
g4168
(S's\x11\x00\x00\x00Free Applications'
tRp4479
asbasbag49
(g4251
g51
NtRp4480
(dp4481
g54
(dp4482
sg63
g4406
sg56
(lp4483
g49
(g4244
g51
NtRp4484
(dp4485
g54
(dp4486
g4250
S'http://web2py.com/plugins'
p4487
ssg63
g4480
sg56
(lp4488
g4168
(S's\x07\x00\x00\x00Plugins'
tRp4489
asbasbag49
(g4251
g51
NtRp4490
(dp4491
g54
(dp4492
sg63
g4406
sg56
(lp4493
g49
(g4244
g51
NtRp4494
(dp4495
g54
(dp4496
g4250
S'http://web2py.com/layouts'
p4497
ssg63
g4490
sg56
(lp4498
g4168
(S's\x07\x00\x00\x00Layouts'
tRp4499
asbasbag49
(g4251
g51
NtRp4500
(dp4501
g54
(dp4502
sg63
g4406
sg56
(lp4503
g49
(g4244
g51
NtRp4504
(dp4505
g54
(dp4506
g4250
S'http://web2pyslices.com/'
p4507
ssg63
g4500
sg56
(lp4508
g4168
(S's\x07\x00\x00\x00Recipes'
tRp4509
asbasbag49
(g4251
g51
NtRp4510
(dp4511
g54
(dp4512
sg63
g4406
sg56
(lp4513
g49
(g4244
g51
NtRp4514
(dp4515
g54
(dp4516
g4250
S'http://web2py.com/semantic'
p4517
ssg63
g4510
sg56
(lp4518
g4168
(S's\x08\x00\x00\x00Semantic'
tRp4519
asbasbasbasbag49
(g4251
g51
NtRp4520
(dp4521
g54
(dp4522
g4255
g4256
ssg63
g4278
sg56
(lp4523
g49
(g4244
g51
NtRp4524
(dp4525
g54
(dp4526
g4250
S'http://www.web2py.com/book'
p4527
ssg63
g4520
sg56
(lp4528
g4168
(S's\r\x00\x00\x00Documentation'
tRp4529
asbag49
(g4257
g51
NtRp4530
(dp4531
g54
(dp4532
g4255
g4265
ssg63
g4520
sg56
(lp4533
g49
(g4251
g51
NtRp4534
(dp4535
g54
(dp4536
sg63
g4530
sg56
(lp4537
g49
(g4244
g51
NtRp4538
(dp4539
g54
(dp4540
g4250
S'http://www.web2py.com/book/default/chapter/00'
p4541
ssg63
g4534
sg56
(lp4542
g4168
(S's\x07\x00\x00\x00Preface'
tRp4543
asbasbag49
(g4251
g51
NtRp4544
(dp4545
g54
(dp4546
sg63
g4530
sg56
(lp4547
g49
(g4244
g51
NtRp4548
(dp4549
g54
(dp4550
g4250
S'http://www.web2py.com/book/default/chapter/01'
p4551
ssg63
g4544
sg56
(lp4552
g4168
(S's\x0c\x00\x00\x00Introduction'
tRp4553
asbasbag49
(g4251
g51
NtRp4554
(dp4555
g54
(dp4556
sg63
g4530
sg56
(lp4557
g49
(g4244
g51
NtRp4558
(dp4559
g54
(dp4560
g4250
S'http://www.web2py.com/book/default/chapter/02'
p4561
ssg63
g4554
sg56
(lp4562
g4168
(S's\x06\x00\x00\x00Python'
tRp4563
asbasbag49
(g4251
g51
NtRp4564
(dp4565
g54
(dp4566
sg63
g4530
sg56
(lp4567
g49
(g4244
g51
NtRp4568
(dp4569
g54
(dp4570
g4250
S'http://www.web2py.com/book/default/chapter/03'
p4571
ssg63
g4564
sg56
(lp4572
g4168
(S's\x08\x00\x00\x00Overview'
tRp4573
asbasbag49
(g4251
g51
NtRp4574
(dp4575
g54
(dp4576
sg63
g4530
sg56
(lp4577
g49
(g4244
g51
NtRp4578
(dp4579
g54
(dp4580
g4250
S'http://www.web2py.com/book/default/chapter/04'
p4581
ssg63
g4574
sg56
(lp4582
g4168
(S's\x08\x00\x00\x00The Core'
tRp4583
asbasbag49
(g4251
g51
NtRp4584
(dp4585
g54
(dp4586
sg63
g4530
sg56
(lp4587
g49
(g4244
g51
NtRp4588
(dp4589
g54
(dp4590
g4250
S'http://www.web2py.com/book/default/chapter/05'
p4591
ssg63
g4584
sg56
(lp4592
g4168
(S's\t\x00\x00\x00The Views'
tRp4593
asbasbag49
(g4251
g51
NtRp4594
(dp4595
g54
(dp4596
sg63
g4530
sg56
(lp4597
g49
(g4244
g51
NtRp4598
(dp4599
g54
(dp4600
g4250
S'http://www.web2py.com/book/default/chapter/06'
p4601
ssg63
g4594
sg56
(lp4602
g4168
(S's\x08\x00\x00\x00Database'
tRp4603
asbasbag49
(g4251
g51
NtRp4604
(dp4605
g54
(dp4606
sg63
g4530
sg56
(lp4607
g49
(g4244
g51
NtRp4608
(dp4609
g54
(dp4610
g4250
S'http://www.web2py.com/book/default/chapter/07'
p4611
ssg63
g4604
sg56
(lp4612
g4168
(S's\x14\x00\x00\x00Forms and Validators'
tRp4613
asbasbag49
(g4251
g51
NtRp4614
(dp4615
g54
(dp4616
sg63
g4530
sg56
(lp4617
g49
(g4244
g51
NtRp4618
(dp4619
g54
(dp4620
g4250
S'http://www.web2py.com/book/default/chapter/08'
p4621
ssg63
g4614
sg56
(lp4622
g4168
(S's\r\x00\x00\x00Email and SMS'
tRp4623
asbasbag49
(g4251
g51
NtRp4624
(dp4625
g54
(dp4626
sg63
g4530
sg56
(lp4627
g49
(g4244
g51
NtRp4628
(dp4629
g54
(dp4630
g4250
S'http://www.web2py.com/book/default/chapter/09'
p4631
ssg63
g4624
sg56
(lp4632
g4168
(S's\x0e\x00\x00\x00Access Control'
tRp4633
asbasbag49
(g4251
g51
NtRp4634
(dp4635
g54
(dp4636
sg63
g4530
sg56
(lp4637
g49
(g4244
g51
NtRp4638
(dp4639
g54
(dp4640
g4250
S'http://www.web2py.com/book/default/chapter/10'
p4641
ssg63
g4634
sg56
(lp4642
g4168
(S's\x08\x00\x00\x00Services'
tRp4643
asbasbag49
(g4251
g51
NtRp4644
(dp4645
g54
(dp4646
sg63
g4530
sg56
(lp4647
g49
(g4244
g51
NtRp4648
(dp4649
g54
(dp4650
g4250
S'http://www.web2py.com/book/default/chapter/11'
p4651
ssg63
g4644
sg56
(lp4652
g4168
(S's\x0c\x00\x00\x00Ajax Recipes'
tRp4653
asbasbag49
(g4251
g51
NtRp4654
(dp4655
g54
(dp4656
sg63
g4530
sg56
(lp4657
g49
(g4244
g51
NtRp4658
(dp4659
g54
(dp4660
g4250
S'http://www.web2py.com/book/default/chapter/12'
p4661
ssg63
g4654
sg56
(lp4662
g4168
(S's\x16\x00\x00\x00Components and Plugins'
tRp4663
asbasbag49
(g4251
g51
NtRp4664
(dp4665
g54
(dp4666
sg63
g4530
sg56
(lp4667
g49
(g4244
g51
NtRp4668
(dp4669
g54
(dp4670
g4250
S'http://www.web2py.com/book/default/chapter/13'
p4671
ssg63
g4664
sg56
(lp4672
g4168
(S's\x12\x00\x00\x00Deployment Recipes'
tRp4673
asbasbag49
(g4251
g51
NtRp4674
(dp4675
g54
(dp4676
sg63
g4530
sg56
(lp4677
g49
(g4244
g51
NtRp4678
(dp4679
g54
(dp4680
g4250
S'http://www.web2py.com/book/default/chapter/14'
p4681
ssg63
g4674
sg56
(lp4682
g4168
(S's\r\x00\x00\x00Other Recipes'
tRp4683
asbasbag49
(g4251
g51
NtRp4684
(dp4685
g54
(dp4686
sg63
g4530
sg56
(lp4687
g49
(g4244
g51
NtRp4688
(dp4689
g54
(dp4690
g4250
S'http://stores.lulu.com/web2py'
p4691
ssg63
g4684
sg56
(lp4692
g4168
(S's\r\x00\x00\x00Buy this book'
tRp4693
asbasbasbasbag49
(g4251
g51
NtRp4694
(dp4695
g54
(dp4696
g4255
g4256
ssg63
g4278
sg56
(lp4697
g49
(g4244
g51
NtRp4698
(dp4699
g54
(dp4700
g4248
g4249
sg4250
S'#'
ssg63
g4694
sg56
(lp4701
g4168
(S's\t\x00\x00\x00Community'
tRp4702
asbag49
(g4257
g51
NtRp4703
(dp4704
g54
(dp4705
g4255
g4265
ssg63
g4694
sg56
(lp4706
g49
(g4251
g51
NtRp4707
(dp4708
g54
(dp4709
sg63
g4703
sg56
(lp4710
g49
(g4244
g51
NtRp4711
(dp4712
g54
(dp4713
g4250
S'http://www.web2py.com/examples/default/usergroups'
p4714
ssg63
g4707
sg56
(lp4715
g4168
(S's\x06\x00\x00\x00Groups'
tRp4716
asbasbag49
(g4251
g51
NtRp4717
(dp4718
g54
(dp4719
sg63
g4703
sg56
(lp4720
g49
(g4244
g51
NtRp4721
(dp4722
g54
(dp4723
g4250
S'http://twitter.com/web2py'
p4724
ssg63
g4717
sg56
(lp4725
g4168
(S's\x07\x00\x00\x00Twitter'
tRp4726
asbasbag49
(g4251
g51
NtRp4727
(dp4728
g54
(dp4729
sg63
g4703
sg56
(lp4730
g49
(g4244
g51
NtRp4731
(dp4732
g54
(dp4733
g4250
S'http://webchat.freenode.net/?channels=web2py'
p4734
ssg63
g4727
sg56
(lp4735
g4168
(S's\t\x00\x00\x00Live Chat'
tRp4736
asbasbasbasbag49
(g4251
g51
NtRp4737
(dp4738
g54
(dp4739
g4255
g4256
ssg63
g4278
sg56
(lp4740
g49
(g4244
g51
NtRp4741
(dp4742
g54
(dp4743
g4248
g4249
sg4250
S'#'
ssg63
g4737
sg56
(lp4744
g4168
(S's\x07\x00\x00\x00Plugins'
tRp4745
asbag49
(g4257
g51
NtRp4746
(dp4747
g54
(dp4748
g4255
g4265
ssg63
g4737
sg56
(lp4749
g49
(g4251
g51
NtRp4750
(dp4751
g54
(dp4752
sg63
g4746
sg56
(lp4753
g49
(g4244
g51
NtRp4754
(dp4755
g54
(dp4756
g4250
S'http://web2py.com/examples/default/download'
p4757
ssg63
g4750
sg56
(lp4758
S'plugin_wiki'
p4759
asbasbag49
(g4251
g51
NtRp4760
(dp4761
g54
(dp4762
sg63
g4746
sg56
(lp4763
g49
(g4244
g51
NtRp4764
(dp4765
g54
(dp4766
g4250
g4487
ssg63
g4760
sg56
(lp4767
g4168
(S's\r\x00\x00\x00Other Plugins'
tRp4768
asbasbag49
(g4251
g51
NtRp4769
(dp4770
g54
(dp4771
sg63
g4746
sg56
(lp4772
g49
(g4244
g51
NtRp4773
(dp4774
g54
(dp4775
g4250
g4497
ssg63
g4769
sg56
(lp4776
g4168
(S's\x0e\x00\x00\x00Layout Plugins'
tRp4777
asbasbasbasbasbasbsg56
(lp4778
g4240
asbsg56
(lp4779
g4114
asbasbasbasbag49
(g65
g51
NtRp4780
(dp4781
g54
(dp4782
sg63
g4223
sg56
(lp4783
g49
(g70
g51
NtRp4784
(dp4785
g54
(dp4786
sg63
g4780
sg56
(lp4787
g49
(g50
g51
NtRp4788
(dp4789
g54
(dp4790
g62
I3
ssg63
g4784
sg56
(lp4791
g92
asbasbasbag49
(g65
g51
NtRp4792
(dp4793
g54
(dp4794
sg63
g4223
sg56
(lp4795
g49
(g70
g51
NtRp4796
(dp4797
g54
(dp4798
sg63
g4792
sg56
(lp4799
g49
(g50
g51
NtRp4800
(dp4801
g54
(dp4802
g62
I3
ssg63
g4796
sg56
(lp4803
S'None'
p4804
asbasbasbag49
(g65
g51
NtRp4805
(dp4806
g54
(dp4807
sg63
g4223
sg56
(lp4808
g49
(g70
g51
NtRp4809
(dp4810
g54
(dp4811
sg63
g4805
sg56
(lp4812
g49
(g50
g51
NtRp4813
(dp4814
g54
(dp4815
g62
I3
ssg63
g4809
sg56
(lp4816
g49
(g58
g51
NtRp4817
(dp4818
g54
(dp4819
g62
I2
ssg63
Nsg56
(lp4820
g49
(g65
g51
NtRp4821
(dp4822
g54
(dp4823
sg63
g4817
sg56
(lp4824
g49
(g70
g51
NtRp4825
(dp4826
g54
(dp4827
sg63
g4821
sg56
(lp4828
g49
(g50
g51
NtRp4829
(dp4830
g54
(dp4831
g62
I2
ssg63
g4825
sg56
(lp4832
g49
(g58
g51
NtRp4833
(dp4834
g54
(dp4835
g62
I1
ssg63
Nsg56
(lp4836
g49
(g65
g51
NtRp4837
(dp4838
g54
(dp4839
sg63
g4833
sg56
(lp4840
g49
(g70
g51
NtRp4841
(dp4842
g54
(dp4843
sg63
g4837
sg56
(lp4844
g49
(g50
g51
NtRp4845
(dp4846
g54
(dp4847
g62
I1
ssg63
g4841
sg56
(lp4848
g4291
asbasbasbag49
(g65
g51
NtRp4849
(dp4850
g54
(dp4851
sg63
g4833
sg56
(lp4852
g49
(g70
g51
NtRp4853
(dp4854
g54
(dp4855
sg63
g4849
sg56
(lp4856
g49
(g50
g51
NtRp4857
(dp4858
g54
(dp4859
g62
I1
ssg63
g4853
sg56
(lp4860
I00
asbasbasbag49
(g65
g51
NtRp4861
(dp4862
g54
(dp4863
sg63
g4833
sg56
(lp4864
g49
(g70
g51
NtRp4865
(dp4866
g54
(dp4867
sg63
g4861
sg56
(lp4868
g49
(g50
g51
NtRp4869
(dp4870
g54
(dp4871
g62
I1
ssg63
g4865
sg56
(lp4872
g4289
asbasbasbasbasbasbasbag49
(g65
g51
NtRp4873
(dp4874
g54
(dp4875
sg63
g4817
sg56
(lp4876
g49
(g70
g51
NtRp4877
(dp4878
g54
(dp4879
sg63
g4873
sg56
(lp4880
g49
(g50
g51
NtRp4881
(dp4882
g54
(dp4883
g62
I2
ssg63
g4877
sg56
(lp4884
g49
(g58
g51
NtRp4885
(dp4886
g54
(dp4887
g62
I1
ssg63
Nsg56
(lp4888
g49
(g65
g51
NtRp4889
(dp4890
g54
(dp4891
sg63
g4885
sg56
(lp4892
g49
(g70
g51
NtRp4893
(dp4894
g54
(dp4895
sg63
g4889
sg56
(lp4896
g49
(g50
g51
NtRp4897
(dp4898
g54
(dp4899
g62
I1
ssg63
g4893
sg56
(lp4900
g4301
asbasbasbag49
(g65
g51
NtRp4901
(dp4902
g54
(dp4903
sg63
g4885
sg56
(lp4904
g49
(g70
g51
NtRp4905
(dp4906
g54
(dp4907
sg63
g4901
sg56
(lp4908
g49
(g50
g51
NtRp4909
(dp4910
g54
(dp4911
g62
I1
ssg63
g4905
sg56
(lp4912
I00
asbasbasbag49
(g65
g51
NtRp4913
(dp4914
g54
(dp4915
sg63
g4885
sg56
(lp4916
g49
(g70
g51
NtRp4917
(dp4918
g54
(dp4919
sg63
g4913
sg56
(lp4920
g49
(g50
g51
NtRp4921
(dp4922
g54
(dp4923
g62
I1
ssg63
g4917
sg56
(lp4924
g4299
asbasbasbag49
(g65
g51
NtRp4925
(dp4926
g54
(dp4927
sg63
g4885
sg56
(lp4928
g49
(g70
g51
NtRp4929
(dp4930
g54
(dp4931
sg63
g4925
sg56
(lp4932
g49
(g50
g51
NtRp4933
(dp4934
g54
(dp4935
g62
I1
ssg63
g4929
sg56
(lp4936
(lp4937
(g4315
I00
g4313
tp4938
a(g4325
I00
g4323
tp4939
a(g4335
I00
g4333
tp4940
a(g4345
I00
g4343
tp4941
a(g4355
I00
g4353
tp4942
a(g4365
I00
g4363
tp4943
a(g4375
I00
g4373
tp4944
a(g4385
I00
g4383
tp4945
a(g4395
I00
g4393
tp4946
aasbasbasbasbasbasbasbag49
(g65
g51
NtRp4947
(dp4948
g54
(dp4949
sg63
g4817
sg56
(lp4950
g49
(g70
g51
NtRp4951
(dp4952
g54
(dp4953
sg63
g4947
sg56
(lp4954
g49
(g50
g51
NtRp4955
(dp4956
g54
(dp4957
g62
I2
ssg63
g4951
sg56
(lp4958
g49
(g58
g51
NtRp4959
(dp4960
g54
(dp4961
g62
I1
ssg63
Nsg56
(lp4962
g49
(g65
g51
NtRp4963
(dp4964
g54
(dp4965
sg63
g4959
sg56
(lp4966
g49
(g70
g51
NtRp4967
(dp4968
g54
(dp4969
sg63
g4963
sg56
(lp4970
g49
(g50
g51
NtRp4971
(dp4972
g54
(dp4973
g62
I1
ssg63
g4967
sg56
(lp4974
g4405
asbasbasbag49
(g65
g51
NtRp4975
(dp4976
g54
(dp4977
sg63
g4959
sg56
(lp4978
g49
(g70
g51
NtRp4979
(dp4980
g54
(dp4981
sg63
g4975
sg56
(lp4982
g49
(g50
g51
NtRp4983
(dp4984
g54
(dp4985
g62
I1
ssg63
g4979
sg56
(lp4986
I00
asbasbasbag49
(g65
g51
NtRp4987
(dp4988
g54
(dp4989
sg63
g4959
sg56
(lp4990
g49
(g70
g51
NtRp4991
(dp4992
g54
(dp4993
sg63
g4987
sg56
(lp4994
g49
(g50
g51
NtRp4995
(dp4996
g54
(dp4997
g62
I1
ssg63
g4991
sg56
(lp4998
g4403
asbasbasbag49
(g65
g51
NtRp4999
(dp5000
g54
(dp5001
sg63
g4959
sg56
(lp5002
g49
(g70
g51
NtRp5003
(dp5004
g54
(dp5005
sg63
g4999
sg56
(lp5006
g49
(g50
g51
NtRp5007
(dp5008
g54
(dp5009
g62
I1
ssg63
g5003
sg56
(lp5010
(lp5011
(g4419
I00
g4417
tp5012
a(g4429
I00
g4427
tp5013
a(g4439
I00
g4437
tp5014
a(g4449
I00
g4447
tp5015
a(g4459
I00
g4457
tp5016
a(g4469
I00
g4467
tp5017
a(g4479
I00
g4477
tp5018
a(g4489
I00
g4487
tp5019
a(g4499
I00
g4497
tp5020
a(g4509
I00
g4507
tp5021
a(g4519
I00
g4517
tp5022
aasbasbasbasbasbasbasbag49
(g65
g51
NtRp5023
(dp5024
g54
(dp5025
sg63
g4817
sg56
(lp5026
g49
(g70
g51
NtRp5027
(dp5028
g54
(dp5029
sg63
g5023
sg56
(lp5030
g49
(g50
g51
NtRp5031
(dp5032
g54
(dp5033
g62
I2
ssg63
g5027
sg56
(lp5034
g49
(g58
g51
NtRp5035
(dp5036
g54
(dp5037
g62
I1
ssg63
Nsg56
(lp5038
g49
(g65
g51
NtRp5039
(dp5040
g54
(dp5041
sg63
g5035
sg56
(lp5042
g49
(g70
g51
NtRp5043
(dp5044
g54
(dp5045
sg63
g5039
sg56
(lp5046
g49
(g50
g51
NtRp5047
(dp5048
g54
(dp5049
g62
I1
ssg63
g5043
sg56
(lp5050
g4529
asbasbasbag49
(g65
g51
NtRp5051
(dp5052
g54
(dp5053
sg63
g5035
sg56
(lp5054
g49
(g70
g51
NtRp5055
(dp5056
g54
(dp5057
sg63
g5051
sg56
(lp5058
g49
(g50
g51
NtRp5059
(dp5060
g54
(dp5061
g62
I1
ssg63
g5055
sg56
(lp5062
I00
asbasbasbag49
(g65
g51
NtRp5063
(dp5064
g54
(dp5065
sg63
g5035
sg56
(lp5066
g49
(g70
g51
NtRp5067
(dp5068
g54
(dp5069
sg63
g5063
sg56
(lp5070
g49
(g50
g51
NtRp5071
(dp5072
g54
(dp5073
g62
I1
ssg63
g5067
sg56
(lp5074
g4527
asbasbasbag49
(g65
g51
NtRp5075
(dp5076
g54
(dp5077
sg63
g5035
sg56
(lp5078
g49
(g70
g51
NtRp5079
(dp5080
g54
(dp5081
sg63
g5075
sg56
(lp5082
g49
(g50
g51
NtRp5083
(dp5084
g54
(dp5085
g62
I1
ssg63
g5079
sg56
(lp5086
(lp5087
(g4543
I00
g4541
tp5088
a(g4553
I00
g4551
tp5089
a(g4563
I00
g4561
tp5090
a(g4573
I00
g4571
tp5091
a(g4583
I00
g4581
tp5092
a(g4593
I00
g4591
tp5093
a(g4603
I00
g4601
tp5094
a(g4613
I00
g4611
tp5095
a(g4623
I00
g4621
tp5096
a(g4633
I00
g4631
tp5097
a(g4643
I00
g4641
tp5098
a(g4653
I00
g4651
tp5099
a(g4663
I00
g4661
tp5100
a(g4673
I00
g4671
tp5101
a(g4683
I00
g4681
tp5102
a(g4693
I00
g4691
tp5103
aasbasbasbasbasbasbasbag49
(g65
g51
NtRp5104
(dp5105
g54
(dp5106
sg63
g4817
sg56
(lp5107
g49
(g70
g51
NtRp5108
(dp5109
g54
(dp5110
sg63
g5104
sg56
(lp5111
g49
(g50
g51
NtRp5112
(dp5113
g54
(dp5114
g62
I2
ssg63
g5108
sg56
(lp5115
g49
(g58
g51
NtRp5116
(dp5117
g54
(dp5118
g62
I1
ssg63
Nsg56
(lp5119
g49
(g65
g51
NtRp5120
(dp5121
g54
(dp5122
sg63
g5116
sg56
(lp5123
g49
(g70
g51
NtRp5124
(dp5125
g54
(dp5126
sg63
g5120
sg56
(lp5127
g49
(g50
g51
NtRp5128
(dp5129
g54
(dp5130
g62
I1
ssg63
g5124
sg56
(lp5131
g4702
asbasbasbag49
(g65
g51
NtRp5132
(dp5133
g54
(dp5134
sg63
g5116
sg56
(lp5135
g49
(g70
g51
NtRp5136
(dp5137
g54
(dp5138
sg63
g5132
sg56
(lp5139
g49
(g50
g51
NtRp5140
(dp5141
g54
(dp5142
g62
I1
ssg63
g5136
sg56
(lp5143
I00
asbasbasbag49
(g65
g51
NtRp5144
(dp5145
g54
(dp5146
sg63
g5116
sg56
(lp5147
g49
(g70
g51
NtRp5148
(dp5149
g54
(dp5150
sg63
g5144
sg56
(lp5151
g49
(g50
g51
NtRp5152
(dp5153
g54
(dp5154
g62
I1
ssg63
g5148
sg56
(lp5155
Nasbasbasbag49
(g65
g51
NtRp5156
(dp5157
g54
(dp5158
sg63
g5116
sg56
(lp5159
g49
(g70
g51
NtRp5160
(dp5161
g54
(dp5162
sg63
g5156
sg56
(lp5163
g49
(g50
g51
NtRp5164
(dp5165
g54
(dp5166
g62
I1
ssg63
g5160
sg56
(lp5167
(lp5168
(g4716
I00
g4714
tp5169
a(g4726
I00
g4724
tp5170
a(g4736
I00
g4734
tp5171
aasbasbasbasbasbasbasbag49
(g65
g51
NtRp5172
(dp5173
g54
(dp5174
sg63
g4817
sg56
(lp5175
g49
(g70
g51
NtRp5176
(dp5177
g54
(dp5178
sg63
g5172
sg56
(lp5179
g49
(g50
g51
NtRp5180
(dp5181
g54
(dp5182
g62
I2
ssg63
g5176
sg56
(lp5183
g49
(g58
g51
NtRp5184
(dp5185
g54
(dp5186
g62
I1
ssg63
Nsg56
(lp5187
g49
(g65
g51
NtRp5188
(dp5189
g54
(dp5190
sg63
g5184
sg56
(lp5191
g49
(g70
g51
NtRp5192
(dp5193
g54
(dp5194
sg63
g5188
sg56
(lp5195
g49
(g50
g51
NtRp5196
(dp5197
g54
(dp5198
g62
I1
ssg63
g5192
sg56
(lp5199
g4745
asbasbasbag49
(g65
g51
NtRp5200
(dp5201
g54
(dp5202
sg63
g5184
sg56
(lp5203
g49
(g70
g51
NtRp5204
(dp5205
g54
(dp5206
sg63
g5200
sg56
(lp5207
g49
(g50
g51
NtRp5208
(dp5209
g54
(dp5210
g62
I1
ssg63
g5204
sg56
(lp5211
I00
asbasbasbag49
(g65
g51
NtRp5212
(dp5213
g54
(dp5214
sg63
g5184
sg56
(lp5215
g49
(g70
g51
NtRp5216
(dp5217
g54
(dp5218
sg63
g5212
sg56
(lp5219
g49
(g50
g51
NtRp5220
(dp5221
g54
(dp5222
g62
I1
ssg63
g5216
sg56
(lp5223
Nasbasbasbag49
(g65
g51
NtRp5224
(dp5225
g54
(dp5226
sg63
g5184
sg56
(lp5227
g49
(g70
g51
NtRp5228
(dp5229
g54
(dp5230
sg63
g5224
sg56
(lp5231
g49
(g50
g51
NtRp5232
(dp5233
g54
(dp5234
g62
I1
ssg63
g5228
sg56
(lp5235
(lp5236
(g4759
I00
g4757
tp5237
a(g4768
I00
g4487
tp5238
a(g4777
I00
g4497
tp5239
aasbasbasbasbasbasbasbasbasbasbasbasbasbasbasbasbasbasbasbag49
(g65
g51
NtRp5240
(dp5241
g54
(dp5242
sg63
g3554
sg56
(lp5243
g49
(g70
g51
NtRp5244
(dp5245
g54
(dp5246
g74
g75
ssg63
g5240
sg56
(lp5247
S'meta'
p5248
asbag49
(g70
g51
NtRp5249
(dp5250
g54
(dp5251
g81
g82
ssg63
g5240
sg56
(lp5252
S':'
asbag49
(g70
g51
NtRp5253
(dp5254
g54
(dp5255
sg63
g5240
sg56
(lp5256
g49
(g50
g51
NtRp5257
(dp5258
g54
(dp5259
g62
I5
ssg63
g5253
sg56
(lp5260
g49
(g58
g51
NtRp5261
(dp5262
g54
(dp5263
g62
I4
ssg63
Nsg56
(lp5264
g49
(g65
g51
NtRp5265
(dp5266
g54
(dp5267
sg63
g5261
sg56
(lp5268
g49
(g70
g51
NtRp5269
(dp5270
g54
(dp5271
g74
g75
ssg63
g5265
sg56
(lp5272
S'author'
p5273
asbag49
(g70
g51
NtRp5274
(dp5275
g54
(dp5276
g81
g82
ssg63
g5265
sg56
(lp5277
S':'
asbag49
(g70
g51
NtRp5278
(dp5279
g54
(dp5280
sg63
g5265
sg56
(lp5281
g49
(g50
g51
NtRp5282
(dp5283
g54
(dp5284
g62
I4
ssg63
g5278
sg56
(lp5285
S'Your Name <you@example.com>'
p5286
asbasbasbag49
(g65
g51
NtRp5287
(dp5288
g54
(dp5289
sg63
g5261
sg56
(lp5290
g49
(g70
g51
NtRp5291
(dp5292
g54
(dp5293
g74
g75
ssg63
g5287
sg56
(lp5294
S'copyright'
p5295
asbag49
(g70
g51
NtRp5296
(dp5297
g54
(dp5298
g81
g82
ssg63
g5287
sg56
(lp5299
S':'
asbag49
(g70
g51
NtRp5300
(dp5301
g54
(dp5302
sg63
g5287
sg56
(lp5303
g49
(g50
g51
NtRp5304
(dp5305
g54
(dp5306
g62
I4
ssg63
g5300
sg56
(lp5307
S'Copyright 2011'
p5308
asbasbasbag49
(g65
g51
NtRp5309
(dp5310
g54
(dp5311
sg63
g5261
sg56
(lp5312
g49
(g70
g51
NtRp5313
(dp5314
g54
(dp5315
g74
g75
ssg63
g5309
sg56
(lp5316
S'description'
p5317
asbag49
(g70
g51
NtRp5318
(dp5319
g54
(dp5320
g81
g82
ssg63
g5309
sg56
(lp5321
S':'
asbag49
(g70
g51
NtRp5322
(dp5323
g54
(dp5324
sg63
g5309
sg56
(lp5325
g49
(g50
g51
NtRp5326
(dp5327
g54
(dp5328
g62
I4
ssg63
g5322
sg56
(lp5329
S'a cool new app'
p5330
asbasbasbag49
(g65
g51
NtRp5331
(dp5332
g54
(dp5333
sg63
g5261
sg56
(lp5334
g49
(g70
g51
NtRp5335
(dp5336
g54
(dp5337
g74
g75
ssg63
g5331
sg56
(lp5338
S'generator'
p5339
asbag49
(g70
g51
NtRp5340
(dp5341
g54
(dp5342
g81
g82
ssg63
g5331
sg56
(lp5343
S':'
asbag49
(g70
g51
NtRp5344
(dp5345
g54
(dp5346
sg63
g5331
sg56
(lp5347
g49
(g50
g51
NtRp5348
(dp5349
g54
(dp5350
g62
I4
ssg63
g5344
sg56
(lp5351
S'Web2py Web Framework'
p5352
asbasbasbag49
(g65
g51
NtRp5353
(dp5354
g54
(dp5355
sg63
g5261
sg56
(lp5356
g49
(g70
g51
NtRp5357
(dp5358
g54
(dp5359
g74
g75
ssg63
g5353
sg56
(lp5360
S'keywords'
p5361
asbag49
(g70
g51
NtRp5362
(dp5363
g54
(dp5364
g81
g82
ssg63
g5353
sg56
(lp5365
S':'
asbag49
(g70
g51
NtRp5366
(dp5367
g54
(dp5368
sg63
g5353
sg56
(lp5369
g49
(g50
g51
NtRp5370
(dp5371
g54
(dp5372
g62
I4
ssg63
g5366
sg56
(lp5373
S'web2py, python, framework'
p5374
asbasbasbasbasbasbasbag49
(g65
g51
NtRp5375
(dp5376
g54
(dp5377
sg63
g3554
sg56
(lp5378
g49
(g70
g51
NtRp5379
(dp5380
g54
(dp5381
g74
g75
ssg63
g5375
sg56
(lp5382
S'postprocessing'
p5383
asbag49
(g70
g51
NtRp5384
(dp5385
g54
(dp5386
g81
g82
ssg63
g5375
sg56
(lp5387
S':'
asbag49
(g70
g51
NtRp5388
(dp5389
g54
(dp5390
sg63
g5375
sg56
(lp5391
g49
(g50
g51
NtRp5392
(dp5393
g54
(dp5394
g62
I5
ssg63
g5388
sg56
(lp5395
g49
(g58
g51
NtRp5396
(dp5397
g54
(dp5398
g62
I4
ssg63
Nsg56
(lp5399
sbasbasbasbag49
(g65
g51
NtRp5400
(dp5401
g54
(dp5402
sg63
g3554
sg56
(lp5403
g49
(g70
g51
NtRp5404
(dp5405
g54
(dp5406
g74
g75
ssg63
g5400
sg56
(lp5407
S'session_file'
p5408
asbag49
(g70
g51
NtRp5409
(dp5410
g54
(dp5411
g81
g82
ssg63
g5400
sg56
(lp5412
S':'
asbag49
(g70
g51
NtRp5413
(dp5414
g54
(dp5415
sg63
g5400
sg56
(lp5416
g49
(g50
g51
NtRp5417
(dp5418
g54
(dp5419
g62
I5
ssg63
g5413
sg56
(lp5420
S"<open file 'C:\\web2py\\applications\\ssad_project_f\\sessions\\127.0.0.1-57070ae7-68f3-4ebc-9aab-9306043089c9', mode 'rb+' at 0x069766E0>"
p5421
asbasbasbag49
(g65
g51
NtRp5422
(dp5423
g54
(dp5424
sg63
g3554
sg56
(lp5425
g49
(g70
g51
NtRp5426
(dp5427
g54
(dp5428
g74
g75
ssg63
g5422
sg56
(lp5429
S'session_filename'
p5430
asbag49
(g70
g51
NtRp5431
(dp5432
g54
(dp5433
g81
g82
ssg63
g5422
sg56
(lp5434
S':'
asbag49
(g70
g51
NtRp5435
(dp5436
g54
(dp5437
sg63
g5422
sg56
(lp5438
g49
(g50
g51
NtRp5439
(dp5440
g54
(dp5441
g62
I5
ssg63
g5435
sg56
(lp5442
S'C:\\web2py\\applications\\ssad_project_f\\sessions\\127.0.0.1-57070ae7-68f3-4ebc-9aab-9306043089c9'
p5443
asbasbasbag49
(g65
g51
NtRp5444
(dp5445
g54
(dp5446
sg63
g3554
sg56
(lp5447
g49
(g70
g51
NtRp5448
(dp5449
g54
(dp5450
g74
g75
ssg63
g5444
sg56
(lp5451
S'session_id'
p5452
asbag49
(g70
g51
NtRp5453
(dp5454
g54
(dp5455
g81
g82
ssg63
g5444
sg56
(lp5456
S':'
asbag49
(g70
g51
NtRp5457
(dp5458
g54
(dp5459
sg63
g5444
sg56
(lp5460
g49
(g50
g51
NtRp5461
(dp5462
g54
(dp5463
g62
I5
ssg63
g5457
sg56
(lp5464
S'127.0.0.1-57070ae7-68f3-4ebc-9aab-9306043089c9'
p5465
asbasbasbag49
(g65
g51
NtRp5466
(dp5467
g54
(dp5468
sg63
g3554
sg56
(lp5469
g49
(g70
g51
NtRp5470
(dp5471
g54
(dp5472
g74
g75
ssg63
g5466
sg56
(lp5473
S'session_id_name'
p5474
asbag49
(g70
g51
NtRp5475
(dp5476
g54
(dp5477
g81
g82
ssg63
g5466
sg56
(lp5478
S':'
asbag49
(g70
g51
NtRp5479
(dp5480
g54
(dp5481
sg63
g5466
sg56
(lp5482
g49
(g50
g51
NtRp5483
(dp5484
g54
(dp5485
g62
I5
ssg63
g5479
sg56
(lp5486
g3611
asbasbasbag49
(g65
g51
NtRp5487
(dp5488
g54
(dp5489
sg63
g3554
sg56
(lp5490
g49
(g70
g51
NtRp5491
(dp5492
g54
(dp5493
g74
g75
ssg63
g5487
sg56
(lp5494
S'session_locked'
p5495
asbag49
(g70
g51
NtRp5496
(dp5497
g54
(dp5498
g81
g82
ssg63
g5487
sg56
(lp5499
S':'
asbag49
(g70
g51
NtRp5500
(dp5501
g54
(dp5502
sg63
g5487
sg56
(lp5503
g49
(g50
g51
NtRp5504
(dp5505
g54
(dp5506
g62
I5
ssg63
g5500
sg56
(lp5507
g1773
asbasbasbag49
(g65
g51
NtRp5508
(dp5509
g54
(dp5510
sg63
g3554
sg56
(lp5511
g49
(g70
g51
NtRp5512
(dp5513
g54
(dp5514
g74
g75
ssg63
g5508
sg56
(lp5515
S'session_new'
p5516
asbag49
(g70
g51
NtRp5517
(dp5518
g54
(dp5519
g81
g82
ssg63
g5508
sg56
(lp5520
S':'
asbag49
(g70
g51
NtRp5521
(dp5522
g54
(dp5523
sg63
g5508
sg56
(lp5524
g49
(g50
g51
NtRp5525
(dp5526
g54
(dp5527
g62
I5
ssg63
g5521
sg56
(lp5528
g92
asbasbasbag49
(g65
g51
NtRp5529
(dp5530
g54
(dp5531
sg63
g3554
sg56
(lp5532
g49
(g70
g51
NtRp5533
(dp5534
g54
(dp5535
g74
g75
ssg63
g5529
sg56
(lp5536
S'status'
p5537
asbag49
(g70
g51
NtRp5538
(dp5539
g54
(dp5540
g81
g82
ssg63
g5529
sg56
(lp5541
S':'
asbag49
(g70
g51
NtRp5542
(dp5543
g54
(dp5544
sg63
g5529
sg56
(lp5545
g49
(g50
g51
NtRp5546
(dp5547
g54
(dp5548
g62
I5
ssg63
g5542
sg56
(lp5549
S'200'
p5550
asbasbasbag49
(g65
g51
NtRp5551
(dp5552
g54
(dp5553
sg63
g3554
sg56
(lp5554
g49
(g70
g51
NtRp5555
(dp5556
g54
(dp5557
g74
g75
ssg63
g5551
sg56
(lp5558
S'subtitle'
p5559
asbag49
(g70
g51
NtRp5560
(dp5561
g54
(dp5562
g81
g82
ssg63
g5551
sg56
(lp5563
S':'
asbag49
(g70
g51
NtRp5564
(dp5565
g54
(dp5566
sg63
g5551
sg56
(lp5567
g49
(g50
g51
NtRp5568
(dp5569
g54
(dp5570
g62
I5
ssg63
g5564
sg56
(lp5571
g4168
(S's\r\x00\x00\x00customize me!'
tRp5572
asbasbasbag49
(g65
g51
NtRp5573
(dp5574
g54
(dp5575
sg63
g3554
sg56
(lp5576
g49
(g70
g51
NtRp5577
(dp5578
g54
(dp5579
g74
g75
ssg63
g5573
sg56
(lp5580
S'title'
p5581
asbag49
(g70
g51
NtRp5582
(dp5583
g54
(dp5584
g81
g82
ssg63
g5573
sg56
(lp5585
S':'
asbag49
(g70
g51
NtRp5586
(dp5587
g54
(dp5588
sg63
g5573
sg56
(lp5589
g49
(g50
g51
NtRp5590
(dp5591
g54
(dp5592
g62
I5
ssg63
g5586
sg56
(lp5593
S'Ssad Project F'
p5594
asbasbasbag49
(g65
g51
NtRp5595
(dp5596
g54
(dp5597
sg63
g3554
sg56
(lp5598
g49
(g70
g51
NtRp5599
(dp5600
g54
(dp5601
g74
g75
ssg63
g5595
sg56
(lp5602
g2437
asbag49
(g70
g51
NtRp5603
(dp5604
g54
(dp5605
g81
g82
ssg63
g5595
sg56
(lp5606
S':'
asbag49
(g70
g51
NtRp5607
(dp5608
g54
(dp5609
sg63
g5595
sg56
(lp5610
g49
(g50
g51
NtRp5611
(dp5612
g54
(dp5613
g62
I5
ssg63
g5607
sg56
(lp5614
g2450
asbasbasbag49
(g65
g51
NtRp5615
(dp5616
g54
(dp5617
sg63
g3554
sg56
(lp5618
g49
(g70
g51
NtRp5619
(dp5620
g54
(dp5621
g74
g75
ssg63
g5615
sg56
(lp5622
S'view'
p5623
asbag49
(g70
g51
NtRp5624
(dp5625
g54
(dp5626
g81
g82
ssg63
g5615
sg56
(lp5627
S':'
asbag49
(g70
g51
NtRp5628
(dp5629
g54
(dp5630
sg63
g5615
sg56
(lp5631
g49
(g50
g51
NtRp5632
(dp5633
g54
(dp5634
g62
I5
ssg63
g5628
sg56
(lp5635
S'default/kruskal.html'
p5636
asbasbasbasbasbsS'locals'
p5637
(dp5638
S'Service'
p5639
S"<class 'gluon.tools.Service'>"
p5640
sS'OBJECT'
p5641
S"<class 'gluon.html.OBJECT'>"
p5642
sS'SQLDB'
p5643
S"<class 'gluon.dal.DAL'>"
p5644
sg3138
S"<Storage {'_formkey[Employee/None]': '2474d70c-9...login]': '6c83216a-87ff-4c5c-9be2-bae79846b2a1'}>"
p5645
sS'LINK'
p5646
S"<class 'gluon.html.LINK'>"
p5647
sS'BR'
p5648
S"<class 'gluon.html.BR'>"
p5649
sS'local_import'
p5650
S'<function <lambda> at 0x03223270>'
p5651
sS'OPTGROUP'
p5652
S"<class 'gluon.html.OPTGROUP'>"
p5653
sS'PRE'
p5654
S"<class 'gluon.html.PRE'>"
p5655
sS'IS_INT_IN_RANGE'
p5656
S"<class 'gluon.validators.IS_INT_IN_RANGE'>"
p5657
sS'IS_LOWER'
p5658
S"<class 'gluon.validators.IS_LOWER'>"
p5659
sS'IS_STRONG'
p5660
S"<class 'gluon.validators.IS_STRONG'>"
p5661
sS'cache'
p5662
S'<gluon.cache.Cache object at 0x068D2770>'
p5663
sS'IS_IN_DB'
p5664
S"<class 'gluon.validators.IS_IN_DB'>"
p5665
sS'TAG'
p5666
S'<gluon.html.__TAG__ object at 0x02666DB0>'
p5667
sS'SQLField'
p5668
S"<class 'gluon.dal.Field'>"
p5669
sS'mail'
p5670
S'<gluon.tools.Mail object at 0x0667DB70>'
p5671
sS'BODY'
p5672
S"<class 'gluon.html.BODY'>"
p5673
sS'IS_DATE_IN_RANGE'
p5674
S"<class 'gluon.validators.IS_DATE_IN_RANGE'>"
p5675
sS'TH'
p5676
S"<class 'gluon.html.TH'>"
p5677
sS'URL'
p5678
S'<function URL at 0x026B9670>'
p5679
sS'__file__'
p5680
S"r'C:\\web2py\\applications\\ssad_project_f\\views\\default/kruskal.html'"
p5681
sS'db'
p5682
S"<DAL {'auth_event': <Table {'origin': <gluon.dal..._key': <gluon.dal.Field object at 0x068F0550>}>}>"
p5683
sS'auth'
p5684
S'<gluon.tools.Auth object at 0x068D2270>'
p5685
sS'P'
S"<class 'gluon.html.P'>"
p5686
sS'TFOOT'
p5687
S"<class 'gluon.html.TFOOT'>"
p5688
sS'XHTML'
p5689
S"<class 'gluon.html.XHTML'>"
p5690
sS'ON'
p5691
g1773
sS'OL'
p5692
S"<class 'gluon.html.OL'>"
p5693
sS'TEXTAREA'
p5694
S"<class 'gluon.html.TEXTAREA'>"
p5695
sS'MENU'
p5696
S"<class 'gluon.html.MENU'>"
p5697
sS'p'
S'{0: 1, 1: 1, 2: 1, 3: 1, 4: 2, 5: 4, 6: 5, 7: 7}'
p5698
sS'LOAD'
p5699
S'<function LOAD at 0x0291ADF0>'
p5700
sS'CODE'
p5701
S"<class 'gluon.html.CODE'>"
p5702
sS'HTTP'
p5703
S"<class 'gluon.http.HTTP'>"
p5704
sS'HR'
p5705
S"<class 'gluon.html.HR'>"
p5706
sS'IS_DATETIME'
p5707
S"<class 'gluon.validators.IS_DATETIME'>"
p5708
sS'HEAD'
p5709
S"<class 'gluon.html.HEAD'>"
p5710
sS'LABEL'
p5711
S"<class 'gluon.html.LABEL'>"
p5712
sS'CLEANUP'
p5713
S"<class 'gluon.validators.CLEANUP'>"
p5714
sS'plugins'
p5715
S'<gluon.tools.PluginManager object at 0x0679F8D0>'
p5716
sS'SELECT'
p5717
S"<class 'gluon.html.SELECT'>"
p5718
sS'use_janrain'
p5719
S'<function use_janrain at 0x031DB330>'
p5720
sS'CENTER'
p5721
S"<class 'gluon.html.CENTER'>"
p5722
sS'prettydate'
p5723
S'<function prettydate at 0x031CC930>'
p5724
sS'Crud'
p5725
S"<class 'gluon.tools.Crud'>"
p5726
sS'Auth'
p5727
S"<class 'gluon.tools.Auth'>"
p5728
sS'__builtins__'
p5729
S"{'ArithmeticError': <type 'exceptions.ArithmeticError'>, 'AssertionError': <type 'exceptions.AssertionError'>, 'AttributeError': <type 'exceptions.AttributeError'>, 'BaseException': <type 'exceptions.BaseException'>, 'DeprecationWarning': <type 'exceptions.DeprecationWarning'>, 'EOFError': <type 'exceptions.EOFError'>, 'Ellipsis': Ellipsis, 'EnvironmentError': <type 'exceptions.EnvironmentError'>, 'Exception': <type 'exceptions.Exception'>, 'False': False, ...}"
p5730
sS'HTML'
p5731
S"<class 'gluon.html.HTML'>"
p5732
sS'SQLFORM'
p5733
S"<class 'gluon.sqlhtml.SQLFORM'>"
p5734
sS'EM'
p5735
S"<class 'gluon.html.EM'>"
p5736
sS'redirect'
p5737
S'<function redirect at 0x023E1CF0>'
p5738
sS'FIELDSET'
p5739
S"<class 'gluon.html.FIELDSET'>"
p5740
sS'IS_EQUAL_TO'
p5741
S"<class 'gluon.validators.IS_EQUAL_TO'>"
p5742
sS'embed64'
p5743
S'<function embed64 at 0x026BB1B0>'
p5744
sS'IS_LIST_OF'
p5745
S"<class 'gluon.validators.IS_LIST_OF'>"
p5746
sS'__name__'
p5747
S"'__restricted__'"
p5748
sS'EMBED'
p5749
S"<class 'gluon.html.EMBED'>"
p5750
sS'_'
S'<function _ at 0x067A0130>'
p5751
sS'FORM'
p5752
S"<class 'gluon.html.FORM'>"
p5753
sS'H2'
p5754
S"<class 'gluon.html.H2'>"
p5755
sS'H3'
p5756
S"<class 'gluon.html.H3'>"
p5757
sS'BUTTON'
p5758
S"<class 'gluon.html.BUTTON'>"
p5759
sS'H1'
p5760
S"<class 'gluon.html.H1'>"
p5761
sS'H6'
p5762
S"<class 'gluon.html.H6'>"
p5763
sS'H4'
p5764
S"<class 'gluon.html.H4'>"
p5765
sS'H5'
p5766
S"<class 'gluon.html.H5'>"
p5767
sS'UL'
p5768
S"<class 'gluon.html.UL'>"
p5769
sS'IS_UPPER'
p5770
S"<class 'gluon.validators.IS_UPPER'>"
p5771
sS'xmlescape'
p5772
S'<function xmlescape at 0x026B95F0>'
p5773
sS'IS_TIME'
p5774
S"<class 'gluon.validators.IS_TIME'>"
p5775
sS'OPTION'
p5776
S"<class 'gluon.html.OPTION'>"
p5777
sS'TITLE'
p5778
S"<class 'gluon.html.TITLE'>"
p5779
sS'CRYPT'
p5780
S"<class 'gluon.validators.CRYPT'>"
p5781
sS'IS_EMPTY_OR'
p5782
S"<class 'gluon.validators.IS_EMPTY_OR'>"
p5783
sS'MARKMIN'
p5784
S"<class 'gluon.html.MARKMIN'>"
p5785
sS'INPUT'
p5786
S"<class 'gluon.html.INPUT'>"
p5787
sS'COL'
p5788
S"<class 'gluon.html.COL'>"
p5789
sS'service'
p5790
S'<gluon.tools.Service object at 0x068F09D0>'
p5791
sS'SCRIPT'
p5792
S"<class 'gluon.html.SCRIPT'>"
p5793
sS'TABLE'
p5794
S"<class 'gluon.html.TABLE'>"
p5795
sS'IS_IPV4'
p5796
S"<class 'gluon.validators.IS_IPV4'>"
p5797
sS'IS_LENGTH'
p5798
S"<class 'gluon.validators.IS_LENGTH'>"
p5799
sS'XML'
p5800
S"<class 'gluon.html.XML'>"
p5801
sS'B'
S"<class 'gluon.html.B'>"
p5802
sS'IMG'
p5803
S"<class 'gluon.html.IMG'>"
p5804
sS'SQLTABLE'
p5805
S"<class 'gluon.sqlhtml.SQLTABLE'>"
p5806
sS'IS_MATCH'
p5807
S"<class 'gluon.validators.IS_MATCH'>"
p5808
sS'IS_ALPHANUMERIC'
p5809
S"<class 'gluon.validators.IS_ALPHANUMERIC'>"
p5810
sS'SPAN'
p5811
S"<class 'gluon.html.SPAN'>"
p5812
sS'IS_SLUG'
p5813
S"<class 'gluon.validators.IS_SLUG'>"
p5814
sS'BEAUTIFY'
p5815
S"<class 'gluon.html.BEAUTIFY'>"
p5816
sS'META'
p5817
S"<class 'gluon.html.META'>"
p5818
sS'IS_DATE'
p5819
S"<class 'gluon.validators.IS_DATE'>"
p5820
sS'IS_EMAIL'
p5821
S"<class 'gluon.validators.IS_EMAIL'>"
p5822
sS'IS_NOT_EMPTY'
p5823
S"<class 'gluon.validators.IS_NOT_EMPTY'>"
p5824
sS'IS_FLOAT_IN_RANGE'
p5825
S"<class 'gluon.validators.IS_FLOAT_IN_RANGE'>"
p5826
sS'TBODY'
p5827
S"<class 'gluon.html.TBODY'>"
p5828
sS'CAT'
p5829
S"<class 'gluon.html.CAT'>"
p5830
sS'Field'
p5831
S"<class 'gluon.dal.Field'>"
p5832
sS'DIV'
p5833
S"<class 'gluon.html.DIV'>"
p5834
sS'LEGEND'
p5835
S"<class 'gluon.html.LEGEND'>"
p5836
sS'COLGROUP'
p5837
S"<class 'gluon.html.COLGROUP'>"
p5838
sS'DAL'
p5839
S"<class 'gluon.dal.DAL'>"
p5840
sS'TT'
p5841
S"<class 'gluon.html.TT'>"
p5842
sS'TR'
p5843
S"<class 'gluon.html.TR'>"
p5844
sS'LI'
p5845
S"<class 'gluon.html.LI'>"
p5846
sS'IFRAME'
p5847
S"<class 'gluon.html.IFRAME'>"
p5848
sS'TD'
p5849
S"<class 'gluon.html.TD'>"
p5850
sS'PluginManager'
p5851
S"<class 'gluon.tools.PluginManager'>"
p5852
sS'IS_URL'
p5853
S"<class 'gluon.validators.IS_URL'>"
p5854
sS'A'
S"<class 'gluon.html.A'>"
p5855
sS'STYLE'
p5856
S"<class 'gluon.html.STYLE'>"
p5857
sS'IS_DATETIME_IN_RANGE'
p5858
S"<class 'gluon.validators.IS_DATETIME_IN_RANGE'>"
p5859
sS'IS_IMAGE'
p5860
S"<class 'gluon.validators.IS_IMAGE'>"
p5861
sS'I'
S"<class 'gluon.html.I'>"
p5862
sS'crud'
p5863
S'<gluon.tools.Crud object at 0x0667DF10>'
p5864
sS'IS_NOT_IN_DB'
p5865
S"<class 'gluon.validators.IS_NOT_IN_DB'>"
p5866
sg3549
S"<Storage {'body': <cStringIO.StringO object at 0... at 0x066676B0>, 'view': 'default/kruskal.html'}>"
p5867
sS'THEAD'
p5868
S"<class 'gluon.html.THEAD'>"
p5869
sS'IS_NULL_OR'
p5870
S"<class 'gluon.validators.IS_EMPTY_OR'>"
p5871
sg48
S"<Storage {'body': <cStringIO.StringO object at 0..._vars': <Storage {}>, 'post_vars': <Storage {}>}>"
p5872
sS'IS_EXPR'
p5873
S"<class 'gluon.validators.IS_EXPR'>"
p5874
sS'T'
S'<gluon.languages.translator object at 0x068D2C30>'
p5875
sS'q'
S'{0: 2, 1: 3, 2: 4, 3: 8, 4: 6, 5: 9, 6: 1, 7: 5}'
p5876
sS'IS_IN_SET'
p5877
S"<class 'gluon.validators.IS_IN_SET'>"
p5878
sS'IS_UPLOAD_FILENAME'
p5879
S"<class 'gluon.validators.IS_UPLOAD_FILENAME'>"
p5880
sS'IS_DECIMAL_IN_RANGE'
p5881
S"<class 'gluon.validators.IS_DECIMAL_IN_RANGE'>"
p5882
sssS'traceback'
p5883
S'Traceback (most recent call last):\n  File "gluon/restricted.py", line 205, in restricted\n  File "C:\\web2py\\applications\\ssad_project_f\\views\\default/kruskal.html", line 34, in <module>\nTypeError: write() got an unexpected keyword argument \'text_file\'\n'
p5884
s.