(dp1
S'output'
p2
S"<type 'exceptions.NameError'> global name 'e2' is not defined"
p3
sS'layer'
p4
S'/home/arpita/courses/sem3/ssad/web2py/applications/project/controllers/default.py'
p5
sS'code'
p6
S'# -*- coding: utf-8 -*-\n# this file is released under public domain and you can use without limitations\n\n#########################################################################\n## This is a samples controller\n## - index is the default action of any application\n## - user is required for authentication and authorization\n## - download is for downloading files uploaded in the db (does streaming)\n## - call exposes all registered services (none by default)\n#########################################################################\n\n@auth.requires_membership(\'Administrator\')\ndef index():\n    emp=db().select(db.Employee.ALL, orderby=db.Employee.Name)\n    \n    """\n    example action using the internationalization operator T and flash\n    rendered by views/default/index.html or views/generic.html\n    """\n    form=crud.create(db.Employee)\n    response.flash = "Welcome to web2py!"\n    return dict(message=T(\'Hello World\'),form=form,emp=emp)\n\ndef user():\n    """\n    exposes:\n    http://..../[app]/default/user/login\n    http://..../[app]/default/user/logout\n    http://..../[app]/default/user/register\n    http://..../[app]/default/user/profile\n    http://..../[app]/default/user/retrieve_password\n    http://..../[app]/default/user/change_password\n    use @auth.requires_login()\n        @auth.requires_membership(\'group name\')\n        @auth.requires_permission(\'read\',\'table name\',record_id)\n    to decorate functions that need access control\n    """\n    return dict(form=auth())\n\n\ndef download():\n    """\n    allows downloading of uploaded files\n    http://..../[app]/default/download/[filename]\n    """\n    return response.download(request,db)\n\n\ndef call():\n    """\n    exposes services. for example:\n    http://..../[app]/default/call/jsonrpc\n    decorate with @services.jsonrpc the functions to expose\n    supports xml, json, xmlrpc, jsonrpc, amfrpc, rss, csv\n    """\n    return service()\n\n\n@auth.requires_signature()\ndef data():\n    """\n    http://..../[app]/default/data/tables\n    http://..../[app]/default/data/create/[table]\n    http://..../[app]/default/data/read/[table]/[id]\n    http://..../[app]/default/data/update/[table]/[id]\n    http://..../[app]/default/data/delete/[table]/[id]\n    http://..../[app]/default/data/select/[table]\n    http://..../[app]/default/data/search/[table]\n    but URLs must be signed, i.e. linked with\n      A(\'table\',_href=URL(\'data/tables\',user_signature=True))\n    or with the signed load operator\n      LOAD(\'default\',\'data.load\',args=\'tables\',ajax=True,user_signature=True)\n    """\n    return dict(form=crud())\n\ndef graph():\n    empl=db.Employee(request.args(0))\n   # lis[i]=empl.id\n    #i=i+1\n    #empl=db(db.Employee.Name==em.Name).select()\n    return dict(empl=empl)  \n #   id=db(db.Employee.Name==emp.\n  #  redirect(URL(\'index\'))\n\n\ndef relate():\n   form=crud.create(db.Relation)\n   return dict(form=form)\n\n\nc=[]\nrep=[]\nvis=[]\ndef kruskal():\n    \n    lis = db().select(db.Relation.ALL)\n    emp=db().select(db.Employee.ALL, orderby=db.Employee.Name)\n    counts=len(emp)\n    for i in xrange(counts+1):\n       c.append([])\n       vis.append([])\n       rep.append(i)\n       for j in xrange(counts+1):\n          c[i].append(0)\n          vis[i].append(0)\n    for li in lis:\n       a=li.Emp1_id\n       b=li.Emp2_id\n       c[a][b]=1\n       \n    cou=0   \n    while cou != counts:\n        min=100\n        for i in xrange(counts+1):\n            for j in xrange(counts+1):\n                if c[i][j]!=0 and vis[i][j]==0:\n                    if rep[i]!=rep[j]:\n                               vis[i][j]=1\n                               count1=0\n                               count2=0\n                               for k in xrange(counts+1):\n                                        if rep[k]==rep[i]:\n                                            count1=count1+1\n                                        if rep[k]==rep[j]:\n                                            count2=count2+1\n                                        if count1<count2:\n                                            for k in xrange(counts+1):\n                                                if rep[k]==rep[e1] and k!=e1:\n                                                    rep[k]=rep[e2]\n                                                    rep[e1]=rep[e2]\n                                        else:\n                                            for k in xrange(counts+1):\n                                                   if rep[k]==rep[e2] and k!=e2:\n                                                        rep[k]=rep[e1]\n                                                        rep[e2]=rep[e1]\n\n                    else:\n                        vis[i][j]=1\n        cou=0\n        for k in xrange(counts+1):\n            if rep[k]==rep[1]:\n                    cou=cou+1\n    return dict(lis=lis,i=i,c=c)\n\nresponse._vars=response._caller(kruskal)\n'
p7
sS'snapshot'
p8
(dp9
S'exception'
p10
(dp11
S'__hash__'
p12
S"<method-wrapper '__hash__' of exceptions.NameError object>"
p13
sS'__setattr__'
p14
S"<method-wrapper '__setattr__' of exceptions.NameError object>"
p15
sS'__reduce_ex__'
p16
S'<built-in method __reduce_ex__ of exceptions.NameError object>'
p17
sS'__getslice__'
p18
S"<method-wrapper '__getslice__' of exceptions.NameError object>"
p19
sS'__getitem__'
p20
S"<method-wrapper '__getitem__' of exceptions.NameError object>"
p21
sS'__setstate__'
p22
S'<built-in method __setstate__ of exceptions.NameError object>'
p23
sS'__reduce__'
p24
S'<built-in method __reduce__ of exceptions.NameError object>'
p25
sS'__str__'
p26
S"<method-wrapper '__str__' of exceptions.NameError object>"
p27
sS'__format__'
p28
S'<built-in method __format__ of exceptions.NameError object>'
p29
sS'__getattribute__'
p30
S"<method-wrapper '__getattribute__' of exceptions.NameError object>"
p31
sS'__class__'
p32
S"<type 'exceptions.NameError'>"
p33
sS'__unicode__'
p34
S'<built-in method __unicode__ of exceptions.NameError object>'
p35
sS'__delattr__'
p36
S"<method-wrapper '__delattr__' of exceptions.NameError object>"
p37
sS'__subclasshook__'
p38
S'<built-in method __subclasshook__ of type object>'
p39
sS'__repr__'
p40
S"<method-wrapper '__repr__' of exceptions.NameError object>"
p41
sS'args'
p42
S'("global name \'e2\' is not defined",)'
p43
sS'__dict__'
p44
S'{}'
p45
sS'__sizeof__'
p46
S'<built-in method __sizeof__ of exceptions.NameError object>'
p47
sS'__doc__'
p48
S"'Name not found globally.'"
p49
sS'__init__'
p50
S"<method-wrapper '__init__' of exceptions.NameError object>"
p51
sS'__new__'
p52
S'<built-in method __new__ of type object>'
p53
ssS'evalue'
p54
S"global name 'e2' is not defined"
p55
sS'request'
p56
ccopy_reg
_reconstructor
p57
(cgluon.html
BEAUTIFY
p58
c__builtin__
object
p59
NtRp60
(dp61
S'attributes'
p62
(dp63
sS'components'
p64
(lp65
g57
(cgluon.html
TABLE
p66
g59
NtRp67
(dp68
g62
(dp69
S'level'
p70
I5
ssS'parent'
p71
Nsg64
(lp72
g57
(cgluon.html
TR
p73
g59
NtRp74
(dp75
g62
(dp76
sg71
g67
sg64
(lp77
g57
(cgluon.html
TD
p78
g59
NtRp79
(dp80
g62
(dp81
S'_style'
p82
S'font-weight:bold;vertical-align:top'
p83
ssg71
g74
sg64
(lp84
S'ajax'
p85
asbag57
(g78
g59
NtRp86
(dp87
g62
(dp88
S'_valign'
p89
S'top'
p90
ssg71
g74
sg64
(lp91
S':'
asbag57
(g78
g59
NtRp92
(dp93
g62
(dp94
sg71
g74
sg64
(lp95
g57
(g58
g59
NtRp96
(dp97
g62
(dp98
g70
I5
ssg71
g92
sg64
(lp99
S'False'
p100
asbasbasbag57
(g73
g59
NtRp101
(dp102
g62
(dp103
sg71
g67
sg64
(lp104
g57
(g78
g59
NtRp105
(dp106
g62
(dp107
g82
g83
ssg71
g101
sg64
(lp108
S'application'
p109
asbag57
(g78
g59
NtRp110
(dp111
g62
(dp112
g89
g90
ssg71
g101
sg64
(lp113
S':'
asbag57
(g78
g59
NtRp114
(dp115
g62
(dp116
sg71
g101
sg64
(lp117
g57
(g58
g59
NtRp118
(dp119
g62
(dp120
g70
I5
ssg71
g114
sg64
(lp121
S'project'
p122
asbasbasbag57
(g73
g59
NtRp123
(dp124
g62
(dp125
sg71
g67
sg64
(lp126
g57
(g78
g59
NtRp127
(dp128
g62
(dp129
g82
g83
ssg71
g123
sg64
(lp130
g42
asbag57
(g78
g59
NtRp131
(dp132
g62
(dp133
g89
g90
ssg71
g123
sg64
(lp134
S':'
asbag57
(g78
g59
NtRp135
(dp136
g62
(dp137
sg71
g123
sg64
(lp138
g57
(g58
g59
NtRp139
(dp140
g62
(dp141
g70
I5
ssg71
g135
sg64
(lp142
g57
(g66
g59
NtRp143
(dp144
g62
(dp145
g70
I4
ssg71
Nsg64
(lp146
sbasbasbasbag57
(g73
g59
NtRp147
(dp148
g62
(dp149
sg71
g67
sg64
(lp150
g57
(g78
g59
NtRp151
(dp152
g62
(dp153
g82
g83
ssg71
g147
sg64
(lp154
S'body'
p155
asbag57
(g78
g59
NtRp156
(dp157
g62
(dp158
g89
g90
ssg71
g147
sg64
(lp159
S':'
asbag57
(g78
g59
NtRp160
(dp161
g62
(dp162
sg71
g147
sg64
(lp163
g57
(g58
g59
NtRp164
(dp165
g62
(dp166
g70
I5
ssg71
g160
sg64
(lp167
S'<cStringIO.StringO object at 0x9803ac0>'
p168
asbasbasbag57
(g73
g59
NtRp169
(dp170
g62
(dp171
sg71
g67
sg64
(lp172
g57
(g78
g59
NtRp173
(dp174
g62
(dp175
g82
g83
ssg71
g169
sg64
(lp176
S'client'
p177
asbag57
(g78
g59
NtRp178
(dp179
g62
(dp180
g89
g90
ssg71
g169
sg64
(lp181
S':'
asbag57
(g78
g59
NtRp182
(dp183
g62
(dp184
sg71
g169
sg64
(lp185
g57
(g58
g59
NtRp186
(dp187
g62
(dp188
g70
I5
ssg71
g182
sg64
(lp189
S'127.0.0.1'
p190
asbasbasbag57
(g73
g59
NtRp191
(dp192
g62
(dp193
sg71
g67
sg64
(lp194
g57
(g78
g59
NtRp195
(dp196
g62
(dp197
g82
g83
ssg71
g191
sg64
(lp198
S'controller'
p199
asbag57
(g78
g59
NtRp200
(dp201
g62
(dp202
g89
g90
ssg71
g191
sg64
(lp203
S':'
asbag57
(g78
g59
NtRp204
(dp205
g62
(dp206
sg71
g191
sg64
(lp207
g57
(g58
g59
NtRp208
(dp209
g62
(dp210
g70
I5
ssg71
g204
sg64
(lp211
S'default'
p212
asbasbasbag57
(g73
g59
NtRp213
(dp214
g62
(dp215
sg71
g67
sg64
(lp216
g57
(g78
g59
NtRp217
(dp218
g62
(dp219
g82
g83
ssg71
g213
sg64
(lp220
S'cookies'
p221
asbag57
(g78
g59
NtRp222
(dp223
g62
(dp224
g89
g90
ssg71
g213
sg64
(lp225
S':'
asbag57
(g78
g59
NtRp226
(dp227
g62
(dp228
sg71
g213
sg64
(lp229
g57
(g58
g59
NtRp230
(dp231
g62
(dp232
g70
I5
ssg71
g226
sg64
(lp233
g57
(g66
g59
NtRp234
(dp235
g62
(dp236
g70
I4
ssg71
Nsg64
(lp237
g57
(g73
g59
NtRp238
(dp239
g62
(dp240
sg71
g234
sg64
(lp241
g57
(g78
g59
NtRp242
(dp243
g62
(dp244
g82
g83
ssg71
g238
sg64
(lp245
S'session_id_admin'
p246
asbag57
(g78
g59
NtRp247
(dp248
g62
(dp249
g89
g90
ssg71
g238
sg64
(lp250
S':'
asbag57
(g78
g59
NtRp251
(dp252
g62
(dp253
sg71
g238
sg64
(lp254
g57
(g58
g59
NtRp255
(dp256
g62
(dp257
g70
I4
ssg71
g251
sg64
(lp258
g57
(g66
g59
NtRp259
(dp260
g62
(dp261
g70
I3
ssg71
Nsg64
(lp262
g57
(g73
g59
NtRp263
(dp264
g62
(dp265
sg71
g259
sg64
(lp266
g57
(g78
g59
NtRp267
(dp268
g62
(dp269
g82
g83
ssg71
g263
sg64
(lp270
S'comment'
p271
asbag57
(g78
g59
NtRp272
(dp273
g62
(dp274
g89
g90
ssg71
g263
sg64
(lp275
S':'
asbag57
(g78
g59
NtRp276
(dp277
g62
(dp278
sg71
g263
sg64
(lp279
g57
(g58
g59
NtRp280
(dp281
g62
(dp282
g70
I3
ssg71
g276
sg64
(lp283
S''
asbasbasbag57
(g73
g59
NtRp284
(dp285
g62
(dp286
sg71
g259
sg64
(lp287
g57
(g78
g59
NtRp288
(dp289
g62
(dp290
g82
g83
ssg71
g284
sg64
(lp291
S'domain'
p292
asbag57
(g78
g59
NtRp293
(dp294
g62
(dp295
g89
g90
ssg71
g284
sg64
(lp296
S':'
asbag57
(g78
g59
NtRp297
(dp298
g62
(dp299
sg71
g284
sg64
(lp300
g57
(g58
g59
NtRp301
(dp302
g62
(dp303
g70
I3
ssg71
g297
sg64
(lp304
S''
asbasbasbag57
(g73
g59
NtRp305
(dp306
g62
(dp307
sg71
g259
sg64
(lp308
g57
(g78
g59
NtRp309
(dp310
g62
(dp311
g82
g83
ssg71
g305
sg64
(lp312
S'expires'
p313
asbag57
(g78
g59
NtRp314
(dp315
g62
(dp316
g89
g90
ssg71
g305
sg64
(lp317
S':'
asbag57
(g78
g59
NtRp318
(dp319
g62
(dp320
sg71
g305
sg64
(lp321
g57
(g58
g59
NtRp322
(dp323
g62
(dp324
g70
I3
ssg71
g318
sg64
(lp325
S''
asbasbasbag57
(g73
g59
NtRp326
(dp327
g62
(dp328
sg71
g259
sg64
(lp329
g57
(g78
g59
NtRp330
(dp331
g62
(dp332
g82
g83
ssg71
g326
sg64
(lp333
S'httponly'
p334
asbag57
(g78
g59
NtRp335
(dp336
g62
(dp337
g89
g90
ssg71
g326
sg64
(lp338
S':'
asbag57
(g78
g59
NtRp339
(dp340
g62
(dp341
sg71
g326
sg64
(lp342
g57
(g58
g59
NtRp343
(dp344
g62
(dp345
g70
I3
ssg71
g339
sg64
(lp346
S''
asbasbasbag57
(g73
g59
NtRp347
(dp348
g62
(dp349
sg71
g259
sg64
(lp350
g57
(g78
g59
NtRp351
(dp352
g62
(dp353
g82
g83
ssg71
g347
sg64
(lp354
S'max-age'
p355
asbag57
(g78
g59
NtRp356
(dp357
g62
(dp358
g89
g90
ssg71
g347
sg64
(lp359
S':'
asbag57
(g78
g59
NtRp360
(dp361
g62
(dp362
sg71
g347
sg64
(lp363
g57
(g58
g59
NtRp364
(dp365
g62
(dp366
g70
I3
ssg71
g360
sg64
(lp367
S''
asbasbasbag57
(g73
g59
NtRp368
(dp369
g62
(dp370
sg71
g259
sg64
(lp371
g57
(g78
g59
NtRp372
(dp373
g62
(dp374
g82
g83
ssg71
g368
sg64
(lp375
S'path'
p376
asbag57
(g78
g59
NtRp377
(dp378
g62
(dp379
g89
g90
ssg71
g368
sg64
(lp380
S':'
asbag57
(g78
g59
NtRp381
(dp382
g62
(dp383
sg71
g368
sg64
(lp384
g57
(g58
g59
NtRp385
(dp386
g62
(dp387
g70
I3
ssg71
g381
sg64
(lp388
S''
asbasbasbag57
(g73
g59
NtRp389
(dp390
g62
(dp391
sg71
g259
sg64
(lp392
g57
(g78
g59
NtRp393
(dp394
g62
(dp395
g82
g83
ssg71
g389
sg64
(lp396
S'secure'
p397
asbag57
(g78
g59
NtRp398
(dp399
g62
(dp400
g89
g90
ssg71
g389
sg64
(lp401
S':'
asbag57
(g78
g59
NtRp402
(dp403
g62
(dp404
sg71
g389
sg64
(lp405
g57
(g58
g59
NtRp406
(dp407
g62
(dp408
g70
I3
ssg71
g402
sg64
(lp409
S''
asbasbasbag57
(g73
g59
NtRp410
(dp411
g62
(dp412
sg71
g259
sg64
(lp413
g57
(g78
g59
NtRp414
(dp415
g62
(dp416
g82
g83
ssg71
g410
sg64
(lp417
S'version'
p418
asbag57
(g78
g59
NtRp419
(dp420
g62
(dp421
g89
g90
ssg71
g410
sg64
(lp422
S':'
asbag57
(g78
g59
NtRp423
(dp424
g62
(dp425
sg71
g410
sg64
(lp426
g57
(g58
g59
NtRp427
(dp428
g62
(dp429
g70
I3
ssg71
g423
sg64
(lp430
S''
asbasbasbasbasbasbasbag57
(g73
g59
NtRp431
(dp432
g62
(dp433
sg71
g234
sg64
(lp434
g57
(g78
g59
NtRp435
(dp436
g62
(dp437
g82
g83
ssg71
g431
sg64
(lp438
S'session_id_hierarchy'
p439
asbag57
(g78
g59
NtRp440
(dp441
g62
(dp442
g89
g90
ssg71
g431
sg64
(lp443
S':'
asbag57
(g78
g59
NtRp444
(dp445
g62
(dp446
sg71
g431
sg64
(lp447
g57
(g58
g59
NtRp448
(dp449
g62
(dp450
g70
I4
ssg71
g444
sg64
(lp451
g57
(g66
g59
NtRp452
(dp453
g62
(dp454
g70
I3
ssg71
Nsg64
(lp455
g57
(g73
g59
NtRp456
(dp457
g62
(dp458
sg71
g452
sg64
(lp459
g57
(g78
g59
NtRp460
(dp461
g62
(dp462
g82
g83
ssg71
g456
sg64
(lp463
g271
asbag57
(g78
g59
NtRp464
(dp465
g62
(dp466
g89
g90
ssg71
g456
sg64
(lp467
S':'
asbag57
(g78
g59
NtRp468
(dp469
g62
(dp470
sg71
g456
sg64
(lp471
g57
(g58
g59
NtRp472
(dp473
g62
(dp474
g70
I3
ssg71
g468
sg64
(lp475
S''
asbasbasbag57
(g73
g59
NtRp476
(dp477
g62
(dp478
sg71
g452
sg64
(lp479
g57
(g78
g59
NtRp480
(dp481
g62
(dp482
g82
g83
ssg71
g476
sg64
(lp483
g292
asbag57
(g78
g59
NtRp484
(dp485
g62
(dp486
g89
g90
ssg71
g476
sg64
(lp487
S':'
asbag57
(g78
g59
NtRp488
(dp489
g62
(dp490
sg71
g476
sg64
(lp491
g57
(g58
g59
NtRp492
(dp493
g62
(dp494
g70
I3
ssg71
g488
sg64
(lp495
S''
asbasbasbag57
(g73
g59
NtRp496
(dp497
g62
(dp498
sg71
g452
sg64
(lp499
g57
(g78
g59
NtRp500
(dp501
g62
(dp502
g82
g83
ssg71
g496
sg64
(lp503
g313
asbag57
(g78
g59
NtRp504
(dp505
g62
(dp506
g89
g90
ssg71
g496
sg64
(lp507
S':'
asbag57
(g78
g59
NtRp508
(dp509
g62
(dp510
sg71
g496
sg64
(lp511
g57
(g58
g59
NtRp512
(dp513
g62
(dp514
g70
I3
ssg71
g508
sg64
(lp515
S''
asbasbasbag57
(g73
g59
NtRp516
(dp517
g62
(dp518
sg71
g452
sg64
(lp519
g57
(g78
g59
NtRp520
(dp521
g62
(dp522
g82
g83
ssg71
g516
sg64
(lp523
g334
asbag57
(g78
g59
NtRp524
(dp525
g62
(dp526
g89
g90
ssg71
g516
sg64
(lp527
S':'
asbag57
(g78
g59
NtRp528
(dp529
g62
(dp530
sg71
g516
sg64
(lp531
g57
(g58
g59
NtRp532
(dp533
g62
(dp534
g70
I3
ssg71
g528
sg64
(lp535
S''
asbasbasbag57
(g73
g59
NtRp536
(dp537
g62
(dp538
sg71
g452
sg64
(lp539
g57
(g78
g59
NtRp540
(dp541
g62
(dp542
g82
g83
ssg71
g536
sg64
(lp543
g355
asbag57
(g78
g59
NtRp544
(dp545
g62
(dp546
g89
g90
ssg71
g536
sg64
(lp547
S':'
asbag57
(g78
g59
NtRp548
(dp549
g62
(dp550
sg71
g536
sg64
(lp551
g57
(g58
g59
NtRp552
(dp553
g62
(dp554
g70
I3
ssg71
g548
sg64
(lp555
S''
asbasbasbag57
(g73
g59
NtRp556
(dp557
g62
(dp558
sg71
g452
sg64
(lp559
g57
(g78
g59
NtRp560
(dp561
g62
(dp562
g82
g83
ssg71
g556
sg64
(lp563
g376
asbag57
(g78
g59
NtRp564
(dp565
g62
(dp566
g89
g90
ssg71
g556
sg64
(lp567
S':'
asbag57
(g78
g59
NtRp568
(dp569
g62
(dp570
sg71
g556
sg64
(lp571
g57
(g58
g59
NtRp572
(dp573
g62
(dp574
g70
I3
ssg71
g568
sg64
(lp575
S''
asbasbasbag57
(g73
g59
NtRp576
(dp577
g62
(dp578
sg71
g452
sg64
(lp579
g57
(g78
g59
NtRp580
(dp581
g62
(dp582
g82
g83
ssg71
g576
sg64
(lp583
g397
asbag57
(g78
g59
NtRp584
(dp585
g62
(dp586
g89
g90
ssg71
g576
sg64
(lp587
S':'
asbag57
(g78
g59
NtRp588
(dp589
g62
(dp590
sg71
g576
sg64
(lp591
g57
(g58
g59
NtRp592
(dp593
g62
(dp594
g70
I3
ssg71
g588
sg64
(lp595
S''
asbasbasbag57
(g73
g59
NtRp596
(dp597
g62
(dp598
sg71
g452
sg64
(lp599
g57
(g78
g59
NtRp600
(dp601
g62
(dp602
g82
g83
ssg71
g596
sg64
(lp603
g418
asbag57
(g78
g59
NtRp604
(dp605
g62
(dp606
g89
g90
ssg71
g596
sg64
(lp607
S':'
asbag57
(g78
g59
NtRp608
(dp609
g62
(dp610
sg71
g596
sg64
(lp611
g57
(g58
g59
NtRp612
(dp613
g62
(dp614
g70
I3
ssg71
g608
sg64
(lp615
S''
asbasbasbasbasbasbasbag57
(g73
g59
NtRp616
(dp617
g62
(dp618
sg71
g234
sg64
(lp619
g57
(g78
g59
NtRp620
(dp621
g62
(dp622
g82
g83
ssg71
g616
sg64
(lp623
S'session_id_images'
p624
asbag57
(g78
g59
NtRp625
(dp626
g62
(dp627
g89
g90
ssg71
g616
sg64
(lp628
S':'
asbag57
(g78
g59
NtRp629
(dp630
g62
(dp631
sg71
g616
sg64
(lp632
g57
(g58
g59
NtRp633
(dp634
g62
(dp635
g70
I4
ssg71
g629
sg64
(lp636
g57
(g66
g59
NtRp637
(dp638
g62
(dp639
g70
I3
ssg71
Nsg64
(lp640
g57
(g73
g59
NtRp641
(dp642
g62
(dp643
sg71
g637
sg64
(lp644
g57
(g78
g59
NtRp645
(dp646
g62
(dp647
g82
g83
ssg71
g641
sg64
(lp648
g271
asbag57
(g78
g59
NtRp649
(dp650
g62
(dp651
g89
g90
ssg71
g641
sg64
(lp652
S':'
asbag57
(g78
g59
NtRp653
(dp654
g62
(dp655
sg71
g641
sg64
(lp656
g57
(g58
g59
NtRp657
(dp658
g62
(dp659
g70
I3
ssg71
g653
sg64
(lp660
S''
asbasbasbag57
(g73
g59
NtRp661
(dp662
g62
(dp663
sg71
g637
sg64
(lp664
g57
(g78
g59
NtRp665
(dp666
g62
(dp667
g82
g83
ssg71
g661
sg64
(lp668
g292
asbag57
(g78
g59
NtRp669
(dp670
g62
(dp671
g89
g90
ssg71
g661
sg64
(lp672
S':'
asbag57
(g78
g59
NtRp673
(dp674
g62
(dp675
sg71
g661
sg64
(lp676
g57
(g58
g59
NtRp677
(dp678
g62
(dp679
g70
I3
ssg71
g673
sg64
(lp680
S''
asbasbasbag57
(g73
g59
NtRp681
(dp682
g62
(dp683
sg71
g637
sg64
(lp684
g57
(g78
g59
NtRp685
(dp686
g62
(dp687
g82
g83
ssg71
g681
sg64
(lp688
g313
asbag57
(g78
g59
NtRp689
(dp690
g62
(dp691
g89
g90
ssg71
g681
sg64
(lp692
S':'
asbag57
(g78
g59
NtRp693
(dp694
g62
(dp695
sg71
g681
sg64
(lp696
g57
(g58
g59
NtRp697
(dp698
g62
(dp699
g70
I3
ssg71
g693
sg64
(lp700
S''
asbasbasbag57
(g73
g59
NtRp701
(dp702
g62
(dp703
sg71
g637
sg64
(lp704
g57
(g78
g59
NtRp705
(dp706
g62
(dp707
g82
g83
ssg71
g701
sg64
(lp708
g334
asbag57
(g78
g59
NtRp709
(dp710
g62
(dp711
g89
g90
ssg71
g701
sg64
(lp712
S':'
asbag57
(g78
g59
NtRp713
(dp714
g62
(dp715
sg71
g701
sg64
(lp716
g57
(g58
g59
NtRp717
(dp718
g62
(dp719
g70
I3
ssg71
g713
sg64
(lp720
S''
asbasbasbag57
(g73
g59
NtRp721
(dp722
g62
(dp723
sg71
g637
sg64
(lp724
g57
(g78
g59
NtRp725
(dp726
g62
(dp727
g82
g83
ssg71
g721
sg64
(lp728
g355
asbag57
(g78
g59
NtRp729
(dp730
g62
(dp731
g89
g90
ssg71
g721
sg64
(lp732
S':'
asbag57
(g78
g59
NtRp733
(dp734
g62
(dp735
sg71
g721
sg64
(lp736
g57
(g58
g59
NtRp737
(dp738
g62
(dp739
g70
I3
ssg71
g733
sg64
(lp740
S''
asbasbasbag57
(g73
g59
NtRp741
(dp742
g62
(dp743
sg71
g637
sg64
(lp744
g57
(g78
g59
NtRp745
(dp746
g62
(dp747
g82
g83
ssg71
g741
sg64
(lp748
g376
asbag57
(g78
g59
NtRp749
(dp750
g62
(dp751
g89
g90
ssg71
g741
sg64
(lp752
S':'
asbag57
(g78
g59
NtRp753
(dp754
g62
(dp755
sg71
g741
sg64
(lp756
g57
(g58
g59
NtRp757
(dp758
g62
(dp759
g70
I3
ssg71
g753
sg64
(lp760
S''
asbasbasbag57
(g73
g59
NtRp761
(dp762
g62
(dp763
sg71
g637
sg64
(lp764
g57
(g78
g59
NtRp765
(dp766
g62
(dp767
g82
g83
ssg71
g761
sg64
(lp768
g397
asbag57
(g78
g59
NtRp769
(dp770
g62
(dp771
g89
g90
ssg71
g761
sg64
(lp772
S':'
asbag57
(g78
g59
NtRp773
(dp774
g62
(dp775
sg71
g761
sg64
(lp776
g57
(g58
g59
NtRp777
(dp778
g62
(dp779
g70
I3
ssg71
g773
sg64
(lp780
S''
asbasbasbag57
(g73
g59
NtRp781
(dp782
g62
(dp783
sg71
g637
sg64
(lp784
g57
(g78
g59
NtRp785
(dp786
g62
(dp787
g82
g83
ssg71
g781
sg64
(lp788
g418
asbag57
(g78
g59
NtRp789
(dp790
g62
(dp791
g89
g90
ssg71
g781
sg64
(lp792
S':'
asbag57
(g78
g59
NtRp793
(dp794
g62
(dp795
sg71
g781
sg64
(lp796
g57
(g58
g59
NtRp797
(dp798
g62
(dp799
g70
I3
ssg71
g793
sg64
(lp800
S''
asbasbasbasbasbasbasbag57
(g73
g59
NtRp801
(dp802
g62
(dp803
sg71
g234
sg64
(lp804
g57
(g78
g59
NtRp805
(dp806
g62
(dp807
g82
g83
ssg71
g801
sg64
(lp808
S'session_id_project'
p809
asbag57
(g78
g59
NtRp810
(dp811
g62
(dp812
g89
g90
ssg71
g801
sg64
(lp813
S':'
asbag57
(g78
g59
NtRp814
(dp815
g62
(dp816
sg71
g801
sg64
(lp817
g57
(g58
g59
NtRp818
(dp819
g62
(dp820
g70
I4
ssg71
g814
sg64
(lp821
g57
(g66
g59
NtRp822
(dp823
g62
(dp824
g70
I3
ssg71
Nsg64
(lp825
g57
(g73
g59
NtRp826
(dp827
g62
(dp828
sg71
g822
sg64
(lp829
g57
(g78
g59
NtRp830
(dp831
g62
(dp832
g82
g83
ssg71
g826
sg64
(lp833
g271
asbag57
(g78
g59
NtRp834
(dp835
g62
(dp836
g89
g90
ssg71
g826
sg64
(lp837
S':'
asbag57
(g78
g59
NtRp838
(dp839
g62
(dp840
sg71
g826
sg64
(lp841
g57
(g58
g59
NtRp842
(dp843
g62
(dp844
g70
I3
ssg71
g838
sg64
(lp845
S''
asbasbasbag57
(g73
g59
NtRp846
(dp847
g62
(dp848
sg71
g822
sg64
(lp849
g57
(g78
g59
NtRp850
(dp851
g62
(dp852
g82
g83
ssg71
g846
sg64
(lp853
g292
asbag57
(g78
g59
NtRp854
(dp855
g62
(dp856
g89
g90
ssg71
g846
sg64
(lp857
S':'
asbag57
(g78
g59
NtRp858
(dp859
g62
(dp860
sg71
g846
sg64
(lp861
g57
(g58
g59
NtRp862
(dp863
g62
(dp864
g70
I3
ssg71
g858
sg64
(lp865
S''
asbasbasbag57
(g73
g59
NtRp866
(dp867
g62
(dp868
sg71
g822
sg64
(lp869
g57
(g78
g59
NtRp870
(dp871
g62
(dp872
g82
g83
ssg71
g866
sg64
(lp873
g313
asbag57
(g78
g59
NtRp874
(dp875
g62
(dp876
g89
g90
ssg71
g866
sg64
(lp877
S':'
asbag57
(g78
g59
NtRp878
(dp879
g62
(dp880
sg71
g866
sg64
(lp881
g57
(g58
g59
NtRp882
(dp883
g62
(dp884
g70
I3
ssg71
g878
sg64
(lp885
S''
asbasbasbag57
(g73
g59
NtRp886
(dp887
g62
(dp888
sg71
g822
sg64
(lp889
g57
(g78
g59
NtRp890
(dp891
g62
(dp892
g82
g83
ssg71
g886
sg64
(lp893
g334
asbag57
(g78
g59
NtRp894
(dp895
g62
(dp896
g89
g90
ssg71
g886
sg64
(lp897
S':'
asbag57
(g78
g59
NtRp898
(dp899
g62
(dp900
sg71
g886
sg64
(lp901
g57
(g58
g59
NtRp902
(dp903
g62
(dp904
g70
I3
ssg71
g898
sg64
(lp905
S''
asbasbasbag57
(g73
g59
NtRp906
(dp907
g62
(dp908
sg71
g822
sg64
(lp909
g57
(g78
g59
NtRp910
(dp911
g62
(dp912
g82
g83
ssg71
g906
sg64
(lp913
g355
asbag57
(g78
g59
NtRp914
(dp915
g62
(dp916
g89
g90
ssg71
g906
sg64
(lp917
S':'
asbag57
(g78
g59
NtRp918
(dp919
g62
(dp920
sg71
g906
sg64
(lp921
g57
(g58
g59
NtRp922
(dp923
g62
(dp924
g70
I3
ssg71
g918
sg64
(lp925
S''
asbasbasbag57
(g73
g59
NtRp926
(dp927
g62
(dp928
sg71
g822
sg64
(lp929
g57
(g78
g59
NtRp930
(dp931
g62
(dp932
g82
g83
ssg71
g926
sg64
(lp933
g376
asbag57
(g78
g59
NtRp934
(dp935
g62
(dp936
g89
g90
ssg71
g926
sg64
(lp937
S':'
asbag57
(g78
g59
NtRp938
(dp939
g62
(dp940
sg71
g926
sg64
(lp941
g57
(g58
g59
NtRp942
(dp943
g62
(dp944
g70
I3
ssg71
g938
sg64
(lp945
S''
asbasbasbag57
(g73
g59
NtRp946
(dp947
g62
(dp948
sg71
g822
sg64
(lp949
g57
(g78
g59
NtRp950
(dp951
g62
(dp952
g82
g83
ssg71
g946
sg64
(lp953
g397
asbag57
(g78
g59
NtRp954
(dp955
g62
(dp956
g89
g90
ssg71
g946
sg64
(lp957
S':'
asbag57
(g78
g59
NtRp958
(dp959
g62
(dp960
sg71
g946
sg64
(lp961
g57
(g58
g59
NtRp962
(dp963
g62
(dp964
g70
I3
ssg71
g958
sg64
(lp965
S''
asbasbasbag57
(g73
g59
NtRp966
(dp967
g62
(dp968
sg71
g822
sg64
(lp969
g57
(g78
g59
NtRp970
(dp971
g62
(dp972
g82
g83
ssg71
g966
sg64
(lp973
g418
asbag57
(g78
g59
NtRp974
(dp975
g62
(dp976
g89
g90
ssg71
g966
sg64
(lp977
S':'
asbag57
(g78
g59
NtRp978
(dp979
g62
(dp980
sg71
g966
sg64
(lp981
g57
(g58
g59
NtRp982
(dp983
g62
(dp984
g70
I3
ssg71
g978
sg64
(lp985
S''
asbasbasbasbasbasbasbag57
(g73
g59
NtRp986
(dp987
g62
(dp988
sg71
g234
sg64
(lp989
g57
(g78
g59
NtRp990
(dp991
g62
(dp992
g82
g83
ssg71
g986
sg64
(lp993
S'session_id_welcome'
p994
asbag57
(g78
g59
NtRp995
(dp996
g62
(dp997
g89
g90
ssg71
g986
sg64
(lp998
S':'
asbag57
(g78
g59
NtRp999
(dp1000
g62
(dp1001
sg71
g986
sg64
(lp1002
g57
(g58
g59
NtRp1003
(dp1004
g62
(dp1005
g70
I4
ssg71
g999
sg64
(lp1006
g57
(g66
g59
NtRp1007
(dp1008
g62
(dp1009
g70
I3
ssg71
Nsg64
(lp1010
g57
(g73
g59
NtRp1011
(dp1012
g62
(dp1013
sg71
g1007
sg64
(lp1014
g57
(g78
g59
NtRp1015
(dp1016
g62
(dp1017
g82
g83
ssg71
g1011
sg64
(lp1018
g271
asbag57
(g78
g59
NtRp1019
(dp1020
g62
(dp1021
g89
g90
ssg71
g1011
sg64
(lp1022
S':'
asbag57
(g78
g59
NtRp1023
(dp1024
g62
(dp1025
sg71
g1011
sg64
(lp1026
g57
(g58
g59
NtRp1027
(dp1028
g62
(dp1029
g70
I3
ssg71
g1023
sg64
(lp1030
S''
asbasbasbag57
(g73
g59
NtRp1031
(dp1032
g62
(dp1033
sg71
g1007
sg64
(lp1034
g57
(g78
g59
NtRp1035
(dp1036
g62
(dp1037
g82
g83
ssg71
g1031
sg64
(lp1038
g292
asbag57
(g78
g59
NtRp1039
(dp1040
g62
(dp1041
g89
g90
ssg71
g1031
sg64
(lp1042
S':'
asbag57
(g78
g59
NtRp1043
(dp1044
g62
(dp1045
sg71
g1031
sg64
(lp1046
g57
(g58
g59
NtRp1047
(dp1048
g62
(dp1049
g70
I3
ssg71
g1043
sg64
(lp1050
S''
asbasbasbag57
(g73
g59
NtRp1051
(dp1052
g62
(dp1053
sg71
g1007
sg64
(lp1054
g57
(g78
g59
NtRp1055
(dp1056
g62
(dp1057
g82
g83
ssg71
g1051
sg64
(lp1058
g313
asbag57
(g78
g59
NtRp1059
(dp1060
g62
(dp1061
g89
g90
ssg71
g1051
sg64
(lp1062
S':'
asbag57
(g78
g59
NtRp1063
(dp1064
g62
(dp1065
sg71
g1051
sg64
(lp1066
g57
(g58
g59
NtRp1067
(dp1068
g62
(dp1069
g70
I3
ssg71
g1063
sg64
(lp1070
S''
asbasbasbag57
(g73
g59
NtRp1071
(dp1072
g62
(dp1073
sg71
g1007
sg64
(lp1074
g57
(g78
g59
NtRp1075
(dp1076
g62
(dp1077
g82
g83
ssg71
g1071
sg64
(lp1078
g334
asbag57
(g78
g59
NtRp1079
(dp1080
g62
(dp1081
g89
g90
ssg71
g1071
sg64
(lp1082
S':'
asbag57
(g78
g59
NtRp1083
(dp1084
g62
(dp1085
sg71
g1071
sg64
(lp1086
g57
(g58
g59
NtRp1087
(dp1088
g62
(dp1089
g70
I3
ssg71
g1083
sg64
(lp1090
S''
asbasbasbag57
(g73
g59
NtRp1091
(dp1092
g62
(dp1093
sg71
g1007
sg64
(lp1094
g57
(g78
g59
NtRp1095
(dp1096
g62
(dp1097
g82
g83
ssg71
g1091
sg64
(lp1098
g355
asbag57
(g78
g59
NtRp1099
(dp1100
g62
(dp1101
g89
g90
ssg71
g1091
sg64
(lp1102
S':'
asbag57
(g78
g59
NtRp1103
(dp1104
g62
(dp1105
sg71
g1091
sg64
(lp1106
g57
(g58
g59
NtRp1107
(dp1108
g62
(dp1109
g70
I3
ssg71
g1103
sg64
(lp1110
S''
asbasbasbag57
(g73
g59
NtRp1111
(dp1112
g62
(dp1113
sg71
g1007
sg64
(lp1114
g57
(g78
g59
NtRp1115
(dp1116
g62
(dp1117
g82
g83
ssg71
g1111
sg64
(lp1118
g376
asbag57
(g78
g59
NtRp1119
(dp1120
g62
(dp1121
g89
g90
ssg71
g1111
sg64
(lp1122
S':'
asbag57
(g78
g59
NtRp1123
(dp1124
g62
(dp1125
sg71
g1111
sg64
(lp1126
g57
(g58
g59
NtRp1127
(dp1128
g62
(dp1129
g70
I3
ssg71
g1123
sg64
(lp1130
S''
asbasbasbag57
(g73
g59
NtRp1131
(dp1132
g62
(dp1133
sg71
g1007
sg64
(lp1134
g57
(g78
g59
NtRp1135
(dp1136
g62
(dp1137
g82
g83
ssg71
g1131
sg64
(lp1138
g397
asbag57
(g78
g59
NtRp1139
(dp1140
g62
(dp1141
g89
g90
ssg71
g1131
sg64
(lp1142
S':'
asbag57
(g78
g59
NtRp1143
(dp1144
g62
(dp1145
sg71
g1131
sg64
(lp1146
g57
(g58
g59
NtRp1147
(dp1148
g62
(dp1149
g70
I3
ssg71
g1143
sg64
(lp1150
S''
asbasbasbag57
(g73
g59
NtRp1151
(dp1152
g62
(dp1153
sg71
g1007
sg64
(lp1154
g57
(g78
g59
NtRp1155
(dp1156
g62
(dp1157
g82
g83
ssg71
g1151
sg64
(lp1158
g418
asbag57
(g78
g59
NtRp1159
(dp1160
g62
(dp1161
g89
g90
ssg71
g1151
sg64
(lp1162
S':'
asbag57
(g78
g59
NtRp1163
(dp1164
g62
(dp1165
sg71
g1151
sg64
(lp1166
g57
(g58
g59
NtRp1167
(dp1168
g62
(dp1169
g70
I3
ssg71
g1163
sg64
(lp1170
S''
asbasbasbasbasbasbasbasbasbasbasbag57
(g73
g59
NtRp1171
(dp1172
g62
(dp1173
sg71
g67
sg64
(lp1174
g57
(g78
g59
NtRp1175
(dp1176
g62
(dp1177
g82
g83
ssg71
g1171
sg64
(lp1178
S'env'
p1179
asbag57
(g78
g59
NtRp1180
(dp1181
g62
(dp1182
g89
g90
ssg71
g1171
sg64
(lp1183
S':'
asbag57
(g78
g59
NtRp1184
(dp1185
g62
(dp1186
sg71
g1171
sg64
(lp1187
g57
(g58
g59
NtRp1188
(dp1189
g62
(dp1190
g70
I5
ssg71
g1184
sg64
(lp1191
g57
(g66
g59
NtRp1192
(dp1193
g62
(dp1194
g70
I4
ssg71
Nsg64
(lp1195
g57
(g73
g59
NtRp1196
(dp1197
g62
(dp1198
sg71
g1192
sg64
(lp1199
g57
(g78
g59
NtRp1200
(dp1201
g62
(dp1202
g82
g83
ssg71
g1196
sg64
(lp1203
S'app_folders'
p1204
asbag57
(g78
g59
NtRp1205
(dp1206
g62
(dp1207
g89
g90
ssg71
g1196
sg64
(lp1208
S':'
asbag57
(g78
g59
NtRp1209
(dp1210
g62
(dp1211
sg71
g1196
sg64
(lp1212
g57
(g58
g59
NtRp1213
(dp1214
g62
(dp1215
g70
I4
ssg71
g1209
sg64
(lp1216
S"set(['/home/arpita/courses/sem3/ssad/web2py/applications/admin/', '/home/arpita/courses/sem3/ssad/web2py/applications/project/', '/home/arpita/courses/sem3/ssad/web2py/applications/welcome/'])"
p1217
asbasbasbag57
(g73
g59
NtRp1218
(dp1219
g62
(dp1220
sg71
g1192
sg64
(lp1221
g57
(g78
g59
NtRp1222
(dp1223
g62
(dp1224
g82
g83
ssg71
g1218
sg64
(lp1225
S'applications_parent'
p1226
asbag57
(g78
g59
NtRp1227
(dp1228
g62
(dp1229
g89
g90
ssg71
g1218
sg64
(lp1230
S':'
asbag57
(g78
g59
NtRp1231
(dp1232
g62
(dp1233
sg71
g1218
sg64
(lp1234
g57
(g58
g59
NtRp1235
(dp1236
g62
(dp1237
g70
I4
ssg71
g1231
sg64
(lp1238
S'/home/arpita/courses/sem3/ssad/web2py'
p1239
asbasbasbag57
(g73
g59
NtRp1240
(dp1241
g62
(dp1242
sg71
g1192
sg64
(lp1243
g57
(g78
g59
NtRp1244
(dp1245
g62
(dp1246
g82
g83
ssg71
g1240
sg64
(lp1247
S'cmd_args'
p1248
asbag57
(g78
g59
NtRp1249
(dp1250
g62
(dp1251
g89
g90
ssg71
g1240
sg64
(lp1252
S':'
asbag57
(g78
g59
NtRp1253
(dp1254
g62
(dp1255
sg71
g1240
sg64
(lp1256
g57
(g58
g59
NtRp1257
(dp1258
g62
(dp1259
g70
I4
ssg71
g1253
sg64
(lp1260
g57
(g66
g59
NtRp1261
(dp1262
g62
(dp1263
g70
I3
ssg71
Nsg64
(lp1264
sbasbasbasbag57
(g73
g59
NtRp1265
(dp1266
g62
(dp1267
sg71
g1192
sg64
(lp1268
g57
(g78
g59
NtRp1269
(dp1270
g62
(dp1271
g82
g83
ssg71
g1265
sg64
(lp1272
S'cmd_options'
p1273
asbag57
(g78
g59
NtRp1274
(dp1275
g62
(dp1276
g89
g90
ssg71
g1265
sg64
(lp1277
S':'
asbag57
(g78
g59
NtRp1278
(dp1279
g62
(dp1280
sg71
g1265
sg64
(lp1281
g57
(g58
g59
NtRp1282
(dp1283
g62
(dp1284
g70
I4
ssg71
g1278
sg64
(lp1285
S"<Values at 0x91693cc: {'verbose': False, 'ip': '127.0.0.1', 'shutdown_timeout': 5, 'taskbar': False, 'nocron': False, 'pid_filename': 'httpserver.pid', 'maxthreads': None, 'softcron': False, 'server_name': 'arpita-HP-630-Notebook-PC', 'bpython': False, 'nogui': False, 'port': 8000, 'extcron': False, 'debuglevel': 30, 'test': None, 'folder': '/home/arpita/courses/sem3/ssad/web2py', 'config': '', 'import_models': False, 'winservice': '', 'shell': None, 'run': '', 'log_filename': 'httpserver.log', 'args': [''], 'socket_timeout': 5, 'ssl_ca_certificate': None, 'scheduler': None, 'profiler_filename': None, 'ssl_private_key': '', 'password': 'arpita', 'request_queue_size': 5, 'ssl_certificate': '', 'cronjob': False, 'numthreads': None, 'quiet': False, 'interfaces': None, 'minthreads': None, 'timeout': 10, 'plain': False, 'nobanner': False}>"
p1286
asbasbasbag57
(g73
g59
NtRp1287
(dp1288
g62
(dp1289
sg71
g1192
sg64
(lp1290
g57
(g78
g59
NtRp1291
(dp1292
g62
(dp1293
g82
g83
ssg71
g1287
sg64
(lp1294
S'db_sessions'
p1295
asbag57
(g78
g59
NtRp1296
(dp1297
g62
(dp1298
g89
g90
ssg71
g1287
sg64
(lp1299
S':'
asbag57
(g78
g59
NtRp1300
(dp1301
g62
(dp1302
sg71
g1287
sg64
(lp1303
g57
(g58
g59
NtRp1304
(dp1305
g62
(dp1306
g70
I4
ssg71
g1300
sg64
(lp1307
S'set([])'
p1308
asbasbasbag57
(g73
g59
NtRp1309
(dp1310
g62
(dp1311
sg71
g1192
sg64
(lp1312
g57
(g78
g59
NtRp1313
(dp1314
g62
(dp1315
g82
g83
ssg71
g1309
sg64
(lp1316
S'debugging'
p1317
asbag57
(g78
g59
NtRp1318
(dp1319
g62
(dp1320
g89
g90
ssg71
g1309
sg64
(lp1321
S':'
asbag57
(g78
g59
NtRp1322
(dp1323
g62
(dp1324
sg71
g1309
sg64
(lp1325
g57
(g58
g59
NtRp1326
(dp1327
g62
(dp1328
g70
I4
ssg71
g1322
sg64
(lp1329
g100
asbasbasbag57
(g73
g59
NtRp1330
(dp1331
g62
(dp1332
sg71
g1192
sg64
(lp1333
g57
(g78
g59
NtRp1334
(dp1335
g62
(dp1336
g82
g83
ssg71
g1330
sg64
(lp1337
S'gluon_parent'
p1338
asbag57
(g78
g59
NtRp1339
(dp1340
g62
(dp1341
g89
g90
ssg71
g1330
sg64
(lp1342
S':'
asbag57
(g78
g59
NtRp1343
(dp1344
g62
(dp1345
sg71
g1330
sg64
(lp1346
g57
(g58
g59
NtRp1347
(dp1348
g62
(dp1349
g70
I4
ssg71
g1343
sg64
(lp1350
S'/home/arpita/courses/sem3/ssad/web2py'
p1351
asbasbasbag57
(g73
g59
NtRp1352
(dp1353
g62
(dp1354
sg71
g1192
sg64
(lp1355
g57
(g78
g59
NtRp1356
(dp1357
g62
(dp1358
g82
g83
ssg71
g1352
sg64
(lp1359
S'http_accept'
p1360
asbag57
(g78
g59
NtRp1361
(dp1362
g62
(dp1363
g89
g90
ssg71
g1352
sg64
(lp1364
S':'
asbag57
(g78
g59
NtRp1365
(dp1366
g62
(dp1367
sg71
g1352
sg64
(lp1368
g57
(g58
g59
NtRp1369
(dp1370
g62
(dp1371
g70
I4
ssg71
g1365
sg64
(lp1372
S'text/html,application/xhtml+xml,application/xml;q=0.9,*/*;q=0.8'
p1373
asbasbasbag57
(g73
g59
NtRp1374
(dp1375
g62
(dp1376
sg71
g1192
sg64
(lp1377
g57
(g78
g59
NtRp1378
(dp1379
g62
(dp1380
g82
g83
ssg71
g1374
sg64
(lp1381
S'http_accept_charset'
p1382
asbag57
(g78
g59
NtRp1383
(dp1384
g62
(dp1385
g89
g90
ssg71
g1374
sg64
(lp1386
S':'
asbag57
(g78
g59
NtRp1387
(dp1388
g62
(dp1389
sg71
g1374
sg64
(lp1390
g57
(g58
g59
NtRp1391
(dp1392
g62
(dp1393
g70
I4
ssg71
g1387
sg64
(lp1394
S'ISO-8859-1,utf-8;q=0.7,*;q=0.7'
p1395
asbasbasbag57
(g73
g59
NtRp1396
(dp1397
g62
(dp1398
sg71
g1192
sg64
(lp1399
g57
(g78
g59
NtRp1400
(dp1401
g62
(dp1402
g82
g83
ssg71
g1396
sg64
(lp1403
S'http_accept_encoding'
p1404
asbag57
(g78
g59
NtRp1405
(dp1406
g62
(dp1407
g89
g90
ssg71
g1396
sg64
(lp1408
S':'
asbag57
(g78
g59
NtRp1409
(dp1410
g62
(dp1411
sg71
g1396
sg64
(lp1412
g57
(g58
g59
NtRp1413
(dp1414
g62
(dp1415
g70
I4
ssg71
g1409
sg64
(lp1416
S'gzip, deflate'
p1417
asbasbasbag57
(g73
g59
NtRp1418
(dp1419
g62
(dp1420
sg71
g1192
sg64
(lp1421
g57
(g78
g59
NtRp1422
(dp1423
g62
(dp1424
g82
g83
ssg71
g1418
sg64
(lp1425
S'http_accept_language'
p1426
asbag57
(g78
g59
NtRp1427
(dp1428
g62
(dp1429
g89
g90
ssg71
g1418
sg64
(lp1430
S':'
asbag57
(g78
g59
NtRp1431
(dp1432
g62
(dp1433
sg71
g1418
sg64
(lp1434
g57
(g58
g59
NtRp1435
(dp1436
g62
(dp1437
g70
I4
ssg71
g1431
sg64
(lp1438
S'en-us,en;q=0.5'
p1439
asbasbasbag57
(g73
g59
NtRp1440
(dp1441
g62
(dp1442
sg71
g1192
sg64
(lp1443
g57
(g78
g59
NtRp1444
(dp1445
g62
(dp1446
g82
g83
ssg71
g1440
sg64
(lp1447
S'http_connection'
p1448
asbag57
(g78
g59
NtRp1449
(dp1450
g62
(dp1451
g89
g90
ssg71
g1440
sg64
(lp1452
S':'
asbag57
(g78
g59
NtRp1453
(dp1454
g62
(dp1455
sg71
g1440
sg64
(lp1456
g57
(g58
g59
NtRp1457
(dp1458
g62
(dp1459
g70
I4
ssg71
g1453
sg64
(lp1460
S'keep-alive'
p1461
asbasbasbag57
(g73
g59
NtRp1462
(dp1463
g62
(dp1464
sg71
g1192
sg64
(lp1465
g57
(g78
g59
NtRp1466
(dp1467
g62
(dp1468
g82
g83
ssg71
g1462
sg64
(lp1469
S'http_cookie'
p1470
asbag57
(g78
g59
NtRp1471
(dp1472
g62
(dp1473
g89
g90
ssg71
g1462
sg64
(lp1474
S':'
asbag57
(g78
g59
NtRp1475
(dp1476
g62
(dp1477
sg71
g1462
sg64
(lp1478
g57
(g58
g59
NtRp1479
(dp1480
g62
(dp1481
g70
I4
ssg71
g1475
sg64
(lp1482
S'session_id_welcome=127.0.0.1-426d06be-8e28-4795-b1aa-4f62538e6b91; session_id_admin=127.0.0.1-f526b6c7-9bc4-40cc-9995-6eaa04ed6e47; session_id_hierarchy=127.0.0.1-10df1d62-8e94-4459-9103-c3a65988848a; session_id_images=127.0.0.1-87437d8b-9395-4e77-ae7d-de543fa4d802; session_id_project=127.0.0.1-685fbf0f-7e19-4757-b51e-738a125b352f'
p1483
asbasbasbag57
(g73
g59
NtRp1484
(dp1485
g62
(dp1486
sg71
g1192
sg64
(lp1487
g57
(g78
g59
NtRp1488
(dp1489
g62
(dp1490
g82
g83
ssg71
g1484
sg64
(lp1491
S'http_host'
p1492
asbag57
(g78
g59
NtRp1493
(dp1494
g62
(dp1495
g89
g90
ssg71
g1484
sg64
(lp1496
S':'
asbag57
(g78
g59
NtRp1497
(dp1498
g62
(dp1499
sg71
g1484
sg64
(lp1500
g57
(g58
g59
NtRp1501
(dp1502
g62
(dp1503
g70
I4
ssg71
g1497
sg64
(lp1504
S'127.0.0.1:8000'
p1505
asbasbasbag57
(g73
g59
NtRp1506
(dp1507
g62
(dp1508
sg71
g1192
sg64
(lp1509
g57
(g78
g59
NtRp1510
(dp1511
g62
(dp1512
g82
g83
ssg71
g1506
sg64
(lp1513
S'http_referer'
p1514
asbag57
(g78
g59
NtRp1515
(dp1516
g62
(dp1517
g89
g90
ssg71
g1506
sg64
(lp1518
S':'
asbag57
(g78
g59
NtRp1519
(dp1520
g62
(dp1521
sg71
g1506
sg64
(lp1522
g57
(g58
g59
NtRp1523
(dp1524
g62
(dp1525
g70
I4
ssg71
g1519
sg64
(lp1526
S'http://127.0.0.1:8000/project/default/relate'
p1527
asbasbasbag57
(g73
g59
NtRp1528
(dp1529
g62
(dp1530
sg71
g1192
sg64
(lp1531
g57
(g78
g59
NtRp1532
(dp1533
g62
(dp1534
g82
g83
ssg71
g1528
sg64
(lp1535
S'http_user_agent'
p1536
asbag57
(g78
g59
NtRp1537
(dp1538
g62
(dp1539
g89
g90
ssg71
g1528
sg64
(lp1540
S':'
asbag57
(g78
g59
NtRp1541
(dp1542
g62
(dp1543
sg71
g1528
sg64
(lp1544
g57
(g58
g59
NtRp1545
(dp1546
g62
(dp1547
g70
I4
ssg71
g1541
sg64
(lp1548
S'Mozilla/5.0 (X11; Linux i686; rv:7.0.1) Gecko/20100101 Firefox/7.0.1'
p1549
asbasbasbag57
(g73
g59
NtRp1550
(dp1551
g62
(dp1552
sg71
g1192
sg64
(lp1553
g57
(g78
g59
NtRp1554
(dp1555
g62
(dp1556
g82
g83
ssg71
g1550
sg64
(lp1557
S'is_jython'
p1558
asbag57
(g78
g59
NtRp1559
(dp1560
g62
(dp1561
g89
g90
ssg71
g1550
sg64
(lp1562
S':'
asbag57
(g78
g59
NtRp1563
(dp1564
g62
(dp1565
sg71
g1550
sg64
(lp1566
g57
(g58
g59
NtRp1567
(dp1568
g62
(dp1569
g70
I4
ssg71
g1563
sg64
(lp1570
g100
asbasbasbag57
(g73
g59
NtRp1571
(dp1572
g62
(dp1573
sg71
g1192
sg64
(lp1574
g57
(g78
g59
NtRp1575
(dp1576
g62
(dp1577
g82
g83
ssg71
g1571
sg64
(lp1578
S'is_pypy'
p1579
asbag57
(g78
g59
NtRp1580
(dp1581
g62
(dp1582
g89
g90
ssg71
g1571
sg64
(lp1583
S':'
asbag57
(g78
g59
NtRp1584
(dp1585
g62
(dp1586
sg71
g1571
sg64
(lp1587
g57
(g58
g59
NtRp1588
(dp1589
g62
(dp1590
g70
I4
ssg71
g1584
sg64
(lp1591
g100
asbasbasbag57
(g73
g59
NtRp1592
(dp1593
g62
(dp1594
sg71
g1192
sg64
(lp1595
g57
(g78
g59
NtRp1596
(dp1597
g62
(dp1598
g82
g83
ssg71
g1592
sg64
(lp1599
S'path_info'
p1600
asbag57
(g78
g59
NtRp1601
(dp1602
g62
(dp1603
g89
g90
ssg71
g1592
sg64
(lp1604
S':'
asbag57
(g78
g59
NtRp1605
(dp1606
g62
(dp1607
sg71
g1592
sg64
(lp1608
g57
(g58
g59
NtRp1609
(dp1610
g62
(dp1611
g70
I4
ssg71
g1605
sg64
(lp1612
S'/project/default/kruskal'
p1613
asbasbasbag57
(g73
g59
NtRp1614
(dp1615
g62
(dp1616
sg71
g1192
sg64
(lp1617
g57
(g78
g59
NtRp1618
(dp1619
g62
(dp1620
g82
g83
ssg71
g1614
sg64
(lp1621
S'query_string'
p1622
asbag57
(g78
g59
NtRp1623
(dp1624
g62
(dp1625
g89
g90
ssg71
g1614
sg64
(lp1626
S':'
asbag57
(g78
g59
NtRp1627
(dp1628
g62
(dp1629
sg71
g1614
sg64
(lp1630
g57
(g58
g59
NtRp1631
(dp1632
g62
(dp1633
g70
I4
ssg71
g1627
sg64
(lp1634
S''
asbasbasbag57
(g73
g59
NtRp1635
(dp1636
g62
(dp1637
sg71
g1192
sg64
(lp1638
g57
(g78
g59
NtRp1639
(dp1640
g62
(dp1641
g82
g83
ssg71
g1635
sg64
(lp1642
S'remote_addr'
p1643
asbag57
(g78
g59
NtRp1644
(dp1645
g62
(dp1646
g89
g90
ssg71
g1635
sg64
(lp1647
S':'
asbag57
(g78
g59
NtRp1648
(dp1649
g62
(dp1650
sg71
g1635
sg64
(lp1651
g57
(g58
g59
NtRp1652
(dp1653
g62
(dp1654
g70
I4
ssg71
g1648
sg64
(lp1655
g190
asbasbasbag57
(g73
g59
NtRp1656
(dp1657
g62
(dp1658
sg71
g1192
sg64
(lp1659
g57
(g78
g59
NtRp1660
(dp1661
g62
(dp1662
g82
g83
ssg71
g1656
sg64
(lp1663
S'remote_port'
p1664
asbag57
(g78
g59
NtRp1665
(dp1666
g62
(dp1667
g89
g90
ssg71
g1656
sg64
(lp1668
S':'
asbag57
(g78
g59
NtRp1669
(dp1670
g62
(dp1671
sg71
g1656
sg64
(lp1672
g57
(g58
g59
NtRp1673
(dp1674
g62
(dp1675
g70
I4
ssg71
g1669
sg64
(lp1676
S'57154'
p1677
asbasbasbag57
(g73
g59
NtRp1678
(dp1679
g62
(dp1680
sg71
g1192
sg64
(lp1681
g57
(g78
g59
NtRp1682
(dp1683
g62
(dp1684
g82
g83
ssg71
g1678
sg64
(lp1685
S'request_method'
p1686
asbag57
(g78
g59
NtRp1687
(dp1688
g62
(dp1689
g89
g90
ssg71
g1678
sg64
(lp1690
S':'
asbag57
(g78
g59
NtRp1691
(dp1692
g62
(dp1693
sg71
g1678
sg64
(lp1694
g57
(g58
g59
NtRp1695
(dp1696
g62
(dp1697
g70
I4
ssg71
g1691
sg64
(lp1698
S'GET'
p1699
asbasbasbag57
(g73
g59
NtRp1700
(dp1701
g62
(dp1702
sg71
g1192
sg64
(lp1703
g57
(g78
g59
NtRp1704
(dp1705
g62
(dp1706
g82
g83
ssg71
g1700
sg64
(lp1707
S'script_name'
p1708
asbag57
(g78
g59
NtRp1709
(dp1710
g62
(dp1711
g89
g90
ssg71
g1700
sg64
(lp1712
S':'
asbag57
(g78
g59
NtRp1713
(dp1714
g62
(dp1715
sg71
g1700
sg64
(lp1716
g57
(g58
g59
NtRp1717
(dp1718
g62
(dp1719
g70
I4
ssg71
g1713
sg64
(lp1720
S''
asbasbasbag57
(g73
g59
NtRp1721
(dp1722
g62
(dp1723
sg71
g1192
sg64
(lp1724
g57
(g78
g59
NtRp1725
(dp1726
g62
(dp1727
g82
g83
ssg71
g1721
sg64
(lp1728
S'server_name'
p1729
asbag57
(g78
g59
NtRp1730
(dp1731
g62
(dp1732
g89
g90
ssg71
g1721
sg64
(lp1733
S':'
asbag57
(g78
g59
NtRp1734
(dp1735
g62
(dp1736
sg71
g1721
sg64
(lp1737
g57
(g58
g59
NtRp1738
(dp1739
g62
(dp1740
g70
I4
ssg71
g1734
sg64
(lp1741
S'arpita-HP-630-Notebook-PC'
p1742
asbasbasbag57
(g73
g59
NtRp1743
(dp1744
g62
(dp1745
sg71
g1192
sg64
(lp1746
g57
(g78
g59
NtRp1747
(dp1748
g62
(dp1749
g82
g83
ssg71
g1743
sg64
(lp1750
S'server_port'
p1751
asbag57
(g78
g59
NtRp1752
(dp1753
g62
(dp1754
g89
g90
ssg71
g1743
sg64
(lp1755
S':'
asbag57
(g78
g59
NtRp1756
(dp1757
g62
(dp1758
sg71
g1743
sg64
(lp1759
g57
(g58
g59
NtRp1760
(dp1761
g62
(dp1762
g70
I4
ssg71
g1756
sg64
(lp1763
S'8000'
p1764
asbasbasbag57
(g73
g59
NtRp1765
(dp1766
g62
(dp1767
sg71
g1192
sg64
(lp1768
g57
(g78
g59
NtRp1769
(dp1770
g62
(dp1771
g82
g83
ssg71
g1765
sg64
(lp1772
S'server_protocol'
p1773
asbag57
(g78
g59
NtRp1774
(dp1775
g62
(dp1776
g89
g90
ssg71
g1765
sg64
(lp1777
S':'
asbag57
(g78
g59
NtRp1778
(dp1779
g62
(dp1780
sg71
g1765
sg64
(lp1781
g57
(g58
g59
NtRp1782
(dp1783
g62
(dp1784
g70
I4
ssg71
g1778
sg64
(lp1785
S'HTTP/1.1'
p1786
asbasbasbag57
(g73
g59
NtRp1787
(dp1788
g62
(dp1789
sg71
g1192
sg64
(lp1790
g57
(g78
g59
NtRp1791
(dp1792
g62
(dp1793
g82
g83
ssg71
g1787
sg64
(lp1794
S'server_software'
p1795
asbag57
(g78
g59
NtRp1796
(dp1797
g62
(dp1798
g89
g90
ssg71
g1787
sg64
(lp1799
S':'
asbag57
(g78
g59
NtRp1800
(dp1801
g62
(dp1802
sg71
g1787
sg64
(lp1803
g57
(g58
g59
NtRp1804
(dp1805
g62
(dp1806
g70
I4
ssg71
g1800
sg64
(lp1807
S'Rocket 1.2.4'
p1808
asbasbasbag57
(g73
g59
NtRp1809
(dp1810
g62
(dp1811
sg71
g1192
sg64
(lp1812
g57
(g78
g59
NtRp1813
(dp1814
g62
(dp1815
g82
g83
ssg71
g1809
sg64
(lp1816
S'web2py_crontype'
p1817
asbag57
(g78
g59
NtRp1818
(dp1819
g62
(dp1820
g89
g90
ssg71
g1809
sg64
(lp1821
S':'
asbag57
(g78
g59
NtRp1822
(dp1823
g62
(dp1824
sg71
g1809
sg64
(lp1825
g57
(g58
g59
NtRp1826
(dp1827
g62
(dp1828
g70
I4
ssg71
g1822
sg64
(lp1829
S'hard'
p1830
asbasbasbag57
(g73
g59
NtRp1831
(dp1832
g62
(dp1833
sg71
g1192
sg64
(lp1834
g57
(g78
g59
NtRp1835
(dp1836
g62
(dp1837
g82
g83
ssg71
g1831
sg64
(lp1838
S'web2py_path'
p1839
asbag57
(g78
g59
NtRp1840
(dp1841
g62
(dp1842
g89
g90
ssg71
g1831
sg64
(lp1843
S':'
asbag57
(g78
g59
NtRp1844
(dp1845
g62
(dp1846
sg71
g1831
sg64
(lp1847
g57
(g58
g59
NtRp1848
(dp1849
g62
(dp1850
g70
I4
ssg71
g1844
sg64
(lp1851
g1239
asbasbasbag57
(g73
g59
NtRp1852
(dp1853
g62
(dp1854
sg71
g1192
sg64
(lp1855
g57
(g78
g59
NtRp1856
(dp1857
g62
(dp1858
g82
g83
ssg71
g1852
sg64
(lp1859
S'web2py_version'
p1860
asbag57
(g78
g59
NtRp1861
(dp1862
g62
(dp1863
g89
g90
ssg71
g1852
sg64
(lp1864
S':'
asbag57
(g78
g59
NtRp1865
(dp1866
g62
(dp1867
sg71
g1852
sg64
(lp1868
g57
(g58
g59
NtRp1869
(dp1870
g62
(dp1871
g70
I4
ssg71
g1865
sg64
(lp1872
g57
(g66
g59
NtRp1873
(dp1874
g62
(dp1875
g70
I3
ssg71
Nsg64
(lp1876
g57
(g73
g59
NtRp1877
(dp1878
g62
(dp1879
sg71
g1873
sg64
(lp1880
g57
(g78
g59
NtRp1881
(dp1882
g62
(dp1883
sg71
g1877
sg64
(lp1884
g57
(g58
g59
NtRp1885
(dp1886
g62
(dp1887
g70
I3
ssg71
g1881
sg64
(lp1888
S'1'
asbasbasbag57
(g73
g59
NtRp1889
(dp1890
g62
(dp1891
sg71
g1873
sg64
(lp1892
g57
(g78
g59
NtRp1893
(dp1894
g62
(dp1895
sg71
g1889
sg64
(lp1896
g57
(g58
g59
NtRp1897
(dp1898
g62
(dp1899
g70
I3
ssg71
g1893
sg64
(lp1900
S'99'
p1901
asbasbasbag57
(g73
g59
NtRp1902
(dp1903
g62
(dp1904
sg71
g1873
sg64
(lp1905
g57
(g78
g59
NtRp1906
(dp1907
g62
(dp1908
sg71
g1902
sg64
(lp1909
g57
(g58
g59
NtRp1910
(dp1911
g62
(dp1912
g70
I3
ssg71
g1906
sg64
(lp1913
S'7'
asbasbasbag57
(g73
g59
NtRp1914
(dp1915
g62
(dp1916
sg71
g1873
sg64
(lp1917
g57
(g78
g59
NtRp1918
(dp1919
g62
(dp1920
sg71
g1914
sg64
(lp1921
g57
(g58
g59
NtRp1922
(dp1923
g62
(dp1924
g70
I3
ssg71
g1918
sg64
(lp1925
S'datetime.datetime(2012, 3, 4, 22, 12, 8)'
p1926
asbasbasbag57
(g73
g59
NtRp1927
(dp1928
g62
(dp1929
sg71
g1873
sg64
(lp1930
g57
(g78
g59
NtRp1931
(dp1932
g62
(dp1933
sg71
g1927
sg64
(lp1934
g57
(g58
g59
NtRp1935
(dp1936
g62
(dp1937
g70
I3
ssg71
g1931
sg64
(lp1938
S'stable'
p1939
asbasbasbasbasbasbasbag57
(g73
g59
NtRp1940
(dp1941
g62
(dp1942
sg71
g1192
sg64
(lp1943
g57
(g78
g59
NtRp1944
(dp1945
g62
(dp1946
g82
g83
ssg71
g1940
sg64
(lp1947
S'wsgi_errors'
p1948
asbag57
(g78
g59
NtRp1949
(dp1950
g62
(dp1951
g89
g90
ssg71
g1940
sg64
(lp1952
S':'
asbag57
(g78
g59
NtRp1953
(dp1954
g62
(dp1955
sg71
g1940
sg64
(lp1956
g57
(g58
g59
NtRp1957
(dp1958
g62
(dp1959
g70
I4
ssg71
g1953
sg64
(lp1960
S"<open file '<stderr>', mode 'w' at 0xb733e0d0>"
p1961
asbasbasbag57
(g73
g59
NtRp1962
(dp1963
g62
(dp1964
sg71
g1192
sg64
(lp1965
g57
(g78
g59
NtRp1966
(dp1967
g62
(dp1968
g82
g83
ssg71
g1962
sg64
(lp1969
S'wsgi_file_wrapper'
p1970
asbag57
(g78
g59
NtRp1971
(dp1972
g62
(dp1973
g89
g90
ssg71
g1962
sg64
(lp1974
S':'
asbag57
(g78
g59
NtRp1975
(dp1976
g62
(dp1977
sg71
g1962
sg64
(lp1978
g57
(g58
g59
NtRp1979
(dp1980
g62
(dp1981
g70
I4
ssg71
g1975
sg64
(lp1982
S'<class wsgiref.util.FileWrapper at 0x910cf5c>'
p1983
asbasbasbag57
(g73
g59
NtRp1984
(dp1985
g62
(dp1986
sg71
g1192
sg64
(lp1987
g57
(g78
g59
NtRp1988
(dp1989
g62
(dp1990
g82
g83
ssg71
g1984
sg64
(lp1991
S'wsgi_input'
p1992
asbag57
(g78
g59
NtRp1993
(dp1994
g62
(dp1995
g89
g90
ssg71
g1984
sg64
(lp1996
S':'
asbag57
(g78
g59
NtRp1997
(dp1998
g62
(dp1999
sg71
g1984
sg64
(lp2000
g57
(g58
g59
NtRp2001
(dp2002
g62
(dp2003
g70
I4
ssg71
g1997
sg64
(lp2004
S'<socket._fileobject object at 0x932702c>'
p2005
asbasbasbag57
(g73
g59
NtRp2006
(dp2007
g62
(dp2008
sg71
g1192
sg64
(lp2009
g57
(g78
g59
NtRp2010
(dp2011
g62
(dp2012
g82
g83
ssg71
g2006
sg64
(lp2013
S'wsgi_multiprocess'
p2014
asbag57
(g78
g59
NtRp2015
(dp2016
g62
(dp2017
g89
g90
ssg71
g2006
sg64
(lp2018
S':'
asbag57
(g78
g59
NtRp2019
(dp2020
g62
(dp2021
sg71
g2006
sg64
(lp2022
g57
(g58
g59
NtRp2023
(dp2024
g62
(dp2025
g70
I4
ssg71
g2019
sg64
(lp2026
g100
asbasbasbag57
(g73
g59
NtRp2027
(dp2028
g62
(dp2029
sg71
g1192
sg64
(lp2030
g57
(g78
g59
NtRp2031
(dp2032
g62
(dp2033
g82
g83
ssg71
g2027
sg64
(lp2034
S'wsgi_multithread'
p2035
asbag57
(g78
g59
NtRp2036
(dp2037
g62
(dp2038
g89
g90
ssg71
g2027
sg64
(lp2039
S':'
asbag57
(g78
g59
NtRp2040
(dp2041
g62
(dp2042
sg71
g2027
sg64
(lp2043
g57
(g58
g59
NtRp2044
(dp2045
g62
(dp2046
g70
I4
ssg71
g2040
sg64
(lp2047
S'True'
p2048
asbasbasbag57
(g73
g59
NtRp2049
(dp2050
g62
(dp2051
sg71
g1192
sg64
(lp2052
g57
(g78
g59
NtRp2053
(dp2054
g62
(dp2055
g82
g83
ssg71
g2049
sg64
(lp2056
S'wsgi_run_once'
p2057
asbag57
(g78
g59
NtRp2058
(dp2059
g62
(dp2060
g89
g90
ssg71
g2049
sg64
(lp2061
S':'
asbag57
(g78
g59
NtRp2062
(dp2063
g62
(dp2064
sg71
g2049
sg64
(lp2065
g57
(g58
g59
NtRp2066
(dp2067
g62
(dp2068
g70
I4
ssg71
g2062
sg64
(lp2069
g100
asbasbasbag57
(g73
g59
NtRp2070
(dp2071
g62
(dp2072
sg71
g1192
sg64
(lp2073
g57
(g78
g59
NtRp2074
(dp2075
g62
(dp2076
g82
g83
ssg71
g2070
sg64
(lp2077
S'wsgi_url_scheme'
p2078
asbag57
(g78
g59
NtRp2079
(dp2080
g62
(dp2081
g89
g90
ssg71
g2070
sg64
(lp2082
S':'
asbag57
(g78
g59
NtRp2083
(dp2084
g62
(dp2085
sg71
g2070
sg64
(lp2086
g57
(g58
g59
NtRp2087
(dp2088
g62
(dp2089
g70
I4
ssg71
g2083
sg64
(lp2090
S'http'
p2091
asbasbasbag57
(g73
g59
NtRp2092
(dp2093
g62
(dp2094
sg71
g1192
sg64
(lp2095
g57
(g78
g59
NtRp2096
(dp2097
g62
(dp2098
g82
g83
ssg71
g2092
sg64
(lp2099
S'wsgi_version'
p2100
asbag57
(g78
g59
NtRp2101
(dp2102
g62
(dp2103
g89
g90
ssg71
g2092
sg64
(lp2104
S':'
asbag57
(g78
g59
NtRp2105
(dp2106
g62
(dp2107
sg71
g2092
sg64
(lp2108
g57
(g58
g59
NtRp2109
(dp2110
g62
(dp2111
g70
I4
ssg71
g2105
sg64
(lp2112
g57
(g66
g59
NtRp2113
(dp2114
g62
(dp2115
g70
I3
ssg71
Nsg64
(lp2116
g57
(g73
g59
NtRp2117
(dp2118
g62
(dp2119
sg71
g2113
sg64
(lp2120
g57
(g78
g59
NtRp2121
(dp2122
g62
(dp2123
sg71
g2117
sg64
(lp2124
g57
(g58
g59
NtRp2125
(dp2126
g62
(dp2127
g70
I3
ssg71
g2121
sg64
(lp2128
S'1'
asbasbasbag57
(g73
g59
NtRp2129
(dp2130
g62
(dp2131
sg71
g2113
sg64
(lp2132
g57
(g78
g59
NtRp2133
(dp2134
g62
(dp2135
sg71
g2129
sg64
(lp2136
g57
(g58
g59
NtRp2137
(dp2138
g62
(dp2139
g70
I3
ssg71
g2133
sg64
(lp2140
S'0'
asbasbasbasbasbasbasbasbasbasbasbag57
(g73
g59
NtRp2141
(dp2142
g62
(dp2143
sg71
g67
sg64
(lp2144
g57
(g78
g59
NtRp2145
(dp2146
g62
(dp2147
g82
g83
ssg71
g2141
sg64
(lp2148
S'extension'
p2149
asbag57
(g78
g59
NtRp2150
(dp2151
g62
(dp2152
g89
g90
ssg71
g2141
sg64
(lp2153
S':'
asbag57
(g78
g59
NtRp2154
(dp2155
g62
(dp2156
sg71
g2141
sg64
(lp2157
g57
(g58
g59
NtRp2158
(dp2159
g62
(dp2160
g70
I5
ssg71
g2154
sg64
(lp2161
S'html'
p2162
asbasbasbag57
(g73
g59
NtRp2163
(dp2164
g62
(dp2165
sg71
g67
sg64
(lp2166
g57
(g78
g59
NtRp2167
(dp2168
g62
(dp2169
g82
g83
ssg71
g2163
sg64
(lp2170
S'folder'
p2171
asbag57
(g78
g59
NtRp2172
(dp2173
g62
(dp2174
g89
g90
ssg71
g2163
sg64
(lp2175
S':'
asbag57
(g78
g59
NtRp2176
(dp2177
g62
(dp2178
sg71
g2163
sg64
(lp2179
g57
(g58
g59
NtRp2180
(dp2181
g62
(dp2182
g70
I5
ssg71
g2176
sg64
(lp2183
S'/home/arpita/courses/sem3/ssad/web2py/applications/project/'
p2184
asbasbasbag57
(g73
g59
NtRp2185
(dp2186
g62
(dp2187
sg71
g67
sg64
(lp2188
g57
(g78
g59
NtRp2189
(dp2190
g62
(dp2191
g82
g83
ssg71
g2185
sg64
(lp2192
S'function'
p2193
asbag57
(g78
g59
NtRp2194
(dp2195
g62
(dp2196
g89
g90
ssg71
g2185
sg64
(lp2197
S':'
asbag57
(g78
g59
NtRp2198
(dp2199
g62
(dp2200
sg71
g2185
sg64
(lp2201
g57
(g58
g59
NtRp2202
(dp2203
g62
(dp2204
g70
I5
ssg71
g2198
sg64
(lp2205
S'kruskal'
p2206
asbasbasbag57
(g73
g59
NtRp2207
(dp2208
g62
(dp2209
sg71
g67
sg64
(lp2210
g57
(g78
g59
NtRp2211
(dp2212
g62
(dp2213
g82
g83
ssg71
g2207
sg64
(lp2214
S'get_vars'
p2215
asbag57
(g78
g59
NtRp2216
(dp2217
g62
(dp2218
g89
g90
ssg71
g2207
sg64
(lp2219
S':'
asbag57
(g78
g59
NtRp2220
(dp2221
g62
(dp2222
sg71
g2207
sg64
(lp2223
g57
(g58
g59
NtRp2224
(dp2225
g62
(dp2226
g70
I5
ssg71
g2220
sg64
(lp2227
g57
(g66
g59
NtRp2228
(dp2229
g62
(dp2230
g70
I4
ssg71
Nsg64
(lp2231
sbasbasbasbag57
(g73
g59
NtRp2232
(dp2233
g62
(dp2234
sg71
g67
sg64
(lp2235
g57
(g78
g59
NtRp2236
(dp2237
g62
(dp2238
g82
g83
ssg71
g2232
sg64
(lp2239
S'global_settings'
p2240
asbag57
(g78
g59
NtRp2241
(dp2242
g62
(dp2243
g89
g90
ssg71
g2232
sg64
(lp2244
S':'
asbag57
(g78
g59
NtRp2245
(dp2246
g62
(dp2247
sg71
g2232
sg64
(lp2248
g57
(g58
g59
NtRp2249
(dp2250
g62
(dp2251
g70
I5
ssg71
g2245
sg64
(lp2252
g57
(g66
g59
NtRp2253
(dp2254
g62
(dp2255
g70
I4
ssg71
Nsg64
(lp2256
g57
(g73
g59
NtRp2257
(dp2258
g62
(dp2259
sg71
g2253
sg64
(lp2260
g57
(g78
g59
NtRp2261
(dp2262
g62
(dp2263
g82
g83
ssg71
g2257
sg64
(lp2264
g1204
asbag57
(g78
g59
NtRp2265
(dp2266
g62
(dp2267
g89
g90
ssg71
g2257
sg64
(lp2268
S':'
asbag57
(g78
g59
NtRp2269
(dp2270
g62
(dp2271
sg71
g2257
sg64
(lp2272
g57
(g58
g59
NtRp2273
(dp2274
g62
(dp2275
g70
I4
ssg71
g2269
sg64
(lp2276
S"set(['/home/arpita/courses/sem3/ssad/web2py/applications/admin/', '/home/arpita/courses/sem3/ssad/web2py/applications/project/', '/home/arpita/courses/sem3/ssad/web2py/applications/welcome/'])"
p2277
asbasbasbag57
(g73
g59
NtRp2278
(dp2279
g62
(dp2280
sg71
g2253
sg64
(lp2281
g57
(g78
g59
NtRp2282
(dp2283
g62
(dp2284
g82
g83
ssg71
g2278
sg64
(lp2285
g1226
asbag57
(g78
g59
NtRp2286
(dp2287
g62
(dp2288
g89
g90
ssg71
g2278
sg64
(lp2289
S':'
asbag57
(g78
g59
NtRp2290
(dp2291
g62
(dp2292
sg71
g2278
sg64
(lp2293
g57
(g58
g59
NtRp2294
(dp2295
g62
(dp2296
g70
I4
ssg71
g2290
sg64
(lp2297
g1239
asbasbasbag57
(g73
g59
NtRp2298
(dp2299
g62
(dp2300
sg71
g2253
sg64
(lp2301
g57
(g78
g59
NtRp2302
(dp2303
g62
(dp2304
g82
g83
ssg71
g2298
sg64
(lp2305
g1248
asbag57
(g78
g59
NtRp2306
(dp2307
g62
(dp2308
g89
g90
ssg71
g2298
sg64
(lp2309
S':'
asbag57
(g78
g59
NtRp2310
(dp2311
g62
(dp2312
sg71
g2298
sg64
(lp2313
g57
(g58
g59
NtRp2314
(dp2315
g62
(dp2316
g70
I4
ssg71
g2310
sg64
(lp2317
g57
(g66
g59
NtRp2318
(dp2319
g62
(dp2320
g70
I3
ssg71
Nsg64
(lp2321
sbasbasbasbag57
(g73
g59
NtRp2322
(dp2323
g62
(dp2324
sg71
g2253
sg64
(lp2325
g57
(g78
g59
NtRp2326
(dp2327
g62
(dp2328
g82
g83
ssg71
g2322
sg64
(lp2329
g1273
asbag57
(g78
g59
NtRp2330
(dp2331
g62
(dp2332
g89
g90
ssg71
g2322
sg64
(lp2333
S':'
asbag57
(g78
g59
NtRp2334
(dp2335
g62
(dp2336
sg71
g2322
sg64
(lp2337
g57
(g58
g59
NtRp2338
(dp2339
g62
(dp2340
g70
I4
ssg71
g2334
sg64
(lp2341
S"<Values at 0x91693cc: {'verbose': False, 'ip': '127.0.0.1', 'shutdown_timeout': 5, 'taskbar': False, 'nocron': False, 'pid_filename': 'httpserver.pid', 'maxthreads': None, 'softcron': False, 'server_name': 'arpita-HP-630-Notebook-PC', 'bpython': False, 'nogui': False, 'port': 8000, 'extcron': False, 'debuglevel': 30, 'test': None, 'folder': '/home/arpita/courses/sem3/ssad/web2py', 'config': '', 'import_models': False, 'winservice': '', 'shell': None, 'run': '', 'log_filename': 'httpserver.log', 'args': [''], 'socket_timeout': 5, 'ssl_ca_certificate': None, 'scheduler': None, 'profiler_filename': None, 'ssl_private_key': '', 'password': 'arpita', 'request_queue_size': 5, 'ssl_certificate': '', 'cronjob': False, 'numthreads': None, 'quiet': False, 'interfaces': None, 'minthreads': None, 'timeout': 10, 'plain': False, 'nobanner': False}>"
p2342
asbasbasbag57
(g73
g59
NtRp2343
(dp2344
g62
(dp2345
sg71
g2253
sg64
(lp2346
g57
(g78
g59
NtRp2347
(dp2348
g62
(dp2349
g82
g83
ssg71
g2343
sg64
(lp2350
g1295
asbag57
(g78
g59
NtRp2351
(dp2352
g62
(dp2353
g89
g90
ssg71
g2343
sg64
(lp2354
S':'
asbag57
(g78
g59
NtRp2355
(dp2356
g62
(dp2357
sg71
g2343
sg64
(lp2358
g57
(g58
g59
NtRp2359
(dp2360
g62
(dp2361
g70
I4
ssg71
g2355
sg64
(lp2362
S'set([])'
p2363
asbasbasbag57
(g73
g59
NtRp2364
(dp2365
g62
(dp2366
sg71
g2253
sg64
(lp2367
g57
(g78
g59
NtRp2368
(dp2369
g62
(dp2370
g82
g83
ssg71
g2364
sg64
(lp2371
g1317
asbag57
(g78
g59
NtRp2372
(dp2373
g62
(dp2374
g89
g90
ssg71
g2364
sg64
(lp2375
S':'
asbag57
(g78
g59
NtRp2376
(dp2377
g62
(dp2378
sg71
g2364
sg64
(lp2379
g57
(g58
g59
NtRp2380
(dp2381
g62
(dp2382
g70
I4
ssg71
g2376
sg64
(lp2383
g100
asbasbasbag57
(g73
g59
NtRp2384
(dp2385
g62
(dp2386
sg71
g2253
sg64
(lp2387
g57
(g78
g59
NtRp2388
(dp2389
g62
(dp2390
g82
g83
ssg71
g2384
sg64
(lp2391
g1338
asbag57
(g78
g59
NtRp2392
(dp2393
g62
(dp2394
g89
g90
ssg71
g2384
sg64
(lp2395
S':'
asbag57
(g78
g59
NtRp2396
(dp2397
g62
(dp2398
sg71
g2384
sg64
(lp2399
g57
(g58
g59
NtRp2400
(dp2401
g62
(dp2402
g70
I4
ssg71
g2396
sg64
(lp2403
g1351
asbasbasbag57
(g73
g59
NtRp2404
(dp2405
g62
(dp2406
sg71
g2253
sg64
(lp2407
g57
(g78
g59
NtRp2408
(dp2409
g62
(dp2410
g82
g83
ssg71
g2404
sg64
(lp2411
g1558
asbag57
(g78
g59
NtRp2412
(dp2413
g62
(dp2414
g89
g90
ssg71
g2404
sg64
(lp2415
S':'
asbag57
(g78
g59
NtRp2416
(dp2417
g62
(dp2418
sg71
g2404
sg64
(lp2419
g57
(g58
g59
NtRp2420
(dp2421
g62
(dp2422
g70
I4
ssg71
g2416
sg64
(lp2423
g100
asbasbasbag57
(g73
g59
NtRp2424
(dp2425
g62
(dp2426
sg71
g2253
sg64
(lp2427
g57
(g78
g59
NtRp2428
(dp2429
g62
(dp2430
g82
g83
ssg71
g2424
sg64
(lp2431
g1579
asbag57
(g78
g59
NtRp2432
(dp2433
g62
(dp2434
g89
g90
ssg71
g2424
sg64
(lp2435
S':'
asbag57
(g78
g59
NtRp2436
(dp2437
g62
(dp2438
sg71
g2424
sg64
(lp2439
g57
(g58
g59
NtRp2440
(dp2441
g62
(dp2442
g70
I4
ssg71
g2436
sg64
(lp2443
g100
asbasbasbag57
(g73
g59
NtRp2444
(dp2445
g62
(dp2446
sg71
g2253
sg64
(lp2447
g57
(g78
g59
NtRp2448
(dp2449
g62
(dp2450
g82
g83
ssg71
g2444
sg64
(lp2451
g1817
asbag57
(g78
g59
NtRp2452
(dp2453
g62
(dp2454
g89
g90
ssg71
g2444
sg64
(lp2455
S':'
asbag57
(g78
g59
NtRp2456
(dp2457
g62
(dp2458
sg71
g2444
sg64
(lp2459
g57
(g58
g59
NtRp2460
(dp2461
g62
(dp2462
g70
I4
ssg71
g2456
sg64
(lp2463
g1830
asbasbasbag57
(g73
g59
NtRp2464
(dp2465
g62
(dp2466
sg71
g2253
sg64
(lp2467
g57
(g78
g59
NtRp2468
(dp2469
g62
(dp2470
g82
g83
ssg71
g2464
sg64
(lp2471
g1860
asbag57
(g78
g59
NtRp2472
(dp2473
g62
(dp2474
g89
g90
ssg71
g2464
sg64
(lp2475
S':'
asbag57
(g78
g59
NtRp2476
(dp2477
g62
(dp2478
sg71
g2464
sg64
(lp2479
g57
(g58
g59
NtRp2480
(dp2481
g62
(dp2482
g70
I4
ssg71
g2476
sg64
(lp2483
g57
(g66
g59
NtRp2484
(dp2485
g62
(dp2486
g70
I3
ssg71
Nsg64
(lp2487
g57
(g73
g59
NtRp2488
(dp2489
g62
(dp2490
sg71
g2484
sg64
(lp2491
g57
(g78
g59
NtRp2492
(dp2493
g62
(dp2494
sg71
g2488
sg64
(lp2495
g57
(g58
g59
NtRp2496
(dp2497
g62
(dp2498
g70
I3
ssg71
g2492
sg64
(lp2499
S'1'
asbasbasbag57
(g73
g59
NtRp2500
(dp2501
g62
(dp2502
sg71
g2484
sg64
(lp2503
g57
(g78
g59
NtRp2504
(dp2505
g62
(dp2506
sg71
g2500
sg64
(lp2507
g57
(g58
g59
NtRp2508
(dp2509
g62
(dp2510
g70
I3
ssg71
g2504
sg64
(lp2511
S'99'
p2512
asbasbasbag57
(g73
g59
NtRp2513
(dp2514
g62
(dp2515
sg71
g2484
sg64
(lp2516
g57
(g78
g59
NtRp2517
(dp2518
g62
(dp2519
sg71
g2513
sg64
(lp2520
g57
(g58
g59
NtRp2521
(dp2522
g62
(dp2523
g70
I3
ssg71
g2517
sg64
(lp2524
S'7'
asbasbasbag57
(g73
g59
NtRp2525
(dp2526
g62
(dp2527
sg71
g2484
sg64
(lp2528
g57
(g78
g59
NtRp2529
(dp2530
g62
(dp2531
sg71
g2525
sg64
(lp2532
g57
(g58
g59
NtRp2533
(dp2534
g62
(dp2535
g70
I3
ssg71
g2529
sg64
(lp2536
S'datetime.datetime(2012, 3, 4, 22, 12, 8)'
p2537
asbasbasbag57
(g73
g59
NtRp2538
(dp2539
g62
(dp2540
sg71
g2484
sg64
(lp2541
g57
(g78
g59
NtRp2542
(dp2543
g62
(dp2544
sg71
g2538
sg64
(lp2545
g57
(g58
g59
NtRp2546
(dp2547
g62
(dp2548
g70
I3
ssg71
g2542
sg64
(lp2549
g1939
asbasbasbasbasbasbasbasbasbasbasbag57
(g73
g59
NtRp2550
(dp2551
g62
(dp2552
sg71
g67
sg64
(lp2553
g57
(g78
g59
NtRp2554
(dp2555
g62
(dp2556
g82
g83
ssg71
g2550
sg64
(lp2557
S'is_https'
p2558
asbag57
(g78
g59
NtRp2559
(dp2560
g62
(dp2561
g89
g90
ssg71
g2550
sg64
(lp2562
S':'
asbag57
(g78
g59
NtRp2563
(dp2564
g62
(dp2565
sg71
g2550
sg64
(lp2566
g57
(g58
g59
NtRp2567
(dp2568
g62
(dp2569
g70
I5
ssg71
g2563
sg64
(lp2570
g100
asbasbasbag57
(g73
g59
NtRp2571
(dp2572
g62
(dp2573
sg71
g67
sg64
(lp2574
g57
(g78
g59
NtRp2575
(dp2576
g62
(dp2577
g82
g83
ssg71
g2571
sg64
(lp2578
S'is_local'
p2579
asbag57
(g78
g59
NtRp2580
(dp2581
g62
(dp2582
g89
g90
ssg71
g2571
sg64
(lp2583
S':'
asbag57
(g78
g59
NtRp2584
(dp2585
g62
(dp2586
sg71
g2571
sg64
(lp2587
g57
(g58
g59
NtRp2588
(dp2589
g62
(dp2590
g70
I5
ssg71
g2584
sg64
(lp2591
g2048
asbasbasbag57
(g73
g59
NtRp2592
(dp2593
g62
(dp2594
sg71
g67
sg64
(lp2595
g57
(g78
g59
NtRp2596
(dp2597
g62
(dp2598
g82
g83
ssg71
g2592
sg64
(lp2599
S'is_restful'
p2600
asbag57
(g78
g59
NtRp2601
(dp2602
g62
(dp2603
g89
g90
ssg71
g2592
sg64
(lp2604
S':'
asbag57
(g78
g59
NtRp2605
(dp2606
g62
(dp2607
sg71
g2592
sg64
(lp2608
g57
(g58
g59
NtRp2609
(dp2610
g62
(dp2611
g70
I5
ssg71
g2605
sg64
(lp2612
g100
asbasbasbag57
(g73
g59
NtRp2613
(dp2614
g62
(dp2615
sg71
g67
sg64
(lp2616
g57
(g78
g59
NtRp2617
(dp2618
g62
(dp2619
g82
g83
ssg71
g2613
sg64
(lp2620
S'now'
p2621
asbag57
(g78
g59
NtRp2622
(dp2623
g62
(dp2624
g89
g90
ssg71
g2613
sg64
(lp2625
S':'
asbag57
(g78
g59
NtRp2626
(dp2627
g62
(dp2628
sg71
g2613
sg64
(lp2629
g57
(g58
g59
NtRp2630
(dp2631
g62
(dp2632
g70
I5
ssg71
g2626
sg64
(lp2633
S'datetime.datetime(2012, 10, 14, 14, 32, 14, 535557)'
p2634
asbasbasbag57
(g73
g59
NtRp2635
(dp2636
g62
(dp2637
sg71
g67
sg64
(lp2638
g57
(g78
g59
NtRp2639
(dp2640
g62
(dp2641
g82
g83
ssg71
g2635
sg64
(lp2642
S'post_vars'
p2643
asbag57
(g78
g59
NtRp2644
(dp2645
g62
(dp2646
g89
g90
ssg71
g2635
sg64
(lp2647
S':'
asbag57
(g78
g59
NtRp2648
(dp2649
g62
(dp2650
sg71
g2635
sg64
(lp2651
g57
(g58
g59
NtRp2652
(dp2653
g62
(dp2654
g70
I5
ssg71
g2648
sg64
(lp2655
g57
(g66
g59
NtRp2656
(dp2657
g62
(dp2658
g70
I4
ssg71
Nsg64
(lp2659
sbasbasbasbag57
(g73
g59
NtRp2660
(dp2661
g62
(dp2662
sg71
g67
sg64
(lp2663
g57
(g78
g59
NtRp2664
(dp2665
g62
(dp2666
g82
g83
ssg71
g2660
sg64
(lp2667
S'url'
p2668
asbag57
(g78
g59
NtRp2669
(dp2670
g62
(dp2671
g89
g90
ssg71
g2660
sg64
(lp2672
S':'
asbag57
(g78
g59
NtRp2673
(dp2674
g62
(dp2675
sg71
g2660
sg64
(lp2676
g57
(g58
g59
NtRp2677
(dp2678
g62
(dp2679
g70
I5
ssg71
g2673
sg64
(lp2680
S'/project/default/kruskal'
p2681
asbasbasbag57
(g73
g59
NtRp2682
(dp2683
g62
(dp2684
sg71
g67
sg64
(lp2685
g57
(g78
g59
NtRp2686
(dp2687
g62
(dp2688
g82
g83
ssg71
g2682
sg64
(lp2689
S'utcnow'
p2690
asbag57
(g78
g59
NtRp2691
(dp2692
g62
(dp2693
g89
g90
ssg71
g2682
sg64
(lp2694
S':'
asbag57
(g78
g59
NtRp2695
(dp2696
g62
(dp2697
sg71
g2682
sg64
(lp2698
g57
(g58
g59
NtRp2699
(dp2700
g62
(dp2701
g70
I5
ssg71
g2695
sg64
(lp2702
S'datetime.datetime(2012, 10, 14, 9, 2, 14, 535611)'
p2703
asbasbasbag57
(g73
g59
NtRp2704
(dp2705
g62
(dp2706
sg71
g67
sg64
(lp2707
g57
(g78
g59
NtRp2708
(dp2709
g62
(dp2710
g82
g83
ssg71
g2704
sg64
(lp2711
S'uuid'
p2712
asbag57
(g78
g59
NtRp2713
(dp2714
g62
(dp2715
g89
g90
ssg71
g2704
sg64
(lp2716
S':'
asbag57
(g78
g59
NtRp2717
(dp2718
g62
(dp2719
sg71
g2704
sg64
(lp2720
g57
(g58
g59
NtRp2721
(dp2722
g62
(dp2723
g70
I5
ssg71
g2717
sg64
(lp2724
S'project/127.0.0.1.2012-10-14.14-32-14.958c954e-ebc3-46bf-b153-ff6fa77609e4'
p2725
asbasbasbag57
(g73
g59
NtRp2726
(dp2727
g62
(dp2728
sg71
g67
sg64
(lp2729
g57
(g78
g59
NtRp2730
(dp2731
g62
(dp2732
g82
g83
ssg71
g2726
sg64
(lp2733
S'vars'
p2734
asbag57
(g78
g59
NtRp2735
(dp2736
g62
(dp2737
g89
g90
ssg71
g2726
sg64
(lp2738
S':'
asbag57
(g78
g59
NtRp2739
(dp2740
g62
(dp2741
sg71
g2726
sg64
(lp2742
g57
(g58
g59
NtRp2743
(dp2744
g62
(dp2745
g70
I5
ssg71
g2739
sg64
(lp2746
g57
(g66
g59
NtRp2747
(dp2748
g62
(dp2749
g70
I4
ssg71
Nsg64
(lp2750
sbasbasbasbag57
(g73
g59
NtRp2751
(dp2752
g62
(dp2753
sg71
g67
sg64
(lp2754
g57
(g78
g59
NtRp2755
(dp2756
g62
(dp2757
g82
g83
ssg71
g2751
sg64
(lp2758
S'wsgi'
p2759
asbag57
(g78
g59
NtRp2760
(dp2761
g62
(dp2762
g89
g90
ssg71
g2751
sg64
(lp2763
S':'
asbag57
(g78
g59
NtRp2764
(dp2765
g62
(dp2766
sg71
g2751
sg64
(lp2767
g57
(g58
g59
NtRp2768
(dp2769
g62
(dp2770
g70
I5
ssg71
g2764
sg64
(lp2771
g57
(g66
g59
NtRp2772
(dp2773
g62
(dp2774
g70
I4
ssg71
Nsg64
(lp2775
g57
(g73
g59
NtRp2776
(dp2777
g62
(dp2778
sg71
g2772
sg64
(lp2779
g57
(g78
g59
NtRp2780
(dp2781
g62
(dp2782
g82
g83
ssg71
g2776
sg64
(lp2783
S'environ'
p2784
asbag57
(g78
g59
NtRp2785
(dp2786
g62
(dp2787
g89
g90
ssg71
g2776
sg64
(lp2788
S':'
asbag57
(g78
g59
NtRp2789
(dp2790
g62
(dp2791
sg71
g2776
sg64
(lp2792
g57
(g58
g59
NtRp2793
(dp2794
g62
(dp2795
g70
I4
ssg71
g2789
sg64
(lp2796
g57
(g66
g59
NtRp2797
(dp2798
g62
(dp2799
g70
I3
ssg71
Nsg64
(lp2800
g57
(g73
g59
NtRp2801
(dp2802
g62
(dp2803
sg71
g2797
sg64
(lp2804
g57
(g78
g59
NtRp2805
(dp2806
g62
(dp2807
g82
g83
ssg71
g2801
sg64
(lp2808
S'HTTP_ACCEPT'
p2809
asbag57
(g78
g59
NtRp2810
(dp2811
g62
(dp2812
g89
g90
ssg71
g2801
sg64
(lp2813
S':'
asbag57
(g78
g59
NtRp2814
(dp2815
g62
(dp2816
sg71
g2801
sg64
(lp2817
g57
(g58
g59
NtRp2818
(dp2819
g62
(dp2820
g70
I3
ssg71
g2814
sg64
(lp2821
g1373
asbasbasbag57
(g73
g59
NtRp2822
(dp2823
g62
(dp2824
sg71
g2797
sg64
(lp2825
g57
(g78
g59
NtRp2826
(dp2827
g62
(dp2828
g82
g83
ssg71
g2822
sg64
(lp2829
S'HTTP_ACCEPT_CHARSET'
p2830
asbag57
(g78
g59
NtRp2831
(dp2832
g62
(dp2833
g89
g90
ssg71
g2822
sg64
(lp2834
S':'
asbag57
(g78
g59
NtRp2835
(dp2836
g62
(dp2837
sg71
g2822
sg64
(lp2838
g57
(g58
g59
NtRp2839
(dp2840
g62
(dp2841
g70
I3
ssg71
g2835
sg64
(lp2842
g1395
asbasbasbag57
(g73
g59
NtRp2843
(dp2844
g62
(dp2845
sg71
g2797
sg64
(lp2846
g57
(g78
g59
NtRp2847
(dp2848
g62
(dp2849
g82
g83
ssg71
g2843
sg64
(lp2850
S'HTTP_ACCEPT_ENCODING'
p2851
asbag57
(g78
g59
NtRp2852
(dp2853
g62
(dp2854
g89
g90
ssg71
g2843
sg64
(lp2855
S':'
asbag57
(g78
g59
NtRp2856
(dp2857
g62
(dp2858
sg71
g2843
sg64
(lp2859
g57
(g58
g59
NtRp2860
(dp2861
g62
(dp2862
g70
I3
ssg71
g2856
sg64
(lp2863
g1417
asbasbasbag57
(g73
g59
NtRp2864
(dp2865
g62
(dp2866
sg71
g2797
sg64
(lp2867
g57
(g78
g59
NtRp2868
(dp2869
g62
(dp2870
g82
g83
ssg71
g2864
sg64
(lp2871
S'HTTP_ACCEPT_LANGUAGE'
p2872
asbag57
(g78
g59
NtRp2873
(dp2874
g62
(dp2875
g89
g90
ssg71
g2864
sg64
(lp2876
S':'
asbag57
(g78
g59
NtRp2877
(dp2878
g62
(dp2879
sg71
g2864
sg64
(lp2880
g57
(g58
g59
NtRp2881
(dp2882
g62
(dp2883
g70
I3
ssg71
g2877
sg64
(lp2884
g1439
asbasbasbag57
(g73
g59
NtRp2885
(dp2886
g62
(dp2887
sg71
g2797
sg64
(lp2888
g57
(g78
g59
NtRp2889
(dp2890
g62
(dp2891
g82
g83
ssg71
g2885
sg64
(lp2892
S'HTTP_CONNECTION'
p2893
asbag57
(g78
g59
NtRp2894
(dp2895
g62
(dp2896
g89
g90
ssg71
g2885
sg64
(lp2897
S':'
asbag57
(g78
g59
NtRp2898
(dp2899
g62
(dp2900
sg71
g2885
sg64
(lp2901
g57
(g58
g59
NtRp2902
(dp2903
g62
(dp2904
g70
I3
ssg71
g2898
sg64
(lp2905
g1461
asbasbasbag57
(g73
g59
NtRp2906
(dp2907
g62
(dp2908
sg71
g2797
sg64
(lp2909
g57
(g78
g59
NtRp2910
(dp2911
g62
(dp2912
g82
g83
ssg71
g2906
sg64
(lp2913
S'HTTP_COOKIE'
p2914
asbag57
(g78
g59
NtRp2915
(dp2916
g62
(dp2917
g89
g90
ssg71
g2906
sg64
(lp2918
S':'
asbag57
(g78
g59
NtRp2919
(dp2920
g62
(dp2921
sg71
g2906
sg64
(lp2922
g57
(g58
g59
NtRp2923
(dp2924
g62
(dp2925
g70
I3
ssg71
g2919
sg64
(lp2926
g1483
asbasbasbag57
(g73
g59
NtRp2927
(dp2928
g62
(dp2929
sg71
g2797
sg64
(lp2930
g57
(g78
g59
NtRp2931
(dp2932
g62
(dp2933
g82
g83
ssg71
g2927
sg64
(lp2934
S'HTTP_HOST'
p2935
asbag57
(g78
g59
NtRp2936
(dp2937
g62
(dp2938
g89
g90
ssg71
g2927
sg64
(lp2939
S':'
asbag57
(g78
g59
NtRp2940
(dp2941
g62
(dp2942
sg71
g2927
sg64
(lp2943
g57
(g58
g59
NtRp2944
(dp2945
g62
(dp2946
g70
I3
ssg71
g2940
sg64
(lp2947
g1505
asbasbasbag57
(g73
g59
NtRp2948
(dp2949
g62
(dp2950
sg71
g2797
sg64
(lp2951
g57
(g78
g59
NtRp2952
(dp2953
g62
(dp2954
g82
g83
ssg71
g2948
sg64
(lp2955
S'HTTP_REFERER'
p2956
asbag57
(g78
g59
NtRp2957
(dp2958
g62
(dp2959
g89
g90
ssg71
g2948
sg64
(lp2960
S':'
asbag57
(g78
g59
NtRp2961
(dp2962
g62
(dp2963
sg71
g2948
sg64
(lp2964
g57
(g58
g59
NtRp2965
(dp2966
g62
(dp2967
g70
I3
ssg71
g2961
sg64
(lp2968
g1527
asbasbasbag57
(g73
g59
NtRp2969
(dp2970
g62
(dp2971
sg71
g2797
sg64
(lp2972
g57
(g78
g59
NtRp2973
(dp2974
g62
(dp2975
g82
g83
ssg71
g2969
sg64
(lp2976
S'HTTP_USER_AGENT'
p2977
asbag57
(g78
g59
NtRp2978
(dp2979
g62
(dp2980
g89
g90
ssg71
g2969
sg64
(lp2981
S':'
asbag57
(g78
g59
NtRp2982
(dp2983
g62
(dp2984
sg71
g2969
sg64
(lp2985
g57
(g58
g59
NtRp2986
(dp2987
g62
(dp2988
g70
I3
ssg71
g2982
sg64
(lp2989
g1549
asbasbasbag57
(g73
g59
NtRp2990
(dp2991
g62
(dp2992
sg71
g2797
sg64
(lp2993
g57
(g78
g59
NtRp2994
(dp2995
g62
(dp2996
g82
g83
ssg71
g2990
sg64
(lp2997
S'PATH_INFO'
p2998
asbag57
(g78
g59
NtRp2999
(dp3000
g62
(dp3001
g89
g90
ssg71
g2990
sg64
(lp3002
S':'
asbag57
(g78
g59
NtRp3003
(dp3004
g62
(dp3005
sg71
g2990
sg64
(lp3006
g57
(g58
g59
NtRp3007
(dp3008
g62
(dp3009
g70
I3
ssg71
g3003
sg64
(lp3010
g1613
asbasbasbag57
(g73
g59
NtRp3011
(dp3012
g62
(dp3013
sg71
g2797
sg64
(lp3014
g57
(g78
g59
NtRp3015
(dp3016
g62
(dp3017
g82
g83
ssg71
g3011
sg64
(lp3018
S'QUERY_STRING'
p3019
asbag57
(g78
g59
NtRp3020
(dp3021
g62
(dp3022
g89
g90
ssg71
g3011
sg64
(lp3023
S':'
asbag57
(g78
g59
NtRp3024
(dp3025
g62
(dp3026
sg71
g3011
sg64
(lp3027
g57
(g58
g59
NtRp3028
(dp3029
g62
(dp3030
g70
I3
ssg71
g3024
sg64
(lp3031
S''
asbasbasbag57
(g73
g59
NtRp3032
(dp3033
g62
(dp3034
sg71
g2797
sg64
(lp3035
g57
(g78
g59
NtRp3036
(dp3037
g62
(dp3038
g82
g83
ssg71
g3032
sg64
(lp3039
S'REMOTE_ADDR'
p3040
asbag57
(g78
g59
NtRp3041
(dp3042
g62
(dp3043
g89
g90
ssg71
g3032
sg64
(lp3044
S':'
asbag57
(g78
g59
NtRp3045
(dp3046
g62
(dp3047
sg71
g3032
sg64
(lp3048
g57
(g58
g59
NtRp3049
(dp3050
g62
(dp3051
g70
I3
ssg71
g3045
sg64
(lp3052
g190
asbasbasbag57
(g73
g59
NtRp3053
(dp3054
g62
(dp3055
sg71
g2797
sg64
(lp3056
g57
(g78
g59
NtRp3057
(dp3058
g62
(dp3059
g82
g83
ssg71
g3053
sg64
(lp3060
S'REMOTE_PORT'
p3061
asbag57
(g78
g59
NtRp3062
(dp3063
g62
(dp3064
g89
g90
ssg71
g3053
sg64
(lp3065
S':'
asbag57
(g78
g59
NtRp3066
(dp3067
g62
(dp3068
sg71
g3053
sg64
(lp3069
g57
(g58
g59
NtRp3070
(dp3071
g62
(dp3072
g70
I3
ssg71
g3066
sg64
(lp3073
g1677
asbasbasbag57
(g73
g59
NtRp3074
(dp3075
g62
(dp3076
sg71
g2797
sg64
(lp3077
g57
(g78
g59
NtRp3078
(dp3079
g62
(dp3080
g82
g83
ssg71
g3074
sg64
(lp3081
S'REQUEST_METHOD'
p3082
asbag57
(g78
g59
NtRp3083
(dp3084
g62
(dp3085
g89
g90
ssg71
g3074
sg64
(lp3086
S':'
asbag57
(g78
g59
NtRp3087
(dp3088
g62
(dp3089
sg71
g3074
sg64
(lp3090
g57
(g58
g59
NtRp3091
(dp3092
g62
(dp3093
g70
I3
ssg71
g3087
sg64
(lp3094
g1699
asbasbasbag57
(g73
g59
NtRp3095
(dp3096
g62
(dp3097
sg71
g2797
sg64
(lp3098
g57
(g78
g59
NtRp3099
(dp3100
g62
(dp3101
g82
g83
ssg71
g3095
sg64
(lp3102
S'SCRIPT_NAME'
p3103
asbag57
(g78
g59
NtRp3104
(dp3105
g62
(dp3106
g89
g90
ssg71
g3095
sg64
(lp3107
S':'
asbag57
(g78
g59
NtRp3108
(dp3109
g62
(dp3110
sg71
g3095
sg64
(lp3111
g57
(g58
g59
NtRp3112
(dp3113
g62
(dp3114
g70
I3
ssg71
g3108
sg64
(lp3115
S''
asbasbasbag57
(g73
g59
NtRp3116
(dp3117
g62
(dp3118
sg71
g2797
sg64
(lp3119
g57
(g78
g59
NtRp3120
(dp3121
g62
(dp3122
g82
g83
ssg71
g3116
sg64
(lp3123
S'SERVER_NAME'
p3124
asbag57
(g78
g59
NtRp3125
(dp3126
g62
(dp3127
g89
g90
ssg71
g3116
sg64
(lp3128
S':'
asbag57
(g78
g59
NtRp3129
(dp3130
g62
(dp3131
sg71
g3116
sg64
(lp3132
g57
(g58
g59
NtRp3133
(dp3134
g62
(dp3135
g70
I3
ssg71
g3129
sg64
(lp3136
g1742
asbasbasbag57
(g73
g59
NtRp3137
(dp3138
g62
(dp3139
sg71
g2797
sg64
(lp3140
g57
(g78
g59
NtRp3141
(dp3142
g62
(dp3143
g82
g83
ssg71
g3137
sg64
(lp3144
S'SERVER_PORT'
p3145
asbag57
(g78
g59
NtRp3146
(dp3147
g62
(dp3148
g89
g90
ssg71
g3137
sg64
(lp3149
S':'
asbag57
(g78
g59
NtRp3150
(dp3151
g62
(dp3152
sg71
g3137
sg64
(lp3153
g57
(g58
g59
NtRp3154
(dp3155
g62
(dp3156
g70
I3
ssg71
g3150
sg64
(lp3157
g1764
asbasbasbag57
(g73
g59
NtRp3158
(dp3159
g62
(dp3160
sg71
g2797
sg64
(lp3161
g57
(g78
g59
NtRp3162
(dp3163
g62
(dp3164
g82
g83
ssg71
g3158
sg64
(lp3165
S'SERVER_PROTOCOL'
p3166
asbag57
(g78
g59
NtRp3167
(dp3168
g62
(dp3169
g89
g90
ssg71
g3158
sg64
(lp3170
S':'
asbag57
(g78
g59
NtRp3171
(dp3172
g62
(dp3173
sg71
g3158
sg64
(lp3174
g57
(g58
g59
NtRp3175
(dp3176
g62
(dp3177
g70
I3
ssg71
g3171
sg64
(lp3178
g1786
asbasbasbag57
(g73
g59
NtRp3179
(dp3180
g62
(dp3181
sg71
g2797
sg64
(lp3182
g57
(g78
g59
NtRp3183
(dp3184
g62
(dp3185
g82
g83
ssg71
g3179
sg64
(lp3186
S'SERVER_SOFTWARE'
p3187
asbag57
(g78
g59
NtRp3188
(dp3189
g62
(dp3190
g89
g90
ssg71
g3179
sg64
(lp3191
S':'
asbag57
(g78
g59
NtRp3192
(dp3193
g62
(dp3194
sg71
g3179
sg64
(lp3195
g57
(g58
g59
NtRp3196
(dp3197
g62
(dp3198
g70
I3
ssg71
g3192
sg64
(lp3199
g1808
asbasbasbag57
(g73
g59
NtRp3200
(dp3201
g62
(dp3202
sg71
g2797
sg64
(lp3203
g57
(g78
g59
NtRp3204
(dp3205
g62
(dp3206
g82
g83
ssg71
g3200
sg64
(lp3207
S'wsgi.errors'
p3208
asbag57
(g78
g59
NtRp3209
(dp3210
g62
(dp3211
g89
g90
ssg71
g3200
sg64
(lp3212
S':'
asbag57
(g78
g59
NtRp3213
(dp3214
g62
(dp3215
sg71
g3200
sg64
(lp3216
g57
(g58
g59
NtRp3217
(dp3218
g62
(dp3219
g70
I3
ssg71
g3213
sg64
(lp3220
S"<open file '<stderr>', mode 'w' at 0xb733e0d0>"
p3221
asbasbasbag57
(g73
g59
NtRp3222
(dp3223
g62
(dp3224
sg71
g2797
sg64
(lp3225
g57
(g78
g59
NtRp3226
(dp3227
g62
(dp3228
g82
g83
ssg71
g3222
sg64
(lp3229
S'wsgi.file_wrapper'
p3230
asbag57
(g78
g59
NtRp3231
(dp3232
g62
(dp3233
g89
g90
ssg71
g3222
sg64
(lp3234
S':'
asbag57
(g78
g59
NtRp3235
(dp3236
g62
(dp3237
sg71
g3222
sg64
(lp3238
g57
(g58
g59
NtRp3239
(dp3240
g62
(dp3241
g70
I3
ssg71
g3235
sg64
(lp3242
S'<class wsgiref.util.FileWrapper at 0x910cf5c>'
p3243
asbasbasbag57
(g73
g59
NtRp3244
(dp3245
g62
(dp3246
sg71
g2797
sg64
(lp3247
g57
(g78
g59
NtRp3248
(dp3249
g62
(dp3250
g82
g83
ssg71
g3244
sg64
(lp3251
S'wsgi.input'
p3252
asbag57
(g78
g59
NtRp3253
(dp3254
g62
(dp3255
g89
g90
ssg71
g3244
sg64
(lp3256
S':'
asbag57
(g78
g59
NtRp3257
(dp3258
g62
(dp3259
sg71
g3244
sg64
(lp3260
g57
(g58
g59
NtRp3261
(dp3262
g62
(dp3263
g70
I3
ssg71
g3257
sg64
(lp3264
S'<cStringIO.StringO object at 0x9803ac0>'
p3265
asbasbasbag57
(g73
g59
NtRp3266
(dp3267
g62
(dp3268
sg71
g2797
sg64
(lp3269
g57
(g78
g59
NtRp3270
(dp3271
g62
(dp3272
g82
g83
ssg71
g3266
sg64
(lp3273
S'wsgi.multiprocess'
p3274
asbag57
(g78
g59
NtRp3275
(dp3276
g62
(dp3277
g89
g90
ssg71
g3266
sg64
(lp3278
S':'
asbag57
(g78
g59
NtRp3279
(dp3280
g62
(dp3281
sg71
g3266
sg64
(lp3282
g57
(g58
g59
NtRp3283
(dp3284
g62
(dp3285
g70
I3
ssg71
g3279
sg64
(lp3286
g100
asbasbasbag57
(g73
g59
NtRp3287
(dp3288
g62
(dp3289
sg71
g2797
sg64
(lp3290
g57
(g78
g59
NtRp3291
(dp3292
g62
(dp3293
g82
g83
ssg71
g3287
sg64
(lp3294
S'wsgi.multithread'
p3295
asbag57
(g78
g59
NtRp3296
(dp3297
g62
(dp3298
g89
g90
ssg71
g3287
sg64
(lp3299
S':'
asbag57
(g78
g59
NtRp3300
(dp3301
g62
(dp3302
sg71
g3287
sg64
(lp3303
g57
(g58
g59
NtRp3304
(dp3305
g62
(dp3306
g70
I3
ssg71
g3300
sg64
(lp3307
g2048
asbasbasbag57
(g73
g59
NtRp3308
(dp3309
g62
(dp3310
sg71
g2797
sg64
(lp3311
g57
(g78
g59
NtRp3312
(dp3313
g62
(dp3314
g82
g83
ssg71
g3308
sg64
(lp3315
S'wsgi.run_once'
p3316
asbag57
(g78
g59
NtRp3317
(dp3318
g62
(dp3319
g89
g90
ssg71
g3308
sg64
(lp3320
S':'
asbag57
(g78
g59
NtRp3321
(dp3322
g62
(dp3323
sg71
g3308
sg64
(lp3324
g57
(g58
g59
NtRp3325
(dp3326
g62
(dp3327
g70
I3
ssg71
g3321
sg64
(lp3328
g100
asbasbasbag57
(g73
g59
NtRp3329
(dp3330
g62
(dp3331
sg71
g2797
sg64
(lp3332
g57
(g78
g59
NtRp3333
(dp3334
g62
(dp3335
g82
g83
ssg71
g3329
sg64
(lp3336
S'wsgi.url_scheme'
p3337
asbag57
(g78
g59
NtRp3338
(dp3339
g62
(dp3340
g89
g90
ssg71
g3329
sg64
(lp3341
S':'
asbag57
(g78
g59
NtRp3342
(dp3343
g62
(dp3344
sg71
g3329
sg64
(lp3345
g57
(g58
g59
NtRp3346
(dp3347
g62
(dp3348
g70
I3
ssg71
g3342
sg64
(lp3349
g2091
asbasbasbag57
(g73
g59
NtRp3350
(dp3351
g62
(dp3352
sg71
g2797
sg64
(lp3353
g57
(g78
g59
NtRp3354
(dp3355
g62
(dp3356
g82
g83
ssg71
g3350
sg64
(lp3357
S'wsgi.version'
p3358
asbag57
(g78
g59
NtRp3359
(dp3360
g62
(dp3361
g89
g90
ssg71
g3350
sg64
(lp3362
S':'
asbag57
(g78
g59
NtRp3363
(dp3364
g62
(dp3365
sg71
g3350
sg64
(lp3366
g57
(g58
g59
NtRp3367
(dp3368
g62
(dp3369
g70
I3
ssg71
g3363
sg64
(lp3370
S'1'
asbasbasbasbasbasbasbasbasbasbasbasbasbsS'frames'
p3371
(lp3372
(dp3373
S'file'
p3374
S'/home/arpita/courses/sem3/ssad/web2py/gluon/restricted.py'
p3375
sS'dump'
p3376
(dp3377
S'environment'
p3378
S"{'A': <class 'gluon.html.A'>, 'Auth': <class 'gluon.tools.Auth'>, 'B': <class 'gluon.html.B'>, 'BEAUTIFY': <class 'gluon.html.BEAUTIFY'>, 'BODY': <class 'gluon.html.BODY'>, 'BR': <class 'gluon.html.BR'>, 'BUTTON': <class 'gluon.html.BUTTON'>, 'CAT': <class 'gluon.html.CAT'>, 'CENTER': <class 'gluon.html.CENTER'>, 'CLEANUP': <class 'gluon.validators.CLEANUP'>, ...}"
p3379
sS'ccode'
p3380
S'<code object <module> at 0x9a31800, file "/home/...cations/project/controllers/default.py", line 12>'
p3381
ssS'lnum'
p3382
I205
sS'lines'
p3383
(dp3384
I200
S'    try:'
p3385
sI201
S'        if type(code) == types.CodeType:'
p3386
sI202
S'            ccode = code'
p3387
sI203
S'        else:'
p3388
sI204
S'            ccode = compile2(code,layer)'
p3389
sI205
S'        exec ccode in environment'
p3390
sI206
S'    except HTTP:'
p3391
sI207
S'        raise'
p3392
sI208
S'    except RestrictedError:'
p3393
sI209
S'        # do not encapsulate (obfuscate) the original RestrictedError'
p3394
ssS'call'
p3395
S"(code='# -*- coding: utf-8 -*-\\n# this file is released ...i,c=c)\\n\\nresponse._vars=response._caller(kruskal)\\n', environment={'A': <class 'gluon.html.A'>, 'Auth': <class 'gluon.tools.Auth'>, 'B': <class 'gluon.html.B'>, 'BEAUTIFY': <class 'gluon.html.BEAUTIFY'>, 'BODY': <class 'gluon.html.BODY'>, 'BR': <class 'gluon.html.BR'>, 'BUTTON': <class 'gluon.html.BUTTON'>, 'CAT': <class 'gluon.html.CAT'>, 'CENTER': <class 'gluon.html.CENTER'>, 'CLEANUP': <class 'gluon.validators.CLEANUP'>, ...}, layer='/home/arpita/courses/sem3/ssad/web2py/applications/project/controllers/default.py')"
p3396
sS'func'
p3397
S'restricted'
p3398
sa(dp3399
g3374
S'/home/arpita/courses/sem3/ssad/web2py/applications/project/controllers/default.py'
p3400
sg3376
(dp3401
sg3382
I145
sg3383
(dp3402
I134
S'                                                        rep[k]=rep[e1]'
p3403
sI135
S'                                                        rep[e2]=rep[e1]'
p3404
sI136
S''
sI137
S'                    else:'
p3405
sI138
S'                        vis[i][j]=1'
p3406
sI139
S'        cou=0'
p3407
sI140
S'        for k in xrange(counts+1):'
p3408
sI141
S'            if rep[k]==rep[1]:'
p3409
sI142
S'                    cou=cou+1'
p3410
sI143
S'    return dict(lis=lis,i=i,c=c)'
p3411
ssg3395
S'()'
p3412
sg3397
S'<module>'
p3413
sa(dp3414
g3374
S'/home/arpita/courses/sem3/ssad/web2py/gluon/globals.py'
p3415
sg3376
(dp3416
S'self'
p3417
S'undefined'
p3418
sS'f'
S'<function kruskal>'
p3419
ssg3382
I173
sg3383
(dp3420
I168
S'        self.menu = []             # used by the default view layout'
p3421
sI169
S'        self.files = []            # used by web2py_ajax.html'
p3422
sI170
S'        self.generic_patterns = [] # patterns to allow generic views'
p3423
sI171
S"        self.delimiters = ('{{','}}')"
p3424
sI172
S'        self._vars = None'
p3425
sI173
S'        self._caller = lambda f: f()'
p3426
sI174
S'        self._view_environment = None'
p3427
sI175
S'        self._custom_commit = None'
p3428
sI176
S'        self._custom_rollback = None'
p3429
sI177
S''
ssg3395
S'(f=<function kruskal>)'
p3430
sg3397
S'<lambda>'
p3431
sa(dp3432
g3374
S'/home/arpita/courses/sem3/ssad/web2py/applications/project/controllers/default.py'
p3433
sg3376
(dp3434
S'global rep'
p3435
S'[0, 1, 2, 3]'
p3436
sS'k'
S'0'
sS'e2'
p3437
g3418
ssg3382
I133
sg3383
(dp3438
I128
S'                                                if rep[k]==rep[e1] and k!=e1:'
p3439
sI129
S'                                                    rep[k]=rep[e2]'
p3440
sI130
S'                                                    rep[e1]=rep[e2]'
p3441
sI131
S'                                        else:'
p3442
sI132
S'                                            for k in xrange(counts+1):'
p3443
sI133
S'                                                   if rep[k]==rep[e2] and k!=e2:'
p3444
sI134
S'                                                        rep[k]=rep[e1]'
p3445
sI135
S'                                                        rep[e2]=rep[e1]'
p3446
sI136
S''
sI137
S'                    else:'
p3447
ssg3395
S'()'
p3448
sg3397
S'kruskal'
p3449
sasS'pyver'
p3450
S'Python 2.7.2+: /usr/bin/python'
p3451
sS'session'
p3452
g57
(g58
g59
NtRp3453
(dp3454
g62
(dp3455
sg64
(lp3456
g57
(g66
g59
NtRp3457
(dp3458
g62
(dp3459
g70
I5
ssg71
Nsg64
(lp3460
g57
(g73
g59
NtRp3461
(dp3462
g62
(dp3463
sg71
g3457
sg64
(lp3464
g57
(g78
g59
NtRp3465
(dp3466
g62
(dp3467
g82
g83
ssg71
g3461
sg64
(lp3468
S'auth'
p3469
asbag57
(g78
g59
NtRp3470
(dp3471
g62
(dp3472
g89
g90
ssg71
g3461
sg64
(lp3473
S':'
asbag57
(g78
g59
NtRp3474
(dp3475
g62
(dp3476
sg71
g3461
sg64
(lp3477
g57
(g58
g59
NtRp3478
(dp3479
g62
(dp3480
g70
I5
ssg71
g3474
sg64
(lp3481
g57
(g66
g59
NtRp3482
(dp3483
g62
(dp3484
g70
I4
ssg71
Nsg64
(lp3485
g57
(g73
g59
NtRp3486
(dp3487
g62
(dp3488
sg71
g3482
sg64
(lp3489
g57
(g78
g59
NtRp3490
(dp3491
g62
(dp3492
g82
g83
ssg71
g3486
sg64
(lp3493
S'expiration'
p3494
asbag57
(g78
g59
NtRp3495
(dp3496
g62
(dp3497
g89
g90
ssg71
g3486
sg64
(lp3498
S':'
asbag57
(g78
g59
NtRp3499
(dp3500
g62
(dp3501
sg71
g3486
sg64
(lp3502
g57
(g58
g59
NtRp3503
(dp3504
g62
(dp3505
g70
I4
ssg71
g3499
sg64
(lp3506
S'3600'
p3507
asbasbasbag57
(g73
g59
NtRp3508
(dp3509
g62
(dp3510
sg71
g3482
sg64
(lp3511
g57
(g78
g59
NtRp3512
(dp3513
g62
(dp3514
g82
g83
ssg71
g3508
sg64
(lp3515
S'hmac_key'
p3516
asbag57
(g78
g59
NtRp3517
(dp3518
g62
(dp3519
g89
g90
ssg71
g3508
sg64
(lp3520
S':'
asbag57
(g78
g59
NtRp3521
(dp3522
g62
(dp3523
sg71
g3508
sg64
(lp3524
g57
(g58
g59
NtRp3525
(dp3526
g62
(dp3527
g70
I4
ssg71
g3521
sg64
(lp3528
S'932c27c2-5cf0-427e-8882-0bc7f751d123'
p3529
asbasbasbag57
(g73
g59
NtRp3530
(dp3531
g62
(dp3532
sg71
g3482
sg64
(lp3533
g57
(g78
g59
NtRp3534
(dp3535
g62
(dp3536
g82
g83
ssg71
g3530
sg64
(lp3537
S'last_visit'
p3538
asbag57
(g78
g59
NtRp3539
(dp3540
g62
(dp3541
g89
g90
ssg71
g3530
sg64
(lp3542
S':'
asbag57
(g78
g59
NtRp3543
(dp3544
g62
(dp3545
sg71
g3530
sg64
(lp3546
g57
(g58
g59
NtRp3547
(dp3548
g62
(dp3549
g70
I4
ssg71
g3543
sg64
(lp3550
S'datetime.datetime(2012, 10, 14, 14, 32, 2, 523364)'
p3551
asbasbasbag57
(g73
g59
NtRp3552
(dp3553
g62
(dp3554
sg71
g3482
sg64
(lp3555
g57
(g78
g59
NtRp3556
(dp3557
g62
(dp3558
g82
g83
ssg71
g3552
sg64
(lp3559
S'remember'
p3560
asbag57
(g78
g59
NtRp3561
(dp3562
g62
(dp3563
g89
g90
ssg71
g3552
sg64
(lp3564
S':'
asbag57
(g78
g59
NtRp3565
(dp3566
g62
(dp3567
sg71
g3552
sg64
(lp3568
g57
(g58
g59
NtRp3569
(dp3570
g62
(dp3571
g70
I4
ssg71
g3565
sg64
(lp3572
g100
asbasbasbag57
(g73
g59
NtRp3573
(dp3574
g62
(dp3575
sg71
g3482
sg64
(lp3576
g57
(g78
g59
NtRp3577
(dp3578
g62
(dp3579
g82
g83
ssg71
g3573
sg64
(lp3580
S'user'
p3581
asbag57
(g78
g59
NtRp3582
(dp3583
g62
(dp3584
g89
g90
ssg71
g3573
sg64
(lp3585
S':'
asbag57
(g78
g59
NtRp3586
(dp3587
g62
(dp3588
sg71
g3573
sg64
(lp3589
g57
(g58
g59
NtRp3590
(dp3591
g62
(dp3592
g70
I4
ssg71
g3586
sg64
(lp3593
g57
(g66
g59
NtRp3594
(dp3595
g62
(dp3596
g70
I3
ssg71
Nsg64
(lp3597
g57
(g73
g59
NtRp3598
(dp3599
g62
(dp3600
sg71
g3594
sg64
(lp3601
g57
(g78
g59
NtRp3602
(dp3603
g62
(dp3604
g82
g83
ssg71
g3598
sg64
(lp3605
S'email'
p3606
asbag57
(g78
g59
NtRp3607
(dp3608
g62
(dp3609
g89
g90
ssg71
g3598
sg64
(lp3610
S':'
asbag57
(g78
g59
NtRp3611
(dp3612
g62
(dp3613
sg71
g3598
sg64
(lp3614
g57
(g58
g59
NtRp3615
(dp3616
g62
(dp3617
g70
I3
ssg71
g3611
sg64
(lp3618
S'rammurthy@faculty.iiit.ac.in'
p3619
asbasbasbag57
(g73
g59
NtRp3620
(dp3621
g62
(dp3622
sg71
g3594
sg64
(lp3623
g57
(g78
g59
NtRp3624
(dp3625
g62
(dp3626
g82
g83
ssg71
g3620
sg64
(lp3627
S'first_name'
p3628
asbag57
(g78
g59
NtRp3629
(dp3630
g62
(dp3631
g89
g90
ssg71
g3620
sg64
(lp3632
S':'
asbag57
(g78
g59
NtRp3633
(dp3634
g62
(dp3635
sg71
g3620
sg64
(lp3636
g57
(g58
g59
NtRp3637
(dp3638
g62
(dp3639
g70
I3
ssg71
g3633
sg64
(lp3640
S'rammurthy'
p3641
asbasbasbag57
(g73
g59
NtRp3642
(dp3643
g62
(dp3644
sg71
g3594
sg64
(lp3645
g57
(g78
g59
NtRp3646
(dp3647
g62
(dp3648
g82
g83
ssg71
g3642
sg64
(lp3649
S'id'
p3650
asbag57
(g78
g59
NtRp3651
(dp3652
g62
(dp3653
g89
g90
ssg71
g3642
sg64
(lp3654
S':'
asbag57
(g78
g59
NtRp3655
(dp3656
g62
(dp3657
sg71
g3642
sg64
(lp3658
g57
(g58
g59
NtRp3659
(dp3660
g62
(dp3661
g70
I3
ssg71
g3655
sg64
(lp3662
S'1'
asbasbasbag57
(g73
g59
NtRp3663
(dp3664
g62
(dp3665
sg71
g3594
sg64
(lp3666
g57
(g78
g59
NtRp3667
(dp3668
g62
(dp3669
g82
g83
ssg71
g3663
sg64
(lp3670
S'last_name'
p3671
asbag57
(g78
g59
NtRp3672
(dp3673
g62
(dp3674
g89
g90
ssg71
g3663
sg64
(lp3675
S':'
asbag57
(g78
g59
NtRp3676
(dp3677
g62
(dp3678
sg71
g3663
sg64
(lp3679
g57
(g58
g59
NtRp3680
(dp3681
g62
(dp3682
g70
I3
ssg71
g3676
sg64
(lp3683
S'sir'
p3684
asbasbasbag57
(g73
g59
NtRp3685
(dp3686
g62
(dp3687
sg71
g3594
sg64
(lp3688
g57
(g78
g59
NtRp3689
(dp3690
g62
(dp3691
g82
g83
ssg71
g3685
sg64
(lp3692
S'password'
p3693
asbag57
(g78
g59
NtRp3694
(dp3695
g62
(dp3696
g89
g90
ssg71
g3685
sg64
(lp3697
S':'
asbag57
(g78
g59
NtRp3698
(dp3699
g62
(dp3700
sg71
g3685
sg64
(lp3701
g57
(g58
g59
NtRp3702
(dp3703
g62
(dp3704
g70
I3
ssg71
g3698
sg64
(lp3705
S'9da56e6636f0f89c2a2b7b54a400c423'
p3706
asbasbasbag57
(g73
g59
NtRp3707
(dp3708
g62
(dp3709
sg71
g3594
sg64
(lp3710
g57
(g78
g59
NtRp3711
(dp3712
g62
(dp3713
g82
g83
ssg71
g3707
sg64
(lp3714
S'registration_id'
p3715
asbag57
(g78
g59
NtRp3716
(dp3717
g62
(dp3718
g89
g90
ssg71
g3707
sg64
(lp3719
S':'
asbag57
(g78
g59
NtRp3720
(dp3721
g62
(dp3722
sg71
g3707
sg64
(lp3723
g57
(g58
g59
NtRp3724
(dp3725
g62
(dp3726
g70
I3
ssg71
g3720
sg64
(lp3727
S''
asbasbasbag57
(g73
g59
NtRp3728
(dp3729
g62
(dp3730
sg71
g3594
sg64
(lp3731
g57
(g78
g59
NtRp3732
(dp3733
g62
(dp3734
g82
g83
ssg71
g3728
sg64
(lp3735
S'registration_key'
p3736
asbag57
(g78
g59
NtRp3737
(dp3738
g62
(dp3739
g89
g90
ssg71
g3728
sg64
(lp3740
S':'
asbag57
(g78
g59
NtRp3741
(dp3742
g62
(dp3743
sg71
g3728
sg64
(lp3744
g57
(g58
g59
NtRp3745
(dp3746
g62
(dp3747
g70
I3
ssg71
g3741
sg64
(lp3748
S''
asbasbasbag57
(g73
g59
NtRp3749
(dp3750
g62
(dp3751
sg71
g3594
sg64
(lp3752
g57
(g78
g59
NtRp3753
(dp3754
g62
(dp3755
g82
g83
ssg71
g3749
sg64
(lp3756
S'reset_password_key'
p3757
asbag57
(g78
g59
NtRp3758
(dp3759
g62
(dp3760
g89
g90
ssg71
g3749
sg64
(lp3761
S':'
asbag57
(g78
g59
NtRp3762
(dp3763
g62
(dp3764
sg71
g3749
sg64
(lp3765
g57
(g58
g59
NtRp3766
(dp3767
g62
(dp3768
g70
I3
ssg71
g3762
sg64
(lp3769
S''
asbasbasbasbasbasbasbag57
(g73
g59
NtRp3770
(dp3771
g62
(dp3772
sg71
g3482
sg64
(lp3773
g57
(g78
g59
NtRp3774
(dp3775
g62
(dp3776
g82
g83
ssg71
g3770
sg64
(lp3777
S'user_groups'
p3778
asbag57
(g78
g59
NtRp3779
(dp3780
g62
(dp3781
g89
g90
ssg71
g3770
sg64
(lp3782
S':'
asbag57
(g78
g59
NtRp3783
(dp3784
g62
(dp3785
sg71
g3770
sg64
(lp3786
g57
(g58
g59
NtRp3787
(dp3788
g62
(dp3789
g70
I4
ssg71
g3783
sg64
(lp3790
g57
(g66
g59
NtRp3791
(dp3792
g62
(dp3793
g70
I3
ssg71
Nsg64
(lp3794
g57
(g73
g59
NtRp3795
(dp3796
g62
(dp3797
sg71
g3791
sg64
(lp3798
g57
(g78
g59
NtRp3799
(dp3800
g62
(dp3801
g82
g83
ssg71
g3795
sg64
(lp3802
S'1'
asbag57
(g78
g59
NtRp3803
(dp3804
g62
(dp3805
g89
g90
ssg71
g3795
sg64
(lp3806
S':'
asbag57
(g78
g59
NtRp3807
(dp3808
g62
(dp3809
sg71
g3795
sg64
(lp3810
g57
(g58
g59
NtRp3811
(dp3812
g62
(dp3813
g70
I3
ssg71
g3807
sg64
(lp3814
S'user_1'
p3815
asbasbasbag57
(g73
g59
NtRp3816
(dp3817
g62
(dp3818
sg71
g3791
sg64
(lp3819
g57
(g78
g59
NtRp3820
(dp3821
g62
(dp3822
g82
g83
ssg71
g3816
sg64
(lp3823
S'2'
asbag57
(g78
g59
NtRp3824
(dp3825
g62
(dp3826
g89
g90
ssg71
g3816
sg64
(lp3827
S':'
asbag57
(g78
g59
NtRp3828
(dp3829
g62
(dp3830
sg71
g3816
sg64
(lp3831
g57
(g58
g59
NtRp3832
(dp3833
g62
(dp3834
g70
I3
ssg71
g3828
sg64
(lp3835
S'Administrator'
p3836
asbasbasbasbasbasbasbasbasbasbasbag57
(g73
g59
NtRp3837
(dp3838
g62
(dp3839
sg71
g3457
sg64
(lp3840
g57
(g78
g59
NtRp3841
(dp3842
g62
(dp3843
g82
g83
ssg71
g3837
sg64
(lp3844
S'last_query'
p3845
asbag57
(g78
g59
NtRp3846
(dp3847
g62
(dp3848
g89
g90
ssg71
g3837
sg64
(lp3849
S':'
asbag57
(g78
g59
NtRp3850
(dp3851
g62
(dp3852
sg71
g3837
sg64
(lp3853
g57
(g58
g59
NtRp3854
(dp3855
g62
(dp3856
g70
I5
ssg71
g3850
sg64
(lp3857
S'db.Employee.id>0'
p3858
asbasbasbasbasbsS'etype'
p3859
S"<type 'exceptions.NameError'>"
p3860
sS'date'
p3861
S'Sun Oct 14 14:32:14 2012'
p3862
sS'response'
p3863
g57
(g58
g59
NtRp3864
(dp3865
g62
(dp3866
sg64
(lp3867
g57
(g66
g59
NtRp3868
(dp3869
g62
(dp3870
g70
I5
ssg71
Nsg64
(lp3871
g57
(g73
g59
NtRp3872
(dp3873
g62
(dp3874
sg71
g3868
sg64
(lp3875
g57
(g78
g59
NtRp3876
(dp3877
g62
(dp3878
g82
g83
ssg71
g3872
sg64
(lp3879
g155
asbag57
(g78
g59
NtRp3880
(dp3881
g62
(dp3882
g89
g90
ssg71
g3872
sg64
(lp3883
S':'
asbag57
(g78
g59
NtRp3884
(dp3885
g62
(dp3886
sg71
g3872
sg64
(lp3887
g57
(g58
g59
NtRp3888
(dp3889
g62
(dp3890
g70
I5
ssg71
g3884
sg64
(lp3891
S'<cStringIO.StringO object at 0x94fb4e0>'
p3892
asbasbasbag57
(g73
g59
NtRp3893
(dp3894
g62
(dp3895
sg71
g3868
sg64
(lp3896
g57
(g78
g59
NtRp3897
(dp3898
g62
(dp3899
g82
g83
ssg71
g3893
sg64
(lp3900
g221
asbag57
(g78
g59
NtRp3901
(dp3902
g62
(dp3903
g89
g90
ssg71
g3893
sg64
(lp3904
S':'
asbag57
(g78
g59
NtRp3905
(dp3906
g62
(dp3907
sg71
g3893
sg64
(lp3908
g57
(g58
g59
NtRp3909
(dp3910
g62
(dp3911
g70
I5
ssg71
g3905
sg64
(lp3912
g57
(g66
g59
NtRp3913
(dp3914
g62
(dp3915
g70
I4
ssg71
Nsg64
(lp3916
g57
(g73
g59
NtRp3917
(dp3918
g62
(dp3919
sg71
g3913
sg64
(lp3920
g57
(g78
g59
NtRp3921
(dp3922
g62
(dp3923
g82
g83
ssg71
g3917
sg64
(lp3924
S'session_id_project'
p3925
asbag57
(g78
g59
NtRp3926
(dp3927
g62
(dp3928
g89
g90
ssg71
g3917
sg64
(lp3929
S':'
asbag57
(g78
g59
NtRp3930
(dp3931
g62
(dp3932
sg71
g3917
sg64
(lp3933
g57
(g58
g59
NtRp3934
(dp3935
g62
(dp3936
g70
I4
ssg71
g3930
sg64
(lp3937
g57
(g66
g59
NtRp3938
(dp3939
g62
(dp3940
g70
I3
ssg71
Nsg64
(lp3941
g57
(g73
g59
NtRp3942
(dp3943
g62
(dp3944
sg71
g3938
sg64
(lp3945
g57
(g78
g59
NtRp3946
(dp3947
g62
(dp3948
g82
g83
ssg71
g3942
sg64
(lp3949
g271
asbag57
(g78
g59
NtRp3950
(dp3951
g62
(dp3952
g89
g90
ssg71
g3942
sg64
(lp3953
S':'
asbag57
(g78
g59
NtRp3954
(dp3955
g62
(dp3956
sg71
g3942
sg64
(lp3957
g57
(g58
g59
NtRp3958
(dp3959
g62
(dp3960
g70
I3
ssg71
g3954
sg64
(lp3961
S''
asbasbasbag57
(g73
g59
NtRp3962
(dp3963
g62
(dp3964
sg71
g3938
sg64
(lp3965
g57
(g78
g59
NtRp3966
(dp3967
g62
(dp3968
g82
g83
ssg71
g3962
sg64
(lp3969
g292
asbag57
(g78
g59
NtRp3970
(dp3971
g62
(dp3972
g89
g90
ssg71
g3962
sg64
(lp3973
S':'
asbag57
(g78
g59
NtRp3974
(dp3975
g62
(dp3976
sg71
g3962
sg64
(lp3977
g57
(g58
g59
NtRp3978
(dp3979
g62
(dp3980
g70
I3
ssg71
g3974
sg64
(lp3981
S''
asbasbasbag57
(g73
g59
NtRp3982
(dp3983
g62
(dp3984
sg71
g3938
sg64
(lp3985
g57
(g78
g59
NtRp3986
(dp3987
g62
(dp3988
g82
g83
ssg71
g3982
sg64
(lp3989
g313
asbag57
(g78
g59
NtRp3990
(dp3991
g62
(dp3992
g89
g90
ssg71
g3982
sg64
(lp3993
S':'
asbag57
(g78
g59
NtRp3994
(dp3995
g62
(dp3996
sg71
g3982
sg64
(lp3997
g57
(g58
g59
NtRp3998
(dp3999
g62
(dp4000
g70
I3
ssg71
g3994
sg64
(lp4001
S''
asbasbasbag57
(g73
g59
NtRp4002
(dp4003
g62
(dp4004
sg71
g3938
sg64
(lp4005
g57
(g78
g59
NtRp4006
(dp4007
g62
(dp4008
g82
g83
ssg71
g4002
sg64
(lp4009
g334
asbag57
(g78
g59
NtRp4010
(dp4011
g62
(dp4012
g89
g90
ssg71
g4002
sg64
(lp4013
S':'
asbag57
(g78
g59
NtRp4014
(dp4015
g62
(dp4016
sg71
g4002
sg64
(lp4017
g57
(g58
g59
NtRp4018
(dp4019
g62
(dp4020
g70
I3
ssg71
g4014
sg64
(lp4021
S''
asbasbasbag57
(g73
g59
NtRp4022
(dp4023
g62
(dp4024
sg71
g3938
sg64
(lp4025
g57
(g78
g59
NtRp4026
(dp4027
g62
(dp4028
g82
g83
ssg71
g4022
sg64
(lp4029
g355
asbag57
(g78
g59
NtRp4030
(dp4031
g62
(dp4032
g89
g90
ssg71
g4022
sg64
(lp4033
S':'
asbag57
(g78
g59
NtRp4034
(dp4035
g62
(dp4036
sg71
g4022
sg64
(lp4037
g57
(g58
g59
NtRp4038
(dp4039
g62
(dp4040
g70
I3
ssg71
g4034
sg64
(lp4041
S''
asbasbasbag57
(g73
g59
NtRp4042
(dp4043
g62
(dp4044
sg71
g3938
sg64
(lp4045
g57
(g78
g59
NtRp4046
(dp4047
g62
(dp4048
g82
g83
ssg71
g4042
sg64
(lp4049
g376
asbag57
(g78
g59
NtRp4050
(dp4051
g62
(dp4052
g89
g90
ssg71
g4042
sg64
(lp4053
S':'
asbag57
(g78
g59
NtRp4054
(dp4055
g62
(dp4056
sg71
g4042
sg64
(lp4057
g57
(g58
g59
NtRp4058
(dp4059
g62
(dp4060
g70
I3
ssg71
g4054
sg64
(lp4061
S'/'
asbasbasbag57
(g73
g59
NtRp4062
(dp4063
g62
(dp4064
sg71
g3938
sg64
(lp4065
g57
(g78
g59
NtRp4066
(dp4067
g62
(dp4068
g82
g83
ssg71
g4062
sg64
(lp4069
g397
asbag57
(g78
g59
NtRp4070
(dp4071
g62
(dp4072
g89
g90
ssg71
g4062
sg64
(lp4073
S':'
asbag57
(g78
g59
NtRp4074
(dp4075
g62
(dp4076
sg71
g4062
sg64
(lp4077
g57
(g58
g59
NtRp4078
(dp4079
g62
(dp4080
g70
I3
ssg71
g4074
sg64
(lp4081
S''
asbasbasbag57
(g73
g59
NtRp4082
(dp4083
g62
(dp4084
sg71
g3938
sg64
(lp4085
g57
(g78
g59
NtRp4086
(dp4087
g62
(dp4088
g82
g83
ssg71
g4082
sg64
(lp4089
g418
asbag57
(g78
g59
NtRp4090
(dp4091
g62
(dp4092
g89
g90
ssg71
g4082
sg64
(lp4093
S':'
asbag57
(g78
g59
NtRp4094
(dp4095
g62
(dp4096
sg71
g4082
sg64
(lp4097
g57
(g58
g59
NtRp4098
(dp4099
g62
(dp4100
g70
I3
ssg71
g4094
sg64
(lp4101
S''
asbasbasbasbasbasbasbasbasbasbasbag57
(g73
g59
NtRp4102
(dp4103
g62
(dp4104
sg71
g3868
sg64
(lp4105
g57
(g78
g59
NtRp4106
(dp4107
g62
(dp4108
g82
g83
ssg71
g4102
sg64
(lp4109
S'delimiters'
p4110
asbag57
(g78
g59
NtRp4111
(dp4112
g62
(dp4113
g89
g90
ssg71
g4102
sg64
(lp4114
S':'
asbag57
(g78
g59
NtRp4115
(dp4116
g62
(dp4117
sg71
g4102
sg64
(lp4118
g57
(g58
g59
NtRp4119
(dp4120
g62
(dp4121
g70
I5
ssg71
g4115
sg64
(lp4122
g57
(g66
g59
NtRp4123
(dp4124
g62
(dp4125
g70
I4
ssg71
Nsg64
(lp4126
g57
(g73
g59
NtRp4127
(dp4128
g62
(dp4129
sg71
g4123
sg64
(lp4130
g57
(g78
g59
NtRp4131
(dp4132
g62
(dp4133
sg71
g4127
sg64
(lp4134
g57
(g58
g59
NtRp4135
(dp4136
g62
(dp4137
g70
I4
ssg71
g4131
sg64
(lp4138
S'{{'
p4139
asbasbasbag57
(g73
g59
NtRp4140
(dp4141
g62
(dp4142
sg71
g4123
sg64
(lp4143
g57
(g78
g59
NtRp4144
(dp4145
g62
(dp4146
sg71
g4140
sg64
(lp4147
g57
(g58
g59
NtRp4148
(dp4149
g62
(dp4150
g70
I4
ssg71
g4144
sg64
(lp4151
S'}}'
p4152
asbasbasbasbasbasbasbag57
(g73
g59
NtRp4153
(dp4154
g62
(dp4155
sg71
g3868
sg64
(lp4156
g57
(g78
g59
NtRp4157
(dp4158
g62
(dp4159
g82
g83
ssg71
g4153
sg64
(lp4160
S'files'
p4161
asbag57
(g78
g59
NtRp4162
(dp4163
g62
(dp4164
g89
g90
ssg71
g4153
sg64
(lp4165
S':'
asbag57
(g78
g59
NtRp4166
(dp4167
g62
(dp4168
sg71
g4153
sg64
(lp4169
g57
(g58
g59
NtRp4170
(dp4171
g62
(dp4172
g70
I5
ssg71
g4166
sg64
(lp4173
g57
(g66
g59
NtRp4174
(dp4175
g62
(dp4176
g70
I4
ssg71
Nsg64
(lp4177
sbasbasbasbag57
(g73
g59
NtRp4178
(dp4179
g62
(dp4180
sg71
g3868
sg64
(lp4181
g57
(g78
g59
NtRp4182
(dp4183
g62
(dp4184
g82
g83
ssg71
g4178
sg64
(lp4185
S'flash'
p4186
asbag57
(g78
g59
NtRp4187
(dp4188
g62
(dp4189
g89
g90
ssg71
g4178
sg64
(lp4190
S':'
asbag57
(g78
g59
NtRp4191
(dp4192
g62
(dp4193
sg71
g4178
sg64
(lp4194
g57
(g58
g59
NtRp4195
(dp4196
g62
(dp4197
g70
I5
ssg71
g4191
sg64
(lp4198
S''
asbasbasbag57
(g73
g59
NtRp4199
(dp4200
g62
(dp4201
sg71
g3868
sg64
(lp4202
g57
(g78
g59
NtRp4203
(dp4204
g62
(dp4205
g82
g83
ssg71
g4199
sg64
(lp4206
S'generic_patterns'
p4207
asbag57
(g78
g59
NtRp4208
(dp4209
g62
(dp4210
g89
g90
ssg71
g4199
sg64
(lp4211
S':'
asbag57
(g78
g59
NtRp4212
(dp4213
g62
(dp4214
sg71
g4199
sg64
(lp4215
g57
(g58
g59
NtRp4216
(dp4217
g62
(dp4218
g70
I5
ssg71
g4212
sg64
(lp4219
g57
(g66
g59
NtRp4220
(dp4221
g62
(dp4222
g70
I4
ssg71
Nsg64
(lp4223
g57
(g73
g59
NtRp4224
(dp4225
g62
(dp4226
sg71
g4220
sg64
(lp4227
g57
(g78
g59
NtRp4228
(dp4229
g62
(dp4230
sg71
g4224
sg64
(lp4231
g57
(g58
g59
NtRp4232
(dp4233
g62
(dp4234
g70
I4
ssg71
g4228
sg64
(lp4235
S'*'
asbasbasbasbasbasbasbag57
(g73
g59
NtRp4236
(dp4237
g62
(dp4238
sg71
g3868
sg64
(lp4239
g57
(g78
g59
NtRp4240
(dp4241
g62
(dp4242
g82
g83
ssg71
g4236
sg64
(lp4243
S'headers'
p4244
asbag57
(g78
g59
NtRp4245
(dp4246
g62
(dp4247
g89
g90
ssg71
g4236
sg64
(lp4248
S':'
asbag57
(g78
g59
NtRp4249
(dp4250
g62
(dp4251
sg71
g4236
sg64
(lp4252
g57
(g58
g59
NtRp4253
(dp4254
g62
(dp4255
g70
I5
ssg71
g4249
sg64
(lp4256
g57
(g66
g59
NtRp4257
(dp4258
g62
(dp4259
g70
I4
ssg71
Nsg64
(lp4260
g57
(g73
g59
NtRp4261
(dp4262
g62
(dp4263
sg71
g4257
sg64
(lp4264
g57
(g78
g59
NtRp4265
(dp4266
g62
(dp4267
g82
g83
ssg71
g4261
sg64
(lp4268
S'Cache-Control'
p4269
asbag57
(g78
g59
NtRp4270
(dp4271
g62
(dp4272
g89
g90
ssg71
g4261
sg64
(lp4273
S':'
asbag57
(g78
g59
NtRp4274
(dp4275
g62
(dp4276
sg71
g4261
sg64
(lp4277
g57
(g58
g59
NtRp4278
(dp4279
g62
(dp4280
g70
I4
ssg71
g4274
sg64
(lp4281
S'no-store, no-cache, must-revalidate, post-check=0, pre-check=0'
p4282
asbasbasbag57
(g73
g59
NtRp4283
(dp4284
g62
(dp4285
sg71
g4257
sg64
(lp4286
g57
(g78
g59
NtRp4287
(dp4288
g62
(dp4289
g82
g83
ssg71
g4283
sg64
(lp4290
S'Content-Type'
p4291
asbag57
(g78
g59
NtRp4292
(dp4293
g62
(dp4294
g89
g90
ssg71
g4283
sg64
(lp4295
S':'
asbag57
(g78
g59
NtRp4296
(dp4297
g62
(dp4298
sg71
g4283
sg64
(lp4299
g57
(g58
g59
NtRp4300
(dp4301
g62
(dp4302
g70
I4
ssg71
g4296
sg64
(lp4303
S'text/html; charset=utf-8'
p4304
asbasbasbag57
(g73
g59
NtRp4305
(dp4306
g62
(dp4307
sg71
g4257
sg64
(lp4308
g57
(g78
g59
NtRp4309
(dp4310
g62
(dp4311
g82
g83
ssg71
g4305
sg64
(lp4312
S'Expires'
p4313
asbag57
(g78
g59
NtRp4314
(dp4315
g62
(dp4316
g89
g90
ssg71
g4305
sg64
(lp4317
S':'
asbag57
(g78
g59
NtRp4318
(dp4319
g62
(dp4320
sg71
g4305
sg64
(lp4321
g57
(g58
g59
NtRp4322
(dp4323
g62
(dp4324
g70
I4
ssg71
g4318
sg64
(lp4325
S'Sun, 14 Oct 2012 09:02:14 GMT'
p4326
asbasbasbag57
(g73
g59
NtRp4327
(dp4328
g62
(dp4329
sg71
g4257
sg64
(lp4330
g57
(g78
g59
NtRp4331
(dp4332
g62
(dp4333
g82
g83
ssg71
g4327
sg64
(lp4334
S'Pragma'
p4335
asbag57
(g78
g59
NtRp4336
(dp4337
g62
(dp4338
g89
g90
ssg71
g4327
sg64
(lp4339
S':'
asbag57
(g78
g59
NtRp4340
(dp4341
g62
(dp4342
sg71
g4327
sg64
(lp4343
g57
(g58
g59
NtRp4344
(dp4345
g62
(dp4346
g70
I4
ssg71
g4340
sg64
(lp4347
S'no-cache'
p4348
asbasbasbag57
(g73
g59
NtRp4349
(dp4350
g62
(dp4351
sg71
g4257
sg64
(lp4352
g57
(g78
g59
NtRp4353
(dp4354
g62
(dp4355
g82
g83
ssg71
g4349
sg64
(lp4356
S'X-Powered-By'
p4357
asbag57
(g78
g59
NtRp4358
(dp4359
g62
(dp4360
g89
g90
ssg71
g4349
sg64
(lp4361
S':'
asbag57
(g78
g59
NtRp4362
(dp4363
g62
(dp4364
sg71
g4349
sg64
(lp4365
g57
(g58
g59
NtRp4366
(dp4367
g62
(dp4368
g70
I4
ssg71
g4362
sg64
(lp4369
S'web2py'
p4370
asbasbasbasbasbasbasbag57
(g73
g59
NtRp4371
(dp4372
g62
(dp4373
sg71
g3868
sg64
(lp4374
g57
(g78
g59
NtRp4375
(dp4376
g62
(dp4377
g82
g83
ssg71
g4371
sg64
(lp4378
S'menu'
p4379
asbag57
(g78
g59
NtRp4380
(dp4381
g62
(dp4382
g89
g90
ssg71
g4371
sg64
(lp4383
S':'
asbag57
(g78
g59
NtRp4384
(dp4385
g62
(dp4386
sg71
g4371
sg64
(lp4387
g57
(g58
g59
NtRp4388
(dp4389
g62
(dp4390
g70
I5
ssg71
g4384
sg64
(lp4391
g57
(g66
g59
NtRp4392
(dp4393
g62
(dp4394
g70
I4
ssg71
Nsg64
(lp4395
g57
(g73
g59
NtRp4396
(dp4397
g62
(dp4398
sg71
g4392
sg64
(lp4399
g57
(g78
g59
NtRp4400
(dp4401
g62
(dp4402
sg71
g4396
sg64
(lp4403
g57
(g58
g59
NtRp4404
(dp4405
g62
(dp4406
g70
I4
ssg71
g4400
sg64
(lp4407
g57
(g66
g59
NtRp4408
(dp4409
g62
(dp4410
g70
I3
ssg71
Nsg64
(lp4411
g57
(g73
g59
NtRp4412
(dp4413
g62
(dp4414
sg71
g4408
sg64
(lp4415
g57
(g78
g59
NtRp4416
(dp4417
g62
(dp4418
sg71
g4412
sg64
(lp4419
g57
(g58
g59
NtRp4420
(dp4421
g62
(dp4422
g70
I3
ssg71
g4416
sg64
(lp4423
cgluon.languages
lazyT_unpickle
p4424
(S't\x04\x00\x00\x00Home'
tRp4425
asbasbasbag57
(g73
g59
NtRp4426
(dp4427
g62
(dp4428
sg71
g4408
sg64
(lp4429
g57
(g78
g59
NtRp4430
(dp4431
g62
(dp4432
sg71
g4426
sg64
(lp4433
g57
(g58
g59
NtRp4434
(dp4435
g62
(dp4436
g70
I3
ssg71
g4430
sg64
(lp4437
g100
asbasbasbag57
(g73
g59
NtRp4438
(dp4439
g62
(dp4440
sg71
g4408
sg64
(lp4441
g57
(g78
g59
NtRp4442
(dp4443
g62
(dp4444
sg71
g4438
sg64
(lp4445
g57
(g58
g59
NtRp4446
(dp4447
g62
(dp4448
g70
I3
ssg71
g4442
sg64
(lp4449
S'/project/default/index'
p4450
asbasbasbag57
(g73
g59
NtRp4451
(dp4452
g62
(dp4453
sg71
g4408
sg64
(lp4454
g57
(g78
g59
NtRp4455
(dp4456
g62
(dp4457
sg71
g4451
sg64
(lp4458
g57
(g58
g59
NtRp4459
(dp4460
g62
(dp4461
g70
I3
ssg71
g4455
sg64
(lp4462
g57
(g66
g59
NtRp4463
(dp4464
g62
(dp4465
g70
I2
ssg71
Nsg64
(lp4466
sbasbasbasbasbasbasbasbag57
(g73
g59
NtRp4467
(dp4468
g62
(dp4469
sg71
g4392
sg64
(lp4470
g57
(g78
g59
NtRp4471
(dp4472
g62
(dp4473
sg71
g4467
sg64
(lp4474
g57
(g58
g59
NtRp4475
(dp4476
g62
(dp4477
g70
I4
ssg71
g4471
sg64
(lp4478
g57
(g66
g59
NtRp4479
(dp4480
g62
(dp4481
g70
I3
ssg71
Nsg64
(lp4482
g57
(g73
g59
NtRp4483
(dp4484
g62
(dp4485
sg71
g4479
sg64
(lp4486
g57
(g78
g59
NtRp4487
(dp4488
g62
(dp4489
sg71
g4483
sg64
(lp4490
g57
(g58
g59
NtRp4491
(dp4492
g62
(dp4493
g70
I3
ssg71
g4487
sg64
(lp4494
g57
(cgluon.html
SPAN
p4495
g59
NtRp4496
(dp4497
g62
(dp4498
g82
S'color:yellow'
p4499
ssg71
Nsg64
(lp4500
g4370
asbasbasbasbag57
(g73
g59
NtRp4501
(dp4502
g62
(dp4503
sg71
g4479
sg64
(lp4504
g57
(g78
g59
NtRp4505
(dp4506
g62
(dp4507
sg71
g4501
sg64
(lp4508
g57
(g58
g59
NtRp4509
(dp4510
g62
(dp4511
g70
I3
ssg71
g4505
sg64
(lp4512
g100
asbasbasbag57
(g73
g59
NtRp4513
(dp4514
g62
(dp4515
sg71
g4479
sg64
(lp4516
g57
(g78
g59
NtRp4517
(dp4518
g62
(dp4519
sg71
g4513
sg64
(lp4520
g57
(g58
g59
NtRp4521
(dp4522
g62
(dp4523
g70
I3
ssg71
g4517
sg64
(lp4524
S'None'
p4525
asbasbasbag57
(g73
g59
NtRp4526
(dp4527
g62
(dp4528
sg71
g4479
sg64
(lp4529
g57
(g78
g59
NtRp4530
(dp4531
g62
(dp4532
sg71
g4526
sg64
(lp4533
g57
(g58
g59
NtRp4534
(dp4535
g62
(dp4536
g70
I3
ssg71
g4530
sg64
(lp4537
g57
(g66
g59
NtRp4538
(dp4539
g62
(dp4540
g70
I2
ssg71
Nsg64
(lp4541
g57
(g73
g59
NtRp4542
(dp4543
g62
(dp4544
sg71
g4538
sg64
(lp4545
g57
(g78
g59
NtRp4546
(dp4547
g62
(dp4548
sg71
g4542
sg64
(lp4549
g57
(g58
g59
NtRp4550
(dp4551
g62
(dp4552
g70
I2
ssg71
g4546
sg64
(lp4553
g57
(g66
g59
NtRp4554
(dp4555
g62
(dp4556
g70
I1
ssg71
Nsg64
(lp4557
g57
(g73
g59
NtRp4558
(dp4559
g62
(dp4560
sg71
g4554
sg64
(lp4561
g57
(g78
g59
NtRp4562
(dp4563
g62
(dp4564
sg71
g4558
sg64
(lp4565
g57
(g58
g59
NtRp4566
(dp4567
g62
(dp4568
g70
I1
ssg71
g4562
sg64
(lp4569
g4424
(S's\x08\x00\x00\x00My Sites'
tRp4570
asbasbasbag57
(g73
g59
NtRp4571
(dp4572
g62
(dp4573
sg71
g4554
sg64
(lp4574
g57
(g78
g59
NtRp4575
(dp4576
g62
(dp4577
sg71
g4571
sg64
(lp4578
g57
(g58
g59
NtRp4579
(dp4580
g62
(dp4581
g70
I1
ssg71
g4575
sg64
(lp4582
I00
asbasbasbag57
(g73
g59
NtRp4583
(dp4584
g62
(dp4585
sg71
g4554
sg64
(lp4586
g57
(g78
g59
NtRp4587
(dp4588
g62
(dp4589
sg71
g4583
sg64
(lp4590
g57
(g58
g59
NtRp4591
(dp4592
g62
(dp4593
g70
I1
ssg71
g4587
sg64
(lp4594
S'/admin/default/site'
p4595
asbasbasbasbasbasbasbag57
(g73
g59
NtRp4596
(dp4597
g62
(dp4598
sg71
g4538
sg64
(lp4599
g57
(g78
g59
NtRp4600
(dp4601
g62
(dp4602
sg71
g4596
sg64
(lp4603
g57
(g58
g59
NtRp4604
(dp4605
g62
(dp4606
g70
I2
ssg71
g4600
sg64
(lp4607
g57
(g66
g59
NtRp4608
(dp4609
g62
(dp4610
g70
I1
ssg71
Nsg64
(lp4611
g57
(g73
g59
NtRp4612
(dp4613
g62
(dp4614
sg71
g4608
sg64
(lp4615
g57
(g78
g59
NtRp4616
(dp4617
g62
(dp4618
sg71
g4612
sg64
(lp4619
g57
(g58
g59
NtRp4620
(dp4621
g62
(dp4622
g70
I1
ssg71
g4616
sg64
(lp4623
g4424
(S's\x08\x00\x00\x00This App'
tRp4624
asbasbasbag57
(g73
g59
NtRp4625
(dp4626
g62
(dp4627
sg71
g4608
sg64
(lp4628
g57
(g78
g59
NtRp4629
(dp4630
g62
(dp4631
sg71
g4625
sg64
(lp4632
g57
(g58
g59
NtRp4633
(dp4634
g62
(dp4635
g70
I1
ssg71
g4629
sg64
(lp4636
I00
asbasbasbag57
(g73
g59
NtRp4637
(dp4638
g62
(dp4639
sg71
g4608
sg64
(lp4640
g57
(g78
g59
NtRp4641
(dp4642
g62
(dp4643
sg71
g4637
sg64
(lp4644
g57
(g58
g59
NtRp4645
(dp4646
g62
(dp4647
g70
I1
ssg71
g4641
sg64
(lp4648
S'/admin/default/design/project'
p4649
asbasbasbag57
(g73
g59
NtRp4650
(dp4651
g62
(dp4652
sg71
g4608
sg64
(lp4653
g57
(g78
g59
NtRp4654
(dp4655
g62
(dp4656
sg71
g4650
sg64
(lp4657
g57
(g58
g59
NtRp4658
(dp4659
g62
(dp4660
g70
I1
ssg71
g4654
sg64
(lp4661
(lp4662
(g4424
(S't\n\x00\x00\x00Controller'
tRp4663
I00
S'/admin/default/edit/project/controllers/default.py'
tp4664
a(g4424
(S't\x04\x00\x00\x00View'
tRp4665
I00
S'/admin/default/edit/project/views/default/kruskal.html'
tp4666
a(g4424
(S't\x06\x00\x00\x00Layout'
tRp4667
I00
S'/admin/default/edit/project/views/layout.html'
tp4668
a(g4424
(S't\n\x00\x00\x00Stylesheet'
tRp4669
I00
S'/admin/default/edit/project/static/css/web2py.css'
tp4670
a(g4424
(S's\x08\x00\x00\x00DB Model'
tRp4671
I00
S'/admin/default/edit/project/models/db.py'
tp4672
a(g4424
(S's\n\x00\x00\x00Menu Model'
tRp4673
I00
S'/admin/default/edit/project/models/menu.py'
tp4674
a(g4424
(S't\x08\x00\x00\x00Database'
tRp4675
I00
S'/project/appadmin/index'
tp4676
a(g4424
(S't\x06\x00\x00\x00Errors'
tRp4677
I00
S'/admin/default/errors/project'
tp4678
a(g4424
(S't\x05\x00\x00\x00About'
tRp4679
I00
S'/admin/default/about/project'
tp4680
aasbasbasbasbasbasbasbag57
(g73
g59
NtRp4681
(dp4682
g62
(dp4683
sg71
g4538
sg64
(lp4684
g57
(g78
g59
NtRp4685
(dp4686
g62
(dp4687
sg71
g4681
sg64
(lp4688
g57
(g58
g59
NtRp4689
(dp4690
g62
(dp4691
g70
I2
ssg71
g4685
sg64
(lp4692
g57
(g66
g59
NtRp4693
(dp4694
g62
(dp4695
g70
I1
ssg71
Nsg64
(lp4696
g57
(g73
g59
NtRp4697
(dp4698
g62
(dp4699
sg71
g4693
sg64
(lp4700
g57
(g78
g59
NtRp4701
(dp4702
g62
(dp4703
sg71
g4697
sg64
(lp4704
g57
(g58
g59
NtRp4705
(dp4706
g62
(dp4707
g70
I1
ssg71
g4701
sg64
(lp4708
S'web2py.com'
p4709
asbasbasbag57
(g73
g59
NtRp4710
(dp4711
g62
(dp4712
sg71
g4693
sg64
(lp4713
g57
(g78
g59
NtRp4714
(dp4715
g62
(dp4716
sg71
g4710
sg64
(lp4717
g57
(g58
g59
NtRp4718
(dp4719
g62
(dp4720
g70
I1
ssg71
g4714
sg64
(lp4721
I00
asbasbasbag57
(g73
g59
NtRp4722
(dp4723
g62
(dp4724
sg71
g4693
sg64
(lp4725
g57
(g78
g59
NtRp4726
(dp4727
g62
(dp4728
sg71
g4722
sg64
(lp4729
g57
(g58
g59
NtRp4730
(dp4731
g62
(dp4732
g70
I1
ssg71
g4726
sg64
(lp4733
S'http://www.web2py.com'
p4734
asbasbasbag57
(g73
g59
NtRp4735
(dp4736
g62
(dp4737
sg71
g4693
sg64
(lp4738
g57
(g78
g59
NtRp4739
(dp4740
g62
(dp4741
sg71
g4735
sg64
(lp4742
g57
(g58
g59
NtRp4743
(dp4744
g62
(dp4745
g70
I1
ssg71
g4739
sg64
(lp4746
(lp4747
(g4424
(S't\x08\x00\x00\x00Download'
tRp4748
I00
S'http://www.web2py.com/examples/default/download'
p4749
tp4750
a(g4424
(S't\x07\x00\x00\x00Support'
tRp4751
I00
S'http://www.web2py.com/examples/default/support'
p4752
tp4753
a(g4424
(S't\x04\x00\x00\x00Demo'
tRp4754
I00
S'http://web2py.com/demo_admin'
p4755
tp4756
a(g4424
(S's\x0e\x00\x00\x00Quick Examples'
tRp4757
I00
S'http://web2py.com/examples/default/examples'
p4758
tp4759
a(g4424
(S't\x03\x00\x00\x00FAQ'
tRp4760
I00
S'http://web2py.com/AlterEgo'
p4761
tp4762
a(g4424
(S't\x06\x00\x00\x00Videos'
tRp4763
I00
S'http://www.web2py.com/examples/default/videos/'
p4764
tp4765
a(g4424
(S's\x11\x00\x00\x00Free Applications'
tRp4766
I00
S'http://web2py.com/appliances'
p4767
tp4768
a(g4424
(S't\x07\x00\x00\x00Plugins'
tRp4769
I00
S'http://web2py.com/plugins'
p4770
tp4771
a(g4424
(S't\x07\x00\x00\x00Layouts'
tRp4772
I00
S'http://web2py.com/layouts'
p4773
tp4774
a(g4424
(S't\x07\x00\x00\x00Recipes'
tRp4775
I00
S'http://web2pyslices.com/'
p4776
tp4777
a(g4424
(S't\x08\x00\x00\x00Semantic'
tRp4778
I00
S'http://web2py.com/semantic'
p4779
tp4780
aasbasbasbasbasbasbasbag57
(g73
g59
NtRp4781
(dp4782
g62
(dp4783
sg71
g4538
sg64
(lp4784
g57
(g78
g59
NtRp4785
(dp4786
g62
(dp4787
sg71
g4781
sg64
(lp4788
g57
(g58
g59
NtRp4789
(dp4790
g62
(dp4791
g70
I2
ssg71
g4785
sg64
(lp4792
g57
(g66
g59
NtRp4793
(dp4794
g62
(dp4795
g70
I1
ssg71
Nsg64
(lp4796
g57
(g73
g59
NtRp4797
(dp4798
g62
(dp4799
sg71
g4793
sg64
(lp4800
g57
(g78
g59
NtRp4801
(dp4802
g62
(dp4803
sg71
g4797
sg64
(lp4804
g57
(g58
g59
NtRp4805
(dp4806
g62
(dp4807
g70
I1
ssg71
g4801
sg64
(lp4808
g4424
(S't\r\x00\x00\x00Documentation'
tRp4809
asbasbasbag57
(g73
g59
NtRp4810
(dp4811
g62
(dp4812
sg71
g4793
sg64
(lp4813
g57
(g78
g59
NtRp4814
(dp4815
g62
(dp4816
sg71
g4810
sg64
(lp4817
g57
(g58
g59
NtRp4818
(dp4819
g62
(dp4820
g70
I1
ssg71
g4814
sg64
(lp4821
I00
asbasbasbag57
(g73
g59
NtRp4822
(dp4823
g62
(dp4824
sg71
g4793
sg64
(lp4825
g57
(g78
g59
NtRp4826
(dp4827
g62
(dp4828
sg71
g4822
sg64
(lp4829
g57
(g58
g59
NtRp4830
(dp4831
g62
(dp4832
g70
I1
ssg71
g4826
sg64
(lp4833
S'http://www.web2py.com/book'
p4834
asbasbasbag57
(g73
g59
NtRp4835
(dp4836
g62
(dp4837
sg71
g4793
sg64
(lp4838
g57
(g78
g59
NtRp4839
(dp4840
g62
(dp4841
sg71
g4835
sg64
(lp4842
g57
(g58
g59
NtRp4843
(dp4844
g62
(dp4845
g70
I1
ssg71
g4839
sg64
(lp4846
(lp4847
(g4424
(S't\x07\x00\x00\x00Preface'
tRp4848
I00
S'http://www.web2py.com/book/default/chapter/00'
p4849
tp4850
a(g4424
(S't\x0c\x00\x00\x00Introduction'
tRp4851
I00
S'http://www.web2py.com/book/default/chapter/01'
p4852
tp4853
a(g4424
(S't\x06\x00\x00\x00Python'
tRp4854
I00
S'http://www.web2py.com/book/default/chapter/02'
p4855
tp4856
a(g4424
(S't\x08\x00\x00\x00Overview'
tRp4857
I00
S'http://www.web2py.com/book/default/chapter/03'
p4858
tp4859
a(g4424
(S's\x08\x00\x00\x00The Core'
tRp4860
I00
S'http://www.web2py.com/book/default/chapter/04'
p4861
tp4862
a(g4424
(S's\t\x00\x00\x00The Views'
tRp4863
I00
S'http://www.web2py.com/book/default/chapter/05'
p4864
tp4865
a(g4424
(S't\x08\x00\x00\x00Database'
tRp4866
I00
S'http://www.web2py.com/book/default/chapter/06'
p4867
tp4868
a(g4424
(S's\x14\x00\x00\x00Forms and Validators'
tRp4869
I00
S'http://www.web2py.com/book/default/chapter/07'
p4870
tp4871
a(g4424
(S's\r\x00\x00\x00Email and SMS'
tRp4872
I00
S'http://www.web2py.com/book/default/chapter/08'
p4873
tp4874
a(g4424
(S's\x0e\x00\x00\x00Access Control'
tRp4875
I00
S'http://www.web2py.com/book/default/chapter/09'
p4876
tp4877
a(g4424
(S't\x08\x00\x00\x00Services'
tRp4878
I00
S'http://www.web2py.com/book/default/chapter/10'
p4879
tp4880
a(g4424
(S's\x0c\x00\x00\x00Ajax Recipes'
tRp4881
I00
S'http://www.web2py.com/book/default/chapter/11'
p4882
tp4883
a(g4424
(S's\x16\x00\x00\x00Components and Plugins'
tRp4884
I00
S'http://www.web2py.com/book/default/chapter/12'
p4885
tp4886
a(g4424
(S's\x12\x00\x00\x00Deployment Recipes'
tRp4887
I00
S'http://www.web2py.com/book/default/chapter/13'
p4888
tp4889
a(g4424
(S's\r\x00\x00\x00Other Recipes'
tRp4890
I00
S'http://www.web2py.com/book/default/chapter/14'
p4891
tp4892
a(g4424
(S's\r\x00\x00\x00Buy this book'
tRp4893
I00
S'http://stores.lulu.com/web2py'
p4894
tp4895
aasbasbasbasbasbasbasbag57
(g73
g59
NtRp4896
(dp4897
g62
(dp4898
sg71
g4538
sg64
(lp4899
g57
(g78
g59
NtRp4900
(dp4901
g62
(dp4902
sg71
g4896
sg64
(lp4903
g57
(g58
g59
NtRp4904
(dp4905
g62
(dp4906
g70
I2
ssg71
g4900
sg64
(lp4907
g57
(g66
g59
NtRp4908
(dp4909
g62
(dp4910
g70
I1
ssg71
Nsg64
(lp4911
g57
(g73
g59
NtRp4912
(dp4913
g62
(dp4914
sg71
g4908
sg64
(lp4915
g57
(g78
g59
NtRp4916
(dp4917
g62
(dp4918
sg71
g4912
sg64
(lp4919
g57
(g58
g59
NtRp4920
(dp4921
g62
(dp4922
g70
I1
ssg71
g4916
sg64
(lp4923
g4424
(S't\t\x00\x00\x00Community'
tRp4924
asbasbasbag57
(g73
g59
NtRp4925
(dp4926
g62
(dp4927
sg71
g4908
sg64
(lp4928
g57
(g78
g59
NtRp4929
(dp4930
g62
(dp4931
sg71
g4925
sg64
(lp4932
g57
(g58
g59
NtRp4933
(dp4934
g62
(dp4935
g70
I1
ssg71
g4929
sg64
(lp4936
I00
asbasbasbag57
(g73
g59
NtRp4937
(dp4938
g62
(dp4939
sg71
g4908
sg64
(lp4940
g57
(g78
g59
NtRp4941
(dp4942
g62
(dp4943
sg71
g4937
sg64
(lp4944
g57
(g58
g59
NtRp4945
(dp4946
g62
(dp4947
g70
I1
ssg71
g4941
sg64
(lp4948
Nasbasbasbag57
(g73
g59
NtRp4949
(dp4950
g62
(dp4951
sg71
g4908
sg64
(lp4952
g57
(g78
g59
NtRp4953
(dp4954
g62
(dp4955
sg71
g4949
sg64
(lp4956
g57
(g58
g59
NtRp4957
(dp4958
g62
(dp4959
g70
I1
ssg71
g4953
sg64
(lp4960
(lp4961
(g4424
(S't\x06\x00\x00\x00Groups'
tRp4962
I00
S'http://www.web2py.com/examples/default/usergroups'
p4963
tp4964
a(g4424
(S't\x07\x00\x00\x00Twitter'
tRp4965
I00
S'http://twitter.com/web2py'
p4966
tp4967
a(g4424
(S's\t\x00\x00\x00Live Chat'
tRp4968
I00
S'http://webchat.freenode.net/?channels=web2py'
p4969
tp4970
aasbasbasbasbasbasbasbag57
(g73
g59
NtRp4971
(dp4972
g62
(dp4973
sg71
g4538
sg64
(lp4974
g57
(g78
g59
NtRp4975
(dp4976
g62
(dp4977
sg71
g4971
sg64
(lp4978
g57
(g58
g59
NtRp4979
(dp4980
g62
(dp4981
g70
I2
ssg71
g4975
sg64
(lp4982
g57
(g66
g59
NtRp4983
(dp4984
g62
(dp4985
g70
I1
ssg71
Nsg64
(lp4986
g57
(g73
g59
NtRp4987
(dp4988
g62
(dp4989
sg71
g4983
sg64
(lp4990
g57
(g78
g59
NtRp4991
(dp4992
g62
(dp4993
sg71
g4987
sg64
(lp4994
g57
(g58
g59
NtRp4995
(dp4996
g62
(dp4997
g70
I1
ssg71
g4991
sg64
(lp4998
g4424
(S't\x07\x00\x00\x00Plugins'
tRp4999
asbasbasbag57
(g73
g59
NtRp5000
(dp5001
g62
(dp5002
sg71
g4983
sg64
(lp5003
g57
(g78
g59
NtRp5004
(dp5005
g62
(dp5006
sg71
g5000
sg64
(lp5007
g57
(g58
g59
NtRp5008
(dp5009
g62
(dp5010
g70
I1
ssg71
g5004
sg64
(lp5011
I00
asbasbasbag57
(g73
g59
NtRp5012
(dp5013
g62
(dp5014
sg71
g4983
sg64
(lp5015
g57
(g78
g59
NtRp5016
(dp5017
g62
(dp5018
sg71
g5012
sg64
(lp5019
g57
(g58
g59
NtRp5020
(dp5021
g62
(dp5022
g70
I1
ssg71
g5016
sg64
(lp5023
Nasbasbasbag57
(g73
g59
NtRp5024
(dp5025
g62
(dp5026
sg71
g4983
sg64
(lp5027
g57
(g78
g59
NtRp5028
(dp5029
g62
(dp5030
sg71
g5024
sg64
(lp5031
g57
(g58
g59
NtRp5032
(dp5033
g62
(dp5034
g70
I1
ssg71
g5028
sg64
(lp5035
(lp5036
(S'plugin_wiki'
p5037
I00
S'http://web2py.com/examples/default/download'
p5038
tp5039
a(g4424
(S's\r\x00\x00\x00Other Plugins'
tRp5040
I00
g4770
tp5041
a(g4424
(S's\x0e\x00\x00\x00Layout Plugins'
tRp5042
I00
g4773
tp5043
aasbasbasbasbasbasbasbasbasbasbasbasbasbasbasbasbasbasbasbag57
(g73
g59
NtRp5044
(dp5045
g62
(dp5046
sg71
g3868
sg64
(lp5047
g57
(g78
g59
NtRp5048
(dp5049
g62
(dp5050
g82
g83
ssg71
g5044
sg64
(lp5051
S'meta'
p5052
asbag57
(g78
g59
NtRp5053
(dp5054
g62
(dp5055
g89
g90
ssg71
g5044
sg64
(lp5056
S':'
asbag57
(g78
g59
NtRp5057
(dp5058
g62
(dp5059
sg71
g5044
sg64
(lp5060
g57
(g58
g59
NtRp5061
(dp5062
g62
(dp5063
g70
I5
ssg71
g5057
sg64
(lp5064
g57
(g66
g59
NtRp5065
(dp5066
g62
(dp5067
g70
I4
ssg71
Nsg64
(lp5068
g57
(g73
g59
NtRp5069
(dp5070
g62
(dp5071
sg71
g5065
sg64
(lp5072
g57
(g78
g59
NtRp5073
(dp5074
g62
(dp5075
g82
g83
ssg71
g5069
sg64
(lp5076
S'author'
p5077
asbag57
(g78
g59
NtRp5078
(dp5079
g62
(dp5080
g89
g90
ssg71
g5069
sg64
(lp5081
S':'
asbag57
(g78
g59
NtRp5082
(dp5083
g62
(dp5084
sg71
g5069
sg64
(lp5085
g57
(g58
g59
NtRp5086
(dp5087
g62
(dp5088
g70
I4
ssg71
g5082
sg64
(lp5089
S'Your Name <you@example.com>'
p5090
asbasbasbag57
(g73
g59
NtRp5091
(dp5092
g62
(dp5093
sg71
g5065
sg64
(lp5094
g57
(g78
g59
NtRp5095
(dp5096
g62
(dp5097
g82
g83
ssg71
g5091
sg64
(lp5098
S'copyright'
p5099
asbag57
(g78
g59
NtRp5100
(dp5101
g62
(dp5102
g89
g90
ssg71
g5091
sg64
(lp5103
S':'
asbag57
(g78
g59
NtRp5104
(dp5105
g62
(dp5106
sg71
g5091
sg64
(lp5107
g57
(g58
g59
NtRp5108
(dp5109
g62
(dp5110
g70
I4
ssg71
g5104
sg64
(lp5111
S'Copyright 2011'
p5112
asbasbasbag57
(g73
g59
NtRp5113
(dp5114
g62
(dp5115
sg71
g5065
sg64
(lp5116
g57
(g78
g59
NtRp5117
(dp5118
g62
(dp5119
g82
g83
ssg71
g5113
sg64
(lp5120
S'description'
p5121
asbag57
(g78
g59
NtRp5122
(dp5123
g62
(dp5124
g89
g90
ssg71
g5113
sg64
(lp5125
S':'
asbag57
(g78
g59
NtRp5126
(dp5127
g62
(dp5128
sg71
g5113
sg64
(lp5129
g57
(g58
g59
NtRp5130
(dp5131
g62
(dp5132
g70
I4
ssg71
g5126
sg64
(lp5133
S'a cool new app'
p5134
asbasbasbag57
(g73
g59
NtRp5135
(dp5136
g62
(dp5137
sg71
g5065
sg64
(lp5138
g57
(g78
g59
NtRp5139
(dp5140
g62
(dp5141
g82
g83
ssg71
g5135
sg64
(lp5142
S'generator'
p5143
asbag57
(g78
g59
NtRp5144
(dp5145
g62
(dp5146
g89
g90
ssg71
g5135
sg64
(lp5147
S':'
asbag57
(g78
g59
NtRp5148
(dp5149
g62
(dp5150
sg71
g5135
sg64
(lp5151
g57
(g58
g59
NtRp5152
(dp5153
g62
(dp5154
g70
I4
ssg71
g5148
sg64
(lp5155
S'Web2py Web Framework'
p5156
asbasbasbag57
(g73
g59
NtRp5157
(dp5158
g62
(dp5159
sg71
g5065
sg64
(lp5160
g57
(g78
g59
NtRp5161
(dp5162
g62
(dp5163
g82
g83
ssg71
g5157
sg64
(lp5164
S'keywords'
p5165
asbag57
(g78
g59
NtRp5166
(dp5167
g62
(dp5168
g89
g90
ssg71
g5157
sg64
(lp5169
S':'
asbag57
(g78
g59
NtRp5170
(dp5171
g62
(dp5172
sg71
g5157
sg64
(lp5173
g57
(g58
g59
NtRp5174
(dp5175
g62
(dp5176
g70
I4
ssg71
g5170
sg64
(lp5177
S'web2py, python, framework'
p5178
asbasbasbasbasbasbasbag57
(g73
g59
NtRp5179
(dp5180
g62
(dp5181
sg71
g3868
sg64
(lp5182
g57
(g78
g59
NtRp5183
(dp5184
g62
(dp5185
g82
g83
ssg71
g5179
sg64
(lp5186
S'postprocessing'
p5187
asbag57
(g78
g59
NtRp5188
(dp5189
g62
(dp5190
g89
g90
ssg71
g5179
sg64
(lp5191
S':'
asbag57
(g78
g59
NtRp5192
(dp5193
g62
(dp5194
sg71
g5179
sg64
(lp5195
g57
(g58
g59
NtRp5196
(dp5197
g62
(dp5198
g70
I5
ssg71
g5192
sg64
(lp5199
g57
(g66
g59
NtRp5200
(dp5201
g62
(dp5202
g70
I4
ssg71
Nsg64
(lp5203
sbasbasbasbag57
(g73
g59
NtRp5204
(dp5205
g62
(dp5206
sg71
g3868
sg64
(lp5207
g57
(g78
g59
NtRp5208
(dp5209
g62
(dp5210
g82
g83
ssg71
g5204
sg64
(lp5211
S'session_file'
p5212
asbag57
(g78
g59
NtRp5213
(dp5214
g62
(dp5215
g89
g90
ssg71
g5204
sg64
(lp5216
S':'
asbag57
(g78
g59
NtRp5217
(dp5218
g62
(dp5219
sg71
g5204
sg64
(lp5220
g57
(g58
g59
NtRp5221
(dp5222
g62
(dp5223
g70
I5
ssg71
g5217
sg64
(lp5224
S"<open file '/home/arpita/courses/sem3/ssad/web2py/applications/project/sessions/127.0.0.1-685fbf0f-7e19-4757-b51e-738a125b352f', mode 'rb+' at 0x964fac8>"
p5225
asbasbasbag57
(g73
g59
NtRp5226
(dp5227
g62
(dp5228
sg71
g3868
sg64
(lp5229
g57
(g78
g59
NtRp5230
(dp5231
g62
(dp5232
g82
g83
ssg71
g5226
sg64
(lp5233
S'session_filename'
p5234
asbag57
(g78
g59
NtRp5235
(dp5236
g62
(dp5237
g89
g90
ssg71
g5226
sg64
(lp5238
S':'
asbag57
(g78
g59
NtRp5239
(dp5240
g62
(dp5241
sg71
g5226
sg64
(lp5242
g57
(g58
g59
NtRp5243
(dp5244
g62
(dp5245
g70
I5
ssg71
g5239
sg64
(lp5246
S'/home/arpita/courses/sem3/ssad/web2py/applications/project/sessions/127.0.0.1-685fbf0f-7e19-4757-b51e-738a125b352f'
p5247
asbasbasbag57
(g73
g59
NtRp5248
(dp5249
g62
(dp5250
sg71
g3868
sg64
(lp5251
g57
(g78
g59
NtRp5252
(dp5253
g62
(dp5254
g82
g83
ssg71
g5248
sg64
(lp5255
S'session_id'
p5256
asbag57
(g78
g59
NtRp5257
(dp5258
g62
(dp5259
g89
g90
ssg71
g5248
sg64
(lp5260
S':'
asbag57
(g78
g59
NtRp5261
(dp5262
g62
(dp5263
sg71
g5248
sg64
(lp5264
g57
(g58
g59
NtRp5265
(dp5266
g62
(dp5267
g70
I5
ssg71
g5261
sg64
(lp5268
S'127.0.0.1-685fbf0f-7e19-4757-b51e-738a125b352f'
p5269
asbasbasbag57
(g73
g59
NtRp5270
(dp5271
g62
(dp5272
sg71
g3868
sg64
(lp5273
g57
(g78
g59
NtRp5274
(dp5275
g62
(dp5276
g82
g83
ssg71
g5270
sg64
(lp5277
S'session_id_name'
p5278
asbag57
(g78
g59
NtRp5279
(dp5280
g62
(dp5281
g89
g90
ssg71
g5270
sg64
(lp5282
S':'
asbag57
(g78
g59
NtRp5283
(dp5284
g62
(dp5285
sg71
g5270
sg64
(lp5286
g57
(g58
g59
NtRp5287
(dp5288
g62
(dp5289
g70
I5
ssg71
g5283
sg64
(lp5290
g3925
asbasbasbag57
(g73
g59
NtRp5291
(dp5292
g62
(dp5293
sg71
g3868
sg64
(lp5294
g57
(g78
g59
NtRp5295
(dp5296
g62
(dp5297
g82
g83
ssg71
g5291
sg64
(lp5298
S'session_locked'
p5299
asbag57
(g78
g59
NtRp5300
(dp5301
g62
(dp5302
g89
g90
ssg71
g5291
sg64
(lp5303
S':'
asbag57
(g78
g59
NtRp5304
(dp5305
g62
(dp5306
sg71
g5291
sg64
(lp5307
g57
(g58
g59
NtRp5308
(dp5309
g62
(dp5310
g70
I5
ssg71
g5304
sg64
(lp5311
g2048
asbasbasbag57
(g73
g59
NtRp5312
(dp5313
g62
(dp5314
sg71
g3868
sg64
(lp5315
g57
(g78
g59
NtRp5316
(dp5317
g62
(dp5318
g82
g83
ssg71
g5312
sg64
(lp5319
S'session_new'
p5320
asbag57
(g78
g59
NtRp5321
(dp5322
g62
(dp5323
g89
g90
ssg71
g5312
sg64
(lp5324
S':'
asbag57
(g78
g59
NtRp5325
(dp5326
g62
(dp5327
sg71
g5312
sg64
(lp5328
g57
(g58
g59
NtRp5329
(dp5330
g62
(dp5331
g70
I5
ssg71
g5325
sg64
(lp5332
g100
asbasbasbag57
(g73
g59
NtRp5333
(dp5334
g62
(dp5335
sg71
g3868
sg64
(lp5336
g57
(g78
g59
NtRp5337
(dp5338
g62
(dp5339
g82
g83
ssg71
g5333
sg64
(lp5340
S'status'
p5341
asbag57
(g78
g59
NtRp5342
(dp5343
g62
(dp5344
g89
g90
ssg71
g5333
sg64
(lp5345
S':'
asbag57
(g78
g59
NtRp5346
(dp5347
g62
(dp5348
sg71
g5333
sg64
(lp5349
g57
(g58
g59
NtRp5350
(dp5351
g62
(dp5352
g70
I5
ssg71
g5346
sg64
(lp5353
S'200'
p5354
asbasbasbag57
(g73
g59
NtRp5355
(dp5356
g62
(dp5357
sg71
g3868
sg64
(lp5358
g57
(g78
g59
NtRp5359
(dp5360
g62
(dp5361
g82
g83
ssg71
g5355
sg64
(lp5362
S'subtitle'
p5363
asbag57
(g78
g59
NtRp5364
(dp5365
g62
(dp5366
g89
g90
ssg71
g5355
sg64
(lp5367
S':'
asbag57
(g78
g59
NtRp5368
(dp5369
g62
(dp5370
sg71
g5355
sg64
(lp5371
g57
(g58
g59
NtRp5372
(dp5373
g62
(dp5374
g70
I5
ssg71
g5368
sg64
(lp5375
g4424
(S's\r\x00\x00\x00customize me!'
tRp5376
asbasbasbag57
(g73
g59
NtRp5377
(dp5378
g62
(dp5379
sg71
g3868
sg64
(lp5380
g57
(g78
g59
NtRp5381
(dp5382
g62
(dp5383
g82
g83
ssg71
g5377
sg64
(lp5384
S'title'
p5385
asbag57
(g78
g59
NtRp5386
(dp5387
g62
(dp5388
g89
g90
ssg71
g5377
sg64
(lp5389
S':'
asbag57
(g78
g59
NtRp5390
(dp5391
g62
(dp5392
sg71
g5377
sg64
(lp5393
g57
(g58
g59
NtRp5394
(dp5395
g62
(dp5396
g70
I5
ssg71
g5390
sg64
(lp5397
S'Project'
p5398
asbasbasbag57
(g73
g59
NtRp5399
(dp5400
g62
(dp5401
sg71
g3868
sg64
(lp5402
g57
(g78
g59
NtRp5403
(dp5404
g62
(dp5405
g82
g83
ssg71
g5399
sg64
(lp5406
g2712
asbag57
(g78
g59
NtRp5407
(dp5408
g62
(dp5409
g89
g90
ssg71
g5399
sg64
(lp5410
S':'
asbag57
(g78
g59
NtRp5411
(dp5412
g62
(dp5413
sg71
g5399
sg64
(lp5414
g57
(g58
g59
NtRp5415
(dp5416
g62
(dp5417
g70
I5
ssg71
g5411
sg64
(lp5418
g2725
asbasbasbag57
(g73
g59
NtRp5419
(dp5420
g62
(dp5421
sg71
g3868
sg64
(lp5422
g57
(g78
g59
NtRp5423
(dp5424
g62
(dp5425
g82
g83
ssg71
g5419
sg64
(lp5426
S'view'
p5427
asbag57
(g78
g59
NtRp5428
(dp5429
g62
(dp5430
g89
g90
ssg71
g5419
sg64
(lp5431
S':'
asbag57
(g78
g59
NtRp5432
(dp5433
g62
(dp5434
sg71
g5419
sg64
(lp5435
g57
(g58
g59
NtRp5436
(dp5437
g62
(dp5438
g70
I5
ssg71
g5432
sg64
(lp5439
S'default/kruskal.html'
p5440
asbasbasbasbasbsS'locals'
p5441
(dp5442
S'a'
S'1'
sS'b'
S'3'
sS'cou'
p5443
S'0'
sS'min'
p5444
S'100'
p5445
sS'i'
S'1'
sS'k'
S'0'
sS'j'
S'2'
sS'li'
p5446
S"<Row {'update_record': <function <lambda> at 0x9... <function <lambda> at 0x9a2c994>, 'Emp2_id': 3}>"
p5447
sS'emp'
p5448
S'<gluon.dal.Rows object>'
p5449
sS'lis'
p5450
S'<gluon.dal.Rows object>'
p5451
sS'count1'
p5452
S'0'
sS'counts'
p5453
S'3'
sS'count2'
p5454
S'0'
sssS'traceback'
p5455
S'Traceback (most recent call last):\n  File "/home/arpita/courses/sem3/ssad/web2py/gluon/restricted.py", line 205, in restricted\n    exec ccode in environment\n  File "/home/arpita/courses/sem3/ssad/web2py/applications/project/controllers/default.py", line 145, in <module>\n  File "/home/arpita/courses/sem3/ssad/web2py/gluon/globals.py", line 173, in <lambda>\n    self._caller = lambda f: f()\n  File "/home/arpita/courses/sem3/ssad/web2py/applications/project/controllers/default.py", line 133, in kruskal\n    if rep[k]==rep[e2] and k!=e2:\nNameError: global name \'e2\' is not defined\n'
p5456
s.