(dp1
S'output'
p2
S"<type 'exceptions.AttributeError'> 'NoneType' object has no attribute 'Name'"
p3
sS'layer'
p4
S'/home/arpita/courses/sem3/ssad/web2py/applications/project/views/default/graph.html'
p5
sS'code'
p6
S'response.write(\'<!DOCTYPE html>\\n<!-- paulirish.com/2008/conditional-stylesheets-vs-css-hacks-answer-neither/ -->\\n<!--[if lt IE 7]><html class="ie ie6 ie-lte9 ie-lte8 ie-lte7 no-js" lang="\', escape=False)\nresponse.write(T.accepted_language or \'en\')\nresponse.write(\'"> <![endif]-->\\n<!--[if IE 7]><html class="ie ie7 ie-lte9 ie-lte8 ie-lte7 no-js" lang="\', escape=False)\nresponse.write(T.accepted_language or \'en\')\nresponse.write(\'"> <![endif]-->\\n<!--[if IE 8]><html class="ie ie8 ie-lte9 ie-lte8 no-js" lang="\', escape=False)\nresponse.write(T.accepted_language or \'en\')\nresponse.write(\'"> <![endif]-->\\n<!--[if IE 9]><html class="ie9 ie-lte9 no-js" lang="\', escape=False)\nresponse.write(T.accepted_language or \'en\')\nresponse.write(\'"> <![endif]-->\\n<!--[if (gt IE 9)|!(IE)]><!--> <html class="no-js" lang="\', escape=False)\nresponse.write(T.accepted_language or \'en\')\nresponse.write(\'"> <!--<![endif]-->\\n<head>\\n  <meta charset="utf-8" />\\n  <!-- www.phpied.com/conditional-comments-block-downloads/ -->\\n  <!-- Always force latest IE rendering engine\\n\\t   (even in intranet) & Chrome Frame\\n\\t   Remove this if you use the .htaccess -->\\n  <!--[if IE]>\\n    <meta http-equiv="X-UA-Compatible" content="IE=edge\', escape=False)\nresponse.write(not request.is_local and \',chrome=1\' or \'\')\nresponse.write(\'">\\n  <![endif]-->\\n  \\n  <title>\', escape=False)\nresponse.write(response.title or request.application)\nresponse.write(\'</title>\\n  \\n  <!-- http://dev.w3.org/html5/markup/meta.name.html -->\\n  <meta name="application-name" content="\', escape=False)\nresponse.write(request.application)\nresponse.write(\'" />\\n  \\n  <!-- Speaking of Google, don\\\'t forget to set your site up:\\n\\t   http://google.com/webmasters -->\\n  <meta name="google-site-verification" content="" />\\n\\n  <!--  Mobile Viewport Fix\\n\\t  j.mp/mobileviewport & davidbcalhoun.com/2010/viewport-metatag\\n\\t  device-width: Occupy full width of the screen in its current orientation\\n\\t  initial-scale = 1.0 retains dimensions instead of zooming out if page height > device height\\n\\t  user-scalable = yes allows the user to zoom in -->\\n  <meta name="viewport" content="width=device-width, initial-scale=1.0, user-scalable=yes">\\n  \\n  <!-- Place favicon.ico and apple-touch-icon.png in the root of your domain and delete these references -->\\n  <link rel="shortcut icon" href="\', escape=False)\nresponse.write(URL(\'static\',\'favicon.ico\'))\nresponse.write(\'" type="image/x-icon">\\n  <link rel="apple-touch-icon" href="\', escape=False)\nresponse.write(URL(\'static\',\'favicon.png\'))\nresponse.write(\'">\\n\\n  <!-- All JavaScript at the bottom, except for Modernizr which enables \\n\\t   HTML5 elements & feature detects -->\\n  <script src="\', escape=False)\nresponse.write(URL(\'static\',\'js/modernizr.custom.js\'))\nresponse.write(\'"></script>  \\n\\n  <!-- include stylesheets -->\\n  \', escape=False)\nresponse.files.append(URL(\'static\',\'css/skeleton.css\'))\nresponse.files.append(URL(\'static\',\'css/web2py.css\'))\nif response.menu:\n    response.files.append(URL(\'static\',\'css/superfish.css\'))\n    response.files.append(URL(\'static\',\'js/superfish.js\'))\n    pass\nresponse.write(\'\\n\\n  \', escape=False)\nresponse.write(\'<script type="text/javascript"><!--\\n    // These variables are used by the web2py_ajax_init function in web2py_ajax.js (which is loaded below).\\n    var w2p_ajax_confirm_message = "\', escape=False)\nresponse.write(T(\'Are you sure you want to delete this object?\'))\nresponse.write(\'";\\n    var w2p_ajax_date_format = "\', escape=False)\nresponse.write(T(\'%Y-%m-%d\'))\nresponse.write(\'";\\n    var w2p_ajax_datetime_format = "\', escape=False)\nresponse.write(T(\'%Y-%m-%d %H:%M:%S\'))\nresponse.write(\'";\\n    //--></script>\\n\', escape=False)\nresponse.files.insert(0,URL(\'static\',\'js/jquery.js\'))\nresponse.files.insert(1,URL(\'static\',\'css/calendar.css\'))\nresponse.files.insert(2,URL(\'static\',\'js/calendar.js\'))\nresponse.files.insert(3,URL(\'static\',\'js/web2py.js\'))\nresponse.include_meta()\nresponse.include_files()\nresponse.write(\'\\n\', escape=False)\nresponse.write(\'\\n\\n  \', escape=False)\nif response.menu:\n    response.write(\'\\n  <script type="text/javascript">\\n    jQuery(function(){ jQuery(\\\'ul.sf-menu\\\').supersubs({minWidth:12,maxWidth:30,extraWidth:3}).superfish(); });\\n  </script>\\n  \', escape=False)\n    pass\nresponse.write(\'\\n\\n  \', escape=False)\n# using sidebars need to know what sidebar you want to use\nleft_sidebar_enabled = globals().get(\'left_sidebar_enabled\',False)\nright_sidebar_enabled = globals().get(\'right_sidebar_enabled\',False)\nmiddle_columns = {0:\'sixteen\',1:\'twelve\',2:\'eight\'}[\n(left_sidebar_enabled and 1 or 0)+(right_sidebar_enabled and 1 or 0)]\nresponse.write(\'\\n\\n  <!-- uncomment here to load jquery-ui\\n  <link rel="stylesheet" href="http://ajax.googleapis.com/ajax/libs/jqueryui/1.8.16/themes/base/jquery-ui.css" type="text/css" media="all" />\\n  <script src="http://ajax.googleapis.com/ajax/libs/jqueryui/1.8.16/jquery-ui.min.js" type="text/javascript"></script>\\n  uncomment to load jquery-ui //-->\\n</head>\\n<body>\\n  <div class="wrapper"><!-- for sticky footer -->\\n  \\n    <div class="topbar">\\n      <div class="container">    \\n        <div class="sixteen columns">\\n          <div id="navbar">\', escape=False)\nresponse.write(\'auth\' in globals() and auth.navbar(separators=(\' \',\' | \',\'\')))\nresponse.write(\'</div>\\n          \', escape=False)\nis_mobile=request.user_agent().is_mobile\nresponse.write(\'\\n\\t  \', escape=False)\nif response.menu:\n    response.write(\'\\n          <div id="menu">\\n             \', escape=False)\n    response.write(MENU(response.menu, _class=\'mobile-menu\' if is_mobile else \'sf-menu\',mobile=is_mobile))\n    response.write(\'\\n          </div>\\n          \', escape=False)\n    pass\nresponse.write(\'\\n        </div>\\n      </div>\\n    </div><!-- topbar -->\\n    \\n    <div class="flash">\', escape=False)\nresponse.write(response.flash or \'\')\nresponse.write(\'</div>\\n    \\n    <div class="header">\\n      <div class="container">         \\n        <div class="sixteen columns">\\n          <h1 class="remove-bottom" style="margin-top: .5em;">\\n          \', escape=False)\nresponse.write(response.title or request.application)\nresponse.write(\'\\n          </h1>\\n          <h5>\', escape=False)\nresponse.write(response.subtitle or \'\')\nresponse.write(\'</h5>\\n        </div>\\n        <div class="sixteen columns">\\n          <div class="statusbar clearfix">\\n            \', escape=False)\nresponse.write(\'\\n            <div class="breadcrumbs">\', escape=False)\nresponse.write(request.function.replace(\'_\', \' \').title())\nresponse.write(\'</div>\\n            \', escape=False)\nresponse.write(\'\\n            <!-- AddToAny BEGIN -->\\n            <div style="float:right; padding-top: .25em;" class="a2a_kit a2a_default_style">\\n            <a class="a2a_dd" href="http://www.addtoany.com/share_save">Share</a></div>\\n            <script type="text/javascript" src="http://static.addtoany.com/menu/page.js"></script>\\n            <!-- AddToAny END -->\\n          </div>\\n        </div>\\n      </div>\\n    </div>\\n\\n    <div class="main">\\n      <div class="container">                 \\n        \', escape=False)\nif left_sidebar_enabled:\n    response.write(\'\\n        <div class="four columns left-sidebar">\\n          \', escape=False)\n    response.write(\'\\n          <h3>Left Sidebar</h3>\\n          <p></p>\\n          \', escape=False)\n    response.write(\'\\n        </div>\\n        \', escape=False)\n    pass\nresponse.write(\'\\n        \\n        <div class="\', escape=False)\nresponse.write(middle_columns)\nresponse.write(\' columns center">\\n          \', escape=False)\nresponse.write(\'\\n          \', escape=False)\nresponse.write(\'\\n<h1>This is the default/graph.html template</h1>\\n\', escape=False)\nresponse.write(empl.Name)\nresponse.write(\'\\n\', escape=False)\nresponse.write(BEAUTIFY(response._vars))\nresponse.write(\'\\n\', escape=False)\nresponse.write(\'\\n          \', escape=False)\nresponse.write(\'\\n        </div>\\n        \\n        \', escape=False)\nif right_sidebar_enabled:\n    response.write(\'\\n        <div class="four columns">\\n          \', escape=False)\n    response.write(\'\\n          <h3>Right Sidebar</h3>\\n          <p></p>\\n          \', escape=False)\n    response.write(\'\\n        </div>    \\n        \', escape=False)\n    pass\nresponse.write(\'\\n        \\n      </div><!-- container -->\\n    </div><!-- main -->\\n    \\n    <div class="push"></div>\\n  </div><!-- wrapper -->\\n\\n  <div class="footer">\\n    <div class="container">    \\n      <div class="sixteen columns">\\n        \', escape=False)\nresponse.write(\' <!-- this is default footer -->\\n        <div class="footer-content clearfix">\\n          <div class="copyright">\', escape=False)\nresponse.write(T(\'Copyright\'))\nresponse.write(\' &#169; 2011</div>\\n          <div style="float: right;">\\n            <a href="http://www.web2py.com/">\\n            <img style="padding-bottom: 0;" src="\', escape=False)\nresponse.write(URL(\'static\',\'images/poweredby.png\'))\nresponse.write(\'"/>\\n            </a>\\n          </div>\\n        </div>\\n        \', escape=False)\nresponse.write(\'\\t\\n      </div>\\n    </div><!-- container -->\\n  </div><!-- footer -->\\n  \\n  <!--[if lt IE 7 ]>\\n\\t<script src="\', escape=False)\nresponse.write(URL(\'static\',\'js/dd_belatedpng.js\'))\nresponse.write(\'"></script>\\n\\t<script> DD_belatedPNG.fix(\\\'img, .png_bg\\\'); //fix any <img> or .png_bg background-images </script>\\n\\t<![endif]-->\\n  \', escape=False)\nif response.google_analytics_id:\n    response.write(\'<script type="text/javascript"> var _gaq = _gaq || []; _gaq.push([\\\'_setAccount\\\', \\\'\', escape=False)\n    response.write(response.google_analytics_id)\n    response.write("\']); _gaq.push([\'_trackPageview\']); (function() { var ga = document.createElement(\'script\'); ga.type = \'text/javascript\'; ga.async = true; ga.src = (\'https:\' == document.location.protocol ? \'https://ssl\' : \'http://www\') + \'.google-analytics.com/ga.js\'; var s = document.getElementsByTagName(\'script\')[0]; s.parentNode.insertBefore(ga, s); })(); </script> ", escape=False)\n    pass\nresponse.write(\'\\n</body>\\n</html>\\n\', escape=False)'
p7
sS'snapshot'
p8
(dp9
S'exception'
p10
(dp11
S'__hash__'
p12
S"<method-wrapper '__hash__' of exceptions.AttributeError object>"
p13
sS'__setattr__'
p14
S"<method-wrapper '__setattr__' of exceptions.AttributeError object>"
p15
sS'__reduce_ex__'
p16
S'<built-in method __reduce_ex__ of exceptions.AttributeError object>'
p17
sS'__getslice__'
p18
S"<method-wrapper '__getslice__' of exceptions.AttributeError object>"
p19
sS'__getitem__'
p20
S"<method-wrapper '__getitem__' of exceptions.AttributeError object>"
p21
sS'__setstate__'
p22
S'<built-in method __setstate__ of exceptions.AttributeError object>'
p23
sS'__reduce__'
p24
S'<built-in method __reduce__ of exceptions.AttributeError object>'
p25
sS'__str__'
p26
S"<method-wrapper '__str__' of exceptions.AttributeError object>"
p27
sS'__format__'
p28
S'<built-in method __format__ of exceptions.AttributeError object>'
p29
sS'__getattribute__'
p30
S"<method-wrapper '__getattribute__' of exceptions.AttributeError object>"
p31
sS'__class__'
p32
S"<type 'exceptions.AttributeError'>"
p33
sS'__unicode__'
p34
S'<built-in method __unicode__ of exceptions.AttributeError object>'
p35
sS'__delattr__'
p36
S"<method-wrapper '__delattr__' of exceptions.AttributeError object>"
p37
sS'__subclasshook__'
p38
S'<built-in method __subclasshook__ of type object>'
p39
sS'__repr__'
p40
S"<method-wrapper '__repr__' of exceptions.AttributeError object>"
p41
sS'args'
p42
S'("\'NoneType\' object has no attribute \'Name\'",)'
p43
sS'__dict__'
p44
S'{}'
p45
sS'__sizeof__'
p46
S'<built-in method __sizeof__ of exceptions.AttributeError object>'
p47
sS'__doc__'
p48
S"'Attribute not found.'"
p49
sS'__init__'
p50
S"<method-wrapper '__init__' of exceptions.AttributeError object>"
p51
sS'__new__'
p52
S'<built-in method __new__ of type object>'
p53
ssS'evalue'
p54
S"'NoneType' object has no attribute 'Name'"
p55
sS'request'
p56
ccopy_reg
_reconstructor
p57
(cgluon.html
BEAUTIFY
p58
c__builtin__
object
p59
NtRp60
(dp61
S'attributes'
p62
(dp63
sS'components'
p64
(lp65
g57
(cgluon.html
TABLE
p66
g59
NtRp67
(dp68
g62
(dp69
S'level'
p70
I5
ssS'parent'
p71
Nsg64
(lp72
g57
(cgluon.html
TR
p73
g59
NtRp74
(dp75
g62
(dp76
sg71
g67
sg64
(lp77
g57
(cgluon.html
TD
p78
g59
NtRp79
(dp80
g62
(dp81
S'_style'
p82
S'font-weight:bold;vertical-align:top'
p83
ssg71
g74
sg64
(lp84
S'ajax'
p85
asbag57
(g78
g59
NtRp86
(dp87
g62
(dp88
S'_valign'
p89
S'top'
p90
ssg71
g74
sg64
(lp91
S':'
asbag57
(g78
g59
NtRp92
(dp93
g62
(dp94
sg71
g74
sg64
(lp95
g57
(g58
g59
NtRp96
(dp97
g62
(dp98
g70
I5
ssg71
g92
sg64
(lp99
S'False'
p100
asbasbasbag57
(g73
g59
NtRp101
(dp102
g62
(dp103
sg71
g67
sg64
(lp104
g57
(g78
g59
NtRp105
(dp106
g62
(dp107
g82
g83
ssg71
g101
sg64
(lp108
S'application'
p109
asbag57
(g78
g59
NtRp110
(dp111
g62
(dp112
g89
g90
ssg71
g101
sg64
(lp113
S':'
asbag57
(g78
g59
NtRp114
(dp115
g62
(dp116
sg71
g101
sg64
(lp117
g57
(g58
g59
NtRp118
(dp119
g62
(dp120
g70
I5
ssg71
g114
sg64
(lp121
S'project'
p122
asbasbasbag57
(g73
g59
NtRp123
(dp124
g62
(dp125
sg71
g67
sg64
(lp126
g57
(g78
g59
NtRp127
(dp128
g62
(dp129
g82
g83
ssg71
g123
sg64
(lp130
g42
asbag57
(g78
g59
NtRp131
(dp132
g62
(dp133
g89
g90
ssg71
g123
sg64
(lp134
S':'
asbag57
(g78
g59
NtRp135
(dp136
g62
(dp137
sg71
g123
sg64
(lp138
g57
(g58
g59
NtRp139
(dp140
g62
(dp141
g70
I5
ssg71
g135
sg64
(lp142
g57
(g66
g59
NtRp143
(dp144
g62
(dp145
g70
I4
ssg71
Nsg64
(lp146
g57
(g73
g59
NtRp147
(dp148
g62
(dp149
sg71
g143
sg64
(lp150
g57
(g78
g59
NtRp151
(dp152
g62
(dp153
sg71
g147
sg64
(lp154
g57
(g58
g59
NtRp155
(dp156
g62
(dp157
g70
I4
ssg71
g151
sg64
(lp158
S'shivani'
p159
asbasbasbasbasbasbasbag57
(g73
g59
NtRp160
(dp161
g62
(dp162
sg71
g67
sg64
(lp163
g57
(g78
g59
NtRp164
(dp165
g62
(dp166
g82
g83
ssg71
g160
sg64
(lp167
S'body'
p168
asbag57
(g78
g59
NtRp169
(dp170
g62
(dp171
g89
g90
ssg71
g160
sg64
(lp172
S':'
asbag57
(g78
g59
NtRp173
(dp174
g62
(dp175
sg71
g160
sg64
(lp176
g57
(g58
g59
NtRp177
(dp178
g62
(dp179
g70
I5
ssg71
g173
sg64
(lp180
S'<cStringIO.StringO object at 0x8ca23a0>'
p181
asbasbasbag57
(g73
g59
NtRp182
(dp183
g62
(dp184
sg71
g67
sg64
(lp185
g57
(g78
g59
NtRp186
(dp187
g62
(dp188
g82
g83
ssg71
g182
sg64
(lp189
S'client'
p190
asbag57
(g78
g59
NtRp191
(dp192
g62
(dp193
g89
g90
ssg71
g182
sg64
(lp194
S':'
asbag57
(g78
g59
NtRp195
(dp196
g62
(dp197
sg71
g182
sg64
(lp198
g57
(g58
g59
NtRp199
(dp200
g62
(dp201
g70
I5
ssg71
g195
sg64
(lp202
S'127.0.0.1'
p203
asbasbasbag57
(g73
g59
NtRp204
(dp205
g62
(dp206
sg71
g67
sg64
(lp207
g57
(g78
g59
NtRp208
(dp209
g62
(dp210
g82
g83
ssg71
g204
sg64
(lp211
S'controller'
p212
asbag57
(g78
g59
NtRp213
(dp214
g62
(dp215
g89
g90
ssg71
g204
sg64
(lp216
S':'
asbag57
(g78
g59
NtRp217
(dp218
g62
(dp219
sg71
g204
sg64
(lp220
g57
(g58
g59
NtRp221
(dp222
g62
(dp223
g70
I5
ssg71
g217
sg64
(lp224
S'default'
p225
asbasbasbag57
(g73
g59
NtRp226
(dp227
g62
(dp228
sg71
g67
sg64
(lp229
g57
(g78
g59
NtRp230
(dp231
g62
(dp232
g82
g83
ssg71
g226
sg64
(lp233
S'cookies'
p234
asbag57
(g78
g59
NtRp235
(dp236
g62
(dp237
g89
g90
ssg71
g226
sg64
(lp238
S':'
asbag57
(g78
g59
NtRp239
(dp240
g62
(dp241
sg71
g226
sg64
(lp242
g57
(g58
g59
NtRp243
(dp244
g62
(dp245
g70
I5
ssg71
g239
sg64
(lp246
g57
(g66
g59
NtRp247
(dp248
g62
(dp249
g70
I4
ssg71
Nsg64
(lp250
g57
(g73
g59
NtRp251
(dp252
g62
(dp253
sg71
g247
sg64
(lp254
g57
(g78
g59
NtRp255
(dp256
g62
(dp257
g82
g83
ssg71
g251
sg64
(lp258
S'session_id_admin'
p259
asbag57
(g78
g59
NtRp260
(dp261
g62
(dp262
g89
g90
ssg71
g251
sg64
(lp263
S':'
asbag57
(g78
g59
NtRp264
(dp265
g62
(dp266
sg71
g251
sg64
(lp267
g57
(g58
g59
NtRp268
(dp269
g62
(dp270
g70
I4
ssg71
g264
sg64
(lp271
g57
(g66
g59
NtRp272
(dp273
g62
(dp274
g70
I3
ssg71
Nsg64
(lp275
g57
(g73
g59
NtRp276
(dp277
g62
(dp278
sg71
g272
sg64
(lp279
g57
(g78
g59
NtRp280
(dp281
g62
(dp282
g82
g83
ssg71
g276
sg64
(lp283
S'comment'
p284
asbag57
(g78
g59
NtRp285
(dp286
g62
(dp287
g89
g90
ssg71
g276
sg64
(lp288
S':'
asbag57
(g78
g59
NtRp289
(dp290
g62
(dp291
sg71
g276
sg64
(lp292
g57
(g58
g59
NtRp293
(dp294
g62
(dp295
g70
I3
ssg71
g289
sg64
(lp296
S''
asbasbasbag57
(g73
g59
NtRp297
(dp298
g62
(dp299
sg71
g272
sg64
(lp300
g57
(g78
g59
NtRp301
(dp302
g62
(dp303
g82
g83
ssg71
g297
sg64
(lp304
S'domain'
p305
asbag57
(g78
g59
NtRp306
(dp307
g62
(dp308
g89
g90
ssg71
g297
sg64
(lp309
S':'
asbag57
(g78
g59
NtRp310
(dp311
g62
(dp312
sg71
g297
sg64
(lp313
g57
(g58
g59
NtRp314
(dp315
g62
(dp316
g70
I3
ssg71
g310
sg64
(lp317
S''
asbasbasbag57
(g73
g59
NtRp318
(dp319
g62
(dp320
sg71
g272
sg64
(lp321
g57
(g78
g59
NtRp322
(dp323
g62
(dp324
g82
g83
ssg71
g318
sg64
(lp325
S'expires'
p326
asbag57
(g78
g59
NtRp327
(dp328
g62
(dp329
g89
g90
ssg71
g318
sg64
(lp330
S':'
asbag57
(g78
g59
NtRp331
(dp332
g62
(dp333
sg71
g318
sg64
(lp334
g57
(g58
g59
NtRp335
(dp336
g62
(dp337
g70
I3
ssg71
g331
sg64
(lp338
S''
asbasbasbag57
(g73
g59
NtRp339
(dp340
g62
(dp341
sg71
g272
sg64
(lp342
g57
(g78
g59
NtRp343
(dp344
g62
(dp345
g82
g83
ssg71
g339
sg64
(lp346
S'httponly'
p347
asbag57
(g78
g59
NtRp348
(dp349
g62
(dp350
g89
g90
ssg71
g339
sg64
(lp351
S':'
asbag57
(g78
g59
NtRp352
(dp353
g62
(dp354
sg71
g339
sg64
(lp355
g57
(g58
g59
NtRp356
(dp357
g62
(dp358
g70
I3
ssg71
g352
sg64
(lp359
S''
asbasbasbag57
(g73
g59
NtRp360
(dp361
g62
(dp362
sg71
g272
sg64
(lp363
g57
(g78
g59
NtRp364
(dp365
g62
(dp366
g82
g83
ssg71
g360
sg64
(lp367
S'max-age'
p368
asbag57
(g78
g59
NtRp369
(dp370
g62
(dp371
g89
g90
ssg71
g360
sg64
(lp372
S':'
asbag57
(g78
g59
NtRp373
(dp374
g62
(dp375
sg71
g360
sg64
(lp376
g57
(g58
g59
NtRp377
(dp378
g62
(dp379
g70
I3
ssg71
g373
sg64
(lp380
S''
asbasbasbag57
(g73
g59
NtRp381
(dp382
g62
(dp383
sg71
g272
sg64
(lp384
g57
(g78
g59
NtRp385
(dp386
g62
(dp387
g82
g83
ssg71
g381
sg64
(lp388
S'path'
p389
asbag57
(g78
g59
NtRp390
(dp391
g62
(dp392
g89
g90
ssg71
g381
sg64
(lp393
S':'
asbag57
(g78
g59
NtRp394
(dp395
g62
(dp396
sg71
g381
sg64
(lp397
g57
(g58
g59
NtRp398
(dp399
g62
(dp400
g70
I3
ssg71
g394
sg64
(lp401
S''
asbasbasbag57
(g73
g59
NtRp402
(dp403
g62
(dp404
sg71
g272
sg64
(lp405
g57
(g78
g59
NtRp406
(dp407
g62
(dp408
g82
g83
ssg71
g402
sg64
(lp409
S'secure'
p410
asbag57
(g78
g59
NtRp411
(dp412
g62
(dp413
g89
g90
ssg71
g402
sg64
(lp414
S':'
asbag57
(g78
g59
NtRp415
(dp416
g62
(dp417
sg71
g402
sg64
(lp418
g57
(g58
g59
NtRp419
(dp420
g62
(dp421
g70
I3
ssg71
g415
sg64
(lp422
S''
asbasbasbag57
(g73
g59
NtRp423
(dp424
g62
(dp425
sg71
g272
sg64
(lp426
g57
(g78
g59
NtRp427
(dp428
g62
(dp429
g82
g83
ssg71
g423
sg64
(lp430
S'version'
p431
asbag57
(g78
g59
NtRp432
(dp433
g62
(dp434
g89
g90
ssg71
g423
sg64
(lp435
S':'
asbag57
(g78
g59
NtRp436
(dp437
g62
(dp438
sg71
g423
sg64
(lp439
g57
(g58
g59
NtRp440
(dp441
g62
(dp442
g70
I3
ssg71
g436
sg64
(lp443
S''
asbasbasbasbasbasbasbag57
(g73
g59
NtRp444
(dp445
g62
(dp446
sg71
g247
sg64
(lp447
g57
(g78
g59
NtRp448
(dp449
g62
(dp450
g82
g83
ssg71
g444
sg64
(lp451
S'session_id_hierarchy'
p452
asbag57
(g78
g59
NtRp453
(dp454
g62
(dp455
g89
g90
ssg71
g444
sg64
(lp456
S':'
asbag57
(g78
g59
NtRp457
(dp458
g62
(dp459
sg71
g444
sg64
(lp460
g57
(g58
g59
NtRp461
(dp462
g62
(dp463
g70
I4
ssg71
g457
sg64
(lp464
g57
(g66
g59
NtRp465
(dp466
g62
(dp467
g70
I3
ssg71
Nsg64
(lp468
g57
(g73
g59
NtRp469
(dp470
g62
(dp471
sg71
g465
sg64
(lp472
g57
(g78
g59
NtRp473
(dp474
g62
(dp475
g82
g83
ssg71
g469
sg64
(lp476
g284
asbag57
(g78
g59
NtRp477
(dp478
g62
(dp479
g89
g90
ssg71
g469
sg64
(lp480
S':'
asbag57
(g78
g59
NtRp481
(dp482
g62
(dp483
sg71
g469
sg64
(lp484
g57
(g58
g59
NtRp485
(dp486
g62
(dp487
g70
I3
ssg71
g481
sg64
(lp488
S''
asbasbasbag57
(g73
g59
NtRp489
(dp490
g62
(dp491
sg71
g465
sg64
(lp492
g57
(g78
g59
NtRp493
(dp494
g62
(dp495
g82
g83
ssg71
g489
sg64
(lp496
g305
asbag57
(g78
g59
NtRp497
(dp498
g62
(dp499
g89
g90
ssg71
g489
sg64
(lp500
S':'
asbag57
(g78
g59
NtRp501
(dp502
g62
(dp503
sg71
g489
sg64
(lp504
g57
(g58
g59
NtRp505
(dp506
g62
(dp507
g70
I3
ssg71
g501
sg64
(lp508
S''
asbasbasbag57
(g73
g59
NtRp509
(dp510
g62
(dp511
sg71
g465
sg64
(lp512
g57
(g78
g59
NtRp513
(dp514
g62
(dp515
g82
g83
ssg71
g509
sg64
(lp516
g326
asbag57
(g78
g59
NtRp517
(dp518
g62
(dp519
g89
g90
ssg71
g509
sg64
(lp520
S':'
asbag57
(g78
g59
NtRp521
(dp522
g62
(dp523
sg71
g509
sg64
(lp524
g57
(g58
g59
NtRp525
(dp526
g62
(dp527
g70
I3
ssg71
g521
sg64
(lp528
S''
asbasbasbag57
(g73
g59
NtRp529
(dp530
g62
(dp531
sg71
g465
sg64
(lp532
g57
(g78
g59
NtRp533
(dp534
g62
(dp535
g82
g83
ssg71
g529
sg64
(lp536
g347
asbag57
(g78
g59
NtRp537
(dp538
g62
(dp539
g89
g90
ssg71
g529
sg64
(lp540
S':'
asbag57
(g78
g59
NtRp541
(dp542
g62
(dp543
sg71
g529
sg64
(lp544
g57
(g58
g59
NtRp545
(dp546
g62
(dp547
g70
I3
ssg71
g541
sg64
(lp548
S''
asbasbasbag57
(g73
g59
NtRp549
(dp550
g62
(dp551
sg71
g465
sg64
(lp552
g57
(g78
g59
NtRp553
(dp554
g62
(dp555
g82
g83
ssg71
g549
sg64
(lp556
g368
asbag57
(g78
g59
NtRp557
(dp558
g62
(dp559
g89
g90
ssg71
g549
sg64
(lp560
S':'
asbag57
(g78
g59
NtRp561
(dp562
g62
(dp563
sg71
g549
sg64
(lp564
g57
(g58
g59
NtRp565
(dp566
g62
(dp567
g70
I3
ssg71
g561
sg64
(lp568
S''
asbasbasbag57
(g73
g59
NtRp569
(dp570
g62
(dp571
sg71
g465
sg64
(lp572
g57
(g78
g59
NtRp573
(dp574
g62
(dp575
g82
g83
ssg71
g569
sg64
(lp576
g389
asbag57
(g78
g59
NtRp577
(dp578
g62
(dp579
g89
g90
ssg71
g569
sg64
(lp580
S':'
asbag57
(g78
g59
NtRp581
(dp582
g62
(dp583
sg71
g569
sg64
(lp584
g57
(g58
g59
NtRp585
(dp586
g62
(dp587
g70
I3
ssg71
g581
sg64
(lp588
S''
asbasbasbag57
(g73
g59
NtRp589
(dp590
g62
(dp591
sg71
g465
sg64
(lp592
g57
(g78
g59
NtRp593
(dp594
g62
(dp595
g82
g83
ssg71
g589
sg64
(lp596
g410
asbag57
(g78
g59
NtRp597
(dp598
g62
(dp599
g89
g90
ssg71
g589
sg64
(lp600
S':'
asbag57
(g78
g59
NtRp601
(dp602
g62
(dp603
sg71
g589
sg64
(lp604
g57
(g58
g59
NtRp605
(dp606
g62
(dp607
g70
I3
ssg71
g601
sg64
(lp608
S''
asbasbasbag57
(g73
g59
NtRp609
(dp610
g62
(dp611
sg71
g465
sg64
(lp612
g57
(g78
g59
NtRp613
(dp614
g62
(dp615
g82
g83
ssg71
g609
sg64
(lp616
g431
asbag57
(g78
g59
NtRp617
(dp618
g62
(dp619
g89
g90
ssg71
g609
sg64
(lp620
S':'
asbag57
(g78
g59
NtRp621
(dp622
g62
(dp623
sg71
g609
sg64
(lp624
g57
(g58
g59
NtRp625
(dp626
g62
(dp627
g70
I3
ssg71
g621
sg64
(lp628
S''
asbasbasbasbasbasbasbag57
(g73
g59
NtRp629
(dp630
g62
(dp631
sg71
g247
sg64
(lp632
g57
(g78
g59
NtRp633
(dp634
g62
(dp635
g82
g83
ssg71
g629
sg64
(lp636
S'session_id_images'
p637
asbag57
(g78
g59
NtRp638
(dp639
g62
(dp640
g89
g90
ssg71
g629
sg64
(lp641
S':'
asbag57
(g78
g59
NtRp642
(dp643
g62
(dp644
sg71
g629
sg64
(lp645
g57
(g58
g59
NtRp646
(dp647
g62
(dp648
g70
I4
ssg71
g642
sg64
(lp649
g57
(g66
g59
NtRp650
(dp651
g62
(dp652
g70
I3
ssg71
Nsg64
(lp653
g57
(g73
g59
NtRp654
(dp655
g62
(dp656
sg71
g650
sg64
(lp657
g57
(g78
g59
NtRp658
(dp659
g62
(dp660
g82
g83
ssg71
g654
sg64
(lp661
g284
asbag57
(g78
g59
NtRp662
(dp663
g62
(dp664
g89
g90
ssg71
g654
sg64
(lp665
S':'
asbag57
(g78
g59
NtRp666
(dp667
g62
(dp668
sg71
g654
sg64
(lp669
g57
(g58
g59
NtRp670
(dp671
g62
(dp672
g70
I3
ssg71
g666
sg64
(lp673
S''
asbasbasbag57
(g73
g59
NtRp674
(dp675
g62
(dp676
sg71
g650
sg64
(lp677
g57
(g78
g59
NtRp678
(dp679
g62
(dp680
g82
g83
ssg71
g674
sg64
(lp681
g305
asbag57
(g78
g59
NtRp682
(dp683
g62
(dp684
g89
g90
ssg71
g674
sg64
(lp685
S':'
asbag57
(g78
g59
NtRp686
(dp687
g62
(dp688
sg71
g674
sg64
(lp689
g57
(g58
g59
NtRp690
(dp691
g62
(dp692
g70
I3
ssg71
g686
sg64
(lp693
S''
asbasbasbag57
(g73
g59
NtRp694
(dp695
g62
(dp696
sg71
g650
sg64
(lp697
g57
(g78
g59
NtRp698
(dp699
g62
(dp700
g82
g83
ssg71
g694
sg64
(lp701
g326
asbag57
(g78
g59
NtRp702
(dp703
g62
(dp704
g89
g90
ssg71
g694
sg64
(lp705
S':'
asbag57
(g78
g59
NtRp706
(dp707
g62
(dp708
sg71
g694
sg64
(lp709
g57
(g58
g59
NtRp710
(dp711
g62
(dp712
g70
I3
ssg71
g706
sg64
(lp713
S''
asbasbasbag57
(g73
g59
NtRp714
(dp715
g62
(dp716
sg71
g650
sg64
(lp717
g57
(g78
g59
NtRp718
(dp719
g62
(dp720
g82
g83
ssg71
g714
sg64
(lp721
g347
asbag57
(g78
g59
NtRp722
(dp723
g62
(dp724
g89
g90
ssg71
g714
sg64
(lp725
S':'
asbag57
(g78
g59
NtRp726
(dp727
g62
(dp728
sg71
g714
sg64
(lp729
g57
(g58
g59
NtRp730
(dp731
g62
(dp732
g70
I3
ssg71
g726
sg64
(lp733
S''
asbasbasbag57
(g73
g59
NtRp734
(dp735
g62
(dp736
sg71
g650
sg64
(lp737
g57
(g78
g59
NtRp738
(dp739
g62
(dp740
g82
g83
ssg71
g734
sg64
(lp741
g368
asbag57
(g78
g59
NtRp742
(dp743
g62
(dp744
g89
g90
ssg71
g734
sg64
(lp745
S':'
asbag57
(g78
g59
NtRp746
(dp747
g62
(dp748
sg71
g734
sg64
(lp749
g57
(g58
g59
NtRp750
(dp751
g62
(dp752
g70
I3
ssg71
g746
sg64
(lp753
S''
asbasbasbag57
(g73
g59
NtRp754
(dp755
g62
(dp756
sg71
g650
sg64
(lp757
g57
(g78
g59
NtRp758
(dp759
g62
(dp760
g82
g83
ssg71
g754
sg64
(lp761
g389
asbag57
(g78
g59
NtRp762
(dp763
g62
(dp764
g89
g90
ssg71
g754
sg64
(lp765
S':'
asbag57
(g78
g59
NtRp766
(dp767
g62
(dp768
sg71
g754
sg64
(lp769
g57
(g58
g59
NtRp770
(dp771
g62
(dp772
g70
I3
ssg71
g766
sg64
(lp773
S''
asbasbasbag57
(g73
g59
NtRp774
(dp775
g62
(dp776
sg71
g650
sg64
(lp777
g57
(g78
g59
NtRp778
(dp779
g62
(dp780
g82
g83
ssg71
g774
sg64
(lp781
g410
asbag57
(g78
g59
NtRp782
(dp783
g62
(dp784
g89
g90
ssg71
g774
sg64
(lp785
S':'
asbag57
(g78
g59
NtRp786
(dp787
g62
(dp788
sg71
g774
sg64
(lp789
g57
(g58
g59
NtRp790
(dp791
g62
(dp792
g70
I3
ssg71
g786
sg64
(lp793
S''
asbasbasbag57
(g73
g59
NtRp794
(dp795
g62
(dp796
sg71
g650
sg64
(lp797
g57
(g78
g59
NtRp798
(dp799
g62
(dp800
g82
g83
ssg71
g794
sg64
(lp801
g431
asbag57
(g78
g59
NtRp802
(dp803
g62
(dp804
g89
g90
ssg71
g794
sg64
(lp805
S':'
asbag57
(g78
g59
NtRp806
(dp807
g62
(dp808
sg71
g794
sg64
(lp809
g57
(g58
g59
NtRp810
(dp811
g62
(dp812
g70
I3
ssg71
g806
sg64
(lp813
S''
asbasbasbasbasbasbasbag57
(g73
g59
NtRp814
(dp815
g62
(dp816
sg71
g247
sg64
(lp817
g57
(g78
g59
NtRp818
(dp819
g62
(dp820
g82
g83
ssg71
g814
sg64
(lp821
S'session_id_project'
p822
asbag57
(g78
g59
NtRp823
(dp824
g62
(dp825
g89
g90
ssg71
g814
sg64
(lp826
S':'
asbag57
(g78
g59
NtRp827
(dp828
g62
(dp829
sg71
g814
sg64
(lp830
g57
(g58
g59
NtRp831
(dp832
g62
(dp833
g70
I4
ssg71
g827
sg64
(lp834
g57
(g66
g59
NtRp835
(dp836
g62
(dp837
g70
I3
ssg71
Nsg64
(lp838
g57
(g73
g59
NtRp839
(dp840
g62
(dp841
sg71
g835
sg64
(lp842
g57
(g78
g59
NtRp843
(dp844
g62
(dp845
g82
g83
ssg71
g839
sg64
(lp846
g284
asbag57
(g78
g59
NtRp847
(dp848
g62
(dp849
g89
g90
ssg71
g839
sg64
(lp850
S':'
asbag57
(g78
g59
NtRp851
(dp852
g62
(dp853
sg71
g839
sg64
(lp854
g57
(g58
g59
NtRp855
(dp856
g62
(dp857
g70
I3
ssg71
g851
sg64
(lp858
S''
asbasbasbag57
(g73
g59
NtRp859
(dp860
g62
(dp861
sg71
g835
sg64
(lp862
g57
(g78
g59
NtRp863
(dp864
g62
(dp865
g82
g83
ssg71
g859
sg64
(lp866
g305
asbag57
(g78
g59
NtRp867
(dp868
g62
(dp869
g89
g90
ssg71
g859
sg64
(lp870
S':'
asbag57
(g78
g59
NtRp871
(dp872
g62
(dp873
sg71
g859
sg64
(lp874
g57
(g58
g59
NtRp875
(dp876
g62
(dp877
g70
I3
ssg71
g871
sg64
(lp878
S''
asbasbasbag57
(g73
g59
NtRp879
(dp880
g62
(dp881
sg71
g835
sg64
(lp882
g57
(g78
g59
NtRp883
(dp884
g62
(dp885
g82
g83
ssg71
g879
sg64
(lp886
g326
asbag57
(g78
g59
NtRp887
(dp888
g62
(dp889
g89
g90
ssg71
g879
sg64
(lp890
S':'
asbag57
(g78
g59
NtRp891
(dp892
g62
(dp893
sg71
g879
sg64
(lp894
g57
(g58
g59
NtRp895
(dp896
g62
(dp897
g70
I3
ssg71
g891
sg64
(lp898
S''
asbasbasbag57
(g73
g59
NtRp899
(dp900
g62
(dp901
sg71
g835
sg64
(lp902
g57
(g78
g59
NtRp903
(dp904
g62
(dp905
g82
g83
ssg71
g899
sg64
(lp906
g347
asbag57
(g78
g59
NtRp907
(dp908
g62
(dp909
g89
g90
ssg71
g899
sg64
(lp910
S':'
asbag57
(g78
g59
NtRp911
(dp912
g62
(dp913
sg71
g899
sg64
(lp914
g57
(g58
g59
NtRp915
(dp916
g62
(dp917
g70
I3
ssg71
g911
sg64
(lp918
S''
asbasbasbag57
(g73
g59
NtRp919
(dp920
g62
(dp921
sg71
g835
sg64
(lp922
g57
(g78
g59
NtRp923
(dp924
g62
(dp925
g82
g83
ssg71
g919
sg64
(lp926
g368
asbag57
(g78
g59
NtRp927
(dp928
g62
(dp929
g89
g90
ssg71
g919
sg64
(lp930
S':'
asbag57
(g78
g59
NtRp931
(dp932
g62
(dp933
sg71
g919
sg64
(lp934
g57
(g58
g59
NtRp935
(dp936
g62
(dp937
g70
I3
ssg71
g931
sg64
(lp938
S''
asbasbasbag57
(g73
g59
NtRp939
(dp940
g62
(dp941
sg71
g835
sg64
(lp942
g57
(g78
g59
NtRp943
(dp944
g62
(dp945
g82
g83
ssg71
g939
sg64
(lp946
g389
asbag57
(g78
g59
NtRp947
(dp948
g62
(dp949
g89
g90
ssg71
g939
sg64
(lp950
S':'
asbag57
(g78
g59
NtRp951
(dp952
g62
(dp953
sg71
g939
sg64
(lp954
g57
(g58
g59
NtRp955
(dp956
g62
(dp957
g70
I3
ssg71
g951
sg64
(lp958
S''
asbasbasbag57
(g73
g59
NtRp959
(dp960
g62
(dp961
sg71
g835
sg64
(lp962
g57
(g78
g59
NtRp963
(dp964
g62
(dp965
g82
g83
ssg71
g959
sg64
(lp966
g410
asbag57
(g78
g59
NtRp967
(dp968
g62
(dp969
g89
g90
ssg71
g959
sg64
(lp970
S':'
asbag57
(g78
g59
NtRp971
(dp972
g62
(dp973
sg71
g959
sg64
(lp974
g57
(g58
g59
NtRp975
(dp976
g62
(dp977
g70
I3
ssg71
g971
sg64
(lp978
S''
asbasbasbag57
(g73
g59
NtRp979
(dp980
g62
(dp981
sg71
g835
sg64
(lp982
g57
(g78
g59
NtRp983
(dp984
g62
(dp985
g82
g83
ssg71
g979
sg64
(lp986
g431
asbag57
(g78
g59
NtRp987
(dp988
g62
(dp989
g89
g90
ssg71
g979
sg64
(lp990
S':'
asbag57
(g78
g59
NtRp991
(dp992
g62
(dp993
sg71
g979
sg64
(lp994
g57
(g58
g59
NtRp995
(dp996
g62
(dp997
g70
I3
ssg71
g991
sg64
(lp998
S''
asbasbasbasbasbasbasbag57
(g73
g59
NtRp999
(dp1000
g62
(dp1001
sg71
g247
sg64
(lp1002
g57
(g78
g59
NtRp1003
(dp1004
g62
(dp1005
g82
g83
ssg71
g999
sg64
(lp1006
S'session_id_welcome'
p1007
asbag57
(g78
g59
NtRp1008
(dp1009
g62
(dp1010
g89
g90
ssg71
g999
sg64
(lp1011
S':'
asbag57
(g78
g59
NtRp1012
(dp1013
g62
(dp1014
sg71
g999
sg64
(lp1015
g57
(g58
g59
NtRp1016
(dp1017
g62
(dp1018
g70
I4
ssg71
g1012
sg64
(lp1019
g57
(g66
g59
NtRp1020
(dp1021
g62
(dp1022
g70
I3
ssg71
Nsg64
(lp1023
g57
(g73
g59
NtRp1024
(dp1025
g62
(dp1026
sg71
g1020
sg64
(lp1027
g57
(g78
g59
NtRp1028
(dp1029
g62
(dp1030
g82
g83
ssg71
g1024
sg64
(lp1031
g284
asbag57
(g78
g59
NtRp1032
(dp1033
g62
(dp1034
g89
g90
ssg71
g1024
sg64
(lp1035
S':'
asbag57
(g78
g59
NtRp1036
(dp1037
g62
(dp1038
sg71
g1024
sg64
(lp1039
g57
(g58
g59
NtRp1040
(dp1041
g62
(dp1042
g70
I3
ssg71
g1036
sg64
(lp1043
S''
asbasbasbag57
(g73
g59
NtRp1044
(dp1045
g62
(dp1046
sg71
g1020
sg64
(lp1047
g57
(g78
g59
NtRp1048
(dp1049
g62
(dp1050
g82
g83
ssg71
g1044
sg64
(lp1051
g305
asbag57
(g78
g59
NtRp1052
(dp1053
g62
(dp1054
g89
g90
ssg71
g1044
sg64
(lp1055
S':'
asbag57
(g78
g59
NtRp1056
(dp1057
g62
(dp1058
sg71
g1044
sg64
(lp1059
g57
(g58
g59
NtRp1060
(dp1061
g62
(dp1062
g70
I3
ssg71
g1056
sg64
(lp1063
S''
asbasbasbag57
(g73
g59
NtRp1064
(dp1065
g62
(dp1066
sg71
g1020
sg64
(lp1067
g57
(g78
g59
NtRp1068
(dp1069
g62
(dp1070
g82
g83
ssg71
g1064
sg64
(lp1071
g326
asbag57
(g78
g59
NtRp1072
(dp1073
g62
(dp1074
g89
g90
ssg71
g1064
sg64
(lp1075
S':'
asbag57
(g78
g59
NtRp1076
(dp1077
g62
(dp1078
sg71
g1064
sg64
(lp1079
g57
(g58
g59
NtRp1080
(dp1081
g62
(dp1082
g70
I3
ssg71
g1076
sg64
(lp1083
S''
asbasbasbag57
(g73
g59
NtRp1084
(dp1085
g62
(dp1086
sg71
g1020
sg64
(lp1087
g57
(g78
g59
NtRp1088
(dp1089
g62
(dp1090
g82
g83
ssg71
g1084
sg64
(lp1091
g347
asbag57
(g78
g59
NtRp1092
(dp1093
g62
(dp1094
g89
g90
ssg71
g1084
sg64
(lp1095
S':'
asbag57
(g78
g59
NtRp1096
(dp1097
g62
(dp1098
sg71
g1084
sg64
(lp1099
g57
(g58
g59
NtRp1100
(dp1101
g62
(dp1102
g70
I3
ssg71
g1096
sg64
(lp1103
S''
asbasbasbag57
(g73
g59
NtRp1104
(dp1105
g62
(dp1106
sg71
g1020
sg64
(lp1107
g57
(g78
g59
NtRp1108
(dp1109
g62
(dp1110
g82
g83
ssg71
g1104
sg64
(lp1111
g368
asbag57
(g78
g59
NtRp1112
(dp1113
g62
(dp1114
g89
g90
ssg71
g1104
sg64
(lp1115
S':'
asbag57
(g78
g59
NtRp1116
(dp1117
g62
(dp1118
sg71
g1104
sg64
(lp1119
g57
(g58
g59
NtRp1120
(dp1121
g62
(dp1122
g70
I3
ssg71
g1116
sg64
(lp1123
S''
asbasbasbag57
(g73
g59
NtRp1124
(dp1125
g62
(dp1126
sg71
g1020
sg64
(lp1127
g57
(g78
g59
NtRp1128
(dp1129
g62
(dp1130
g82
g83
ssg71
g1124
sg64
(lp1131
g389
asbag57
(g78
g59
NtRp1132
(dp1133
g62
(dp1134
g89
g90
ssg71
g1124
sg64
(lp1135
S':'
asbag57
(g78
g59
NtRp1136
(dp1137
g62
(dp1138
sg71
g1124
sg64
(lp1139
g57
(g58
g59
NtRp1140
(dp1141
g62
(dp1142
g70
I3
ssg71
g1136
sg64
(lp1143
S''
asbasbasbag57
(g73
g59
NtRp1144
(dp1145
g62
(dp1146
sg71
g1020
sg64
(lp1147
g57
(g78
g59
NtRp1148
(dp1149
g62
(dp1150
g82
g83
ssg71
g1144
sg64
(lp1151
g410
asbag57
(g78
g59
NtRp1152
(dp1153
g62
(dp1154
g89
g90
ssg71
g1144
sg64
(lp1155
S':'
asbag57
(g78
g59
NtRp1156
(dp1157
g62
(dp1158
sg71
g1144
sg64
(lp1159
g57
(g58
g59
NtRp1160
(dp1161
g62
(dp1162
g70
I3
ssg71
g1156
sg64
(lp1163
S''
asbasbasbag57
(g73
g59
NtRp1164
(dp1165
g62
(dp1166
sg71
g1020
sg64
(lp1167
g57
(g78
g59
NtRp1168
(dp1169
g62
(dp1170
g82
g83
ssg71
g1164
sg64
(lp1171
g431
asbag57
(g78
g59
NtRp1172
(dp1173
g62
(dp1174
g89
g90
ssg71
g1164
sg64
(lp1175
S':'
asbag57
(g78
g59
NtRp1176
(dp1177
g62
(dp1178
sg71
g1164
sg64
(lp1179
g57
(g58
g59
NtRp1180
(dp1181
g62
(dp1182
g70
I3
ssg71
g1176
sg64
(lp1183
S''
asbasbasbasbasbasbasbasbasbasbasbag57
(g73
g59
NtRp1184
(dp1185
g62
(dp1186
sg71
g67
sg64
(lp1187
g57
(g78
g59
NtRp1188
(dp1189
g62
(dp1190
g82
g83
ssg71
g1184
sg64
(lp1191
S'env'
p1192
asbag57
(g78
g59
NtRp1193
(dp1194
g62
(dp1195
g89
g90
ssg71
g1184
sg64
(lp1196
S':'
asbag57
(g78
g59
NtRp1197
(dp1198
g62
(dp1199
sg71
g1184
sg64
(lp1200
g57
(g58
g59
NtRp1201
(dp1202
g62
(dp1203
g70
I5
ssg71
g1197
sg64
(lp1204
g57
(g66
g59
NtRp1205
(dp1206
g62
(dp1207
g70
I4
ssg71
Nsg64
(lp1208
g57
(g73
g59
NtRp1209
(dp1210
g62
(dp1211
sg71
g1205
sg64
(lp1212
g57
(g78
g59
NtRp1213
(dp1214
g62
(dp1215
g82
g83
ssg71
g1209
sg64
(lp1216
S'app_folders'
p1217
asbag57
(g78
g59
NtRp1218
(dp1219
g62
(dp1220
g89
g90
ssg71
g1209
sg64
(lp1221
S':'
asbag57
(g78
g59
NtRp1222
(dp1223
g62
(dp1224
sg71
g1209
sg64
(lp1225
g57
(g58
g59
NtRp1226
(dp1227
g62
(dp1228
g70
I4
ssg71
g1222
sg64
(lp1229
S"set(['/home/arpita/courses/sem3/ssad/web2py/applications/admin/', '/home/arpita/courses/sem3/ssad/web2py/applications/project/', '/home/arpita/courses/sem3/ssad/web2py/applications/Images/', '/home/arpita/courses/sem3/ssad/web2py/applications/welcome/'])"
p1230
asbasbasbag57
(g73
g59
NtRp1231
(dp1232
g62
(dp1233
sg71
g1205
sg64
(lp1234
g57
(g78
g59
NtRp1235
(dp1236
g62
(dp1237
g82
g83
ssg71
g1231
sg64
(lp1238
S'applications_parent'
p1239
asbag57
(g78
g59
NtRp1240
(dp1241
g62
(dp1242
g89
g90
ssg71
g1231
sg64
(lp1243
S':'
asbag57
(g78
g59
NtRp1244
(dp1245
g62
(dp1246
sg71
g1231
sg64
(lp1247
g57
(g58
g59
NtRp1248
(dp1249
g62
(dp1250
g70
I4
ssg71
g1244
sg64
(lp1251
S'/home/arpita/courses/sem3/ssad/web2py'
p1252
asbasbasbag57
(g73
g59
NtRp1253
(dp1254
g62
(dp1255
sg71
g1205
sg64
(lp1256
g57
(g78
g59
NtRp1257
(dp1258
g62
(dp1259
g82
g83
ssg71
g1253
sg64
(lp1260
S'cmd_args'
p1261
asbag57
(g78
g59
NtRp1262
(dp1263
g62
(dp1264
g89
g90
ssg71
g1253
sg64
(lp1265
S':'
asbag57
(g78
g59
NtRp1266
(dp1267
g62
(dp1268
sg71
g1253
sg64
(lp1269
g57
(g58
g59
NtRp1270
(dp1271
g62
(dp1272
g70
I4
ssg71
g1266
sg64
(lp1273
g57
(g66
g59
NtRp1274
(dp1275
g62
(dp1276
g70
I3
ssg71
Nsg64
(lp1277
sbasbasbasbag57
(g73
g59
NtRp1278
(dp1279
g62
(dp1280
sg71
g1205
sg64
(lp1281
g57
(g78
g59
NtRp1282
(dp1283
g62
(dp1284
g82
g83
ssg71
g1278
sg64
(lp1285
S'cmd_options'
p1286
asbag57
(g78
g59
NtRp1287
(dp1288
g62
(dp1289
g89
g90
ssg71
g1278
sg64
(lp1290
S':'
asbag57
(g78
g59
NtRp1291
(dp1292
g62
(dp1293
sg71
g1278
sg64
(lp1294
g57
(g58
g59
NtRp1295
(dp1296
g62
(dp1297
g70
I4
ssg71
g1291
sg64
(lp1298
S"<Values at 0x88b33cc: {'verbose': False, 'ip': '127.0.0.1', 'shutdown_timeout': 5, 'taskbar': False, 'nocron': False, 'pid_filename': 'httpserver.pid', 'maxthreads': None, 'softcron': False, 'server_name': 'arpita-HP-630-Notebook-PC', 'bpython': False, 'nogui': False, 'port': 8000, 'extcron': False, 'debuglevel': 30, 'test': None, 'folder': '/home/arpita/courses/sem3/ssad/web2py', 'config': '', 'import_models': False, 'winservice': '', 'shell': None, 'run': '', 'log_filename': 'httpserver.log', 'args': [''], 'socket_timeout': 5, 'ssl_ca_certificate': None, 'scheduler': None, 'profiler_filename': None, 'ssl_private_key': '', 'password': 'arpita', 'request_queue_size': 5, 'ssl_certificate': '', 'cronjob': False, 'numthreads': None, 'quiet': False, 'interfaces': None, 'minthreads': None, 'timeout': 10, 'plain': False, 'nobanner': False}>"
p1299
asbasbasbag57
(g73
g59
NtRp1300
(dp1301
g62
(dp1302
sg71
g1205
sg64
(lp1303
g57
(g78
g59
NtRp1304
(dp1305
g62
(dp1306
g82
g83
ssg71
g1300
sg64
(lp1307
S'db_sessions'
p1308
asbag57
(g78
g59
NtRp1309
(dp1310
g62
(dp1311
g89
g90
ssg71
g1300
sg64
(lp1312
S':'
asbag57
(g78
g59
NtRp1313
(dp1314
g62
(dp1315
sg71
g1300
sg64
(lp1316
g57
(g58
g59
NtRp1317
(dp1318
g62
(dp1319
g70
I4
ssg71
g1313
sg64
(lp1320
S'set([])'
p1321
asbasbasbag57
(g73
g59
NtRp1322
(dp1323
g62
(dp1324
sg71
g1205
sg64
(lp1325
g57
(g78
g59
NtRp1326
(dp1327
g62
(dp1328
g82
g83
ssg71
g1322
sg64
(lp1329
S'debugging'
p1330
asbag57
(g78
g59
NtRp1331
(dp1332
g62
(dp1333
g89
g90
ssg71
g1322
sg64
(lp1334
S':'
asbag57
(g78
g59
NtRp1335
(dp1336
g62
(dp1337
sg71
g1322
sg64
(lp1338
g57
(g58
g59
NtRp1339
(dp1340
g62
(dp1341
g70
I4
ssg71
g1335
sg64
(lp1342
g100
asbasbasbag57
(g73
g59
NtRp1343
(dp1344
g62
(dp1345
sg71
g1205
sg64
(lp1346
g57
(g78
g59
NtRp1347
(dp1348
g62
(dp1349
g82
g83
ssg71
g1343
sg64
(lp1350
S'gluon_parent'
p1351
asbag57
(g78
g59
NtRp1352
(dp1353
g62
(dp1354
g89
g90
ssg71
g1343
sg64
(lp1355
S':'
asbag57
(g78
g59
NtRp1356
(dp1357
g62
(dp1358
sg71
g1343
sg64
(lp1359
g57
(g58
g59
NtRp1360
(dp1361
g62
(dp1362
g70
I4
ssg71
g1356
sg64
(lp1363
S'/home/arpita/courses/sem3/ssad/web2py'
p1364
asbasbasbag57
(g73
g59
NtRp1365
(dp1366
g62
(dp1367
sg71
g1205
sg64
(lp1368
g57
(g78
g59
NtRp1369
(dp1370
g62
(dp1371
g82
g83
ssg71
g1365
sg64
(lp1372
S'http_accept'
p1373
asbag57
(g78
g59
NtRp1374
(dp1375
g62
(dp1376
g89
g90
ssg71
g1365
sg64
(lp1377
S':'
asbag57
(g78
g59
NtRp1378
(dp1379
g62
(dp1380
sg71
g1365
sg64
(lp1381
g57
(g58
g59
NtRp1382
(dp1383
g62
(dp1384
g70
I4
ssg71
g1378
sg64
(lp1385
S'text/html,application/xhtml+xml,application/xml;q=0.9,*/*;q=0.8'
p1386
asbasbasbag57
(g73
g59
NtRp1387
(dp1388
g62
(dp1389
sg71
g1205
sg64
(lp1390
g57
(g78
g59
NtRp1391
(dp1392
g62
(dp1393
g82
g83
ssg71
g1387
sg64
(lp1394
S'http_accept_charset'
p1395
asbag57
(g78
g59
NtRp1396
(dp1397
g62
(dp1398
g89
g90
ssg71
g1387
sg64
(lp1399
S':'
asbag57
(g78
g59
NtRp1400
(dp1401
g62
(dp1402
sg71
g1387
sg64
(lp1403
g57
(g58
g59
NtRp1404
(dp1405
g62
(dp1406
g70
I4
ssg71
g1400
sg64
(lp1407
S'ISO-8859-1,utf-8;q=0.7,*;q=0.7'
p1408
asbasbasbag57
(g73
g59
NtRp1409
(dp1410
g62
(dp1411
sg71
g1205
sg64
(lp1412
g57
(g78
g59
NtRp1413
(dp1414
g62
(dp1415
g82
g83
ssg71
g1409
sg64
(lp1416
S'http_accept_encoding'
p1417
asbag57
(g78
g59
NtRp1418
(dp1419
g62
(dp1420
g89
g90
ssg71
g1409
sg64
(lp1421
S':'
asbag57
(g78
g59
NtRp1422
(dp1423
g62
(dp1424
sg71
g1409
sg64
(lp1425
g57
(g58
g59
NtRp1426
(dp1427
g62
(dp1428
g70
I4
ssg71
g1422
sg64
(lp1429
S'gzip, deflate'
p1430
asbasbasbag57
(g73
g59
NtRp1431
(dp1432
g62
(dp1433
sg71
g1205
sg64
(lp1434
g57
(g78
g59
NtRp1435
(dp1436
g62
(dp1437
g82
g83
ssg71
g1431
sg64
(lp1438
S'http_accept_language'
p1439
asbag57
(g78
g59
NtRp1440
(dp1441
g62
(dp1442
g89
g90
ssg71
g1431
sg64
(lp1443
S':'
asbag57
(g78
g59
NtRp1444
(dp1445
g62
(dp1446
sg71
g1431
sg64
(lp1447
g57
(g58
g59
NtRp1448
(dp1449
g62
(dp1450
g70
I4
ssg71
g1444
sg64
(lp1451
S'en-us,en;q=0.5'
p1452
asbasbasbag57
(g73
g59
NtRp1453
(dp1454
g62
(dp1455
sg71
g1205
sg64
(lp1456
g57
(g78
g59
NtRp1457
(dp1458
g62
(dp1459
g82
g83
ssg71
g1453
sg64
(lp1460
S'http_connection'
p1461
asbag57
(g78
g59
NtRp1462
(dp1463
g62
(dp1464
g89
g90
ssg71
g1453
sg64
(lp1465
S':'
asbag57
(g78
g59
NtRp1466
(dp1467
g62
(dp1468
sg71
g1453
sg64
(lp1469
g57
(g58
g59
NtRp1470
(dp1471
g62
(dp1472
g70
I4
ssg71
g1466
sg64
(lp1473
S'keep-alive'
p1474
asbasbasbag57
(g73
g59
NtRp1475
(dp1476
g62
(dp1477
sg71
g1205
sg64
(lp1478
g57
(g78
g59
NtRp1479
(dp1480
g62
(dp1481
g82
g83
ssg71
g1475
sg64
(lp1482
S'http_cookie'
p1483
asbag57
(g78
g59
NtRp1484
(dp1485
g62
(dp1486
g89
g90
ssg71
g1475
sg64
(lp1487
S':'
asbag57
(g78
g59
NtRp1488
(dp1489
g62
(dp1490
sg71
g1475
sg64
(lp1491
g57
(g58
g59
NtRp1492
(dp1493
g62
(dp1494
g70
I4
ssg71
g1488
sg64
(lp1495
S'session_id_welcome=127.0.0.1-426d06be-8e28-4795-b1aa-4f62538e6b91; session_id_admin=127.0.0.1-d0fa27c3-33fb-4d62-b465-b57698848fa8; session_id_hierarchy=127.0.0.1-10df1d62-8e94-4459-9103-c3a65988848a; session_id_images=127.0.0.1-87437d8b-9395-4e77-ae7d-de543fa4d802; session_id_project=127.0.0.1-685fbf0f-7e19-4757-b51e-738a125b352f'
p1496
asbasbasbag57
(g73
g59
NtRp1497
(dp1498
g62
(dp1499
sg71
g1205
sg64
(lp1500
g57
(g78
g59
NtRp1501
(dp1502
g62
(dp1503
g82
g83
ssg71
g1497
sg64
(lp1504
S'http_host'
p1505
asbag57
(g78
g59
NtRp1506
(dp1507
g62
(dp1508
g89
g90
ssg71
g1497
sg64
(lp1509
S':'
asbag57
(g78
g59
NtRp1510
(dp1511
g62
(dp1512
sg71
g1497
sg64
(lp1513
g57
(g58
g59
NtRp1514
(dp1515
g62
(dp1516
g70
I4
ssg71
g1510
sg64
(lp1517
S'127.0.0.1:8000'
p1518
asbasbasbag57
(g73
g59
NtRp1519
(dp1520
g62
(dp1521
sg71
g1205
sg64
(lp1522
g57
(g78
g59
NtRp1523
(dp1524
g62
(dp1525
g82
g83
ssg71
g1519
sg64
(lp1526
S'http_referer'
p1527
asbag57
(g78
g59
NtRp1528
(dp1529
g62
(dp1530
g89
g90
ssg71
g1519
sg64
(lp1531
S':'
asbag57
(g78
g59
NtRp1532
(dp1533
g62
(dp1534
sg71
g1519
sg64
(lp1535
g57
(g58
g59
NtRp1536
(dp1537
g62
(dp1538
g70
I4
ssg71
g1532
sg64
(lp1539
S'http://127.0.0.1:8000/project/default/index'
p1540
asbasbasbag57
(g73
g59
NtRp1541
(dp1542
g62
(dp1543
sg71
g1205
sg64
(lp1544
g57
(g78
g59
NtRp1545
(dp1546
g62
(dp1547
g82
g83
ssg71
g1541
sg64
(lp1548
S'http_user_agent'
p1549
asbag57
(g78
g59
NtRp1550
(dp1551
g62
(dp1552
g89
g90
ssg71
g1541
sg64
(lp1553
S':'
asbag57
(g78
g59
NtRp1554
(dp1555
g62
(dp1556
sg71
g1541
sg64
(lp1557
g57
(g58
g59
NtRp1558
(dp1559
g62
(dp1560
g70
I4
ssg71
g1554
sg64
(lp1561
S'Mozilla/5.0 (X11; Linux i686; rv:7.0.1) Gecko/20100101 Firefox/7.0.1'
p1562
asbasbasbag57
(g73
g59
NtRp1563
(dp1564
g62
(dp1565
sg71
g1205
sg64
(lp1566
g57
(g78
g59
NtRp1567
(dp1568
g62
(dp1569
g82
g83
ssg71
g1563
sg64
(lp1570
S'is_jython'
p1571
asbag57
(g78
g59
NtRp1572
(dp1573
g62
(dp1574
g89
g90
ssg71
g1563
sg64
(lp1575
S':'
asbag57
(g78
g59
NtRp1576
(dp1577
g62
(dp1578
sg71
g1563
sg64
(lp1579
g57
(g58
g59
NtRp1580
(dp1581
g62
(dp1582
g70
I4
ssg71
g1576
sg64
(lp1583
g100
asbasbasbag57
(g73
g59
NtRp1584
(dp1585
g62
(dp1586
sg71
g1205
sg64
(lp1587
g57
(g78
g59
NtRp1588
(dp1589
g62
(dp1590
g82
g83
ssg71
g1584
sg64
(lp1591
S'is_pypy'
p1592
asbag57
(g78
g59
NtRp1593
(dp1594
g62
(dp1595
g89
g90
ssg71
g1584
sg64
(lp1596
S':'
asbag57
(g78
g59
NtRp1597
(dp1598
g62
(dp1599
sg71
g1584
sg64
(lp1600
g57
(g58
g59
NtRp1601
(dp1602
g62
(dp1603
g70
I4
ssg71
g1597
sg64
(lp1604
g100
asbasbasbag57
(g73
g59
NtRp1605
(dp1606
g62
(dp1607
sg71
g1205
sg64
(lp1608
g57
(g78
g59
NtRp1609
(dp1610
g62
(dp1611
g82
g83
ssg71
g1605
sg64
(lp1612
S'path_info'
p1613
asbag57
(g78
g59
NtRp1614
(dp1615
g62
(dp1616
g89
g90
ssg71
g1605
sg64
(lp1617
S':'
asbag57
(g78
g59
NtRp1618
(dp1619
g62
(dp1620
sg71
g1605
sg64
(lp1621
g57
(g58
g59
NtRp1622
(dp1623
g62
(dp1624
g70
I4
ssg71
g1618
sg64
(lp1625
S'/project/default/graph/shivani'
p1626
asbasbasbag57
(g73
g59
NtRp1627
(dp1628
g62
(dp1629
sg71
g1205
sg64
(lp1630
g57
(g78
g59
NtRp1631
(dp1632
g62
(dp1633
g82
g83
ssg71
g1627
sg64
(lp1634
S'query_string'
p1635
asbag57
(g78
g59
NtRp1636
(dp1637
g62
(dp1638
g89
g90
ssg71
g1627
sg64
(lp1639
S':'
asbag57
(g78
g59
NtRp1640
(dp1641
g62
(dp1642
sg71
g1627
sg64
(lp1643
g57
(g58
g59
NtRp1644
(dp1645
g62
(dp1646
g70
I4
ssg71
g1640
sg64
(lp1647
S''
asbasbasbag57
(g73
g59
NtRp1648
(dp1649
g62
(dp1650
sg71
g1205
sg64
(lp1651
g57
(g78
g59
NtRp1652
(dp1653
g62
(dp1654
g82
g83
ssg71
g1648
sg64
(lp1655
S'remote_addr'
p1656
asbag57
(g78
g59
NtRp1657
(dp1658
g62
(dp1659
g89
g90
ssg71
g1648
sg64
(lp1660
S':'
asbag57
(g78
g59
NtRp1661
(dp1662
g62
(dp1663
sg71
g1648
sg64
(lp1664
g57
(g58
g59
NtRp1665
(dp1666
g62
(dp1667
g70
I4
ssg71
g1661
sg64
(lp1668
g203
asbasbasbag57
(g73
g59
NtRp1669
(dp1670
g62
(dp1671
sg71
g1205
sg64
(lp1672
g57
(g78
g59
NtRp1673
(dp1674
g62
(dp1675
g82
g83
ssg71
g1669
sg64
(lp1676
S'remote_port'
p1677
asbag57
(g78
g59
NtRp1678
(dp1679
g62
(dp1680
g89
g90
ssg71
g1669
sg64
(lp1681
S':'
asbag57
(g78
g59
NtRp1682
(dp1683
g62
(dp1684
sg71
g1669
sg64
(lp1685
g57
(g58
g59
NtRp1686
(dp1687
g62
(dp1688
g70
I4
ssg71
g1682
sg64
(lp1689
S'55165'
p1690
asbasbasbag57
(g73
g59
NtRp1691
(dp1692
g62
(dp1693
sg71
g1205
sg64
(lp1694
g57
(g78
g59
NtRp1695
(dp1696
g62
(dp1697
g82
g83
ssg71
g1691
sg64
(lp1698
S'request_method'
p1699
asbag57
(g78
g59
NtRp1700
(dp1701
g62
(dp1702
g89
g90
ssg71
g1691
sg64
(lp1703
S':'
asbag57
(g78
g59
NtRp1704
(dp1705
g62
(dp1706
sg71
g1691
sg64
(lp1707
g57
(g58
g59
NtRp1708
(dp1709
g62
(dp1710
g70
I4
ssg71
g1704
sg64
(lp1711
S'GET'
p1712
asbasbasbag57
(g73
g59
NtRp1713
(dp1714
g62
(dp1715
sg71
g1205
sg64
(lp1716
g57
(g78
g59
NtRp1717
(dp1718
g62
(dp1719
g82
g83
ssg71
g1713
sg64
(lp1720
S'script_name'
p1721
asbag57
(g78
g59
NtRp1722
(dp1723
g62
(dp1724
g89
g90
ssg71
g1713
sg64
(lp1725
S':'
asbag57
(g78
g59
NtRp1726
(dp1727
g62
(dp1728
sg71
g1713
sg64
(lp1729
g57
(g58
g59
NtRp1730
(dp1731
g62
(dp1732
g70
I4
ssg71
g1726
sg64
(lp1733
S''
asbasbasbag57
(g73
g59
NtRp1734
(dp1735
g62
(dp1736
sg71
g1205
sg64
(lp1737
g57
(g78
g59
NtRp1738
(dp1739
g62
(dp1740
g82
g83
ssg71
g1734
sg64
(lp1741
S'server_name'
p1742
asbag57
(g78
g59
NtRp1743
(dp1744
g62
(dp1745
g89
g90
ssg71
g1734
sg64
(lp1746
S':'
asbag57
(g78
g59
NtRp1747
(dp1748
g62
(dp1749
sg71
g1734
sg64
(lp1750
g57
(g58
g59
NtRp1751
(dp1752
g62
(dp1753
g70
I4
ssg71
g1747
sg64
(lp1754
S'arpita-HP-630-Notebook-PC'
p1755
asbasbasbag57
(g73
g59
NtRp1756
(dp1757
g62
(dp1758
sg71
g1205
sg64
(lp1759
g57
(g78
g59
NtRp1760
(dp1761
g62
(dp1762
g82
g83
ssg71
g1756
sg64
(lp1763
S'server_port'
p1764
asbag57
(g78
g59
NtRp1765
(dp1766
g62
(dp1767
g89
g90
ssg71
g1756
sg64
(lp1768
S':'
asbag57
(g78
g59
NtRp1769
(dp1770
g62
(dp1771
sg71
g1756
sg64
(lp1772
g57
(g58
g59
NtRp1773
(dp1774
g62
(dp1775
g70
I4
ssg71
g1769
sg64
(lp1776
S'8000'
p1777
asbasbasbag57
(g73
g59
NtRp1778
(dp1779
g62
(dp1780
sg71
g1205
sg64
(lp1781
g57
(g78
g59
NtRp1782
(dp1783
g62
(dp1784
g82
g83
ssg71
g1778
sg64
(lp1785
S'server_protocol'
p1786
asbag57
(g78
g59
NtRp1787
(dp1788
g62
(dp1789
g89
g90
ssg71
g1778
sg64
(lp1790
S':'
asbag57
(g78
g59
NtRp1791
(dp1792
g62
(dp1793
sg71
g1778
sg64
(lp1794
g57
(g58
g59
NtRp1795
(dp1796
g62
(dp1797
g70
I4
ssg71
g1791
sg64
(lp1798
S'HTTP/1.1'
p1799
asbasbasbag57
(g73
g59
NtRp1800
(dp1801
g62
(dp1802
sg71
g1205
sg64
(lp1803
g57
(g78
g59
NtRp1804
(dp1805
g62
(dp1806
g82
g83
ssg71
g1800
sg64
(lp1807
S'server_software'
p1808
asbag57
(g78
g59
NtRp1809
(dp1810
g62
(dp1811
g89
g90
ssg71
g1800
sg64
(lp1812
S':'
asbag57
(g78
g59
NtRp1813
(dp1814
g62
(dp1815
sg71
g1800
sg64
(lp1816
g57
(g58
g59
NtRp1817
(dp1818
g62
(dp1819
g70
I4
ssg71
g1813
sg64
(lp1820
S'Rocket 1.2.4'
p1821
asbasbasbag57
(g73
g59
NtRp1822
(dp1823
g62
(dp1824
sg71
g1205
sg64
(lp1825
g57
(g78
g59
NtRp1826
(dp1827
g62
(dp1828
g82
g83
ssg71
g1822
sg64
(lp1829
S'web2py_crontype'
p1830
asbag57
(g78
g59
NtRp1831
(dp1832
g62
(dp1833
g89
g90
ssg71
g1822
sg64
(lp1834
S':'
asbag57
(g78
g59
NtRp1835
(dp1836
g62
(dp1837
sg71
g1822
sg64
(lp1838
g57
(g58
g59
NtRp1839
(dp1840
g62
(dp1841
g70
I4
ssg71
g1835
sg64
(lp1842
S'hard'
p1843
asbasbasbag57
(g73
g59
NtRp1844
(dp1845
g62
(dp1846
sg71
g1205
sg64
(lp1847
g57
(g78
g59
NtRp1848
(dp1849
g62
(dp1850
g82
g83
ssg71
g1844
sg64
(lp1851
S'web2py_path'
p1852
asbag57
(g78
g59
NtRp1853
(dp1854
g62
(dp1855
g89
g90
ssg71
g1844
sg64
(lp1856
S':'
asbag57
(g78
g59
NtRp1857
(dp1858
g62
(dp1859
sg71
g1844
sg64
(lp1860
g57
(g58
g59
NtRp1861
(dp1862
g62
(dp1863
g70
I4
ssg71
g1857
sg64
(lp1864
g1252
asbasbasbag57
(g73
g59
NtRp1865
(dp1866
g62
(dp1867
sg71
g1205
sg64
(lp1868
g57
(g78
g59
NtRp1869
(dp1870
g62
(dp1871
g82
g83
ssg71
g1865
sg64
(lp1872
S'web2py_version'
p1873
asbag57
(g78
g59
NtRp1874
(dp1875
g62
(dp1876
g89
g90
ssg71
g1865
sg64
(lp1877
S':'
asbag57
(g78
g59
NtRp1878
(dp1879
g62
(dp1880
sg71
g1865
sg64
(lp1881
g57
(g58
g59
NtRp1882
(dp1883
g62
(dp1884
g70
I4
ssg71
g1878
sg64
(lp1885
g57
(g66
g59
NtRp1886
(dp1887
g62
(dp1888
g70
I3
ssg71
Nsg64
(lp1889
g57
(g73
g59
NtRp1890
(dp1891
g62
(dp1892
sg71
g1886
sg64
(lp1893
g57
(g78
g59
NtRp1894
(dp1895
g62
(dp1896
sg71
g1890
sg64
(lp1897
g57
(g58
g59
NtRp1898
(dp1899
g62
(dp1900
g70
I3
ssg71
g1894
sg64
(lp1901
S'1'
asbasbasbag57
(g73
g59
NtRp1902
(dp1903
g62
(dp1904
sg71
g1886
sg64
(lp1905
g57
(g78
g59
NtRp1906
(dp1907
g62
(dp1908
sg71
g1902
sg64
(lp1909
g57
(g58
g59
NtRp1910
(dp1911
g62
(dp1912
g70
I3
ssg71
g1906
sg64
(lp1913
S'99'
p1914
asbasbasbag57
(g73
g59
NtRp1915
(dp1916
g62
(dp1917
sg71
g1886
sg64
(lp1918
g57
(g78
g59
NtRp1919
(dp1920
g62
(dp1921
sg71
g1915
sg64
(lp1922
g57
(g58
g59
NtRp1923
(dp1924
g62
(dp1925
g70
I3
ssg71
g1919
sg64
(lp1926
S'7'
asbasbasbag57
(g73
g59
NtRp1927
(dp1928
g62
(dp1929
sg71
g1886
sg64
(lp1930
g57
(g78
g59
NtRp1931
(dp1932
g62
(dp1933
sg71
g1927
sg64
(lp1934
g57
(g58
g59
NtRp1935
(dp1936
g62
(dp1937
g70
I3
ssg71
g1931
sg64
(lp1938
S'datetime.datetime(2012, 3, 4, 22, 12, 8)'
p1939
asbasbasbag57
(g73
g59
NtRp1940
(dp1941
g62
(dp1942
sg71
g1886
sg64
(lp1943
g57
(g78
g59
NtRp1944
(dp1945
g62
(dp1946
sg71
g1940
sg64
(lp1947
g57
(g58
g59
NtRp1948
(dp1949
g62
(dp1950
g70
I3
ssg71
g1944
sg64
(lp1951
S'stable'
p1952
asbasbasbasbasbasbasbag57
(g73
g59
NtRp1953
(dp1954
g62
(dp1955
sg71
g1205
sg64
(lp1956
g57
(g78
g59
NtRp1957
(dp1958
g62
(dp1959
g82
g83
ssg71
g1953
sg64
(lp1960
S'wsgi_errors'
p1961
asbag57
(g78
g59
NtRp1962
(dp1963
g62
(dp1964
g89
g90
ssg71
g1953
sg64
(lp1965
S':'
asbag57
(g78
g59
NtRp1966
(dp1967
g62
(dp1968
sg71
g1953
sg64
(lp1969
g57
(g58
g59
NtRp1970
(dp1971
g62
(dp1972
g70
I4
ssg71
g1966
sg64
(lp1973
S"<open file '<stderr>', mode 'w' at 0xb74c30d0>"
p1974
asbasbasbag57
(g73
g59
NtRp1975
(dp1976
g62
(dp1977
sg71
g1205
sg64
(lp1978
g57
(g78
g59
NtRp1979
(dp1980
g62
(dp1981
g82
g83
ssg71
g1975
sg64
(lp1982
S'wsgi_file_wrapper'
p1983
asbag57
(g78
g59
NtRp1984
(dp1985
g62
(dp1986
g89
g90
ssg71
g1975
sg64
(lp1987
S':'
asbag57
(g78
g59
NtRp1988
(dp1989
g62
(dp1990
sg71
g1975
sg64
(lp1991
g57
(g58
g59
NtRp1992
(dp1993
g62
(dp1994
g70
I4
ssg71
g1988
sg64
(lp1995
S'<class wsgiref.util.FileWrapper at 0x8856f5c>'
p1996
asbasbasbag57
(g73
g59
NtRp1997
(dp1998
g62
(dp1999
sg71
g1205
sg64
(lp2000
g57
(g78
g59
NtRp2001
(dp2002
g62
(dp2003
g82
g83
ssg71
g1997
sg64
(lp2004
S'wsgi_input'
p2005
asbag57
(g78
g59
NtRp2006
(dp2007
g62
(dp2008
g89
g90
ssg71
g1997
sg64
(lp2009
S':'
asbag57
(g78
g59
NtRp2010
(dp2011
g62
(dp2012
sg71
g1997
sg64
(lp2013
g57
(g58
g59
NtRp2014
(dp2015
g62
(dp2016
g70
I4
ssg71
g2010
sg64
(lp2017
S'<socket._fileobject object at 0x8c54a2c>'
p2018
asbasbasbag57
(g73
g59
NtRp2019
(dp2020
g62
(dp2021
sg71
g1205
sg64
(lp2022
g57
(g78
g59
NtRp2023
(dp2024
g62
(dp2025
g82
g83
ssg71
g2019
sg64
(lp2026
S'wsgi_multiprocess'
p2027
asbag57
(g78
g59
NtRp2028
(dp2029
g62
(dp2030
g89
g90
ssg71
g2019
sg64
(lp2031
S':'
asbag57
(g78
g59
NtRp2032
(dp2033
g62
(dp2034
sg71
g2019
sg64
(lp2035
g57
(g58
g59
NtRp2036
(dp2037
g62
(dp2038
g70
I4
ssg71
g2032
sg64
(lp2039
g100
asbasbasbag57
(g73
g59
NtRp2040
(dp2041
g62
(dp2042
sg71
g1205
sg64
(lp2043
g57
(g78
g59
NtRp2044
(dp2045
g62
(dp2046
g82
g83
ssg71
g2040
sg64
(lp2047
S'wsgi_multithread'
p2048
asbag57
(g78
g59
NtRp2049
(dp2050
g62
(dp2051
g89
g90
ssg71
g2040
sg64
(lp2052
S':'
asbag57
(g78
g59
NtRp2053
(dp2054
g62
(dp2055
sg71
g2040
sg64
(lp2056
g57
(g58
g59
NtRp2057
(dp2058
g62
(dp2059
g70
I4
ssg71
g2053
sg64
(lp2060
S'True'
p2061
asbasbasbag57
(g73
g59
NtRp2062
(dp2063
g62
(dp2064
sg71
g1205
sg64
(lp2065
g57
(g78
g59
NtRp2066
(dp2067
g62
(dp2068
g82
g83
ssg71
g2062
sg64
(lp2069
S'wsgi_run_once'
p2070
asbag57
(g78
g59
NtRp2071
(dp2072
g62
(dp2073
g89
g90
ssg71
g2062
sg64
(lp2074
S':'
asbag57
(g78
g59
NtRp2075
(dp2076
g62
(dp2077
sg71
g2062
sg64
(lp2078
g57
(g58
g59
NtRp2079
(dp2080
g62
(dp2081
g70
I4
ssg71
g2075
sg64
(lp2082
g100
asbasbasbag57
(g73
g59
NtRp2083
(dp2084
g62
(dp2085
sg71
g1205
sg64
(lp2086
g57
(g78
g59
NtRp2087
(dp2088
g62
(dp2089
g82
g83
ssg71
g2083
sg64
(lp2090
S'wsgi_url_scheme'
p2091
asbag57
(g78
g59
NtRp2092
(dp2093
g62
(dp2094
g89
g90
ssg71
g2083
sg64
(lp2095
S':'
asbag57
(g78
g59
NtRp2096
(dp2097
g62
(dp2098
sg71
g2083
sg64
(lp2099
g57
(g58
g59
NtRp2100
(dp2101
g62
(dp2102
g70
I4
ssg71
g2096
sg64
(lp2103
S'http'
p2104
asbasbasbag57
(g73
g59
NtRp2105
(dp2106
g62
(dp2107
sg71
g1205
sg64
(lp2108
g57
(g78
g59
NtRp2109
(dp2110
g62
(dp2111
g82
g83
ssg71
g2105
sg64
(lp2112
S'wsgi_version'
p2113
asbag57
(g78
g59
NtRp2114
(dp2115
g62
(dp2116
g89
g90
ssg71
g2105
sg64
(lp2117
S':'
asbag57
(g78
g59
NtRp2118
(dp2119
g62
(dp2120
sg71
g2105
sg64
(lp2121
g57
(g58
g59
NtRp2122
(dp2123
g62
(dp2124
g70
I4
ssg71
g2118
sg64
(lp2125
g57
(g66
g59
NtRp2126
(dp2127
g62
(dp2128
g70
I3
ssg71
Nsg64
(lp2129
g57
(g73
g59
NtRp2130
(dp2131
g62
(dp2132
sg71
g2126
sg64
(lp2133
g57
(g78
g59
NtRp2134
(dp2135
g62
(dp2136
sg71
g2130
sg64
(lp2137
g57
(g58
g59
NtRp2138
(dp2139
g62
(dp2140
g70
I3
ssg71
g2134
sg64
(lp2141
S'1'
asbasbasbag57
(g73
g59
NtRp2142
(dp2143
g62
(dp2144
sg71
g2126
sg64
(lp2145
g57
(g78
g59
NtRp2146
(dp2147
g62
(dp2148
sg71
g2142
sg64
(lp2149
g57
(g58
g59
NtRp2150
(dp2151
g62
(dp2152
g70
I3
ssg71
g2146
sg64
(lp2153
S'0'
asbasbasbasbasbasbasbasbasbasbasbag57
(g73
g59
NtRp2154
(dp2155
g62
(dp2156
sg71
g67
sg64
(lp2157
g57
(g78
g59
NtRp2158
(dp2159
g62
(dp2160
g82
g83
ssg71
g2154
sg64
(lp2161
S'extension'
p2162
asbag57
(g78
g59
NtRp2163
(dp2164
g62
(dp2165
g89
g90
ssg71
g2154
sg64
(lp2166
S':'
asbag57
(g78
g59
NtRp2167
(dp2168
g62
(dp2169
sg71
g2154
sg64
(lp2170
g57
(g58
g59
NtRp2171
(dp2172
g62
(dp2173
g70
I5
ssg71
g2167
sg64
(lp2174
S'html'
p2175
asbasbasbag57
(g73
g59
NtRp2176
(dp2177
g62
(dp2178
sg71
g67
sg64
(lp2179
g57
(g78
g59
NtRp2180
(dp2181
g62
(dp2182
g82
g83
ssg71
g2176
sg64
(lp2183
S'folder'
p2184
asbag57
(g78
g59
NtRp2185
(dp2186
g62
(dp2187
g89
g90
ssg71
g2176
sg64
(lp2188
S':'
asbag57
(g78
g59
NtRp2189
(dp2190
g62
(dp2191
sg71
g2176
sg64
(lp2192
g57
(g58
g59
NtRp2193
(dp2194
g62
(dp2195
g70
I5
ssg71
g2189
sg64
(lp2196
S'/home/arpita/courses/sem3/ssad/web2py/applications/project/'
p2197
asbasbasbag57
(g73
g59
NtRp2198
(dp2199
g62
(dp2200
sg71
g67
sg64
(lp2201
g57
(g78
g59
NtRp2202
(dp2203
g62
(dp2204
g82
g83
ssg71
g2198
sg64
(lp2205
S'function'
p2206
asbag57
(g78
g59
NtRp2207
(dp2208
g62
(dp2209
g89
g90
ssg71
g2198
sg64
(lp2210
S':'
asbag57
(g78
g59
NtRp2211
(dp2212
g62
(dp2213
sg71
g2198
sg64
(lp2214
g57
(g58
g59
NtRp2215
(dp2216
g62
(dp2217
g70
I5
ssg71
g2211
sg64
(lp2218
S'graph'
p2219
asbasbasbag57
(g73
g59
NtRp2220
(dp2221
g62
(dp2222
sg71
g67
sg64
(lp2223
g57
(g78
g59
NtRp2224
(dp2225
g62
(dp2226
g82
g83
ssg71
g2220
sg64
(lp2227
S'get_vars'
p2228
asbag57
(g78
g59
NtRp2229
(dp2230
g62
(dp2231
g89
g90
ssg71
g2220
sg64
(lp2232
S':'
asbag57
(g78
g59
NtRp2233
(dp2234
g62
(dp2235
sg71
g2220
sg64
(lp2236
g57
(g58
g59
NtRp2237
(dp2238
g62
(dp2239
g70
I5
ssg71
g2233
sg64
(lp2240
g57
(g66
g59
NtRp2241
(dp2242
g62
(dp2243
g70
I4
ssg71
Nsg64
(lp2244
sbasbasbasbag57
(g73
g59
NtRp2245
(dp2246
g62
(dp2247
sg71
g67
sg64
(lp2248
g57
(g78
g59
NtRp2249
(dp2250
g62
(dp2251
g82
g83
ssg71
g2245
sg64
(lp2252
S'global_settings'
p2253
asbag57
(g78
g59
NtRp2254
(dp2255
g62
(dp2256
g89
g90
ssg71
g2245
sg64
(lp2257
S':'
asbag57
(g78
g59
NtRp2258
(dp2259
g62
(dp2260
sg71
g2245
sg64
(lp2261
g57
(g58
g59
NtRp2262
(dp2263
g62
(dp2264
g70
I5
ssg71
g2258
sg64
(lp2265
g57
(g66
g59
NtRp2266
(dp2267
g62
(dp2268
g70
I4
ssg71
Nsg64
(lp2269
g57
(g73
g59
NtRp2270
(dp2271
g62
(dp2272
sg71
g2266
sg64
(lp2273
g57
(g78
g59
NtRp2274
(dp2275
g62
(dp2276
g82
g83
ssg71
g2270
sg64
(lp2277
g1217
asbag57
(g78
g59
NtRp2278
(dp2279
g62
(dp2280
g89
g90
ssg71
g2270
sg64
(lp2281
S':'
asbag57
(g78
g59
NtRp2282
(dp2283
g62
(dp2284
sg71
g2270
sg64
(lp2285
g57
(g58
g59
NtRp2286
(dp2287
g62
(dp2288
g70
I4
ssg71
g2282
sg64
(lp2289
S"set(['/home/arpita/courses/sem3/ssad/web2py/applications/admin/', '/home/arpita/courses/sem3/ssad/web2py/applications/project/', '/home/arpita/courses/sem3/ssad/web2py/applications/Images/', '/home/arpita/courses/sem3/ssad/web2py/applications/welcome/'])"
p2290
asbasbasbag57
(g73
g59
NtRp2291
(dp2292
g62
(dp2293
sg71
g2266
sg64
(lp2294
g57
(g78
g59
NtRp2295
(dp2296
g62
(dp2297
g82
g83
ssg71
g2291
sg64
(lp2298
g1239
asbag57
(g78
g59
NtRp2299
(dp2300
g62
(dp2301
g89
g90
ssg71
g2291
sg64
(lp2302
S':'
asbag57
(g78
g59
NtRp2303
(dp2304
g62
(dp2305
sg71
g2291
sg64
(lp2306
g57
(g58
g59
NtRp2307
(dp2308
g62
(dp2309
g70
I4
ssg71
g2303
sg64
(lp2310
g1252
asbasbasbag57
(g73
g59
NtRp2311
(dp2312
g62
(dp2313
sg71
g2266
sg64
(lp2314
g57
(g78
g59
NtRp2315
(dp2316
g62
(dp2317
g82
g83
ssg71
g2311
sg64
(lp2318
g1261
asbag57
(g78
g59
NtRp2319
(dp2320
g62
(dp2321
g89
g90
ssg71
g2311
sg64
(lp2322
S':'
asbag57
(g78
g59
NtRp2323
(dp2324
g62
(dp2325
sg71
g2311
sg64
(lp2326
g57
(g58
g59
NtRp2327
(dp2328
g62
(dp2329
g70
I4
ssg71
g2323
sg64
(lp2330
g57
(g66
g59
NtRp2331
(dp2332
g62
(dp2333
g70
I3
ssg71
Nsg64
(lp2334
sbasbasbasbag57
(g73
g59
NtRp2335
(dp2336
g62
(dp2337
sg71
g2266
sg64
(lp2338
g57
(g78
g59
NtRp2339
(dp2340
g62
(dp2341
g82
g83
ssg71
g2335
sg64
(lp2342
g1286
asbag57
(g78
g59
NtRp2343
(dp2344
g62
(dp2345
g89
g90
ssg71
g2335
sg64
(lp2346
S':'
asbag57
(g78
g59
NtRp2347
(dp2348
g62
(dp2349
sg71
g2335
sg64
(lp2350
g57
(g58
g59
NtRp2351
(dp2352
g62
(dp2353
g70
I4
ssg71
g2347
sg64
(lp2354
S"<Values at 0x88b33cc: {'verbose': False, 'ip': '127.0.0.1', 'shutdown_timeout': 5, 'taskbar': False, 'nocron': False, 'pid_filename': 'httpserver.pid', 'maxthreads': None, 'softcron': False, 'server_name': 'arpita-HP-630-Notebook-PC', 'bpython': False, 'nogui': False, 'port': 8000, 'extcron': False, 'debuglevel': 30, 'test': None, 'folder': '/home/arpita/courses/sem3/ssad/web2py', 'config': '', 'import_models': False, 'winservice': '', 'shell': None, 'run': '', 'log_filename': 'httpserver.log', 'args': [''], 'socket_timeout': 5, 'ssl_ca_certificate': None, 'scheduler': None, 'profiler_filename': None, 'ssl_private_key': '', 'password': 'arpita', 'request_queue_size': 5, 'ssl_certificate': '', 'cronjob': False, 'numthreads': None, 'quiet': False, 'interfaces': None, 'minthreads': None, 'timeout': 10, 'plain': False, 'nobanner': False}>"
p2355
asbasbasbag57
(g73
g59
NtRp2356
(dp2357
g62
(dp2358
sg71
g2266
sg64
(lp2359
g57
(g78
g59
NtRp2360
(dp2361
g62
(dp2362
g82
g83
ssg71
g2356
sg64
(lp2363
g1308
asbag57
(g78
g59
NtRp2364
(dp2365
g62
(dp2366
g89
g90
ssg71
g2356
sg64
(lp2367
S':'
asbag57
(g78
g59
NtRp2368
(dp2369
g62
(dp2370
sg71
g2356
sg64
(lp2371
g57
(g58
g59
NtRp2372
(dp2373
g62
(dp2374
g70
I4
ssg71
g2368
sg64
(lp2375
S'set([])'
p2376
asbasbasbag57
(g73
g59
NtRp2377
(dp2378
g62
(dp2379
sg71
g2266
sg64
(lp2380
g57
(g78
g59
NtRp2381
(dp2382
g62
(dp2383
g82
g83
ssg71
g2377
sg64
(lp2384
g1330
asbag57
(g78
g59
NtRp2385
(dp2386
g62
(dp2387
g89
g90
ssg71
g2377
sg64
(lp2388
S':'
asbag57
(g78
g59
NtRp2389
(dp2390
g62
(dp2391
sg71
g2377
sg64
(lp2392
g57
(g58
g59
NtRp2393
(dp2394
g62
(dp2395
g70
I4
ssg71
g2389
sg64
(lp2396
g100
asbasbasbag57
(g73
g59
NtRp2397
(dp2398
g62
(dp2399
sg71
g2266
sg64
(lp2400
g57
(g78
g59
NtRp2401
(dp2402
g62
(dp2403
g82
g83
ssg71
g2397
sg64
(lp2404
g1351
asbag57
(g78
g59
NtRp2405
(dp2406
g62
(dp2407
g89
g90
ssg71
g2397
sg64
(lp2408
S':'
asbag57
(g78
g59
NtRp2409
(dp2410
g62
(dp2411
sg71
g2397
sg64
(lp2412
g57
(g58
g59
NtRp2413
(dp2414
g62
(dp2415
g70
I4
ssg71
g2409
sg64
(lp2416
g1364
asbasbasbag57
(g73
g59
NtRp2417
(dp2418
g62
(dp2419
sg71
g2266
sg64
(lp2420
g57
(g78
g59
NtRp2421
(dp2422
g62
(dp2423
g82
g83
ssg71
g2417
sg64
(lp2424
g1571
asbag57
(g78
g59
NtRp2425
(dp2426
g62
(dp2427
g89
g90
ssg71
g2417
sg64
(lp2428
S':'
asbag57
(g78
g59
NtRp2429
(dp2430
g62
(dp2431
sg71
g2417
sg64
(lp2432
g57
(g58
g59
NtRp2433
(dp2434
g62
(dp2435
g70
I4
ssg71
g2429
sg64
(lp2436
g100
asbasbasbag57
(g73
g59
NtRp2437
(dp2438
g62
(dp2439
sg71
g2266
sg64
(lp2440
g57
(g78
g59
NtRp2441
(dp2442
g62
(dp2443
g82
g83
ssg71
g2437
sg64
(lp2444
g1592
asbag57
(g78
g59
NtRp2445
(dp2446
g62
(dp2447
g89
g90
ssg71
g2437
sg64
(lp2448
S':'
asbag57
(g78
g59
NtRp2449
(dp2450
g62
(dp2451
sg71
g2437
sg64
(lp2452
g57
(g58
g59
NtRp2453
(dp2454
g62
(dp2455
g70
I4
ssg71
g2449
sg64
(lp2456
g100
asbasbasbag57
(g73
g59
NtRp2457
(dp2458
g62
(dp2459
sg71
g2266
sg64
(lp2460
g57
(g78
g59
NtRp2461
(dp2462
g62
(dp2463
g82
g83
ssg71
g2457
sg64
(lp2464
g1830
asbag57
(g78
g59
NtRp2465
(dp2466
g62
(dp2467
g89
g90
ssg71
g2457
sg64
(lp2468
S':'
asbag57
(g78
g59
NtRp2469
(dp2470
g62
(dp2471
sg71
g2457
sg64
(lp2472
g57
(g58
g59
NtRp2473
(dp2474
g62
(dp2475
g70
I4
ssg71
g2469
sg64
(lp2476
g1843
asbasbasbag57
(g73
g59
NtRp2477
(dp2478
g62
(dp2479
sg71
g2266
sg64
(lp2480
g57
(g78
g59
NtRp2481
(dp2482
g62
(dp2483
g82
g83
ssg71
g2477
sg64
(lp2484
g1873
asbag57
(g78
g59
NtRp2485
(dp2486
g62
(dp2487
g89
g90
ssg71
g2477
sg64
(lp2488
S':'
asbag57
(g78
g59
NtRp2489
(dp2490
g62
(dp2491
sg71
g2477
sg64
(lp2492
g57
(g58
g59
NtRp2493
(dp2494
g62
(dp2495
g70
I4
ssg71
g2489
sg64
(lp2496
g57
(g66
g59
NtRp2497
(dp2498
g62
(dp2499
g70
I3
ssg71
Nsg64
(lp2500
g57
(g73
g59
NtRp2501
(dp2502
g62
(dp2503
sg71
g2497
sg64
(lp2504
g57
(g78
g59
NtRp2505
(dp2506
g62
(dp2507
sg71
g2501
sg64
(lp2508
g57
(g58
g59
NtRp2509
(dp2510
g62
(dp2511
g70
I3
ssg71
g2505
sg64
(lp2512
S'1'
asbasbasbag57
(g73
g59
NtRp2513
(dp2514
g62
(dp2515
sg71
g2497
sg64
(lp2516
g57
(g78
g59
NtRp2517
(dp2518
g62
(dp2519
sg71
g2513
sg64
(lp2520
g57
(g58
g59
NtRp2521
(dp2522
g62
(dp2523
g70
I3
ssg71
g2517
sg64
(lp2524
S'99'
p2525
asbasbasbag57
(g73
g59
NtRp2526
(dp2527
g62
(dp2528
sg71
g2497
sg64
(lp2529
g57
(g78
g59
NtRp2530
(dp2531
g62
(dp2532
sg71
g2526
sg64
(lp2533
g57
(g58
g59
NtRp2534
(dp2535
g62
(dp2536
g70
I3
ssg71
g2530
sg64
(lp2537
S'7'
asbasbasbag57
(g73
g59
NtRp2538
(dp2539
g62
(dp2540
sg71
g2497
sg64
(lp2541
g57
(g78
g59
NtRp2542
(dp2543
g62
(dp2544
sg71
g2538
sg64
(lp2545
g57
(g58
g59
NtRp2546
(dp2547
g62
(dp2548
g70
I3
ssg71
g2542
sg64
(lp2549
S'datetime.datetime(2012, 3, 4, 22, 12, 8)'
p2550
asbasbasbag57
(g73
g59
NtRp2551
(dp2552
g62
(dp2553
sg71
g2497
sg64
(lp2554
g57
(g78
g59
NtRp2555
(dp2556
g62
(dp2557
sg71
g2551
sg64
(lp2558
g57
(g58
g59
NtRp2559
(dp2560
g62
(dp2561
g70
I3
ssg71
g2555
sg64
(lp2562
g1952
asbasbasbasbasbasbasbasbasbasbasbag57
(g73
g59
NtRp2563
(dp2564
g62
(dp2565
sg71
g67
sg64
(lp2566
g57
(g78
g59
NtRp2567
(dp2568
g62
(dp2569
g82
g83
ssg71
g2563
sg64
(lp2570
S'is_https'
p2571
asbag57
(g78
g59
NtRp2572
(dp2573
g62
(dp2574
g89
g90
ssg71
g2563
sg64
(lp2575
S':'
asbag57
(g78
g59
NtRp2576
(dp2577
g62
(dp2578
sg71
g2563
sg64
(lp2579
g57
(g58
g59
NtRp2580
(dp2581
g62
(dp2582
g70
I5
ssg71
g2576
sg64
(lp2583
g100
asbasbasbag57
(g73
g59
NtRp2584
(dp2585
g62
(dp2586
sg71
g67
sg64
(lp2587
g57
(g78
g59
NtRp2588
(dp2589
g62
(dp2590
g82
g83
ssg71
g2584
sg64
(lp2591
S'is_local'
p2592
asbag57
(g78
g59
NtRp2593
(dp2594
g62
(dp2595
g89
g90
ssg71
g2584
sg64
(lp2596
S':'
asbag57
(g78
g59
NtRp2597
(dp2598
g62
(dp2599
sg71
g2584
sg64
(lp2600
g57
(g58
g59
NtRp2601
(dp2602
g62
(dp2603
g70
I5
ssg71
g2597
sg64
(lp2604
g2061
asbasbasbag57
(g73
g59
NtRp2605
(dp2606
g62
(dp2607
sg71
g67
sg64
(lp2608
g57
(g78
g59
NtRp2609
(dp2610
g62
(dp2611
g82
g83
ssg71
g2605
sg64
(lp2612
S'is_restful'
p2613
asbag57
(g78
g59
NtRp2614
(dp2615
g62
(dp2616
g89
g90
ssg71
g2605
sg64
(lp2617
S':'
asbag57
(g78
g59
NtRp2618
(dp2619
g62
(dp2620
sg71
g2605
sg64
(lp2621
g57
(g58
g59
NtRp2622
(dp2623
g62
(dp2624
g70
I5
ssg71
g2618
sg64
(lp2625
g100
asbasbasbag57
(g73
g59
NtRp2626
(dp2627
g62
(dp2628
sg71
g67
sg64
(lp2629
g57
(g78
g59
NtRp2630
(dp2631
g62
(dp2632
g82
g83
ssg71
g2626
sg64
(lp2633
S'now'
p2634
asbag57
(g78
g59
NtRp2635
(dp2636
g62
(dp2637
g89
g90
ssg71
g2626
sg64
(lp2638
S':'
asbag57
(g78
g59
NtRp2639
(dp2640
g62
(dp2641
sg71
g2626
sg64
(lp2642
g57
(g58
g59
NtRp2643
(dp2644
g62
(dp2645
g70
I5
ssg71
g2639
sg64
(lp2646
S'datetime.datetime(2012, 10, 13, 20, 51, 35, 310892)'
p2647
asbasbasbag57
(g73
g59
NtRp2648
(dp2649
g62
(dp2650
sg71
g67
sg64
(lp2651
g57
(g78
g59
NtRp2652
(dp2653
g62
(dp2654
g82
g83
ssg71
g2648
sg64
(lp2655
S'post_vars'
p2656
asbag57
(g78
g59
NtRp2657
(dp2658
g62
(dp2659
g89
g90
ssg71
g2648
sg64
(lp2660
S':'
asbag57
(g78
g59
NtRp2661
(dp2662
g62
(dp2663
sg71
g2648
sg64
(lp2664
g57
(g58
g59
NtRp2665
(dp2666
g62
(dp2667
g70
I5
ssg71
g2661
sg64
(lp2668
g57
(g66
g59
NtRp2669
(dp2670
g62
(dp2671
g70
I4
ssg71
Nsg64
(lp2672
sbasbasbasbag57
(g73
g59
NtRp2673
(dp2674
g62
(dp2675
sg71
g67
sg64
(lp2676
g57
(g78
g59
NtRp2677
(dp2678
g62
(dp2679
g82
g83
ssg71
g2673
sg64
(lp2680
S'raw_args'
p2681
asbag57
(g78
g59
NtRp2682
(dp2683
g62
(dp2684
g89
g90
ssg71
g2673
sg64
(lp2685
S':'
asbag57
(g78
g59
NtRp2686
(dp2687
g62
(dp2688
sg71
g2673
sg64
(lp2689
g57
(g58
g59
NtRp2690
(dp2691
g62
(dp2692
g70
I5
ssg71
g2686
sg64
(lp2693
g159
asbasbasbag57
(g73
g59
NtRp2694
(dp2695
g62
(dp2696
sg71
g67
sg64
(lp2697
g57
(g78
g59
NtRp2698
(dp2699
g62
(dp2700
g82
g83
ssg71
g2694
sg64
(lp2701
S'url'
p2702
asbag57
(g78
g59
NtRp2703
(dp2704
g62
(dp2705
g89
g90
ssg71
g2694
sg64
(lp2706
S':'
asbag57
(g78
g59
NtRp2707
(dp2708
g62
(dp2709
sg71
g2694
sg64
(lp2710
g57
(g58
g59
NtRp2711
(dp2712
g62
(dp2713
g70
I5
ssg71
g2707
sg64
(lp2714
S'/project/default/graph/shivani'
p2715
asbasbasbag57
(g73
g59
NtRp2716
(dp2717
g62
(dp2718
sg71
g67
sg64
(lp2719
g57
(g78
g59
NtRp2720
(dp2721
g62
(dp2722
g82
g83
ssg71
g2716
sg64
(lp2723
S'utcnow'
p2724
asbag57
(g78
g59
NtRp2725
(dp2726
g62
(dp2727
g89
g90
ssg71
g2716
sg64
(lp2728
S':'
asbag57
(g78
g59
NtRp2729
(dp2730
g62
(dp2731
sg71
g2716
sg64
(lp2732
g57
(g58
g59
NtRp2733
(dp2734
g62
(dp2735
g70
I5
ssg71
g2729
sg64
(lp2736
S'datetime.datetime(2012, 10, 13, 15, 21, 35, 310962)'
p2737
asbasbasbag57
(g73
g59
NtRp2738
(dp2739
g62
(dp2740
sg71
g67
sg64
(lp2741
g57
(g78
g59
NtRp2742
(dp2743
g62
(dp2744
g82
g83
ssg71
g2738
sg64
(lp2745
S'uuid'
p2746
asbag57
(g78
g59
NtRp2747
(dp2748
g62
(dp2749
g89
g90
ssg71
g2738
sg64
(lp2750
S':'
asbag57
(g78
g59
NtRp2751
(dp2752
g62
(dp2753
sg71
g2738
sg64
(lp2754
g57
(g58
g59
NtRp2755
(dp2756
g62
(dp2757
g70
I5
ssg71
g2751
sg64
(lp2758
S'project/127.0.0.1.2012-10-13.20-51-35.23ad4977-5c9b-4990-b05e-e512f73f607f'
p2759
asbasbasbag57
(g73
g59
NtRp2760
(dp2761
g62
(dp2762
sg71
g67
sg64
(lp2763
g57
(g78
g59
NtRp2764
(dp2765
g62
(dp2766
g82
g83
ssg71
g2760
sg64
(lp2767
S'vars'
p2768
asbag57
(g78
g59
NtRp2769
(dp2770
g62
(dp2771
g89
g90
ssg71
g2760
sg64
(lp2772
S':'
asbag57
(g78
g59
NtRp2773
(dp2774
g62
(dp2775
sg71
g2760
sg64
(lp2776
g57
(g58
g59
NtRp2777
(dp2778
g62
(dp2779
g70
I5
ssg71
g2773
sg64
(lp2780
g57
(g66
g59
NtRp2781
(dp2782
g62
(dp2783
g70
I4
ssg71
Nsg64
(lp2784
sbasbasbasbag57
(g73
g59
NtRp2785
(dp2786
g62
(dp2787
sg71
g67
sg64
(lp2788
g57
(g78
g59
NtRp2789
(dp2790
g62
(dp2791
g82
g83
ssg71
g2785
sg64
(lp2792
S'wsgi'
p2793
asbag57
(g78
g59
NtRp2794
(dp2795
g62
(dp2796
g89
g90
ssg71
g2785
sg64
(lp2797
S':'
asbag57
(g78
g59
NtRp2798
(dp2799
g62
(dp2800
sg71
g2785
sg64
(lp2801
g57
(g58
g59
NtRp2802
(dp2803
g62
(dp2804
g70
I5
ssg71
g2798
sg64
(lp2805
g57
(g66
g59
NtRp2806
(dp2807
g62
(dp2808
g70
I4
ssg71
Nsg64
(lp2809
g57
(g73
g59
NtRp2810
(dp2811
g62
(dp2812
sg71
g2806
sg64
(lp2813
g57
(g78
g59
NtRp2814
(dp2815
g62
(dp2816
g82
g83
ssg71
g2810
sg64
(lp2817
S'environ'
p2818
asbag57
(g78
g59
NtRp2819
(dp2820
g62
(dp2821
g89
g90
ssg71
g2810
sg64
(lp2822
S':'
asbag57
(g78
g59
NtRp2823
(dp2824
g62
(dp2825
sg71
g2810
sg64
(lp2826
g57
(g58
g59
NtRp2827
(dp2828
g62
(dp2829
g70
I4
ssg71
g2823
sg64
(lp2830
g57
(g66
g59
NtRp2831
(dp2832
g62
(dp2833
g70
I3
ssg71
Nsg64
(lp2834
g57
(g73
g59
NtRp2835
(dp2836
g62
(dp2837
sg71
g2831
sg64
(lp2838
g57
(g78
g59
NtRp2839
(dp2840
g62
(dp2841
g82
g83
ssg71
g2835
sg64
(lp2842
S'HTTP_ACCEPT'
p2843
asbag57
(g78
g59
NtRp2844
(dp2845
g62
(dp2846
g89
g90
ssg71
g2835
sg64
(lp2847
S':'
asbag57
(g78
g59
NtRp2848
(dp2849
g62
(dp2850
sg71
g2835
sg64
(lp2851
g57
(g58
g59
NtRp2852
(dp2853
g62
(dp2854
g70
I3
ssg71
g2848
sg64
(lp2855
g1386
asbasbasbag57
(g73
g59
NtRp2856
(dp2857
g62
(dp2858
sg71
g2831
sg64
(lp2859
g57
(g78
g59
NtRp2860
(dp2861
g62
(dp2862
g82
g83
ssg71
g2856
sg64
(lp2863
S'HTTP_ACCEPT_CHARSET'
p2864
asbag57
(g78
g59
NtRp2865
(dp2866
g62
(dp2867
g89
g90
ssg71
g2856
sg64
(lp2868
S':'
asbag57
(g78
g59
NtRp2869
(dp2870
g62
(dp2871
sg71
g2856
sg64
(lp2872
g57
(g58
g59
NtRp2873
(dp2874
g62
(dp2875
g70
I3
ssg71
g2869
sg64
(lp2876
g1408
asbasbasbag57
(g73
g59
NtRp2877
(dp2878
g62
(dp2879
sg71
g2831
sg64
(lp2880
g57
(g78
g59
NtRp2881
(dp2882
g62
(dp2883
g82
g83
ssg71
g2877
sg64
(lp2884
S'HTTP_ACCEPT_ENCODING'
p2885
asbag57
(g78
g59
NtRp2886
(dp2887
g62
(dp2888
g89
g90
ssg71
g2877
sg64
(lp2889
S':'
asbag57
(g78
g59
NtRp2890
(dp2891
g62
(dp2892
sg71
g2877
sg64
(lp2893
g57
(g58
g59
NtRp2894
(dp2895
g62
(dp2896
g70
I3
ssg71
g2890
sg64
(lp2897
g1430
asbasbasbag57
(g73
g59
NtRp2898
(dp2899
g62
(dp2900
sg71
g2831
sg64
(lp2901
g57
(g78
g59
NtRp2902
(dp2903
g62
(dp2904
g82
g83
ssg71
g2898
sg64
(lp2905
S'HTTP_ACCEPT_LANGUAGE'
p2906
asbag57
(g78
g59
NtRp2907
(dp2908
g62
(dp2909
g89
g90
ssg71
g2898
sg64
(lp2910
S':'
asbag57
(g78
g59
NtRp2911
(dp2912
g62
(dp2913
sg71
g2898
sg64
(lp2914
g57
(g58
g59
NtRp2915
(dp2916
g62
(dp2917
g70
I3
ssg71
g2911
sg64
(lp2918
g1452
asbasbasbag57
(g73
g59
NtRp2919
(dp2920
g62
(dp2921
sg71
g2831
sg64
(lp2922
g57
(g78
g59
NtRp2923
(dp2924
g62
(dp2925
g82
g83
ssg71
g2919
sg64
(lp2926
S'HTTP_CONNECTION'
p2927
asbag57
(g78
g59
NtRp2928
(dp2929
g62
(dp2930
g89
g90
ssg71
g2919
sg64
(lp2931
S':'
asbag57
(g78
g59
NtRp2932
(dp2933
g62
(dp2934
sg71
g2919
sg64
(lp2935
g57
(g58
g59
NtRp2936
(dp2937
g62
(dp2938
g70
I3
ssg71
g2932
sg64
(lp2939
g1474
asbasbasbag57
(g73
g59
NtRp2940
(dp2941
g62
(dp2942
sg71
g2831
sg64
(lp2943
g57
(g78
g59
NtRp2944
(dp2945
g62
(dp2946
g82
g83
ssg71
g2940
sg64
(lp2947
S'HTTP_COOKIE'
p2948
asbag57
(g78
g59
NtRp2949
(dp2950
g62
(dp2951
g89
g90
ssg71
g2940
sg64
(lp2952
S':'
asbag57
(g78
g59
NtRp2953
(dp2954
g62
(dp2955
sg71
g2940
sg64
(lp2956
g57
(g58
g59
NtRp2957
(dp2958
g62
(dp2959
g70
I3
ssg71
g2953
sg64
(lp2960
g1496
asbasbasbag57
(g73
g59
NtRp2961
(dp2962
g62
(dp2963
sg71
g2831
sg64
(lp2964
g57
(g78
g59
NtRp2965
(dp2966
g62
(dp2967
g82
g83
ssg71
g2961
sg64
(lp2968
S'HTTP_HOST'
p2969
asbag57
(g78
g59
NtRp2970
(dp2971
g62
(dp2972
g89
g90
ssg71
g2961
sg64
(lp2973
S':'
asbag57
(g78
g59
NtRp2974
(dp2975
g62
(dp2976
sg71
g2961
sg64
(lp2977
g57
(g58
g59
NtRp2978
(dp2979
g62
(dp2980
g70
I3
ssg71
g2974
sg64
(lp2981
g1518
asbasbasbag57
(g73
g59
NtRp2982
(dp2983
g62
(dp2984
sg71
g2831
sg64
(lp2985
g57
(g78
g59
NtRp2986
(dp2987
g62
(dp2988
g82
g83
ssg71
g2982
sg64
(lp2989
S'HTTP_REFERER'
p2990
asbag57
(g78
g59
NtRp2991
(dp2992
g62
(dp2993
g89
g90
ssg71
g2982
sg64
(lp2994
S':'
asbag57
(g78
g59
NtRp2995
(dp2996
g62
(dp2997
sg71
g2982
sg64
(lp2998
g57
(g58
g59
NtRp2999
(dp3000
g62
(dp3001
g70
I3
ssg71
g2995
sg64
(lp3002
g1540
asbasbasbag57
(g73
g59
NtRp3003
(dp3004
g62
(dp3005
sg71
g2831
sg64
(lp3006
g57
(g78
g59
NtRp3007
(dp3008
g62
(dp3009
g82
g83
ssg71
g3003
sg64
(lp3010
S'HTTP_USER_AGENT'
p3011
asbag57
(g78
g59
NtRp3012
(dp3013
g62
(dp3014
g89
g90
ssg71
g3003
sg64
(lp3015
S':'
asbag57
(g78
g59
NtRp3016
(dp3017
g62
(dp3018
sg71
g3003
sg64
(lp3019
g57
(g58
g59
NtRp3020
(dp3021
g62
(dp3022
g70
I3
ssg71
g3016
sg64
(lp3023
g1562
asbasbasbag57
(g73
g59
NtRp3024
(dp3025
g62
(dp3026
sg71
g2831
sg64
(lp3027
g57
(g78
g59
NtRp3028
(dp3029
g62
(dp3030
g82
g83
ssg71
g3024
sg64
(lp3031
S'PATH_INFO'
p3032
asbag57
(g78
g59
NtRp3033
(dp3034
g62
(dp3035
g89
g90
ssg71
g3024
sg64
(lp3036
S':'
asbag57
(g78
g59
NtRp3037
(dp3038
g62
(dp3039
sg71
g3024
sg64
(lp3040
g57
(g58
g59
NtRp3041
(dp3042
g62
(dp3043
g70
I3
ssg71
g3037
sg64
(lp3044
g1626
asbasbasbag57
(g73
g59
NtRp3045
(dp3046
g62
(dp3047
sg71
g2831
sg64
(lp3048
g57
(g78
g59
NtRp3049
(dp3050
g62
(dp3051
g82
g83
ssg71
g3045
sg64
(lp3052
S'QUERY_STRING'
p3053
asbag57
(g78
g59
NtRp3054
(dp3055
g62
(dp3056
g89
g90
ssg71
g3045
sg64
(lp3057
S':'
asbag57
(g78
g59
NtRp3058
(dp3059
g62
(dp3060
sg71
g3045
sg64
(lp3061
g57
(g58
g59
NtRp3062
(dp3063
g62
(dp3064
g70
I3
ssg71
g3058
sg64
(lp3065
S''
asbasbasbag57
(g73
g59
NtRp3066
(dp3067
g62
(dp3068
sg71
g2831
sg64
(lp3069
g57
(g78
g59
NtRp3070
(dp3071
g62
(dp3072
g82
g83
ssg71
g3066
sg64
(lp3073
S'REMOTE_ADDR'
p3074
asbag57
(g78
g59
NtRp3075
(dp3076
g62
(dp3077
g89
g90
ssg71
g3066
sg64
(lp3078
S':'
asbag57
(g78
g59
NtRp3079
(dp3080
g62
(dp3081
sg71
g3066
sg64
(lp3082
g57
(g58
g59
NtRp3083
(dp3084
g62
(dp3085
g70
I3
ssg71
g3079
sg64
(lp3086
g203
asbasbasbag57
(g73
g59
NtRp3087
(dp3088
g62
(dp3089
sg71
g2831
sg64
(lp3090
g57
(g78
g59
NtRp3091
(dp3092
g62
(dp3093
g82
g83
ssg71
g3087
sg64
(lp3094
S'REMOTE_PORT'
p3095
asbag57
(g78
g59
NtRp3096
(dp3097
g62
(dp3098
g89
g90
ssg71
g3087
sg64
(lp3099
S':'
asbag57
(g78
g59
NtRp3100
(dp3101
g62
(dp3102
sg71
g3087
sg64
(lp3103
g57
(g58
g59
NtRp3104
(dp3105
g62
(dp3106
g70
I3
ssg71
g3100
sg64
(lp3107
g1690
asbasbasbag57
(g73
g59
NtRp3108
(dp3109
g62
(dp3110
sg71
g2831
sg64
(lp3111
g57
(g78
g59
NtRp3112
(dp3113
g62
(dp3114
g82
g83
ssg71
g3108
sg64
(lp3115
S'REQUEST_METHOD'
p3116
asbag57
(g78
g59
NtRp3117
(dp3118
g62
(dp3119
g89
g90
ssg71
g3108
sg64
(lp3120
S':'
asbag57
(g78
g59
NtRp3121
(dp3122
g62
(dp3123
sg71
g3108
sg64
(lp3124
g57
(g58
g59
NtRp3125
(dp3126
g62
(dp3127
g70
I3
ssg71
g3121
sg64
(lp3128
g1712
asbasbasbag57
(g73
g59
NtRp3129
(dp3130
g62
(dp3131
sg71
g2831
sg64
(lp3132
g57
(g78
g59
NtRp3133
(dp3134
g62
(dp3135
g82
g83
ssg71
g3129
sg64
(lp3136
S'SCRIPT_NAME'
p3137
asbag57
(g78
g59
NtRp3138
(dp3139
g62
(dp3140
g89
g90
ssg71
g3129
sg64
(lp3141
S':'
asbag57
(g78
g59
NtRp3142
(dp3143
g62
(dp3144
sg71
g3129
sg64
(lp3145
g57
(g58
g59
NtRp3146
(dp3147
g62
(dp3148
g70
I3
ssg71
g3142
sg64
(lp3149
S''
asbasbasbag57
(g73
g59
NtRp3150
(dp3151
g62
(dp3152
sg71
g2831
sg64
(lp3153
g57
(g78
g59
NtRp3154
(dp3155
g62
(dp3156
g82
g83
ssg71
g3150
sg64
(lp3157
S'SERVER_NAME'
p3158
asbag57
(g78
g59
NtRp3159
(dp3160
g62
(dp3161
g89
g90
ssg71
g3150
sg64
(lp3162
S':'
asbag57
(g78
g59
NtRp3163
(dp3164
g62
(dp3165
sg71
g3150
sg64
(lp3166
g57
(g58
g59
NtRp3167
(dp3168
g62
(dp3169
g70
I3
ssg71
g3163
sg64
(lp3170
g1755
asbasbasbag57
(g73
g59
NtRp3171
(dp3172
g62
(dp3173
sg71
g2831
sg64
(lp3174
g57
(g78
g59
NtRp3175
(dp3176
g62
(dp3177
g82
g83
ssg71
g3171
sg64
(lp3178
S'SERVER_PORT'
p3179
asbag57
(g78
g59
NtRp3180
(dp3181
g62
(dp3182
g89
g90
ssg71
g3171
sg64
(lp3183
S':'
asbag57
(g78
g59
NtRp3184
(dp3185
g62
(dp3186
sg71
g3171
sg64
(lp3187
g57
(g58
g59
NtRp3188
(dp3189
g62
(dp3190
g70
I3
ssg71
g3184
sg64
(lp3191
g1777
asbasbasbag57
(g73
g59
NtRp3192
(dp3193
g62
(dp3194
sg71
g2831
sg64
(lp3195
g57
(g78
g59
NtRp3196
(dp3197
g62
(dp3198
g82
g83
ssg71
g3192
sg64
(lp3199
S'SERVER_PROTOCOL'
p3200
asbag57
(g78
g59
NtRp3201
(dp3202
g62
(dp3203
g89
g90
ssg71
g3192
sg64
(lp3204
S':'
asbag57
(g78
g59
NtRp3205
(dp3206
g62
(dp3207
sg71
g3192
sg64
(lp3208
g57
(g58
g59
NtRp3209
(dp3210
g62
(dp3211
g70
I3
ssg71
g3205
sg64
(lp3212
g1799
asbasbasbag57
(g73
g59
NtRp3213
(dp3214
g62
(dp3215
sg71
g2831
sg64
(lp3216
g57
(g78
g59
NtRp3217
(dp3218
g62
(dp3219
g82
g83
ssg71
g3213
sg64
(lp3220
S'SERVER_SOFTWARE'
p3221
asbag57
(g78
g59
NtRp3222
(dp3223
g62
(dp3224
g89
g90
ssg71
g3213
sg64
(lp3225
S':'
asbag57
(g78
g59
NtRp3226
(dp3227
g62
(dp3228
sg71
g3213
sg64
(lp3229
g57
(g58
g59
NtRp3230
(dp3231
g62
(dp3232
g70
I3
ssg71
g3226
sg64
(lp3233
g1821
asbasbasbag57
(g73
g59
NtRp3234
(dp3235
g62
(dp3236
sg71
g2831
sg64
(lp3237
g57
(g78
g59
NtRp3238
(dp3239
g62
(dp3240
g82
g83
ssg71
g3234
sg64
(lp3241
S'wsgi.errors'
p3242
asbag57
(g78
g59
NtRp3243
(dp3244
g62
(dp3245
g89
g90
ssg71
g3234
sg64
(lp3246
S':'
asbag57
(g78
g59
NtRp3247
(dp3248
g62
(dp3249
sg71
g3234
sg64
(lp3250
g57
(g58
g59
NtRp3251
(dp3252
g62
(dp3253
g70
I3
ssg71
g3247
sg64
(lp3254
S"<open file '<stderr>', mode 'w' at 0xb74c30d0>"
p3255
asbasbasbag57
(g73
g59
NtRp3256
(dp3257
g62
(dp3258
sg71
g2831
sg64
(lp3259
g57
(g78
g59
NtRp3260
(dp3261
g62
(dp3262
g82
g83
ssg71
g3256
sg64
(lp3263
S'wsgi.file_wrapper'
p3264
asbag57
(g78
g59
NtRp3265
(dp3266
g62
(dp3267
g89
g90
ssg71
g3256
sg64
(lp3268
S':'
asbag57
(g78
g59
NtRp3269
(dp3270
g62
(dp3271
sg71
g3256
sg64
(lp3272
g57
(g58
g59
NtRp3273
(dp3274
g62
(dp3275
g70
I3
ssg71
g3269
sg64
(lp3276
S'<class wsgiref.util.FileWrapper at 0x8856f5c>'
p3277
asbasbasbag57
(g73
g59
NtRp3278
(dp3279
g62
(dp3280
sg71
g2831
sg64
(lp3281
g57
(g78
g59
NtRp3282
(dp3283
g62
(dp3284
g82
g83
ssg71
g3278
sg64
(lp3285
S'wsgi.input'
p3286
asbag57
(g78
g59
NtRp3287
(dp3288
g62
(dp3289
g89
g90
ssg71
g3278
sg64
(lp3290
S':'
asbag57
(g78
g59
NtRp3291
(dp3292
g62
(dp3293
sg71
g3278
sg64
(lp3294
g57
(g58
g59
NtRp3295
(dp3296
g62
(dp3297
g70
I3
ssg71
g3291
sg64
(lp3298
S'<cStringIO.StringO object at 0x8ca23a0>'
p3299
asbasbasbag57
(g73
g59
NtRp3300
(dp3301
g62
(dp3302
sg71
g2831
sg64
(lp3303
g57
(g78
g59
NtRp3304
(dp3305
g62
(dp3306
g82
g83
ssg71
g3300
sg64
(lp3307
S'wsgi.multiprocess'
p3308
asbag57
(g78
g59
NtRp3309
(dp3310
g62
(dp3311
g89
g90
ssg71
g3300
sg64
(lp3312
S':'
asbag57
(g78
g59
NtRp3313
(dp3314
g62
(dp3315
sg71
g3300
sg64
(lp3316
g57
(g58
g59
NtRp3317
(dp3318
g62
(dp3319
g70
I3
ssg71
g3313
sg64
(lp3320
g100
asbasbasbag57
(g73
g59
NtRp3321
(dp3322
g62
(dp3323
sg71
g2831
sg64
(lp3324
g57
(g78
g59
NtRp3325
(dp3326
g62
(dp3327
g82
g83
ssg71
g3321
sg64
(lp3328
S'wsgi.multithread'
p3329
asbag57
(g78
g59
NtRp3330
(dp3331
g62
(dp3332
g89
g90
ssg71
g3321
sg64
(lp3333
S':'
asbag57
(g78
g59
NtRp3334
(dp3335
g62
(dp3336
sg71
g3321
sg64
(lp3337
g57
(g58
g59
NtRp3338
(dp3339
g62
(dp3340
g70
I3
ssg71
g3334
sg64
(lp3341
g2061
asbasbasbag57
(g73
g59
NtRp3342
(dp3343
g62
(dp3344
sg71
g2831
sg64
(lp3345
g57
(g78
g59
NtRp3346
(dp3347
g62
(dp3348
g82
g83
ssg71
g3342
sg64
(lp3349
S'wsgi.run_once'
p3350
asbag57
(g78
g59
NtRp3351
(dp3352
g62
(dp3353
g89
g90
ssg71
g3342
sg64
(lp3354
S':'
asbag57
(g78
g59
NtRp3355
(dp3356
g62
(dp3357
sg71
g3342
sg64
(lp3358
g57
(g58
g59
NtRp3359
(dp3360
g62
(dp3361
g70
I3
ssg71
g3355
sg64
(lp3362
g100
asbasbasbag57
(g73
g59
NtRp3363
(dp3364
g62
(dp3365
sg71
g2831
sg64
(lp3366
g57
(g78
g59
NtRp3367
(dp3368
g62
(dp3369
g82
g83
ssg71
g3363
sg64
(lp3370
S'wsgi.url_scheme'
p3371
asbag57
(g78
g59
NtRp3372
(dp3373
g62
(dp3374
g89
g90
ssg71
g3363
sg64
(lp3375
S':'
asbag57
(g78
g59
NtRp3376
(dp3377
g62
(dp3378
sg71
g3363
sg64
(lp3379
g57
(g58
g59
NtRp3380
(dp3381
g62
(dp3382
g70
I3
ssg71
g3376
sg64
(lp3383
g2104
asbasbasbag57
(g73
g59
NtRp3384
(dp3385
g62
(dp3386
sg71
g2831
sg64
(lp3387
g57
(g78
g59
NtRp3388
(dp3389
g62
(dp3390
g82
g83
ssg71
g3384
sg64
(lp3391
S'wsgi.version'
p3392
asbag57
(g78
g59
NtRp3393
(dp3394
g62
(dp3395
g89
g90
ssg71
g3384
sg64
(lp3396
S':'
asbag57
(g78
g59
NtRp3397
(dp3398
g62
(dp3399
sg71
g3384
sg64
(lp3400
g57
(g58
g59
NtRp3401
(dp3402
g62
(dp3403
g70
I3
ssg71
g3397
sg64
(lp3404
S'1'
asbasbasbasbasbasbasbasbasbasbasbasbasbsS'frames'
p3405
(lp3406
(dp3407
S'file'
p3408
S'/home/arpita/courses/sem3/ssad/web2py/gluon/restricted.py'
p3409
sS'dump'
p3410
(dp3411
S'environment'
p3412
S"{'A': <class 'gluon.html.A'>, 'Auth': <class 'gluon.tools.Auth'>, 'B': <class 'gluon.html.B'>, 'BEAUTIFY': <class 'gluon.html.BEAUTIFY'>, 'BODY': <class 'gluon.html.BODY'>, 'BR': <class 'gluon.html.BR'>, 'BUTTON': <class 'gluon.html.BUTTON'>, 'CAT': <class 'gluon.html.CAT'>, 'CENTER': <class 'gluon.html.CENTER'>, 'CLEANUP': <class 'gluon.validators.CLEANUP'>, ...}"
p3413
sS'ccode'
p3414
S'<code object <module> at 0x8be6068, file "/home/...ations/project/views/default/graph.html", line 1>'
p3415
ssS'lnum'
p3416
I205
sS'lines'
p3417
(dp3418
I200
S'    try:'
p3419
sI201
S'        if type(code) == types.CodeType:'
p3420
sI202
S'            ccode = code'
p3421
sI203
S'        else:'
p3422
sI204
S'            ccode = compile2(code,layer)'
p3423
sI205
S'        exec ccode in environment'
p3424
sI206
S'    except HTTP:'
p3425
sI207
S'        raise'
p3426
sI208
S'    except RestrictedError:'
p3427
sI209
S'        # do not encapsulate (obfuscate) the original RestrictedError'
p3428
ssS'call'
p3429
S'(code=r"response.write(\'<!DOCTYPE html>\\n<!-- paulirish....ponse.write(\'\\n</body>\\n</html>\\n\', escape=False)", environment={\'A\': <class \'gluon.html.A\'>, \'Auth\': <class \'gluon.tools.Auth\'>, \'B\': <class \'gluon.html.B\'>, \'BEAUTIFY\': <class \'gluon.html.BEAUTIFY\'>, \'BODY\': <class \'gluon.html.BODY\'>, \'BR\': <class \'gluon.html.BR\'>, \'BUTTON\': <class \'gluon.html.BUTTON\'>, \'CAT\': <class \'gluon.html.CAT\'>, \'CENTER\': <class \'gluon.html.CENTER\'>, \'CLEANUP\': <class \'gluon.validators.CLEANUP\'>, ...}, layer=\'/home/arpita/courses/sem3/ssad/web2py/applications/project/views/default/graph.html\')'
p3430
sS'func'
p3431
S'restricted'
p3432
sa(dp3433
g3408
S'/home/arpita/courses/sem3/ssad/web2py/applications/project/views/default/graph.html'
p3434
sg3410
(dp3435
sg3416
I86
sg3417
(dp3436
I96
S'    pass'
p3437
sI77
S'    response.write(\'\\n        <div class="four columns left-sidebar">\\n          \', escape=False)'
p3438
sI78
S"    response.write('\\n          <h3>Left Sidebar</h3>\\n          <p></p>\\n          ', escape=False)"
p3439
sI79
S"    response.write('\\n        </div>\\n        ', escape=False)"
p3440
sI80
S'    pass'
p3441
sI81
S'response.write(\'\\n        \\n        <div class="\', escape=False)'
p3442
sI82
S'response.write(middle_columns)'
p3443
sI83
S'response.write(\' columns center">\\n          \', escape=False)'
p3444
sI84
S"response.write('\\n          ', escape=False)"
p3445
sI85
S"response.write('\\n<h1>This is the default/graph.html template</h1>\\n', escape=False)"
p3446
sI86
S'response.write(empl.Name)'
p3447
sI87
S"response.write('\\n', escape=False)"
p3448
sI88
S'response.write(BEAUTIFY(response._vars))'
p3449
sI89
S"response.write('\\n', escape=False)"
p3450
sI90
S"response.write('\\n          ', escape=False)"
p3451
sI91
S"response.write('\\n        </div>\\n        \\n        ', escape=False)"
p3452
sI92
S'if right_sidebar_enabled:'
p3453
sI93
S'    response.write(\'\\n        <div class="four columns">\\n          \', escape=False)'
p3454
sI94
S"    response.write('\\n          <h3>Right Sidebar</h3>\\n          <p></p>\\n          ', escape=False)"
p3455
sI95
S"    response.write('\\n        </div>    \\n        ', escape=False)"
p3456
ssg3429
S'()'
p3457
sg3431
S'<module>'
p3458
sasS'pyver'
p3459
S'Python 2.7.2+: /usr/bin/python'
p3460
sS'session'
p3461
g57
(g58
g59
NtRp3462
(dp3463
g62
(dp3464
sg64
(lp3465
g57
(g66
g59
NtRp3466
(dp3467
g62
(dp3468
g70
I5
ssg71
Nsg64
(lp3469
g57
(g73
g59
NtRp3470
(dp3471
g62
(dp3472
sg71
g3466
sg64
(lp3473
g57
(g78
g59
NtRp3474
(dp3475
g62
(dp3476
g82
g83
ssg71
g3470
sg64
(lp3477
S'auth'
p3478
asbag57
(g78
g59
NtRp3479
(dp3480
g62
(dp3481
g89
g90
ssg71
g3470
sg64
(lp3482
S':'
asbag57
(g78
g59
NtRp3483
(dp3484
g62
(dp3485
sg71
g3470
sg64
(lp3486
g57
(g58
g59
NtRp3487
(dp3488
g62
(dp3489
g70
I5
ssg71
g3483
sg64
(lp3490
g57
(g66
g59
NtRp3491
(dp3492
g62
(dp3493
g70
I4
ssg71
Nsg64
(lp3494
g57
(g73
g59
NtRp3495
(dp3496
g62
(dp3497
sg71
g3491
sg64
(lp3498
g57
(g78
g59
NtRp3499
(dp3500
g62
(dp3501
g82
g83
ssg71
g3495
sg64
(lp3502
S'expiration'
p3503
asbag57
(g78
g59
NtRp3504
(dp3505
g62
(dp3506
g89
g90
ssg71
g3495
sg64
(lp3507
S':'
asbag57
(g78
g59
NtRp3508
(dp3509
g62
(dp3510
sg71
g3495
sg64
(lp3511
g57
(g58
g59
NtRp3512
(dp3513
g62
(dp3514
g70
I4
ssg71
g3508
sg64
(lp3515
S'3600'
p3516
asbasbasbag57
(g73
g59
NtRp3517
(dp3518
g62
(dp3519
sg71
g3491
sg64
(lp3520
g57
(g78
g59
NtRp3521
(dp3522
g62
(dp3523
g82
g83
ssg71
g3517
sg64
(lp3524
S'hmac_key'
p3525
asbag57
(g78
g59
NtRp3526
(dp3527
g62
(dp3528
g89
g90
ssg71
g3517
sg64
(lp3529
S':'
asbag57
(g78
g59
NtRp3530
(dp3531
g62
(dp3532
sg71
g3517
sg64
(lp3533
g57
(g58
g59
NtRp3534
(dp3535
g62
(dp3536
g70
I4
ssg71
g3530
sg64
(lp3537
S'5a63016e-d9eb-4c06-bce8-3a89ae36be8a'
p3538
asbasbasbag57
(g73
g59
NtRp3539
(dp3540
g62
(dp3541
sg71
g3491
sg64
(lp3542
g57
(g78
g59
NtRp3543
(dp3544
g62
(dp3545
g82
g83
ssg71
g3539
sg64
(lp3546
S'last_visit'
p3547
asbag57
(g78
g59
NtRp3548
(dp3549
g62
(dp3550
g89
g90
ssg71
g3539
sg64
(lp3551
S':'
asbag57
(g78
g59
NtRp3552
(dp3553
g62
(dp3554
sg71
g3539
sg64
(lp3555
g57
(g58
g59
NtRp3556
(dp3557
g62
(dp3558
g70
I4
ssg71
g3552
sg64
(lp3559
S'datetime.datetime(2012, 10, 13, 20, 50, 24, 310445)'
p3560
asbasbasbag57
(g73
g59
NtRp3561
(dp3562
g62
(dp3563
sg71
g3491
sg64
(lp3564
g57
(g78
g59
NtRp3565
(dp3566
g62
(dp3567
g82
g83
ssg71
g3561
sg64
(lp3568
S'remember'
p3569
asbag57
(g78
g59
NtRp3570
(dp3571
g62
(dp3572
g89
g90
ssg71
g3561
sg64
(lp3573
S':'
asbag57
(g78
g59
NtRp3574
(dp3575
g62
(dp3576
sg71
g3561
sg64
(lp3577
g57
(g58
g59
NtRp3578
(dp3579
g62
(dp3580
g70
I4
ssg71
g3574
sg64
(lp3581
g100
asbasbasbag57
(g73
g59
NtRp3582
(dp3583
g62
(dp3584
sg71
g3491
sg64
(lp3585
g57
(g78
g59
NtRp3586
(dp3587
g62
(dp3588
g82
g83
ssg71
g3582
sg64
(lp3589
S'user'
p3590
asbag57
(g78
g59
NtRp3591
(dp3592
g62
(dp3593
g89
g90
ssg71
g3582
sg64
(lp3594
S':'
asbag57
(g78
g59
NtRp3595
(dp3596
g62
(dp3597
sg71
g3582
sg64
(lp3598
g57
(g58
g59
NtRp3599
(dp3600
g62
(dp3601
g70
I4
ssg71
g3595
sg64
(lp3602
g57
(g66
g59
NtRp3603
(dp3604
g62
(dp3605
g70
I3
ssg71
Nsg64
(lp3606
g57
(g73
g59
NtRp3607
(dp3608
g62
(dp3609
sg71
g3603
sg64
(lp3610
g57
(g78
g59
NtRp3611
(dp3612
g62
(dp3613
g82
g83
ssg71
g3607
sg64
(lp3614
S'email'
p3615
asbag57
(g78
g59
NtRp3616
(dp3617
g62
(dp3618
g89
g90
ssg71
g3607
sg64
(lp3619
S':'
asbag57
(g78
g59
NtRp3620
(dp3621
g62
(dp3622
sg71
g3607
sg64
(lp3623
g57
(g58
g59
NtRp3624
(dp3625
g62
(dp3626
g70
I3
ssg71
g3620
sg64
(lp3627
S'rammurthy@faculty.iiit.ac.in'
p3628
asbasbasbag57
(g73
g59
NtRp3629
(dp3630
g62
(dp3631
sg71
g3603
sg64
(lp3632
g57
(g78
g59
NtRp3633
(dp3634
g62
(dp3635
g82
g83
ssg71
g3629
sg64
(lp3636
S'first_name'
p3637
asbag57
(g78
g59
NtRp3638
(dp3639
g62
(dp3640
g89
g90
ssg71
g3629
sg64
(lp3641
S':'
asbag57
(g78
g59
NtRp3642
(dp3643
g62
(dp3644
sg71
g3629
sg64
(lp3645
g57
(g58
g59
NtRp3646
(dp3647
g62
(dp3648
g70
I3
ssg71
g3642
sg64
(lp3649
S'rammurthy'
p3650
asbasbasbag57
(g73
g59
NtRp3651
(dp3652
g62
(dp3653
sg71
g3603
sg64
(lp3654
g57
(g78
g59
NtRp3655
(dp3656
g62
(dp3657
g82
g83
ssg71
g3651
sg64
(lp3658
S'id'
p3659
asbag57
(g78
g59
NtRp3660
(dp3661
g62
(dp3662
g89
g90
ssg71
g3651
sg64
(lp3663
S':'
asbag57
(g78
g59
NtRp3664
(dp3665
g62
(dp3666
sg71
g3651
sg64
(lp3667
g57
(g58
g59
NtRp3668
(dp3669
g62
(dp3670
g70
I3
ssg71
g3664
sg64
(lp3671
S'1'
asbasbasbag57
(g73
g59
NtRp3672
(dp3673
g62
(dp3674
sg71
g3603
sg64
(lp3675
g57
(g78
g59
NtRp3676
(dp3677
g62
(dp3678
g82
g83
ssg71
g3672
sg64
(lp3679
S'last_name'
p3680
asbag57
(g78
g59
NtRp3681
(dp3682
g62
(dp3683
g89
g90
ssg71
g3672
sg64
(lp3684
S':'
asbag57
(g78
g59
NtRp3685
(dp3686
g62
(dp3687
sg71
g3672
sg64
(lp3688
g57
(g58
g59
NtRp3689
(dp3690
g62
(dp3691
g70
I3
ssg71
g3685
sg64
(lp3692
S'sir'
p3693
asbasbasbag57
(g73
g59
NtRp3694
(dp3695
g62
(dp3696
sg71
g3603
sg64
(lp3697
g57
(g78
g59
NtRp3698
(dp3699
g62
(dp3700
g82
g83
ssg71
g3694
sg64
(lp3701
S'password'
p3702
asbag57
(g78
g59
NtRp3703
(dp3704
g62
(dp3705
g89
g90
ssg71
g3694
sg64
(lp3706
S':'
asbag57
(g78
g59
NtRp3707
(dp3708
g62
(dp3709
sg71
g3694
sg64
(lp3710
g57
(g58
g59
NtRp3711
(dp3712
g62
(dp3713
g70
I3
ssg71
g3707
sg64
(lp3714
S'9da56e6636f0f89c2a2b7b54a400c423'
p3715
asbasbasbag57
(g73
g59
NtRp3716
(dp3717
g62
(dp3718
sg71
g3603
sg64
(lp3719
g57
(g78
g59
NtRp3720
(dp3721
g62
(dp3722
g82
g83
ssg71
g3716
sg64
(lp3723
S'registration_id'
p3724
asbag57
(g78
g59
NtRp3725
(dp3726
g62
(dp3727
g89
g90
ssg71
g3716
sg64
(lp3728
S':'
asbag57
(g78
g59
NtRp3729
(dp3730
g62
(dp3731
sg71
g3716
sg64
(lp3732
g57
(g58
g59
NtRp3733
(dp3734
g62
(dp3735
g70
I3
ssg71
g3729
sg64
(lp3736
S''
asbasbasbag57
(g73
g59
NtRp3737
(dp3738
g62
(dp3739
sg71
g3603
sg64
(lp3740
g57
(g78
g59
NtRp3741
(dp3742
g62
(dp3743
g82
g83
ssg71
g3737
sg64
(lp3744
S'registration_key'
p3745
asbag57
(g78
g59
NtRp3746
(dp3747
g62
(dp3748
g89
g90
ssg71
g3737
sg64
(lp3749
S':'
asbag57
(g78
g59
NtRp3750
(dp3751
g62
(dp3752
sg71
g3737
sg64
(lp3753
g57
(g58
g59
NtRp3754
(dp3755
g62
(dp3756
g70
I3
ssg71
g3750
sg64
(lp3757
S''
asbasbasbag57
(g73
g59
NtRp3758
(dp3759
g62
(dp3760
sg71
g3603
sg64
(lp3761
g57
(g78
g59
NtRp3762
(dp3763
g62
(dp3764
g82
g83
ssg71
g3758
sg64
(lp3765
S'reset_password_key'
p3766
asbag57
(g78
g59
NtRp3767
(dp3768
g62
(dp3769
g89
g90
ssg71
g3758
sg64
(lp3770
S':'
asbag57
(g78
g59
NtRp3771
(dp3772
g62
(dp3773
sg71
g3758
sg64
(lp3774
g57
(g58
g59
NtRp3775
(dp3776
g62
(dp3777
g70
I3
ssg71
g3771
sg64
(lp3778
S''
asbasbasbasbasbasbasbag57
(g73
g59
NtRp3779
(dp3780
g62
(dp3781
sg71
g3491
sg64
(lp3782
g57
(g78
g59
NtRp3783
(dp3784
g62
(dp3785
g82
g83
ssg71
g3779
sg64
(lp3786
S'user_groups'
p3787
asbag57
(g78
g59
NtRp3788
(dp3789
g62
(dp3790
g89
g90
ssg71
g3779
sg64
(lp3791
S':'
asbag57
(g78
g59
NtRp3792
(dp3793
g62
(dp3794
sg71
g3779
sg64
(lp3795
g57
(g58
g59
NtRp3796
(dp3797
g62
(dp3798
g70
I4
ssg71
g3792
sg64
(lp3799
g57
(g66
g59
NtRp3800
(dp3801
g62
(dp3802
g70
I3
ssg71
Nsg64
(lp3803
g57
(g73
g59
NtRp3804
(dp3805
g62
(dp3806
sg71
g3800
sg64
(lp3807
g57
(g78
g59
NtRp3808
(dp3809
g62
(dp3810
g82
g83
ssg71
g3804
sg64
(lp3811
S'1'
asbag57
(g78
g59
NtRp3812
(dp3813
g62
(dp3814
g89
g90
ssg71
g3804
sg64
(lp3815
S':'
asbag57
(g78
g59
NtRp3816
(dp3817
g62
(dp3818
sg71
g3804
sg64
(lp3819
g57
(g58
g59
NtRp3820
(dp3821
g62
(dp3822
g70
I3
ssg71
g3816
sg64
(lp3823
S'user_1'
p3824
asbasbasbag57
(g73
g59
NtRp3825
(dp3826
g62
(dp3827
sg71
g3800
sg64
(lp3828
g57
(g78
g59
NtRp3829
(dp3830
g62
(dp3831
g82
g83
ssg71
g3825
sg64
(lp3832
S'2'
asbag57
(g78
g59
NtRp3833
(dp3834
g62
(dp3835
g89
g90
ssg71
g3825
sg64
(lp3836
S':'
asbag57
(g78
g59
NtRp3837
(dp3838
g62
(dp3839
sg71
g3825
sg64
(lp3840
g57
(g58
g59
NtRp3841
(dp3842
g62
(dp3843
g70
I3
ssg71
g3837
sg64
(lp3844
S'Administrator'
p3845
asbasbasbasbasbasbasbasbasbasbasbag57
(g73
g59
NtRp3846
(dp3847
g62
(dp3848
sg71
g3466
sg64
(lp3849
g57
(g78
g59
NtRp3850
(dp3851
g62
(dp3852
g82
g83
ssg71
g3846
sg64
(lp3853
S'last_query'
p3854
asbag57
(g78
g59
NtRp3855
(dp3856
g62
(dp3857
g89
g90
ssg71
g3846
sg64
(lp3858
S':'
asbag57
(g78
g59
NtRp3859
(dp3860
g62
(dp3861
sg71
g3846
sg64
(lp3862
g57
(g58
g59
NtRp3863
(dp3864
g62
(dp3865
g70
I5
ssg71
g3859
sg64
(lp3866
S'db.Employee.id>0'
p3867
asbasbasbasbasbsS'etype'
p3868
S"<type 'exceptions.AttributeError'>"
p3869
sS'date'
p3870
S'Sat Oct 13 20:51:35 2012'
p3871
sS'response'
p3872
g57
(g58
g59
NtRp3873
(dp3874
g62
(dp3875
sg64
(lp3876
g57
(g66
g59
NtRp3877
(dp3878
g62
(dp3879
g70
I5
ssg71
Nsg64
(lp3880
g57
(g73
g59
NtRp3881
(dp3882
g62
(dp3883
sg71
g3877
sg64
(lp3884
g57
(g78
g59
NtRp3885
(dp3886
g62
(dp3887
g82
g83
ssg71
g3881
sg64
(lp3888
g168
asbag57
(g78
g59
NtRp3889
(dp3890
g62
(dp3891
g89
g90
ssg71
g3881
sg64
(lp3892
S':'
asbag57
(g78
g59
NtRp3893
(dp3894
g62
(dp3895
sg71
g3881
sg64
(lp3896
g57
(g58
g59
NtRp3897
(dp3898
g62
(dp3899
g70
I5
ssg71
g3893
sg64
(lp3900
S'<cStringIO.StringO object at 0x8cb5b80>'
p3901
asbasbasbag57
(g73
g59
NtRp3902
(dp3903
g62
(dp3904
sg71
g3877
sg64
(lp3905
g57
(g78
g59
NtRp3906
(dp3907
g62
(dp3908
g82
g83
ssg71
g3902
sg64
(lp3909
g234
asbag57
(g78
g59
NtRp3910
(dp3911
g62
(dp3912
g89
g90
ssg71
g3902
sg64
(lp3913
S':'
asbag57
(g78
g59
NtRp3914
(dp3915
g62
(dp3916
sg71
g3902
sg64
(lp3917
g57
(g58
g59
NtRp3918
(dp3919
g62
(dp3920
g70
I5
ssg71
g3914
sg64
(lp3921
g57
(g66
g59
NtRp3922
(dp3923
g62
(dp3924
g70
I4
ssg71
Nsg64
(lp3925
g57
(g73
g59
NtRp3926
(dp3927
g62
(dp3928
sg71
g3922
sg64
(lp3929
g57
(g78
g59
NtRp3930
(dp3931
g62
(dp3932
g82
g83
ssg71
g3926
sg64
(lp3933
S'session_id_project'
p3934
asbag57
(g78
g59
NtRp3935
(dp3936
g62
(dp3937
g89
g90
ssg71
g3926
sg64
(lp3938
S':'
asbag57
(g78
g59
NtRp3939
(dp3940
g62
(dp3941
sg71
g3926
sg64
(lp3942
g57
(g58
g59
NtRp3943
(dp3944
g62
(dp3945
g70
I4
ssg71
g3939
sg64
(lp3946
g57
(g66
g59
NtRp3947
(dp3948
g62
(dp3949
g70
I3
ssg71
Nsg64
(lp3950
g57
(g73
g59
NtRp3951
(dp3952
g62
(dp3953
sg71
g3947
sg64
(lp3954
g57
(g78
g59
NtRp3955
(dp3956
g62
(dp3957
g82
g83
ssg71
g3951
sg64
(lp3958
g284
asbag57
(g78
g59
NtRp3959
(dp3960
g62
(dp3961
g89
g90
ssg71
g3951
sg64
(lp3962
S':'
asbag57
(g78
g59
NtRp3963
(dp3964
g62
(dp3965
sg71
g3951
sg64
(lp3966
g57
(g58
g59
NtRp3967
(dp3968
g62
(dp3969
g70
I3
ssg71
g3963
sg64
(lp3970
S''
asbasbasbag57
(g73
g59
NtRp3971
(dp3972
g62
(dp3973
sg71
g3947
sg64
(lp3974
g57
(g78
g59
NtRp3975
(dp3976
g62
(dp3977
g82
g83
ssg71
g3971
sg64
(lp3978
g305
asbag57
(g78
g59
NtRp3979
(dp3980
g62
(dp3981
g89
g90
ssg71
g3971
sg64
(lp3982
S':'
asbag57
(g78
g59
NtRp3983
(dp3984
g62
(dp3985
sg71
g3971
sg64
(lp3986
g57
(g58
g59
NtRp3987
(dp3988
g62
(dp3989
g70
I3
ssg71
g3983
sg64
(lp3990
S''
asbasbasbag57
(g73
g59
NtRp3991
(dp3992
g62
(dp3993
sg71
g3947
sg64
(lp3994
g57
(g78
g59
NtRp3995
(dp3996
g62
(dp3997
g82
g83
ssg71
g3991
sg64
(lp3998
g326
asbag57
(g78
g59
NtRp3999
(dp4000
g62
(dp4001
g89
g90
ssg71
g3991
sg64
(lp4002
S':'
asbag57
(g78
g59
NtRp4003
(dp4004
g62
(dp4005
sg71
g3991
sg64
(lp4006
g57
(g58
g59
NtRp4007
(dp4008
g62
(dp4009
g70
I3
ssg71
g4003
sg64
(lp4010
S''
asbasbasbag57
(g73
g59
NtRp4011
(dp4012
g62
(dp4013
sg71
g3947
sg64
(lp4014
g57
(g78
g59
NtRp4015
(dp4016
g62
(dp4017
g82
g83
ssg71
g4011
sg64
(lp4018
g347
asbag57
(g78
g59
NtRp4019
(dp4020
g62
(dp4021
g89
g90
ssg71
g4011
sg64
(lp4022
S':'
asbag57
(g78
g59
NtRp4023
(dp4024
g62
(dp4025
sg71
g4011
sg64
(lp4026
g57
(g58
g59
NtRp4027
(dp4028
g62
(dp4029
g70
I3
ssg71
g4023
sg64
(lp4030
S''
asbasbasbag57
(g73
g59
NtRp4031
(dp4032
g62
(dp4033
sg71
g3947
sg64
(lp4034
g57
(g78
g59
NtRp4035
(dp4036
g62
(dp4037
g82
g83
ssg71
g4031
sg64
(lp4038
g368
asbag57
(g78
g59
NtRp4039
(dp4040
g62
(dp4041
g89
g90
ssg71
g4031
sg64
(lp4042
S':'
asbag57
(g78
g59
NtRp4043
(dp4044
g62
(dp4045
sg71
g4031
sg64
(lp4046
g57
(g58
g59
NtRp4047
(dp4048
g62
(dp4049
g70
I3
ssg71
g4043
sg64
(lp4050
S''
asbasbasbag57
(g73
g59
NtRp4051
(dp4052
g62
(dp4053
sg71
g3947
sg64
(lp4054
g57
(g78
g59
NtRp4055
(dp4056
g62
(dp4057
g82
g83
ssg71
g4051
sg64
(lp4058
g389
asbag57
(g78
g59
NtRp4059
(dp4060
g62
(dp4061
g89
g90
ssg71
g4051
sg64
(lp4062
S':'
asbag57
(g78
g59
NtRp4063
(dp4064
g62
(dp4065
sg71
g4051
sg64
(lp4066
g57
(g58
g59
NtRp4067
(dp4068
g62
(dp4069
g70
I3
ssg71
g4063
sg64
(lp4070
S'/'
asbasbasbag57
(g73
g59
NtRp4071
(dp4072
g62
(dp4073
sg71
g3947
sg64
(lp4074
g57
(g78
g59
NtRp4075
(dp4076
g62
(dp4077
g82
g83
ssg71
g4071
sg64
(lp4078
g410
asbag57
(g78
g59
NtRp4079
(dp4080
g62
(dp4081
g89
g90
ssg71
g4071
sg64
(lp4082
S':'
asbag57
(g78
g59
NtRp4083
(dp4084
g62
(dp4085
sg71
g4071
sg64
(lp4086
g57
(g58
g59
NtRp4087
(dp4088
g62
(dp4089
g70
I3
ssg71
g4083
sg64
(lp4090
S''
asbasbasbag57
(g73
g59
NtRp4091
(dp4092
g62
(dp4093
sg71
g3947
sg64
(lp4094
g57
(g78
g59
NtRp4095
(dp4096
g62
(dp4097
g82
g83
ssg71
g4091
sg64
(lp4098
g431
asbag57
(g78
g59
NtRp4099
(dp4100
g62
(dp4101
g89
g90
ssg71
g4091
sg64
(lp4102
S':'
asbag57
(g78
g59
NtRp4103
(dp4104
g62
(dp4105
sg71
g4091
sg64
(lp4106
g57
(g58
g59
NtRp4107
(dp4108
g62
(dp4109
g70
I3
ssg71
g4103
sg64
(lp4110
S''
asbasbasbasbasbasbasbasbasbasbasbag57
(g73
g59
NtRp4111
(dp4112
g62
(dp4113
sg71
g3877
sg64
(lp4114
g57
(g78
g59
NtRp4115
(dp4116
g62
(dp4117
g82
g83
ssg71
g4111
sg64
(lp4118
S'delimiters'
p4119
asbag57
(g78
g59
NtRp4120
(dp4121
g62
(dp4122
g89
g90
ssg71
g4111
sg64
(lp4123
S':'
asbag57
(g78
g59
NtRp4124
(dp4125
g62
(dp4126
sg71
g4111
sg64
(lp4127
g57
(g58
g59
NtRp4128
(dp4129
g62
(dp4130
g70
I5
ssg71
g4124
sg64
(lp4131
g57
(g66
g59
NtRp4132
(dp4133
g62
(dp4134
g70
I4
ssg71
Nsg64
(lp4135
g57
(g73
g59
NtRp4136
(dp4137
g62
(dp4138
sg71
g4132
sg64
(lp4139
g57
(g78
g59
NtRp4140
(dp4141
g62
(dp4142
sg71
g4136
sg64
(lp4143
g57
(g58
g59
NtRp4144
(dp4145
g62
(dp4146
g70
I4
ssg71
g4140
sg64
(lp4147
S'{{'
p4148
asbasbasbag57
(g73
g59
NtRp4149
(dp4150
g62
(dp4151
sg71
g4132
sg64
(lp4152
g57
(g78
g59
NtRp4153
(dp4154
g62
(dp4155
sg71
g4149
sg64
(lp4156
g57
(g58
g59
NtRp4157
(dp4158
g62
(dp4159
g70
I4
ssg71
g4153
sg64
(lp4160
S'}}'
p4161
asbasbasbasbasbasbasbag57
(g73
g59
NtRp4162
(dp4163
g62
(dp4164
sg71
g3877
sg64
(lp4165
g57
(g78
g59
NtRp4166
(dp4167
g62
(dp4168
g82
g83
ssg71
g4162
sg64
(lp4169
S'files'
p4170
asbag57
(g78
g59
NtRp4171
(dp4172
g62
(dp4173
g89
g90
ssg71
g4162
sg64
(lp4174
S':'
asbag57
(g78
g59
NtRp4175
(dp4176
g62
(dp4177
sg71
g4162
sg64
(lp4178
g57
(g58
g59
NtRp4179
(dp4180
g62
(dp4181
g70
I5
ssg71
g4175
sg64
(lp4182
g57
(g66
g59
NtRp4183
(dp4184
g62
(dp4185
g70
I4
ssg71
Nsg64
(lp4186
g57
(g73
g59
NtRp4187
(dp4188
g62
(dp4189
sg71
g4183
sg64
(lp4190
g57
(g78
g59
NtRp4191
(dp4192
g62
(dp4193
sg71
g4187
sg64
(lp4194
g57
(g58
g59
NtRp4195
(dp4196
g62
(dp4197
g70
I4
ssg71
g4191
sg64
(lp4198
S'/project/static/js/jquery.js'
p4199
asbasbasbag57
(g73
g59
NtRp4200
(dp4201
g62
(dp4202
sg71
g4183
sg64
(lp4203
g57
(g78
g59
NtRp4204
(dp4205
g62
(dp4206
sg71
g4200
sg64
(lp4207
g57
(g58
g59
NtRp4208
(dp4209
g62
(dp4210
g70
I4
ssg71
g4204
sg64
(lp4211
S'/project/static/css/calendar.css'
p4212
asbasbasbag57
(g73
g59
NtRp4213
(dp4214
g62
(dp4215
sg71
g4183
sg64
(lp4216
g57
(g78
g59
NtRp4217
(dp4218
g62
(dp4219
sg71
g4213
sg64
(lp4220
g57
(g58
g59
NtRp4221
(dp4222
g62
(dp4223
g70
I4
ssg71
g4217
sg64
(lp4224
S'/project/static/js/calendar.js'
p4225
asbasbasbag57
(g73
g59
NtRp4226
(dp4227
g62
(dp4228
sg71
g4183
sg64
(lp4229
g57
(g78
g59
NtRp4230
(dp4231
g62
(dp4232
sg71
g4226
sg64
(lp4233
g57
(g58
g59
NtRp4234
(dp4235
g62
(dp4236
g70
I4
ssg71
g4230
sg64
(lp4237
S'/project/static/js/web2py.js'
p4238
asbasbasbag57
(g73
g59
NtRp4239
(dp4240
g62
(dp4241
sg71
g4183
sg64
(lp4242
g57
(g78
g59
NtRp4243
(dp4244
g62
(dp4245
sg71
g4239
sg64
(lp4246
g57
(g58
g59
NtRp4247
(dp4248
g62
(dp4249
g70
I4
ssg71
g4243
sg64
(lp4250
S'/project/static/css/skeleton.css'
p4251
asbasbasbag57
(g73
g59
NtRp4252
(dp4253
g62
(dp4254
sg71
g4183
sg64
(lp4255
g57
(g78
g59
NtRp4256
(dp4257
g62
(dp4258
sg71
g4252
sg64
(lp4259
g57
(g58
g59
NtRp4260
(dp4261
g62
(dp4262
g70
I4
ssg71
g4256
sg64
(lp4263
S'/project/static/css/web2py.css'
p4264
asbasbasbag57
(g73
g59
NtRp4265
(dp4266
g62
(dp4267
sg71
g4183
sg64
(lp4268
g57
(g78
g59
NtRp4269
(dp4270
g62
(dp4271
sg71
g4265
sg64
(lp4272
g57
(g58
g59
NtRp4273
(dp4274
g62
(dp4275
g70
I4
ssg71
g4269
sg64
(lp4276
S'/project/static/css/superfish.css'
p4277
asbasbasbag57
(g73
g59
NtRp4278
(dp4279
g62
(dp4280
sg71
g4183
sg64
(lp4281
g57
(g78
g59
NtRp4282
(dp4283
g62
(dp4284
sg71
g4278
sg64
(lp4285
g57
(g58
g59
NtRp4286
(dp4287
g62
(dp4288
g70
I4
ssg71
g4282
sg64
(lp4289
S'/project/static/js/superfish.js'
p4290
asbasbasbasbasbasbasbag57
(g73
g59
NtRp4291
(dp4292
g62
(dp4293
sg71
g3877
sg64
(lp4294
g57
(g78
g59
NtRp4295
(dp4296
g62
(dp4297
g82
g83
ssg71
g4291
sg64
(lp4298
S'flash'
p4299
asbag57
(g78
g59
NtRp4300
(dp4301
g62
(dp4302
g89
g90
ssg71
g4291
sg64
(lp4303
S':'
asbag57
(g78
g59
NtRp4304
(dp4305
g62
(dp4306
sg71
g4291
sg64
(lp4307
g57
(g58
g59
NtRp4308
(dp4309
g62
(dp4310
g70
I5
ssg71
g4304
sg64
(lp4311
S''
asbasbasbag57
(g73
g59
NtRp4312
(dp4313
g62
(dp4314
sg71
g3877
sg64
(lp4315
g57
(g78
g59
NtRp4316
(dp4317
g62
(dp4318
g82
g83
ssg71
g4312
sg64
(lp4319
S'generic_patterns'
p4320
asbag57
(g78
g59
NtRp4321
(dp4322
g62
(dp4323
g89
g90
ssg71
g4312
sg64
(lp4324
S':'
asbag57
(g78
g59
NtRp4325
(dp4326
g62
(dp4327
sg71
g4312
sg64
(lp4328
g57
(g58
g59
NtRp4329
(dp4330
g62
(dp4331
g70
I5
ssg71
g4325
sg64
(lp4332
g57
(g66
g59
NtRp4333
(dp4334
g62
(dp4335
g70
I4
ssg71
Nsg64
(lp4336
g57
(g73
g59
NtRp4337
(dp4338
g62
(dp4339
sg71
g4333
sg64
(lp4340
g57
(g78
g59
NtRp4341
(dp4342
g62
(dp4343
sg71
g4337
sg64
(lp4344
g57
(g58
g59
NtRp4345
(dp4346
g62
(dp4347
g70
I4
ssg71
g4341
sg64
(lp4348
S'*'
asbasbasbasbasbasbasbag57
(g73
g59
NtRp4349
(dp4350
g62
(dp4351
sg71
g3877
sg64
(lp4352
g57
(g78
g59
NtRp4353
(dp4354
g62
(dp4355
g82
g83
ssg71
g4349
sg64
(lp4356
S'headers'
p4357
asbag57
(g78
g59
NtRp4358
(dp4359
g62
(dp4360
g89
g90
ssg71
g4349
sg64
(lp4361
S':'
asbag57
(g78
g59
NtRp4362
(dp4363
g62
(dp4364
sg71
g4349
sg64
(lp4365
g57
(g58
g59
NtRp4366
(dp4367
g62
(dp4368
g70
I5
ssg71
g4362
sg64
(lp4369
g57
(g66
g59
NtRp4370
(dp4371
g62
(dp4372
g70
I4
ssg71
Nsg64
(lp4373
g57
(g73
g59
NtRp4374
(dp4375
g62
(dp4376
sg71
g4370
sg64
(lp4377
g57
(g78
g59
NtRp4378
(dp4379
g62
(dp4380
g82
g83
ssg71
g4374
sg64
(lp4381
S'Cache-Control'
p4382
asbag57
(g78
g59
NtRp4383
(dp4384
g62
(dp4385
g89
g90
ssg71
g4374
sg64
(lp4386
S':'
asbag57
(g78
g59
NtRp4387
(dp4388
g62
(dp4389
sg71
g4374
sg64
(lp4390
g57
(g58
g59
NtRp4391
(dp4392
g62
(dp4393
g70
I4
ssg71
g4387
sg64
(lp4394
S'no-store, no-cache, must-revalidate, post-check=0, pre-check=0'
p4395
asbasbasbag57
(g73
g59
NtRp4396
(dp4397
g62
(dp4398
sg71
g4370
sg64
(lp4399
g57
(g78
g59
NtRp4400
(dp4401
g62
(dp4402
g82
g83
ssg71
g4396
sg64
(lp4403
S'Content-Type'
p4404
asbag57
(g78
g59
NtRp4405
(dp4406
g62
(dp4407
g89
g90
ssg71
g4396
sg64
(lp4408
S':'
asbag57
(g78
g59
NtRp4409
(dp4410
g62
(dp4411
sg71
g4396
sg64
(lp4412
g57
(g58
g59
NtRp4413
(dp4414
g62
(dp4415
g70
I4
ssg71
g4409
sg64
(lp4416
S'text/html; charset=utf-8'
p4417
asbasbasbag57
(g73
g59
NtRp4418
(dp4419
g62
(dp4420
sg71
g4370
sg64
(lp4421
g57
(g78
g59
NtRp4422
(dp4423
g62
(dp4424
g82
g83
ssg71
g4418
sg64
(lp4425
S'Expires'
p4426
asbag57
(g78
g59
NtRp4427
(dp4428
g62
(dp4429
g89
g90
ssg71
g4418
sg64
(lp4430
S':'
asbag57
(g78
g59
NtRp4431
(dp4432
g62
(dp4433
sg71
g4418
sg64
(lp4434
g57
(g58
g59
NtRp4435
(dp4436
g62
(dp4437
g70
I4
ssg71
g4431
sg64
(lp4438
S'Sat, 13 Oct 2012 15:21:35 GMT'
p4439
asbasbasbag57
(g73
g59
NtRp4440
(dp4441
g62
(dp4442
sg71
g4370
sg64
(lp4443
g57
(g78
g59
NtRp4444
(dp4445
g62
(dp4446
g82
g83
ssg71
g4440
sg64
(lp4447
S'Pragma'
p4448
asbag57
(g78
g59
NtRp4449
(dp4450
g62
(dp4451
g89
g90
ssg71
g4440
sg64
(lp4452
S':'
asbag57
(g78
g59
NtRp4453
(dp4454
g62
(dp4455
sg71
g4440
sg64
(lp4456
g57
(g58
g59
NtRp4457
(dp4458
g62
(dp4459
g70
I4
ssg71
g4453
sg64
(lp4460
S'no-cache'
p4461
asbasbasbag57
(g73
g59
NtRp4462
(dp4463
g62
(dp4464
sg71
g4370
sg64
(lp4465
g57
(g78
g59
NtRp4466
(dp4467
g62
(dp4468
g82
g83
ssg71
g4462
sg64
(lp4469
S'X-Powered-By'
p4470
asbag57
(g78
g59
NtRp4471
(dp4472
g62
(dp4473
g89
g90
ssg71
g4462
sg64
(lp4474
S':'
asbag57
(g78
g59
NtRp4475
(dp4476
g62
(dp4477
sg71
g4462
sg64
(lp4478
g57
(g58
g59
NtRp4479
(dp4480
g62
(dp4481
g70
I4
ssg71
g4475
sg64
(lp4482
S'web2py'
p4483
asbasbasbasbasbasbasbag57
(g73
g59
NtRp4484
(dp4485
g62
(dp4486
sg71
g3877
sg64
(lp4487
g57
(g78
g59
NtRp4488
(dp4489
g62
(dp4490
g82
g83
ssg71
g4484
sg64
(lp4491
S'menu'
p4492
asbag57
(g78
g59
NtRp4493
(dp4494
g62
(dp4495
g89
g90
ssg71
g4484
sg64
(lp4496
S':'
asbag57
(g78
g59
NtRp4497
(dp4498
g62
(dp4499
sg71
g4484
sg64
(lp4500
g57
(g58
g59
NtRp4501
(dp4502
g62
(dp4503
g70
I5
ssg71
g4497
sg64
(lp4504
g57
(g66
g59
NtRp4505
(dp4506
g62
(dp4507
g70
I4
ssg71
Nsg64
(lp4508
g57
(g73
g59
NtRp4509
(dp4510
g62
(dp4511
sg71
g4505
sg64
(lp4512
g57
(g78
g59
NtRp4513
(dp4514
g62
(dp4515
sg71
g4509
sg64
(lp4516
g57
(g58
g59
NtRp4517
(dp4518
g62
(dp4519
g70
I4
ssg71
g4513
sg64
(lp4520
g57
(g66
g59
NtRp4521
(dp4522
g62
(dp4523
g70
I3
ssg71
Nsg64
(lp4524
g57
(g73
g59
NtRp4525
(dp4526
g62
(dp4527
sg71
g4521
sg64
(lp4528
g57
(g78
g59
NtRp4529
(dp4530
g62
(dp4531
sg71
g4525
sg64
(lp4532
g57
(g58
g59
NtRp4533
(dp4534
g62
(dp4535
g70
I3
ssg71
g4529
sg64
(lp4536
cgluon.languages
lazyT_unpickle
p4537
(S't\x04\x00\x00\x00Home'
tRp4538
asbasbasbag57
(g73
g59
NtRp4539
(dp4540
g62
(dp4541
sg71
g4521
sg64
(lp4542
g57
(g78
g59
NtRp4543
(dp4544
g62
(dp4545
sg71
g4539
sg64
(lp4546
g57
(g58
g59
NtRp4547
(dp4548
g62
(dp4549
g70
I3
ssg71
g4543
sg64
(lp4550
g100
asbasbasbag57
(g73
g59
NtRp4551
(dp4552
g62
(dp4553
sg71
g4521
sg64
(lp4554
g57
(g78
g59
NtRp4555
(dp4556
g62
(dp4557
sg71
g4551
sg64
(lp4558
g57
(g58
g59
NtRp4559
(dp4560
g62
(dp4561
g70
I3
ssg71
g4555
sg64
(lp4562
S'/project/default/index'
p4563
asbasbasbag57
(g73
g59
NtRp4564
(dp4565
g62
(dp4566
sg71
g4521
sg64
(lp4567
g57
(g78
g59
NtRp4568
(dp4569
g62
(dp4570
sg71
g4564
sg64
(lp4571
g57
(g58
g59
NtRp4572
(dp4573
g62
(dp4574
g70
I3
ssg71
g4568
sg64
(lp4575
g57
(g66
g59
NtRp4576
(dp4577
g62
(dp4578
g70
I2
ssg71
Nsg64
(lp4579
sbasbasbasbasbasbasbasbag57
(g73
g59
NtRp4580
(dp4581
g62
(dp4582
sg71
g4505
sg64
(lp4583
g57
(g78
g59
NtRp4584
(dp4585
g62
(dp4586
sg71
g4580
sg64
(lp4587
g57
(g58
g59
NtRp4588
(dp4589
g62
(dp4590
g70
I4
ssg71
g4584
sg64
(lp4591
g57
(g66
g59
NtRp4592
(dp4593
g62
(dp4594
g70
I3
ssg71
Nsg64
(lp4595
g57
(g73
g59
NtRp4596
(dp4597
g62
(dp4598
sg71
g4592
sg64
(lp4599
g57
(g78
g59
NtRp4600
(dp4601
g62
(dp4602
sg71
g4596
sg64
(lp4603
g57
(g58
g59
NtRp4604
(dp4605
g62
(dp4606
g70
I3
ssg71
g4600
sg64
(lp4607
g57
(cgluon.html
SPAN
p4608
g59
NtRp4609
(dp4610
g62
(dp4611
g82
S'color:yellow'
p4612
ssg71
g57
(cgluon.html
A
p4613
g59
NtRp4614
(dp4615
g62
(dp4616
S'_onclick'
p4617
S'javascript:void(0);return false;'
p4618
sS'_href'
p4619
S'#'
ssg71
g57
(cgluon.html
LI
p4620
g59
NtRp4621
(dp4622
g62
(dp4623
S'_class'
p4624
S'web2py-menu-expand'
p4625
ssg71
g57
(cgluon.html
UL
p4626
g59
NtRp4627
(dp4628
g62
(dp4629
S'mobile'
p4630
I00
sS'li_class'
p4631
g4625
sg4624
S'sf-menu'
p4632
sS'ul_class'
p4633
S'web2py-menu-vertical'
p4634
sS'li_active'
p4635
S'web2py-menu-active'
p4636
ssg71
Nsg64
(lp4637
g57
(g4620
g59
NtRp4638
(dp4639
g62
(dp4640
sg71
g4627
sg64
(lp4641
g57
(g4613
g59
NtRp4642
(dp4643
g62
(dp4644
g4619
g4563
ssg71
g4638
sg64
(lp4645
g4538
asbasbag4621
asbsg64
(lp4646
g4614
ag57
(g4626
g59
NtRp4647
(dp4648
g62
(dp4649
g4624
g4634
ssg71
g4621
sg64
(lp4650
g57
(g4620
g59
NtRp4651
(dp4652
g62
(dp4653
sg71
g4647
sg64
(lp4654
g57
(g4613
g59
NtRp4655
(dp4656
g62
(dp4657
g4619
S'/admin/default/site'
p4658
ssg71
g4651
sg64
(lp4659
g4537
(S's\x08\x00\x00\x00My Sites'
tRp4660
asbasbag57
(g4620
g59
NtRp4661
(dp4662
g62
(dp4663
g4624
g4625
ssg71
g4647
sg64
(lp4664
g57
(g4613
g59
NtRp4665
(dp4666
g62
(dp4667
g4619
S'/admin/default/design/project'
p4668
ssg71
g4661
sg64
(lp4669
g4537
(S's\x08\x00\x00\x00This App'
tRp4670
asbag57
(g4626
g59
NtRp4671
(dp4672
g62
(dp4673
g4624
g4634
ssg71
g4661
sg64
(lp4674
g57
(g4620
g59
NtRp4675
(dp4676
g62
(dp4677
sg71
g4671
sg64
(lp4678
g57
(g4613
g59
NtRp4679
(dp4680
g62
(dp4681
g4619
S'/admin/default/edit/project/controllers/default.py'
p4682
ssg71
g4675
sg64
(lp4683
g4537
(S't\n\x00\x00\x00Controller'
tRp4684
asbasbag57
(g4620
g59
NtRp4685
(dp4686
g62
(dp4687
sg71
g4671
sg64
(lp4688
g57
(g4613
g59
NtRp4689
(dp4690
g62
(dp4691
g4619
S'/admin/default/edit/project/views/default/graph.html'
p4692
ssg71
g4685
sg64
(lp4693
g4537
(S't\x04\x00\x00\x00View'
tRp4694
asbasbag57
(g4620
g59
NtRp4695
(dp4696
g62
(dp4697
sg71
g4671
sg64
(lp4698
g57
(g4613
g59
NtRp4699
(dp4700
g62
(dp4701
g4619
S'/admin/default/edit/project/views/layout.html'
p4702
ssg71
g4695
sg64
(lp4703
g4537
(S't\x06\x00\x00\x00Layout'
tRp4704
asbasbag57
(g4620
g59
NtRp4705
(dp4706
g62
(dp4707
sg71
g4671
sg64
(lp4708
g57
(g4613
g59
NtRp4709
(dp4710
g62
(dp4711
g4619
S'/admin/default/edit/project/static/css/web2py.css'
p4712
ssg71
g4705
sg64
(lp4713
g4537
(S't\n\x00\x00\x00Stylesheet'
tRp4714
asbasbag57
(g4620
g59
NtRp4715
(dp4716
g62
(dp4717
sg71
g4671
sg64
(lp4718
g57
(g4613
g59
NtRp4719
(dp4720
g62
(dp4721
g4619
S'/admin/default/edit/project/models/db.py'
p4722
ssg71
g4715
sg64
(lp4723
g4537
(S's\x08\x00\x00\x00DB Model'
tRp4724
asbasbag57
(g4620
g59
NtRp4725
(dp4726
g62
(dp4727
sg71
g4671
sg64
(lp4728
g57
(g4613
g59
NtRp4729
(dp4730
g62
(dp4731
g4619
S'/admin/default/edit/project/models/menu.py'
p4732
ssg71
g4725
sg64
(lp4733
g4537
(S's\n\x00\x00\x00Menu Model'
tRp4734
asbasbag57
(g4620
g59
NtRp4735
(dp4736
g62
(dp4737
sg71
g4671
sg64
(lp4738
g57
(g4613
g59
NtRp4739
(dp4740
g62
(dp4741
g4619
S'/project/appadmin/index'
p4742
ssg71
g4735
sg64
(lp4743
g4537
(S't\x08\x00\x00\x00Database'
tRp4744
asbasbag57
(g4620
g59
NtRp4745
(dp4746
g62
(dp4747
sg71
g4671
sg64
(lp4748
g57
(g4613
g59
NtRp4749
(dp4750
g62
(dp4751
g4619
S'/admin/default/errors/project'
p4752
ssg71
g4745
sg64
(lp4753
g4537
(S't\x06\x00\x00\x00Errors'
tRp4754
asbasbag57
(g4620
g59
NtRp4755
(dp4756
g62
(dp4757
sg71
g4671
sg64
(lp4758
g57
(g4613
g59
NtRp4759
(dp4760
g62
(dp4761
g4619
S'/admin/default/about/project'
p4762
ssg71
g4755
sg64
(lp4763
g4537
(S't\x05\x00\x00\x00About'
tRp4764
asbasbasbasbag57
(g4620
g59
NtRp4765
(dp4766
g62
(dp4767
g4624
g4625
ssg71
g4647
sg64
(lp4768
g57
(g4613
g59
NtRp4769
(dp4770
g62
(dp4771
g4619
S'http://www.web2py.com'
p4772
ssg71
g4765
sg64
(lp4773
S'web2py.com'
p4774
asbag57
(g4626
g59
NtRp4775
(dp4776
g62
(dp4777
g4624
g4634
ssg71
g4765
sg64
(lp4778
g57
(g4620
g59
NtRp4779
(dp4780
g62
(dp4781
sg71
g4775
sg64
(lp4782
g57
(g4613
g59
NtRp4783
(dp4784
g62
(dp4785
g4619
S'http://www.web2py.com/examples/default/download'
p4786
ssg71
g4779
sg64
(lp4787
g4537
(S't\x08\x00\x00\x00Download'
tRp4788
asbasbag57
(g4620
g59
NtRp4789
(dp4790
g62
(dp4791
sg71
g4775
sg64
(lp4792
g57
(g4613
g59
NtRp4793
(dp4794
g62
(dp4795
g4619
S'http://www.web2py.com/examples/default/support'
p4796
ssg71
g4789
sg64
(lp4797
g4537
(S't\x07\x00\x00\x00Support'
tRp4798
asbasbag57
(g4620
g59
NtRp4799
(dp4800
g62
(dp4801
sg71
g4775
sg64
(lp4802
g57
(g4613
g59
NtRp4803
(dp4804
g62
(dp4805
g4619
S'http://web2py.com/demo_admin'
p4806
ssg71
g4799
sg64
(lp4807
g4537
(S't\x04\x00\x00\x00Demo'
tRp4808
asbasbag57
(g4620
g59
NtRp4809
(dp4810
g62
(dp4811
sg71
g4775
sg64
(lp4812
g57
(g4613
g59
NtRp4813
(dp4814
g62
(dp4815
g4619
S'http://web2py.com/examples/default/examples'
p4816
ssg71
g4809
sg64
(lp4817
g4537
(S's\x0e\x00\x00\x00Quick Examples'
tRp4818
asbasbag57
(g4620
g59
NtRp4819
(dp4820
g62
(dp4821
sg71
g4775
sg64
(lp4822
g57
(g4613
g59
NtRp4823
(dp4824
g62
(dp4825
g4619
S'http://web2py.com/AlterEgo'
p4826
ssg71
g4819
sg64
(lp4827
g4537
(S't\x03\x00\x00\x00FAQ'
tRp4828
asbasbag57
(g4620
g59
NtRp4829
(dp4830
g62
(dp4831
sg71
g4775
sg64
(lp4832
g57
(g4613
g59
NtRp4833
(dp4834
g62
(dp4835
g4619
S'http://www.web2py.com/examples/default/videos/'
p4836
ssg71
g4829
sg64
(lp4837
g4537
(S't\x06\x00\x00\x00Videos'
tRp4838
asbasbag57
(g4620
g59
NtRp4839
(dp4840
g62
(dp4841
sg71
g4775
sg64
(lp4842
g57
(g4613
g59
NtRp4843
(dp4844
g62
(dp4845
g4619
S'http://web2py.com/appliances'
p4846
ssg71
g4839
sg64
(lp4847
g4537
(S's\x11\x00\x00\x00Free Applications'
tRp4848
asbasbag57
(g4620
g59
NtRp4849
(dp4850
g62
(dp4851
sg71
g4775
sg64
(lp4852
g57
(g4613
g59
NtRp4853
(dp4854
g62
(dp4855
g4619
S'http://web2py.com/plugins'
p4856
ssg71
g4849
sg64
(lp4857
g4537
(S't\x07\x00\x00\x00Plugins'
tRp4858
asbasbag57
(g4620
g59
NtRp4859
(dp4860
g62
(dp4861
sg71
g4775
sg64
(lp4862
g57
(g4613
g59
NtRp4863
(dp4864
g62
(dp4865
g4619
S'http://web2py.com/layouts'
p4866
ssg71
g4859
sg64
(lp4867
g4537
(S't\x07\x00\x00\x00Layouts'
tRp4868
asbasbag57
(g4620
g59
NtRp4869
(dp4870
g62
(dp4871
sg71
g4775
sg64
(lp4872
g57
(g4613
g59
NtRp4873
(dp4874
g62
(dp4875
g4619
S'http://web2pyslices.com/'
p4876
ssg71
g4869
sg64
(lp4877
g4537
(S't\x07\x00\x00\x00Recipes'
tRp4878
asbasbag57
(g4620
g59
NtRp4879
(dp4880
g62
(dp4881
sg71
g4775
sg64
(lp4882
g57
(g4613
g59
NtRp4883
(dp4884
g62
(dp4885
g4619
S'http://web2py.com/semantic'
p4886
ssg71
g4879
sg64
(lp4887
g4537
(S't\x08\x00\x00\x00Semantic'
tRp4888
asbasbasbasbag57
(g4620
g59
NtRp4889
(dp4890
g62
(dp4891
g4624
g4625
ssg71
g4647
sg64
(lp4892
g57
(g4613
g59
NtRp4893
(dp4894
g62
(dp4895
g4619
S'http://www.web2py.com/book'
p4896
ssg71
g4889
sg64
(lp4897
g4537
(S't\r\x00\x00\x00Documentation'
tRp4898
asbag57
(g4626
g59
NtRp4899
(dp4900
g62
(dp4901
g4624
g4634
ssg71
g4889
sg64
(lp4902
g57
(g4620
g59
NtRp4903
(dp4904
g62
(dp4905
sg71
g4899
sg64
(lp4906
g57
(g4613
g59
NtRp4907
(dp4908
g62
(dp4909
g4619
S'http://www.web2py.com/book/default/chapter/00'
p4910
ssg71
g4903
sg64
(lp4911
g4537
(S't\x07\x00\x00\x00Preface'
tRp4912
asbasbag57
(g4620
g59
NtRp4913
(dp4914
g62
(dp4915
sg71
g4899
sg64
(lp4916
g57
(g4613
g59
NtRp4917
(dp4918
g62
(dp4919
g4619
S'http://www.web2py.com/book/default/chapter/01'
p4920
ssg71
g4913
sg64
(lp4921
g4537
(S't\x0c\x00\x00\x00Introduction'
tRp4922
asbasbag57
(g4620
g59
NtRp4923
(dp4924
g62
(dp4925
sg71
g4899
sg64
(lp4926
g57
(g4613
g59
NtRp4927
(dp4928
g62
(dp4929
g4619
S'http://www.web2py.com/book/default/chapter/02'
p4930
ssg71
g4923
sg64
(lp4931
g4537
(S't\x06\x00\x00\x00Python'
tRp4932
asbasbag57
(g4620
g59
NtRp4933
(dp4934
g62
(dp4935
sg71
g4899
sg64
(lp4936
g57
(g4613
g59
NtRp4937
(dp4938
g62
(dp4939
g4619
S'http://www.web2py.com/book/default/chapter/03'
p4940
ssg71
g4933
sg64
(lp4941
g4537
(S't\x08\x00\x00\x00Overview'
tRp4942
asbasbag57
(g4620
g59
NtRp4943
(dp4944
g62
(dp4945
sg71
g4899
sg64
(lp4946
g57
(g4613
g59
NtRp4947
(dp4948
g62
(dp4949
g4619
S'http://www.web2py.com/book/default/chapter/04'
p4950
ssg71
g4943
sg64
(lp4951
g4537
(S's\x08\x00\x00\x00The Core'
tRp4952
asbasbag57
(g4620
g59
NtRp4953
(dp4954
g62
(dp4955
sg71
g4899
sg64
(lp4956
g57
(g4613
g59
NtRp4957
(dp4958
g62
(dp4959
g4619
S'http://www.web2py.com/book/default/chapter/05'
p4960
ssg71
g4953
sg64
(lp4961
g4537
(S's\t\x00\x00\x00The Views'
tRp4962
asbasbag57
(g4620
g59
NtRp4963
(dp4964
g62
(dp4965
sg71
g4899
sg64
(lp4966
g57
(g4613
g59
NtRp4967
(dp4968
g62
(dp4969
g4619
S'http://www.web2py.com/book/default/chapter/06'
p4970
ssg71
g4963
sg64
(lp4971
g4537
(S't\x08\x00\x00\x00Database'
tRp4972
asbasbag57
(g4620
g59
NtRp4973
(dp4974
g62
(dp4975
sg71
g4899
sg64
(lp4976
g57
(g4613
g59
NtRp4977
(dp4978
g62
(dp4979
g4619
S'http://www.web2py.com/book/default/chapter/07'
p4980
ssg71
g4973
sg64
(lp4981
g4537
(S's\x14\x00\x00\x00Forms and Validators'
tRp4982
asbasbag57
(g4620
g59
NtRp4983
(dp4984
g62
(dp4985
sg71
g4899
sg64
(lp4986
g57
(g4613
g59
NtRp4987
(dp4988
g62
(dp4989
g4619
S'http://www.web2py.com/book/default/chapter/08'
p4990
ssg71
g4983
sg64
(lp4991
g4537
(S's\r\x00\x00\x00Email and SMS'
tRp4992
asbasbag57
(g4620
g59
NtRp4993
(dp4994
g62
(dp4995
sg71
g4899
sg64
(lp4996
g57
(g4613
g59
NtRp4997
(dp4998
g62
(dp4999
g4619
S'http://www.web2py.com/book/default/chapter/09'
p5000
ssg71
g4993
sg64
(lp5001
g4537
(S's\x0e\x00\x00\x00Access Control'
tRp5002
asbasbag57
(g4620
g59
NtRp5003
(dp5004
g62
(dp5005
sg71
g4899
sg64
(lp5006
g57
(g4613
g59
NtRp5007
(dp5008
g62
(dp5009
g4619
S'http://www.web2py.com/book/default/chapter/10'
p5010
ssg71
g5003
sg64
(lp5011
g4537
(S't\x08\x00\x00\x00Services'
tRp5012
asbasbag57
(g4620
g59
NtRp5013
(dp5014
g62
(dp5015
sg71
g4899
sg64
(lp5016
g57
(g4613
g59
NtRp5017
(dp5018
g62
(dp5019
g4619
S'http://www.web2py.com/book/default/chapter/11'
p5020
ssg71
g5013
sg64
(lp5021
g4537
(S's\x0c\x00\x00\x00Ajax Recipes'
tRp5022
asbasbag57
(g4620
g59
NtRp5023
(dp5024
g62
(dp5025
sg71
g4899
sg64
(lp5026
g57
(g4613
g59
NtRp5027
(dp5028
g62
(dp5029
g4619
S'http://www.web2py.com/book/default/chapter/12'
p5030
ssg71
g5023
sg64
(lp5031
g4537
(S's\x16\x00\x00\x00Components and Plugins'
tRp5032
asbasbag57
(g4620
g59
NtRp5033
(dp5034
g62
(dp5035
sg71
g4899
sg64
(lp5036
g57
(g4613
g59
NtRp5037
(dp5038
g62
(dp5039
g4619
S'http://www.web2py.com/book/default/chapter/13'
p5040
ssg71
g5033
sg64
(lp5041
g4537
(S's\x12\x00\x00\x00Deployment Recipes'
tRp5042
asbasbag57
(g4620
g59
NtRp5043
(dp5044
g62
(dp5045
sg71
g4899
sg64
(lp5046
g57
(g4613
g59
NtRp5047
(dp5048
g62
(dp5049
g4619
S'http://www.web2py.com/book/default/chapter/14'
p5050
ssg71
g5043
sg64
(lp5051
g4537
(S's\r\x00\x00\x00Other Recipes'
tRp5052
asbasbag57
(g4620
g59
NtRp5053
(dp5054
g62
(dp5055
sg71
g4899
sg64
(lp5056
g57
(g4613
g59
NtRp5057
(dp5058
g62
(dp5059
g4619
S'http://stores.lulu.com/web2py'
p5060
ssg71
g5053
sg64
(lp5061
g4537
(S's\r\x00\x00\x00Buy this book'
tRp5062
asbasbasbasbag57
(g4620
g59
NtRp5063
(dp5064
g62
(dp5065
g4624
g4625
ssg71
g4647
sg64
(lp5066
g57
(g4613
g59
NtRp5067
(dp5068
g62
(dp5069
g4617
g4618
sg4619
S'#'
ssg71
g5063
sg64
(lp5070
g4537
(S't\t\x00\x00\x00Community'
tRp5071
asbag57
(g4626
g59
NtRp5072
(dp5073
g62
(dp5074
g4624
g4634
ssg71
g5063
sg64
(lp5075
g57
(g4620
g59
NtRp5076
(dp5077
g62
(dp5078
sg71
g5072
sg64
(lp5079
g57
(g4613
g59
NtRp5080
(dp5081
g62
(dp5082
g4619
S'http://www.web2py.com/examples/default/usergroups'
p5083
ssg71
g5076
sg64
(lp5084
g4537
(S't\x06\x00\x00\x00Groups'
tRp5085
asbasbag57
(g4620
g59
NtRp5086
(dp5087
g62
(dp5088
sg71
g5072
sg64
(lp5089
g57
(g4613
g59
NtRp5090
(dp5091
g62
(dp5092
g4619
S'http://twitter.com/web2py'
p5093
ssg71
g5086
sg64
(lp5094
g4537
(S't\x07\x00\x00\x00Twitter'
tRp5095
asbasbag57
(g4620
g59
NtRp5096
(dp5097
g62
(dp5098
sg71
g5072
sg64
(lp5099
g57
(g4613
g59
NtRp5100
(dp5101
g62
(dp5102
g4619
S'http://webchat.freenode.net/?channels=web2py'
p5103
ssg71
g5096
sg64
(lp5104
g4537
(S's\t\x00\x00\x00Live Chat'
tRp5105
asbasbasbasbag57
(g4620
g59
NtRp5106
(dp5107
g62
(dp5108
g4624
g4625
ssg71
g4647
sg64
(lp5109
g57
(g4613
g59
NtRp5110
(dp5111
g62
(dp5112
g4617
g4618
sg4619
S'#'
ssg71
g5106
sg64
(lp5113
g4537
(S't\x07\x00\x00\x00Plugins'
tRp5114
asbag57
(g4626
g59
NtRp5115
(dp5116
g62
(dp5117
g4624
g4634
ssg71
g5106
sg64
(lp5118
g57
(g4620
g59
NtRp5119
(dp5120
g62
(dp5121
sg71
g5115
sg64
(lp5122
g57
(g4613
g59
NtRp5123
(dp5124
g62
(dp5125
g4619
S'http://web2py.com/examples/default/download'
p5126
ssg71
g5119
sg64
(lp5127
S'plugin_wiki'
p5128
asbasbag57
(g4620
g59
NtRp5129
(dp5130
g62
(dp5131
sg71
g5115
sg64
(lp5132
g57
(g4613
g59
NtRp5133
(dp5134
g62
(dp5135
g4619
g4856
ssg71
g5129
sg64
(lp5136
g4537
(S's\r\x00\x00\x00Other Plugins'
tRp5137
asbasbag57
(g4620
g59
NtRp5138
(dp5139
g62
(dp5140
sg71
g5115
sg64
(lp5141
g57
(g4613
g59
NtRp5142
(dp5143
g62
(dp5144
g4619
g4866
ssg71
g5138
sg64
(lp5145
g4537
(S's\x0e\x00\x00\x00Layout Plugins'
tRp5146
asbasbasbasbasbasbsg64
(lp5147
g4609
asbsg64
(lp5148
g4483
asbasbasbasbag57
(g73
g59
NtRp5149
(dp5150
g62
(dp5151
sg71
g4592
sg64
(lp5152
g57
(g78
g59
NtRp5153
(dp5154
g62
(dp5155
sg71
g5149
sg64
(lp5156
g57
(g58
g59
NtRp5157
(dp5158
g62
(dp5159
g70
I3
ssg71
g5153
sg64
(lp5160
g100
asbasbasbag57
(g73
g59
NtRp5161
(dp5162
g62
(dp5163
sg71
g4592
sg64
(lp5164
g57
(g78
g59
NtRp5165
(dp5166
g62
(dp5167
sg71
g5161
sg64
(lp5168
g57
(g58
g59
NtRp5169
(dp5170
g62
(dp5171
g70
I3
ssg71
g5165
sg64
(lp5172
S'None'
p5173
asbasbasbag57
(g73
g59
NtRp5174
(dp5175
g62
(dp5176
sg71
g4592
sg64
(lp5177
g57
(g78
g59
NtRp5178
(dp5179
g62
(dp5180
sg71
g5174
sg64
(lp5181
g57
(g58
g59
NtRp5182
(dp5183
g62
(dp5184
g70
I3
ssg71
g5178
sg64
(lp5185
g57
(g66
g59
NtRp5186
(dp5187
g62
(dp5188
g70
I2
ssg71
Nsg64
(lp5189
g57
(g73
g59
NtRp5190
(dp5191
g62
(dp5192
sg71
g5186
sg64
(lp5193
g57
(g78
g59
NtRp5194
(dp5195
g62
(dp5196
sg71
g5190
sg64
(lp5197
g57
(g58
g59
NtRp5198
(dp5199
g62
(dp5200
g70
I2
ssg71
g5194
sg64
(lp5201
g57
(g66
g59
NtRp5202
(dp5203
g62
(dp5204
g70
I1
ssg71
Nsg64
(lp5205
g57
(g73
g59
NtRp5206
(dp5207
g62
(dp5208
sg71
g5202
sg64
(lp5209
g57
(g78
g59
NtRp5210
(dp5211
g62
(dp5212
sg71
g5206
sg64
(lp5213
g57
(g58
g59
NtRp5214
(dp5215
g62
(dp5216
g70
I1
ssg71
g5210
sg64
(lp5217
g4660
asbasbasbag57
(g73
g59
NtRp5218
(dp5219
g62
(dp5220
sg71
g5202
sg64
(lp5221
g57
(g78
g59
NtRp5222
(dp5223
g62
(dp5224
sg71
g5218
sg64
(lp5225
g57
(g58
g59
NtRp5226
(dp5227
g62
(dp5228
g70
I1
ssg71
g5222
sg64
(lp5229
I00
asbasbasbag57
(g73
g59
NtRp5230
(dp5231
g62
(dp5232
sg71
g5202
sg64
(lp5233
g57
(g78
g59
NtRp5234
(dp5235
g62
(dp5236
sg71
g5230
sg64
(lp5237
g57
(g58
g59
NtRp5238
(dp5239
g62
(dp5240
g70
I1
ssg71
g5234
sg64
(lp5241
g4658
asbasbasbasbasbasbasbag57
(g73
g59
NtRp5242
(dp5243
g62
(dp5244
sg71
g5186
sg64
(lp5245
g57
(g78
g59
NtRp5246
(dp5247
g62
(dp5248
sg71
g5242
sg64
(lp5249
g57
(g58
g59
NtRp5250
(dp5251
g62
(dp5252
g70
I2
ssg71
g5246
sg64
(lp5253
g57
(g66
g59
NtRp5254
(dp5255
g62
(dp5256
g70
I1
ssg71
Nsg64
(lp5257
g57
(g73
g59
NtRp5258
(dp5259
g62
(dp5260
sg71
g5254
sg64
(lp5261
g57
(g78
g59
NtRp5262
(dp5263
g62
(dp5264
sg71
g5258
sg64
(lp5265
g57
(g58
g59
NtRp5266
(dp5267
g62
(dp5268
g70
I1
ssg71
g5262
sg64
(lp5269
g4670
asbasbasbag57
(g73
g59
NtRp5270
(dp5271
g62
(dp5272
sg71
g5254
sg64
(lp5273
g57
(g78
g59
NtRp5274
(dp5275
g62
(dp5276
sg71
g5270
sg64
(lp5277
g57
(g58
g59
NtRp5278
(dp5279
g62
(dp5280
g70
I1
ssg71
g5274
sg64
(lp5281
I00
asbasbasbag57
(g73
g59
NtRp5282
(dp5283
g62
(dp5284
sg71
g5254
sg64
(lp5285
g57
(g78
g59
NtRp5286
(dp5287
g62
(dp5288
sg71
g5282
sg64
(lp5289
g57
(g58
g59
NtRp5290
(dp5291
g62
(dp5292
g70
I1
ssg71
g5286
sg64
(lp5293
g4668
asbasbasbag57
(g73
g59
NtRp5294
(dp5295
g62
(dp5296
sg71
g5254
sg64
(lp5297
g57
(g78
g59
NtRp5298
(dp5299
g62
(dp5300
sg71
g5294
sg64
(lp5301
g57
(g58
g59
NtRp5302
(dp5303
g62
(dp5304
g70
I1
ssg71
g5298
sg64
(lp5305
(lp5306
(g4684
I00
g4682
tp5307
a(g4694
I00
g4692
tp5308
a(g4704
I00
g4702
tp5309
a(g4714
I00
g4712
tp5310
a(g4724
I00
g4722
tp5311
a(g4734
I00
g4732
tp5312
a(g4744
I00
g4742
tp5313
a(g4754
I00
g4752
tp5314
a(g4764
I00
g4762
tp5315
aasbasbasbasbasbasbasbag57
(g73
g59
NtRp5316
(dp5317
g62
(dp5318
sg71
g5186
sg64
(lp5319
g57
(g78
g59
NtRp5320
(dp5321
g62
(dp5322
sg71
g5316
sg64
(lp5323
g57
(g58
g59
NtRp5324
(dp5325
g62
(dp5326
g70
I2
ssg71
g5320
sg64
(lp5327
g57
(g66
g59
NtRp5328
(dp5329
g62
(dp5330
g70
I1
ssg71
Nsg64
(lp5331
g57
(g73
g59
NtRp5332
(dp5333
g62
(dp5334
sg71
g5328
sg64
(lp5335
g57
(g78
g59
NtRp5336
(dp5337
g62
(dp5338
sg71
g5332
sg64
(lp5339
g57
(g58
g59
NtRp5340
(dp5341
g62
(dp5342
g70
I1
ssg71
g5336
sg64
(lp5343
g4774
asbasbasbag57
(g73
g59
NtRp5344
(dp5345
g62
(dp5346
sg71
g5328
sg64
(lp5347
g57
(g78
g59
NtRp5348
(dp5349
g62
(dp5350
sg71
g5344
sg64
(lp5351
g57
(g58
g59
NtRp5352
(dp5353
g62
(dp5354
g70
I1
ssg71
g5348
sg64
(lp5355
I00
asbasbasbag57
(g73
g59
NtRp5356
(dp5357
g62
(dp5358
sg71
g5328
sg64
(lp5359
g57
(g78
g59
NtRp5360
(dp5361
g62
(dp5362
sg71
g5356
sg64
(lp5363
g57
(g58
g59
NtRp5364
(dp5365
g62
(dp5366
g70
I1
ssg71
g5360
sg64
(lp5367
g4772
asbasbasbag57
(g73
g59
NtRp5368
(dp5369
g62
(dp5370
sg71
g5328
sg64
(lp5371
g57
(g78
g59
NtRp5372
(dp5373
g62
(dp5374
sg71
g5368
sg64
(lp5375
g57
(g58
g59
NtRp5376
(dp5377
g62
(dp5378
g70
I1
ssg71
g5372
sg64
(lp5379
(lp5380
(g4788
I00
g4786
tp5381
a(g4798
I00
g4796
tp5382
a(g4808
I00
g4806
tp5383
a(g4818
I00
g4816
tp5384
a(g4828
I00
g4826
tp5385
a(g4838
I00
g4836
tp5386
a(g4848
I00
g4846
tp5387
a(g4858
I00
g4856
tp5388
a(g4868
I00
g4866
tp5389
a(g4878
I00
g4876
tp5390
a(g4888
I00
g4886
tp5391
aasbasbasbasbasbasbasbag57
(g73
g59
NtRp5392
(dp5393
g62
(dp5394
sg71
g5186
sg64
(lp5395
g57
(g78
g59
NtRp5396
(dp5397
g62
(dp5398
sg71
g5392
sg64
(lp5399
g57
(g58
g59
NtRp5400
(dp5401
g62
(dp5402
g70
I2
ssg71
g5396
sg64
(lp5403
g57
(g66
g59
NtRp5404
(dp5405
g62
(dp5406
g70
I1
ssg71
Nsg64
(lp5407
g57
(g73
g59
NtRp5408
(dp5409
g62
(dp5410
sg71
g5404
sg64
(lp5411
g57
(g78
g59
NtRp5412
(dp5413
g62
(dp5414
sg71
g5408
sg64
(lp5415
g57
(g58
g59
NtRp5416
(dp5417
g62
(dp5418
g70
I1
ssg71
g5412
sg64
(lp5419
g4898
asbasbasbag57
(g73
g59
NtRp5420
(dp5421
g62
(dp5422
sg71
g5404
sg64
(lp5423
g57
(g78
g59
NtRp5424
(dp5425
g62
(dp5426
sg71
g5420
sg64
(lp5427
g57
(g58
g59
NtRp5428
(dp5429
g62
(dp5430
g70
I1
ssg71
g5424
sg64
(lp5431
I00
asbasbasbag57
(g73
g59
NtRp5432
(dp5433
g62
(dp5434
sg71
g5404
sg64
(lp5435
g57
(g78
g59
NtRp5436
(dp5437
g62
(dp5438
sg71
g5432
sg64
(lp5439
g57
(g58
g59
NtRp5440
(dp5441
g62
(dp5442
g70
I1
ssg71
g5436
sg64
(lp5443
g4896
asbasbasbag57
(g73
g59
NtRp5444
(dp5445
g62
(dp5446
sg71
g5404
sg64
(lp5447
g57
(g78
g59
NtRp5448
(dp5449
g62
(dp5450
sg71
g5444
sg64
(lp5451
g57
(g58
g59
NtRp5452
(dp5453
g62
(dp5454
g70
I1
ssg71
g5448
sg64
(lp5455
(lp5456
(g4912
I00
g4910
tp5457
a(g4922
I00
g4920
tp5458
a(g4932
I00
g4930
tp5459
a(g4942
I00
g4940
tp5460
a(g4952
I00
g4950
tp5461
a(g4962
I00
g4960
tp5462
a(g4972
I00
g4970
tp5463
a(g4982
I00
g4980
tp5464
a(g4992
I00
g4990
tp5465
a(g5002
I00
g5000
tp5466
a(g5012
I00
g5010
tp5467
a(g5022
I00
g5020
tp5468
a(g5032
I00
g5030
tp5469
a(g5042
I00
g5040
tp5470
a(g5052
I00
g5050
tp5471
a(g5062
I00
g5060
tp5472
aasbasbasbasbasbasbasbag57
(g73
g59
NtRp5473
(dp5474
g62
(dp5475
sg71
g5186
sg64
(lp5476
g57
(g78
g59
NtRp5477
(dp5478
g62
(dp5479
sg71
g5473
sg64
(lp5480
g57
(g58
g59
NtRp5481
(dp5482
g62
(dp5483
g70
I2
ssg71
g5477
sg64
(lp5484
g57
(g66
g59
NtRp5485
(dp5486
g62
(dp5487
g70
I1
ssg71
Nsg64
(lp5488
g57
(g73
g59
NtRp5489
(dp5490
g62
(dp5491
sg71
g5485
sg64
(lp5492
g57
(g78
g59
NtRp5493
(dp5494
g62
(dp5495
sg71
g5489
sg64
(lp5496
g57
(g58
g59
NtRp5497
(dp5498
g62
(dp5499
g70
I1
ssg71
g5493
sg64
(lp5500
g5071
asbasbasbag57
(g73
g59
NtRp5501
(dp5502
g62
(dp5503
sg71
g5485
sg64
(lp5504
g57
(g78
g59
NtRp5505
(dp5506
g62
(dp5507
sg71
g5501
sg64
(lp5508
g57
(g58
g59
NtRp5509
(dp5510
g62
(dp5511
g70
I1
ssg71
g5505
sg64
(lp5512
I00
asbasbasbag57
(g73
g59
NtRp5513
(dp5514
g62
(dp5515
sg71
g5485
sg64
(lp5516
g57
(g78
g59
NtRp5517
(dp5518
g62
(dp5519
sg71
g5513
sg64
(lp5520
g57
(g58
g59
NtRp5521
(dp5522
g62
(dp5523
g70
I1
ssg71
g5517
sg64
(lp5524
Nasbasbasbag57
(g73
g59
NtRp5525
(dp5526
g62
(dp5527
sg71
g5485
sg64
(lp5528
g57
(g78
g59
NtRp5529
(dp5530
g62
(dp5531
sg71
g5525
sg64
(lp5532
g57
(g58
g59
NtRp5533
(dp5534
g62
(dp5535
g70
I1
ssg71
g5529
sg64
(lp5536
(lp5537
(g5085
I00
g5083
tp5538
a(g5095
I00
g5093
tp5539
a(g5105
I00
g5103
tp5540
aasbasbasbasbasbasbasbag57
(g73
g59
NtRp5541
(dp5542
g62
(dp5543
sg71
g5186
sg64
(lp5544
g57
(g78
g59
NtRp5545
(dp5546
g62
(dp5547
sg71
g5541
sg64
(lp5548
g57
(g58
g59
NtRp5549
(dp5550
g62
(dp5551
g70
I2
ssg71
g5545
sg64
(lp5552
g57
(g66
g59
NtRp5553
(dp5554
g62
(dp5555
g70
I1
ssg71
Nsg64
(lp5556
g57
(g73
g59
NtRp5557
(dp5558
g62
(dp5559
sg71
g5553
sg64
(lp5560
g57
(g78
g59
NtRp5561
(dp5562
g62
(dp5563
sg71
g5557
sg64
(lp5564
g57
(g58
g59
NtRp5565
(dp5566
g62
(dp5567
g70
I1
ssg71
g5561
sg64
(lp5568
g5114
asbasbasbag57
(g73
g59
NtRp5569
(dp5570
g62
(dp5571
sg71
g5553
sg64
(lp5572
g57
(g78
g59
NtRp5573
(dp5574
g62
(dp5575
sg71
g5569
sg64
(lp5576
g57
(g58
g59
NtRp5577
(dp5578
g62
(dp5579
g70
I1
ssg71
g5573
sg64
(lp5580
I00
asbasbasbag57
(g73
g59
NtRp5581
(dp5582
g62
(dp5583
sg71
g5553
sg64
(lp5584
g57
(g78
g59
NtRp5585
(dp5586
g62
(dp5587
sg71
g5581
sg64
(lp5588
g57
(g58
g59
NtRp5589
(dp5590
g62
(dp5591
g70
I1
ssg71
g5585
sg64
(lp5592
Nasbasbasbag57
(g73
g59
NtRp5593
(dp5594
g62
(dp5595
sg71
g5553
sg64
(lp5596
g57
(g78
g59
NtRp5597
(dp5598
g62
(dp5599
sg71
g5593
sg64
(lp5600
g57
(g58
g59
NtRp5601
(dp5602
g62
(dp5603
g70
I1
ssg71
g5597
sg64
(lp5604
(lp5605
(g5128
I00
g5126
tp5606
a(g5137
I00
g4856
tp5607
a(g5146
I00
g4866
tp5608
aasbasbasbasbasbasbasbasbasbasbasbasbasbasbasbasbasbasbasbag57
(g73
g59
NtRp5609
(dp5610
g62
(dp5611
sg71
g3877
sg64
(lp5612
g57
(g78
g59
NtRp5613
(dp5614
g62
(dp5615
g82
g83
ssg71
g5609
sg64
(lp5616
S'meta'
p5617
asbag57
(g78
g59
NtRp5618
(dp5619
g62
(dp5620
g89
g90
ssg71
g5609
sg64
(lp5621
S':'
asbag57
(g78
g59
NtRp5622
(dp5623
g62
(dp5624
sg71
g5609
sg64
(lp5625
g57
(g58
g59
NtRp5626
(dp5627
g62
(dp5628
g70
I5
ssg71
g5622
sg64
(lp5629
g57
(g66
g59
NtRp5630
(dp5631
g62
(dp5632
g70
I4
ssg71
Nsg64
(lp5633
g57
(g73
g59
NtRp5634
(dp5635
g62
(dp5636
sg71
g5630
sg64
(lp5637
g57
(g78
g59
NtRp5638
(dp5639
g62
(dp5640
g82
g83
ssg71
g5634
sg64
(lp5641
S'author'
p5642
asbag57
(g78
g59
NtRp5643
(dp5644
g62
(dp5645
g89
g90
ssg71
g5634
sg64
(lp5646
S':'
asbag57
(g78
g59
NtRp5647
(dp5648
g62
(dp5649
sg71
g5634
sg64
(lp5650
g57
(g58
g59
NtRp5651
(dp5652
g62
(dp5653
g70
I4
ssg71
g5647
sg64
(lp5654
S'Your Name <you@example.com>'
p5655
asbasbasbag57
(g73
g59
NtRp5656
(dp5657
g62
(dp5658
sg71
g5630
sg64
(lp5659
g57
(g78
g59
NtRp5660
(dp5661
g62
(dp5662
g82
g83
ssg71
g5656
sg64
(lp5663
S'copyright'
p5664
asbag57
(g78
g59
NtRp5665
(dp5666
g62
(dp5667
g89
g90
ssg71
g5656
sg64
(lp5668
S':'
asbag57
(g78
g59
NtRp5669
(dp5670
g62
(dp5671
sg71
g5656
sg64
(lp5672
g57
(g58
g59
NtRp5673
(dp5674
g62
(dp5675
g70
I4
ssg71
g5669
sg64
(lp5676
S'Copyright 2011'
p5677
asbasbasbag57
(g73
g59
NtRp5678
(dp5679
g62
(dp5680
sg71
g5630
sg64
(lp5681
g57
(g78
g59
NtRp5682
(dp5683
g62
(dp5684
g82
g83
ssg71
g5678
sg64
(lp5685
S'description'
p5686
asbag57
(g78
g59
NtRp5687
(dp5688
g62
(dp5689
g89
g90
ssg71
g5678
sg64
(lp5690
S':'
asbag57
(g78
g59
NtRp5691
(dp5692
g62
(dp5693
sg71
g5678
sg64
(lp5694
g57
(g58
g59
NtRp5695
(dp5696
g62
(dp5697
g70
I4
ssg71
g5691
sg64
(lp5698
S'a cool new app'
p5699
asbasbasbag57
(g73
g59
NtRp5700
(dp5701
g62
(dp5702
sg71
g5630
sg64
(lp5703
g57
(g78
g59
NtRp5704
(dp5705
g62
(dp5706
g82
g83
ssg71
g5700
sg64
(lp5707
S'generator'
p5708
asbag57
(g78
g59
NtRp5709
(dp5710
g62
(dp5711
g89
g90
ssg71
g5700
sg64
(lp5712
S':'
asbag57
(g78
g59
NtRp5713
(dp5714
g62
(dp5715
sg71
g5700
sg64
(lp5716
g57
(g58
g59
NtRp5717
(dp5718
g62
(dp5719
g70
I4
ssg71
g5713
sg64
(lp5720
S'Web2py Web Framework'
p5721
asbasbasbag57
(g73
g59
NtRp5722
(dp5723
g62
(dp5724
sg71
g5630
sg64
(lp5725
g57
(g78
g59
NtRp5726
(dp5727
g62
(dp5728
g82
g83
ssg71
g5722
sg64
(lp5729
S'keywords'
p5730
asbag57
(g78
g59
NtRp5731
(dp5732
g62
(dp5733
g89
g90
ssg71
g5722
sg64
(lp5734
S':'
asbag57
(g78
g59
NtRp5735
(dp5736
g62
(dp5737
sg71
g5722
sg64
(lp5738
g57
(g58
g59
NtRp5739
(dp5740
g62
(dp5741
g70
I4
ssg71
g5735
sg64
(lp5742
S'web2py, python, framework'
p5743
asbasbasbasbasbasbasbag57
(g73
g59
NtRp5744
(dp5745
g62
(dp5746
sg71
g3877
sg64
(lp5747
g57
(g78
g59
NtRp5748
(dp5749
g62
(dp5750
g82
g83
ssg71
g5744
sg64
(lp5751
S'postprocessing'
p5752
asbag57
(g78
g59
NtRp5753
(dp5754
g62
(dp5755
g89
g90
ssg71
g5744
sg64
(lp5756
S':'
asbag57
(g78
g59
NtRp5757
(dp5758
g62
(dp5759
sg71
g5744
sg64
(lp5760
g57
(g58
g59
NtRp5761
(dp5762
g62
(dp5763
g70
I5
ssg71
g5757
sg64
(lp5764
g57
(g66
g59
NtRp5765
(dp5766
g62
(dp5767
g70
I4
ssg71
Nsg64
(lp5768
sbasbasbasbag57
(g73
g59
NtRp5769
(dp5770
g62
(dp5771
sg71
g3877
sg64
(lp5772
g57
(g78
g59
NtRp5773
(dp5774
g62
(dp5775
g82
g83
ssg71
g5769
sg64
(lp5776
S'session_file'
p5777
asbag57
(g78
g59
NtRp5778
(dp5779
g62
(dp5780
g89
g90
ssg71
g5769
sg64
(lp5781
S':'
asbag57
(g78
g59
NtRp5782
(dp5783
g62
(dp5784
sg71
g5769
sg64
(lp5785
g57
(g58
g59
NtRp5786
(dp5787
g62
(dp5788
g70
I5
ssg71
g5782
sg64
(lp5789
S"<open file '/home/arpita/courses/sem3/ssad/web2py/applications/project/sessions/127.0.0.1-685fbf0f-7e19-4757-b51e-738a125b352f', mode 'rb+' at 0x8cbbc80>"
p5790
asbasbasbag57
(g73
g59
NtRp5791
(dp5792
g62
(dp5793
sg71
g3877
sg64
(lp5794
g57
(g78
g59
NtRp5795
(dp5796
g62
(dp5797
g82
g83
ssg71
g5791
sg64
(lp5798
S'session_filename'
p5799
asbag57
(g78
g59
NtRp5800
(dp5801
g62
(dp5802
g89
g90
ssg71
g5791
sg64
(lp5803
S':'
asbag57
(g78
g59
NtRp5804
(dp5805
g62
(dp5806
sg71
g5791
sg64
(lp5807
g57
(g58
g59
NtRp5808
(dp5809
g62
(dp5810
g70
I5
ssg71
g5804
sg64
(lp5811
S'/home/arpita/courses/sem3/ssad/web2py/applications/project/sessions/127.0.0.1-685fbf0f-7e19-4757-b51e-738a125b352f'
p5812
asbasbasbag57
(g73
g59
NtRp5813
(dp5814
g62
(dp5815
sg71
g3877
sg64
(lp5816
g57
(g78
g59
NtRp5817
(dp5818
g62
(dp5819
g82
g83
ssg71
g5813
sg64
(lp5820
S'session_id'
p5821
asbag57
(g78
g59
NtRp5822
(dp5823
g62
(dp5824
g89
g90
ssg71
g5813
sg64
(lp5825
S':'
asbag57
(g78
g59
NtRp5826
(dp5827
g62
(dp5828
sg71
g5813
sg64
(lp5829
g57
(g58
g59
NtRp5830
(dp5831
g62
(dp5832
g70
I5
ssg71
g5826
sg64
(lp5833
S'127.0.0.1-685fbf0f-7e19-4757-b51e-738a125b352f'
p5834
asbasbasbag57
(g73
g59
NtRp5835
(dp5836
g62
(dp5837
sg71
g3877
sg64
(lp5838
g57
(g78
g59
NtRp5839
(dp5840
g62
(dp5841
g82
g83
ssg71
g5835
sg64
(lp5842
S'session_id_name'
p5843
asbag57
(g78
g59
NtRp5844
(dp5845
g62
(dp5846
g89
g90
ssg71
g5835
sg64
(lp5847
S':'
asbag57
(g78
g59
NtRp5848
(dp5849
g62
(dp5850
sg71
g5835
sg64
(lp5851
g57
(g58
g59
NtRp5852
(dp5853
g62
(dp5854
g70
I5
ssg71
g5848
sg64
(lp5855
g3934
asbasbasbag57
(g73
g59
NtRp5856
(dp5857
g62
(dp5858
sg71
g3877
sg64
(lp5859
g57
(g78
g59
NtRp5860
(dp5861
g62
(dp5862
g82
g83
ssg71
g5856
sg64
(lp5863
S'session_locked'
p5864
asbag57
(g78
g59
NtRp5865
(dp5866
g62
(dp5867
g89
g90
ssg71
g5856
sg64
(lp5868
S':'
asbag57
(g78
g59
NtRp5869
(dp5870
g62
(dp5871
sg71
g5856
sg64
(lp5872
g57
(g58
g59
NtRp5873
(dp5874
g62
(dp5875
g70
I5
ssg71
g5869
sg64
(lp5876
g2061
asbasbasbag57
(g73
g59
NtRp5877
(dp5878
g62
(dp5879
sg71
g3877
sg64
(lp5880
g57
(g78
g59
NtRp5881
(dp5882
g62
(dp5883
g82
g83
ssg71
g5877
sg64
(lp5884
S'session_new'
p5885
asbag57
(g78
g59
NtRp5886
(dp5887
g62
(dp5888
g89
g90
ssg71
g5877
sg64
(lp5889
S':'
asbag57
(g78
g59
NtRp5890
(dp5891
g62
(dp5892
sg71
g5877
sg64
(lp5893
g57
(g58
g59
NtRp5894
(dp5895
g62
(dp5896
g70
I5
ssg71
g5890
sg64
(lp5897
g100
asbasbasbag57
(g73
g59
NtRp5898
(dp5899
g62
(dp5900
sg71
g3877
sg64
(lp5901
g57
(g78
g59
NtRp5902
(dp5903
g62
(dp5904
g82
g83
ssg71
g5898
sg64
(lp5905
S'status'
p5906
asbag57
(g78
g59
NtRp5907
(dp5908
g62
(dp5909
g89
g90
ssg71
g5898
sg64
(lp5910
S':'
asbag57
(g78
g59
NtRp5911
(dp5912
g62
(dp5913
sg71
g5898
sg64
(lp5914
g57
(g58
g59
NtRp5915
(dp5916
g62
(dp5917
g70
I5
ssg71
g5911
sg64
(lp5918
S'200'
p5919
asbasbasbag57
(g73
g59
NtRp5920
(dp5921
g62
(dp5922
sg71
g3877
sg64
(lp5923
g57
(g78
g59
NtRp5924
(dp5925
g62
(dp5926
g82
g83
ssg71
g5920
sg64
(lp5927
S'subtitle'
p5928
asbag57
(g78
g59
NtRp5929
(dp5930
g62
(dp5931
g89
g90
ssg71
g5920
sg64
(lp5932
S':'
asbag57
(g78
g59
NtRp5933
(dp5934
g62
(dp5935
sg71
g5920
sg64
(lp5936
g57
(g58
g59
NtRp5937
(dp5938
g62
(dp5939
g70
I5
ssg71
g5933
sg64
(lp5940
g4537
(S's\r\x00\x00\x00customize me!'
tRp5941
asbasbasbag57
(g73
g59
NtRp5942
(dp5943
g62
(dp5944
sg71
g3877
sg64
(lp5945
g57
(g78
g59
NtRp5946
(dp5947
g62
(dp5948
g82
g83
ssg71
g5942
sg64
(lp5949
S'title'
p5950
asbag57
(g78
g59
NtRp5951
(dp5952
g62
(dp5953
g89
g90
ssg71
g5942
sg64
(lp5954
S':'
asbag57
(g78
g59
NtRp5955
(dp5956
g62
(dp5957
sg71
g5942
sg64
(lp5958
g57
(g58
g59
NtRp5959
(dp5960
g62
(dp5961
g70
I5
ssg71
g5955
sg64
(lp5962
S'Project'
p5963
asbasbasbag57
(g73
g59
NtRp5964
(dp5965
g62
(dp5966
sg71
g3877
sg64
(lp5967
g57
(g78
g59
NtRp5968
(dp5969
g62
(dp5970
g82
g83
ssg71
g5964
sg64
(lp5971
g2746
asbag57
(g78
g59
NtRp5972
(dp5973
g62
(dp5974
g89
g90
ssg71
g5964
sg64
(lp5975
S':'
asbag57
(g78
g59
NtRp5976
(dp5977
g62
(dp5978
sg71
g5964
sg64
(lp5979
g57
(g58
g59
NtRp5980
(dp5981
g62
(dp5982
g70
I5
ssg71
g5976
sg64
(lp5983
g2759
asbasbasbag57
(g73
g59
NtRp5984
(dp5985
g62
(dp5986
sg71
g3877
sg64
(lp5987
g57
(g78
g59
NtRp5988
(dp5989
g62
(dp5990
g82
g83
ssg71
g5984
sg64
(lp5991
S'view'
p5992
asbag57
(g78
g59
NtRp5993
(dp5994
g62
(dp5995
g89
g90
ssg71
g5984
sg64
(lp5996
S':'
asbag57
(g78
g59
NtRp5997
(dp5998
g62
(dp5999
sg71
g5984
sg64
(lp6000
g57
(g58
g59
NtRp6001
(dp6002
g62
(dp6003
g70
I5
ssg71
g5997
sg64
(lp6004
S'default/graph.html'
p6005
asbasbasbasbasbsS'locals'
p6006
(dp6007
S'Service'
p6008
S"<class 'gluon.tools.Service'>"
p6009
sS'OBJECT'
p6010
S"<class 'gluon.html.OBJECT'>"
p6011
sS'SQLDB'
p6012
S"<class 'gluon.dal.DAL'>"
p6013
sg3461
S"<Storage {'_formkey[Employee/None]': '8b132156-c...login]': 'bf53d440-faeb-4fe6-a7c9-ec51446719d8'}>"
p6014
sS'LINK'
p6015
S"<class 'gluon.html.LINK'>"
p6016
sS'BR'
p6017
S"<class 'gluon.html.BR'>"
p6018
sS'local_import'
p6019
S'<function <lambda>>'
p6020
sS'OPTGROUP'
p6021
S"<class 'gluon.html.OPTGROUP'>"
p6022
sS'__package__'
p6023
S'None'
p6024
sS'PRE'
p6025
S"<class 'gluon.html.PRE'>"
p6026
sS'IS_INT_IN_RANGE'
p6027
S"<class 'gluon.validators.IS_INT_IN_RANGE'>"
p6028
sS'left_sidebar_enabled'
p6029
g100
sS'IS_LOWER'
p6030
S"<class 'gluon.validators.IS_LOWER'>"
p6031
sS'IS_STRONG'
p6032
S"<class 'gluon.validators.IS_STRONG'>"
p6033
sS'cache'
p6034
S'<gluon.cache.Cache object>'
p6035
sS'IS_IN_DB'
p6036
S"<class 'gluon.validators.IS_IN_DB'>"
p6037
sS'TAG'
p6038
S'<gluon.html.__TAG__ object>'
p6039
sS'SQLField'
p6040
S"<class 'gluon.dal.Field'>"
p6041
sS'mail'
p6042
S'<gluon.tools.Mail object>'
p6043
sS'BODY'
p6044
S"<class 'gluon.html.BODY'>"
p6045
sS'IS_DATE_IN_RANGE'
p6046
S"<class 'gluon.validators.IS_DATE_IN_RANGE'>"
p6047
sS'TH'
p6048
S"<class 'gluon.html.TH'>"
p6049
sS'URL'
p6050
S'<function URL>'
p6051
sS'__file__'
p6052
S"'/home/arpita/courses/sem3/ssad/web2py/applications/project/views/default/graph.html'"
p6053
sS'db'
p6054
S"<DAL {'auth_event': <Table {'origin': <gluon.dal...n_key': <gluon.dal.Field object at 0x8f254ec>}>}>"
p6055
sS'auth'
p6056
S'<gluon.tools.Auth object>'
p6057
sS'P'
S"<class 'gluon.html.P'>"
p6058
sS'TFOOT'
p6059
S"<class 'gluon.html.TFOOT'>"
p6060
sS'XHTML'
p6061
S"<class 'gluon.html.XHTML'>"
p6062
sS'ON'
p6063
g2061
sS'OL'
p6064
S"<class 'gluon.html.OL'>"
p6065
sS'TEXTAREA'
p6066
S"<class 'gluon.html.TEXTAREA'>"
p6067
sS'MENU'
p6068
S"<class 'gluon.html.MENU'>"
p6069
sS'LOAD'
p6070
S'<function LOAD>'
p6071
sS'CODE'
p6072
S"<class 'gluon.html.CODE'>"
p6073
sS'HTTP'
p6074
S"<class 'gluon.http.HTTP'>"
p6075
sS'HR'
p6076
S"<class 'gluon.html.HR'>"
p6077
sS'empl'
p6078
S'None'
p6079
sS'IS_DATETIME'
p6080
S"<class 'gluon.validators.IS_DATETIME'>"
p6081
sS'HEAD'
p6082
S"<class 'gluon.html.HEAD'>"
p6083
sS'LABEL'
p6084
S"<class 'gluon.html.LABEL'>"
p6085
sS'CLEANUP'
p6086
S"<class 'gluon.validators.CLEANUP'>"
p6087
sS'plugins'
p6088
S'<gluon.tools.PluginManager object>'
p6089
sS'SELECT'
p6090
S"<class 'gluon.html.SELECT'>"
p6091
sS'use_janrain'
p6092
S'<function use_janrain>'
p6093
sS'CENTER'
p6094
S"<class 'gluon.html.CENTER'>"
p6095
sS'prettydate'
p6096
S'<function prettydate>'
p6097
sS'Crud'
p6098
S"<class 'gluon.tools.Crud'>"
p6099
sS'Auth'
p6100
S"<class 'gluon.tools.Auth'>"
p6101
sS'__builtins__'
p6102
S"{'ArithmeticError': <type 'exceptions.ArithmeticError'>, 'AssertionError': <type 'exceptions.AssertionError'>, 'AttributeError': <type 'exceptions.AttributeError'>, 'BaseException': <type 'exceptions.BaseException'>, 'BufferError': <type 'exceptions.BufferError'>, 'BytesWarning': <type 'exceptions.BytesWarning'>, 'DeprecationWarning': <type 'exceptions.DeprecationWarning'>, 'EOFError': <type 'exceptions.EOFError'>, 'Ellipsis': Ellipsis, 'EnvironmentError': <type 'exceptions.EnvironmentError'>, ...}"
p6103
sS'HTML'
p6104
S"<class 'gluon.html.HTML'>"
p6105
sS'SQLFORM'
p6106
S"<class 'gluon.sqlhtml.SQLFORM'>"
p6107
sS'EM'
p6108
S"<class 'gluon.html.EM'>"
p6109
sS'redirect'
p6110
S'<function redirect>'
p6111
sS'FIELDSET'
p6112
S"<class 'gluon.html.FIELDSET'>"
p6113
sS'IS_EQUAL_TO'
p6114
S"<class 'gluon.validators.IS_EQUAL_TO'>"
p6115
sS'embed64'
p6116
S'<function embed64>'
p6117
sS'IS_LIST_OF'
p6118
S"<class 'gluon.validators.IS_LIST_OF'>"
p6119
sS'__name__'
p6120
S"'__restricted__'"
p6121
sS'EMBED'
p6122
S"<class 'gluon.html.EMBED'>"
p6123
sS'_'
S'<function _>'
p6124
sS'FORM'
p6125
S"<class 'gluon.html.FORM'>"
p6126
sS'H2'
p6127
S"<class 'gluon.html.H2'>"
p6128
sS'H3'
p6129
S"<class 'gluon.html.H3'>"
p6130
sS'BUTTON'
p6131
S"<class 'gluon.html.BUTTON'>"
p6132
sS'H1'
p6133
S"<class 'gluon.html.H1'>"
p6134
sS'H6'
p6135
S"<class 'gluon.html.H6'>"
p6136
sS'H4'
p6137
S"<class 'gluon.html.H4'>"
p6138
sS'H5'
p6139
S"<class 'gluon.html.H5'>"
p6140
sS'UL'
p6141
S"<class 'gluon.html.UL'>"
p6142
sS'IS_UPPER'
p6143
S"<class 'gluon.validators.IS_UPPER'>"
p6144
sS'xmlescape'
p6145
S'<function xmlescape>'
p6146
sS'IS_TIME'
p6147
S"<class 'gluon.validators.IS_TIME'>"
p6148
sS'OPTION'
p6149
S"<class 'gluon.html.OPTION'>"
p6150
sS'TITLE'
p6151
S"<class 'gluon.html.TITLE'>"
p6152
sS'CRYPT'
p6153
S"<class 'gluon.validators.CRYPT'>"
p6154
sS'IS_EMPTY_OR'
p6155
S"<class 'gluon.validators.IS_EMPTY_OR'>"
p6156
sS'MARKMIN'
p6157
S"<class 'gluon.html.MARKMIN'>"
p6158
sS'INPUT'
p6159
S"<class 'gluon.html.INPUT'>"
p6160
sS'COL'
p6161
S"<class 'gluon.html.COL'>"
p6162
sS'service'
p6163
S'<gluon.tools.Service object>'
p6164
sS'SCRIPT'
p6165
S"<class 'gluon.html.SCRIPT'>"
p6166
sS'is_mobile'
p6167
g100
sS'TABLE'
p6168
S"<class 'gluon.html.TABLE'>"
p6169
sS'IS_IPV4'
p6170
S"<class 'gluon.validators.IS_IPV4'>"
p6171
sS'IS_LENGTH'
p6172
S"<class 'gluon.validators.IS_LENGTH'>"
p6173
sS'XML'
p6174
S"<class 'gluon.html.XML'>"
p6175
sS'B'
S"<class 'gluon.html.B'>"
p6176
sS'IMG'
p6177
S"<class 'gluon.html.IMG'>"
p6178
sS'SQLTABLE'
p6179
S"<class 'gluon.sqlhtml.SQLTABLE'>"
p6180
sS'IS_MATCH'
p6181
S"<class 'gluon.validators.IS_MATCH'>"
p6182
sS'IS_ALPHANUMERIC'
p6183
S"<class 'gluon.validators.IS_ALPHANUMERIC'>"
p6184
sS'SPAN'
p6185
S"<class 'gluon.html.SPAN'>"
p6186
sS'IS_SLUG'
p6187
S"<class 'gluon.validators.IS_SLUG'>"
p6188
sS'BEAUTIFY'
p6189
S"<class 'gluon.html.BEAUTIFY'>"
p6190
sS'META'
p6191
S"<class 'gluon.html.META'>"
p6192
sS'IS_DATE'
p6193
S"<class 'gluon.validators.IS_DATE'>"
p6194
sS'IS_EMAIL'
p6195
S"<class 'gluon.validators.IS_EMAIL'>"
p6196
sS'IS_NOT_EMPTY'
p6197
S"<class 'gluon.validators.IS_NOT_EMPTY'>"
p6198
sS'IS_FLOAT_IN_RANGE'
p6199
S"<class 'gluon.validators.IS_FLOAT_IN_RANGE'>"
p6200
sS'TBODY'
p6201
S"<class 'gluon.html.TBODY'>"
p6202
sS'CAT'
p6203
S"<class 'gluon.html.CAT'>"
p6204
sS'Field'
p6205
S"<class 'gluon.dal.Field'>"
p6206
sS'middle_columns'
p6207
S"'sixteen'"
p6208
sS'DIV'
p6209
S"<class 'gluon.html.DIV'>"
p6210
sS'LEGEND'
p6211
S"<class 'gluon.html.LEGEND'>"
p6212
sS'COLGROUP'
p6213
S"<class 'gluon.html.COLGROUP'>"
p6214
sS'DAL'
p6215
S"<class 'gluon.dal.DAL'>"
p6216
sS'TT'
p6217
S"<class 'gluon.html.TT'>"
p6218
sS'TR'
p6219
S"<class 'gluon.html.TR'>"
p6220
sS'LI'
p6221
S"<class 'gluon.html.LI'>"
p6222
sS'right_sidebar_enabled'
p6223
g100
sS'IFRAME'
p6224
S"<class 'gluon.html.IFRAME'>"
p6225
sS'TD'
p6226
S"<class 'gluon.html.TD'>"
p6227
sS'PluginManager'
p6228
S"<class 'gluon.tools.PluginManager'>"
p6229
sS'IS_URL'
p6230
S"<class 'gluon.validators.IS_URL'>"
p6231
sS'A'
S"<class 'gluon.html.A'>"
p6232
sS'STYLE'
p6233
S"<class 'gluon.html.STYLE'>"
p6234
sS'IS_DATETIME_IN_RANGE'
p6235
S"<class 'gluon.validators.IS_DATETIME_IN_RANGE'>"
p6236
sS'IS_IMAGE'
p6237
S"<class 'gluon.validators.IS_IMAGE'>"
p6238
sS'I'
S"<class 'gluon.html.I'>"
p6239
sS'crud'
p6240
S'<gluon.tools.Crud object>'
p6241
sS'IS_NOT_IN_DB'
p6242
S"<class 'gluon.validators.IS_NOT_IN_DB'>"
p6243
sg3872
S"<Storage {'body': <cStringIO.StringO object at 0...da> at 0x96a7aac>, 'view': 'default/graph.html'}>"
p6244
sS'THEAD'
p6245
S"<class 'gluon.html.THEAD'>"
p6246
sS'IS_NULL_OR'
p6247
S"<class 'gluon.validators.IS_EMPTY_OR'>"
p6248
sg56
S"<Storage {'body': <cStringIO.StringO object at 0..._vars': <Storage {}>, 'post_vars': <Storage {}>}>"
p6249
sS'IS_EXPR'
p6250
S"<class 'gluon.validators.IS_EXPR'>"
p6251
sS'T'
S'<gluon.languages.translator object>'
p6252
sS'IS_IN_SET'
p6253
S"<class 'gluon.validators.IS_IN_SET'>"
p6254
sS'IS_UPLOAD_FILENAME'
p6255
S"<class 'gluon.validators.IS_UPLOAD_FILENAME'>"
p6256
sS'IS_DECIMAL_IN_RANGE'
p6257
S"<class 'gluon.validators.IS_DECIMAL_IN_RANGE'>"
p6258
sssS'traceback'
p6259
S'Traceback (most recent call last):\n  File "/home/arpita/courses/sem3/ssad/web2py/gluon/restricted.py", line 205, in restricted\n    exec ccode in environment\n  File "/home/arpita/courses/sem3/ssad/web2py/applications/project/views/default/graph.html", line 86, in <module>\nAttributeError: \'NoneType\' object has no attribute \'Name\'\n'
p6260
s.