(dp1
S'output'
p2
S'<class \'sqlite3.OperationalError\'> near "[i]": syntax error'
p3
sS'layer'
p4
S'C:\\Users\\ARPITA\\Downloads\\web2py_win\\web2py\\applications\\pro\\controllers/default.py'
p5
sS'code'
p6
S'# -*- coding: utf-8 -*-\n# this file is released under public domain and you can use without limitations\n\n#########################################################################\n## This is a samples controller\n## - index is the default action of any application\n## - user is required for authentication and authorization\n## - download is for downloading files uploaded in the db (does streaming)\n## - call exposes all registered services (none by default)\n#########################################################################\n@auth.requires_membership(\'Administrator\')\ndef index():\n    emp=db().select(db.Employee.ALL, orderby=db.Employee.Importance_val)\n    \n    """\n    example action using the internationalization operator T and flash\n    rendered by views/default/index.html or views/generic.html\n    """\n    form=crud.create(db.Employee)\n    response.flash = "Employee Details"\n    return dict(form=form,emp=emp)\n\ndef user():\n    """\n    exposes:\n    http://..../[app]/default/user/login\n    http://..../[app]/default/user/logout\n    http://..../[app]/default/user/register\n    http://..../[app]/default/user/profile\n    http://..../[app]/default/user/retrieve_password\n    http://..../[app]/default/user/change_password\n    use @auth.requires_login()\n        @auth.requires_membership(\'group name\')\n        @auth.requires_permission(\'read\',\'table name\',record_id)\n    to decorate functions that need access control\n    """\n    return dict(form=auth())\n\n\n\n\n\n@auth.requires_signature()\ndef data():\n    """\n    http://..../[app]/default/data/tables\n    http://..../[app]/default/data/create/[table]\n    http://..../[app]/default/data/read/[table]/[id]\n    http://..../[app]/default/data/update/[table]/[id]\n    http://..../[app]/default/data/delete/[table]/[id]\n    http://..../[app]/default/data/select/[table]\n    http://..../[app]/default/data/search/[table]\n    but URLs must be signed, i.e. linked with\n      A(\'table\',_href=URL(\'data/tables\',user_signature=True))\n    or with the signed load operator\n      LOAD(\'default\',\'data.load\',args=\'tables\',ajax=True,user_signature=True)\n    """\n    return dict(form=crud())\n\ndef graph():\n    empl=db.Employee(request.args(0))\n    return dict(empl=empl)  \n \n\n\ndef relate():\n   response.flash= "Define Relation"\n   form=crud.create(db.Relation)\n   return dict(form=form)\n\ndef dele():\n   db.Employee.truncate()\n   db.Relation.truncate()\n   redirect(URL("index"))\nc=[]\nrep=[]\nvis=[]\ned=[]\np={}\nq={}\ndef kruskal():\n    \n    lis = db().select(db.Relation.ALL)\n    emp=db().select(db.Employee.ALL, orderby=db.Employee.Name)\n    counts=len(emp)\n    for i in xrange(counts+1):\n       c.append([])\n       vis.append([])\n       rep.append(i)\n       ed.append([])\n       for j in xrange(counts+1):\n          c[i].append(0)\n          vis[i].append(0)\n          ed[i].append(0)\n    for li in lis:\n       a=li.Emp1_id\n       b=li.Emp2_id\n       c[a][b]=1\n       \n    cou=0   \n    while cou !=counts:\n        min=100\n        for i in xrange(counts+1):\n            for j in xrange(counts+1):\n                if c[i][j]!=0 and vis[i][j]==0:\n                    if rep[i]!=rep[j]:\n                               vis[i][j]=1\n                               ed[i][j]=1\n                               count1=0\n                               count2=0\n                               for k in xrange(counts+1):\n                                        if rep[k]==rep[i]:\n                                            count1=count1+1\n                                        if rep[k]==rep[j]:\n                                            count2=count2+1\n                               if count1<count2:\n                                           for k in xrange(counts+1):\n                                                if rep[k]==rep[i] and k!=i:\n                                                    rep[k]=rep[j]\n                                           rep[i]=rep[j]\n                               else:\n                                        for k in xrange(counts+1):\n                                                   if rep[k]==rep[j] and k!=j:\n                                                        rep[k]=rep[i]\n                                        rep[j]=rep[i]\n\n                    else:\n                        vis[i][j]=1\n        cou=0\n        for k in xrange(counts+1):\n            if rep[k]==rep[1]:\n                    cou=cou+1\n        k=0            \n        for i in xrange(counts+1):\n                for j in xrange(counts+1):\n                      if ed[i][j]==1:\n                           p[k]=i\n                           q[k]=j\n                           k=k+1 \n\n    file=open(\'applications/pro/controllers/inp.txt\',\'w\')\n    file.write("%d\\n" %k)\n    for i in xrange(k):\n        ro=db.executesql(\'select Designation from Employee where id==p[i];\')\n        print ro[0][0]           \n        #ro=db(db.Employee.id==p[i]).select(db.Employee.Designation)\n        #d1=ro.Employee.Designation\n        #print d1\n        file.write("%d " %p[i])\n        #d2=db((db.Employee.id==q[i])).select(db.Employee.Designation)\n        #print d2\n        file.write("%d\\n" %q[i])\n    file.close()\n    import sys\n    graph = {}\n    f=open(\'applications/pro/controllers/inp.txt\',\'r\')\n    lines = int(f.readline())\n    indegree = {}\n    for i in range(lines):\n        edge = (f.readline()).split(" ")\n        if len(edge) != 2:\n            print "Error in the input format"\n            sys.exit()\n        if graph.has_key(edge[0]):\n            edge[1]=edge[1][0:len(edge[1])-1]\n            graph[edge[0]].append(edge[1])\n        else:\n            edge[1]=edge[1][0:len(edge[1])-1]\n            graph[edge[0]] = [edge[1],]\n        if indegree.has_key(edge[0]) == False:\n            indegree[edge[0]] = 0\n        if indegree.has_key(edge[1]):\n            indegree[edge[1]] += 1\n        else:\n            indegree[edge[1]] = 1\n    root  = ""\n    for v in indegree:\n        if indegree[v] == 0:\n            root = v\n            break\n\n    def dfs(root):\n        ret = {}\n        ret["name"] = root\n        if graph.has_key(root) == False :\n            return ret\n        vertices = graph[root]\n        ret["children"] = []\n        for vertex in vertices:\n            ret["children"].append(dfs(vertex))\n        return ret\n\t\t\n    file=open(\'applications/pro/controllers/trig_map.json\',\'w\')\n    file.write("%s" %dfs(root))\n    file.close()\n    f=open(\'applications/pro/controllers/trig_map.json\',\'r\')\n    l=f.readlines()\n    str=l[0]\n    f.close()\n    f=open(\'applications/pro/controllers/trig_map.json\',\'w\')\n    f.write("%s" %str.replace("\'","\\""))\n    f.close()\n    \n    \n    return dict(p=p,q=q)\n\nresponse._vars=response._caller(kruskal)\n'
p7
sS'snapshot'
p8
(dp9
S'exception'
p10
(dp11
S'__module__'
p12
S"'sqlite3'"
p13
sS'__getslice__'
p14
S"<method-wrapper '__getslice__' of OperationalError object>"
p15
sS'__str__'
p16
S"<method-wrapper '__str__' of OperationalError object>"
p17
sS'__reduce__'
p18
S'<built-in method __reduce__ of OperationalError object>'
p19
sS'__dict__'
p20
S'{}'
p21
sS'__sizeof__'
p22
S'<built-in method __sizeof__ of OperationalError object>'
p23
sS'__weakref__'
p24
S'None'
p25
sS'__init__'
p26
S"<method-wrapper '__init__' of OperationalError object>"
p27
sS'__setattr__'
p28
S"<method-wrapper '__setattr__' of OperationalError object>"
p29
sS'__reduce_ex__'
p30
S'<built-in method __reduce_ex__ of OperationalError object>'
p31
sS'__new__'
p32
S'<built-in method __new__ of type object>'
p33
sS'__format__'
p34
S'<built-in method __format__ of OperationalError object>'
p35
sS'__class__'
p36
S"<class 'sqlite3.OperationalError'>"
p37
sS'__doc__'
p38
S'None'
p39
sS'__getitem__'
p40
S"<method-wrapper '__getitem__' of OperationalError object>"
p41
sS'__setstate__'
p42
S'<built-in method __setstate__ of OperationalError object>'
p43
sS'__getattribute__'
p44
S"<method-wrapper '__getattribute__' of OperationalError object>"
p45
sS'args'
p46
S'(\'near "[i]": syntax error\',)'
p47
sS'__subclasshook__'
p48
S'<built-in method __subclasshook__ of type object>'
p49
sS'__unicode__'
p50
S'<built-in method __unicode__ of OperationalError object>'
p51
sS'__delattr__'
p52
S"<method-wrapper '__delattr__' of OperationalError object>"
p53
sS'__repr__'
p54
S"<method-wrapper '__repr__' of OperationalError object>"
p55
sS'__hash__'
p56
S"<method-wrapper '__hash__' of OperationalError object>"
p57
ssS'evalue'
p58
S'near "[i]": syntax error'
p59
sS'request'
p60
ccopy_reg
_reconstructor
p61
(cgluon.html
BEAUTIFY
p62
c__builtin__
object
p63
NtRp64
(dp65
S'attributes'
p66
(dp67
sS'components'
p68
(lp69
g61
(cgluon.html
TABLE
p70
g63
NtRp71
(dp72
g66
(dp73
S'level'
p74
I5
ssS'parent'
p75
Nsg68
(lp76
g61
(cgluon.html
TR
p77
g63
NtRp78
(dp79
g66
(dp80
sg75
g71
sg68
(lp81
g61
(cgluon.html
TD
p82
g63
NtRp83
(dp84
g66
(dp85
S'_style'
p86
S'font-weight:bold;vertical-align:top'
p87
ssg75
g78
sg68
(lp88
S'ajax'
p89
asbag61
(g82
g63
NtRp90
(dp91
g66
(dp92
S'_valign'
p93
S'top'
p94
ssg75
g78
sg68
(lp95
S':'
asbag61
(g82
g63
NtRp96
(dp97
g66
(dp98
sg75
g78
sg68
(lp99
g61
(g62
g63
NtRp100
(dp101
g66
(dp102
g74
I5
ssg75
g96
sg68
(lp103
S'False'
p104
asbasbasbag61
(g77
g63
NtRp105
(dp106
g66
(dp107
sg75
g71
sg68
(lp108
g61
(g82
g63
NtRp109
(dp110
g66
(dp111
g86
g87
ssg75
g105
sg68
(lp112
S'application'
p113
asbag61
(g82
g63
NtRp114
(dp115
g66
(dp116
g93
g94
ssg75
g105
sg68
(lp117
S':'
asbag61
(g82
g63
NtRp118
(dp119
g66
(dp120
sg75
g105
sg68
(lp121
g61
(g62
g63
NtRp122
(dp123
g66
(dp124
g74
I5
ssg75
g118
sg68
(lp125
S'pro'
p126
asbasbasbag61
(g77
g63
NtRp127
(dp128
g66
(dp129
sg75
g71
sg68
(lp130
g61
(g82
g63
NtRp131
(dp132
g66
(dp133
g86
g87
ssg75
g127
sg68
(lp134
g46
asbag61
(g82
g63
NtRp135
(dp136
g66
(dp137
g93
g94
ssg75
g127
sg68
(lp138
S':'
asbag61
(g82
g63
NtRp139
(dp140
g66
(dp141
sg75
g127
sg68
(lp142
g61
(g62
g63
NtRp143
(dp144
g66
(dp145
g74
I5
ssg75
g139
sg68
(lp146
g61
(g70
g63
NtRp147
(dp148
g66
(dp149
g74
I4
ssg75
Nsg68
(lp150
sbasbasbasbag61
(g77
g63
NtRp151
(dp152
g66
(dp153
sg75
g71
sg68
(lp154
g61
(g82
g63
NtRp155
(dp156
g66
(dp157
g86
g87
ssg75
g151
sg68
(lp158
S'body'
p159
asbag61
(g82
g63
NtRp160
(dp161
g66
(dp162
g93
g94
ssg75
g151
sg68
(lp163
S':'
asbag61
(g82
g63
NtRp164
(dp165
g66
(dp166
sg75
g151
sg68
(lp167
g61
(g62
g63
NtRp168
(dp169
g66
(dp170
g74
I5
ssg75
g164
sg68
(lp171
S'<cStringIO.StringO object at 0x06A15060>'
p172
asbasbasbag61
(g77
g63
NtRp173
(dp174
g66
(dp175
sg75
g71
sg68
(lp176
g61
(g82
g63
NtRp177
(dp178
g66
(dp179
g86
g87
ssg75
g173
sg68
(lp180
S'cid'
p181
asbag61
(g82
g63
NtRp182
(dp183
g66
(dp184
g93
g94
ssg75
g173
sg68
(lp185
S':'
asbag61
(g82
g63
NtRp186
(dp187
g66
(dp188
sg75
g173
sg68
(lp189
g61
(g62
g63
NtRp190
(dp191
g66
(dp192
g74
I5
ssg75
g186
sg68
(lp193
S'None'
p194
asbasbasbag61
(g77
g63
NtRp195
(dp196
g66
(dp197
sg75
g71
sg68
(lp198
g61
(g82
g63
NtRp199
(dp200
g66
(dp201
g86
g87
ssg75
g195
sg68
(lp202
S'client'
p203
asbag61
(g82
g63
NtRp204
(dp205
g66
(dp206
g93
g94
ssg75
g195
sg68
(lp207
S':'
asbag61
(g82
g63
NtRp208
(dp209
g66
(dp210
sg75
g195
sg68
(lp211
g61
(g62
g63
NtRp212
(dp213
g66
(dp214
g74
I5
ssg75
g208
sg68
(lp215
S'127.0.0.1'
p216
asbasbasbag61
(g77
g63
NtRp217
(dp218
g66
(dp219
sg75
g71
sg68
(lp220
g61
(g82
g63
NtRp221
(dp222
g66
(dp223
g86
g87
ssg75
g217
sg68
(lp224
S'controller'
p225
asbag61
(g82
g63
NtRp226
(dp227
g66
(dp228
g93
g94
ssg75
g217
sg68
(lp229
S':'
asbag61
(g82
g63
NtRp230
(dp231
g66
(dp232
sg75
g217
sg68
(lp233
g61
(g62
g63
NtRp234
(dp235
g66
(dp236
g74
I5
ssg75
g230
sg68
(lp237
S'default'
p238
asbasbasbag61
(g77
g63
NtRp239
(dp240
g66
(dp241
sg75
g71
sg68
(lp242
g61
(g82
g63
NtRp243
(dp244
g66
(dp245
g86
g87
ssg75
g239
sg68
(lp246
S'cookies'
p247
asbag61
(g82
g63
NtRp248
(dp249
g66
(dp250
g93
g94
ssg75
g239
sg68
(lp251
S':'
asbag61
(g82
g63
NtRp252
(dp253
g66
(dp254
sg75
g239
sg68
(lp255
g61
(g62
g63
NtRp256
(dp257
g66
(dp258
g74
I5
ssg75
g252
sg68
(lp259
g61
(g70
g63
NtRp260
(dp261
g66
(dp262
g74
I4
ssg75
Nsg68
(lp263
g61
(g77
g63
NtRp264
(dp265
g66
(dp266
sg75
g260
sg68
(lp267
g61
(g82
g63
NtRp268
(dp269
g66
(dp270
g86
g87
ssg75
g264
sg68
(lp271
S'session_id_admin'
p272
asbag61
(g82
g63
NtRp273
(dp274
g66
(dp275
g93
g94
ssg75
g264
sg68
(lp276
S':'
asbag61
(g82
g63
NtRp277
(dp278
g66
(dp279
sg75
g264
sg68
(lp280
g61
(g62
g63
NtRp281
(dp282
g66
(dp283
g74
I4
ssg75
g277
sg68
(lp284
S'127.0.0.1-59b72695-bf0c-4816-837c-17e5eacd5fb8'
p285
ag61
(g70
g63
NtRp286
(dp287
g66
(dp288
g74
I3
ssg75
Nsg68
(lp289
g61
(g77
g63
NtRp290
(dp291
g66
(dp292
sg75
g286
sg68
(lp293
g61
(g82
g63
NtRp294
(dp295
g66
(dp296
g86
g87
ssg75
g290
sg68
(lp297
S'comment'
p298
asbag61
(g82
g63
NtRp299
(dp300
g66
(dp301
g93
g94
ssg75
g290
sg68
(lp302
S':'
asbag61
(g82
g63
NtRp303
(dp304
g66
(dp305
sg75
g290
sg68
(lp306
g61
(g62
g63
NtRp307
(dp308
g66
(dp309
g74
I3
ssg75
g303
sg68
(lp310
S''
asbasbasbag61
(g77
g63
NtRp311
(dp312
g66
(dp313
sg75
g286
sg68
(lp314
g61
(g82
g63
NtRp315
(dp316
g66
(dp317
g86
g87
ssg75
g311
sg68
(lp318
S'domain'
p319
asbag61
(g82
g63
NtRp320
(dp321
g66
(dp322
g93
g94
ssg75
g311
sg68
(lp323
S':'
asbag61
(g82
g63
NtRp324
(dp325
g66
(dp326
sg75
g311
sg68
(lp327
g61
(g62
g63
NtRp328
(dp329
g66
(dp330
g74
I3
ssg75
g324
sg68
(lp331
S''
asbasbasbag61
(g77
g63
NtRp332
(dp333
g66
(dp334
sg75
g286
sg68
(lp335
g61
(g82
g63
NtRp336
(dp337
g66
(dp338
g86
g87
ssg75
g332
sg68
(lp339
S'expires'
p340
asbag61
(g82
g63
NtRp341
(dp342
g66
(dp343
g93
g94
ssg75
g332
sg68
(lp344
S':'
asbag61
(g82
g63
NtRp345
(dp346
g66
(dp347
sg75
g332
sg68
(lp348
g61
(g62
g63
NtRp349
(dp350
g66
(dp351
g74
I3
ssg75
g345
sg68
(lp352
S''
asbasbasbag61
(g77
g63
NtRp353
(dp354
g66
(dp355
sg75
g286
sg68
(lp356
g61
(g82
g63
NtRp357
(dp358
g66
(dp359
g86
g87
ssg75
g353
sg68
(lp360
S'httponly'
p361
asbag61
(g82
g63
NtRp362
(dp363
g66
(dp364
g93
g94
ssg75
g353
sg68
(lp365
S':'
asbag61
(g82
g63
NtRp366
(dp367
g66
(dp368
sg75
g353
sg68
(lp369
g61
(g62
g63
NtRp370
(dp371
g66
(dp372
g74
I3
ssg75
g366
sg68
(lp373
S''
asbasbasbag61
(g77
g63
NtRp374
(dp375
g66
(dp376
sg75
g286
sg68
(lp377
g61
(g82
g63
NtRp378
(dp379
g66
(dp380
g86
g87
ssg75
g374
sg68
(lp381
S'max-age'
p382
asbag61
(g82
g63
NtRp383
(dp384
g66
(dp385
g93
g94
ssg75
g374
sg68
(lp386
S':'
asbag61
(g82
g63
NtRp387
(dp388
g66
(dp389
sg75
g374
sg68
(lp390
g61
(g62
g63
NtRp391
(dp392
g66
(dp393
g74
I3
ssg75
g387
sg68
(lp394
S''
asbasbasbag61
(g77
g63
NtRp395
(dp396
g66
(dp397
sg75
g286
sg68
(lp398
g61
(g82
g63
NtRp399
(dp400
g66
(dp401
g86
g87
ssg75
g395
sg68
(lp402
S'path'
p403
asbag61
(g82
g63
NtRp404
(dp405
g66
(dp406
g93
g94
ssg75
g395
sg68
(lp407
S':'
asbag61
(g82
g63
NtRp408
(dp409
g66
(dp410
sg75
g395
sg68
(lp411
g61
(g62
g63
NtRp412
(dp413
g66
(dp414
g74
I3
ssg75
g408
sg68
(lp415
S''
asbasbasbag61
(g77
g63
NtRp416
(dp417
g66
(dp418
sg75
g286
sg68
(lp419
g61
(g82
g63
NtRp420
(dp421
g66
(dp422
g86
g87
ssg75
g416
sg68
(lp423
S'secure'
p424
asbag61
(g82
g63
NtRp425
(dp426
g66
(dp427
g93
g94
ssg75
g416
sg68
(lp428
S':'
asbag61
(g82
g63
NtRp429
(dp430
g66
(dp431
sg75
g416
sg68
(lp432
g61
(g62
g63
NtRp433
(dp434
g66
(dp435
g74
I3
ssg75
g429
sg68
(lp436
S''
asbasbasbag61
(g77
g63
NtRp437
(dp438
g66
(dp439
sg75
g286
sg68
(lp440
g61
(g82
g63
NtRp441
(dp442
g66
(dp443
g86
g87
ssg75
g437
sg68
(lp444
S'version'
p445
asbag61
(g82
g63
NtRp446
(dp447
g66
(dp448
g93
g94
ssg75
g437
sg68
(lp449
S':'
asbag61
(g82
g63
NtRp450
(dp451
g66
(dp452
sg75
g437
sg68
(lp453
g61
(g62
g63
NtRp454
(dp455
g66
(dp456
g74
I3
ssg75
g450
sg68
(lp457
S''
asbasbasbasbasbasbasbag61
(g77
g63
NtRp458
(dp459
g66
(dp460
sg75
g260
sg68
(lp461
g61
(g82
g63
NtRp462
(dp463
g66
(dp464
g86
g87
ssg75
g458
sg68
(lp465
S'session_id_pro'
p466
asbag61
(g82
g63
NtRp467
(dp468
g66
(dp469
g93
g94
ssg75
g458
sg68
(lp470
S':'
asbag61
(g82
g63
NtRp471
(dp472
g66
(dp473
sg75
g458
sg68
(lp474
g61
(g62
g63
NtRp475
(dp476
g66
(dp477
g74
I4
ssg75
g471
sg68
(lp478
S'127.0.0.1-afe74a09-07f0-44a6-b55c-1a0cbed3087c'
p479
ag61
(g70
g63
NtRp480
(dp481
g66
(dp482
g74
I3
ssg75
Nsg68
(lp483
g61
(g77
g63
NtRp484
(dp485
g66
(dp486
sg75
g480
sg68
(lp487
g61
(g82
g63
NtRp488
(dp489
g66
(dp490
g86
g87
ssg75
g484
sg68
(lp491
g298
asbag61
(g82
g63
NtRp492
(dp493
g66
(dp494
g93
g94
ssg75
g484
sg68
(lp495
S':'
asbag61
(g82
g63
NtRp496
(dp497
g66
(dp498
sg75
g484
sg68
(lp499
g61
(g62
g63
NtRp500
(dp501
g66
(dp502
g74
I3
ssg75
g496
sg68
(lp503
S''
asbasbasbag61
(g77
g63
NtRp504
(dp505
g66
(dp506
sg75
g480
sg68
(lp507
g61
(g82
g63
NtRp508
(dp509
g66
(dp510
g86
g87
ssg75
g504
sg68
(lp511
g319
asbag61
(g82
g63
NtRp512
(dp513
g66
(dp514
g93
g94
ssg75
g504
sg68
(lp515
S':'
asbag61
(g82
g63
NtRp516
(dp517
g66
(dp518
sg75
g504
sg68
(lp519
g61
(g62
g63
NtRp520
(dp521
g66
(dp522
g74
I3
ssg75
g516
sg68
(lp523
S''
asbasbasbag61
(g77
g63
NtRp524
(dp525
g66
(dp526
sg75
g480
sg68
(lp527
g61
(g82
g63
NtRp528
(dp529
g66
(dp530
g86
g87
ssg75
g524
sg68
(lp531
g340
asbag61
(g82
g63
NtRp532
(dp533
g66
(dp534
g93
g94
ssg75
g524
sg68
(lp535
S':'
asbag61
(g82
g63
NtRp536
(dp537
g66
(dp538
sg75
g524
sg68
(lp539
g61
(g62
g63
NtRp540
(dp541
g66
(dp542
g74
I3
ssg75
g536
sg68
(lp543
S''
asbasbasbag61
(g77
g63
NtRp544
(dp545
g66
(dp546
sg75
g480
sg68
(lp547
g61
(g82
g63
NtRp548
(dp549
g66
(dp550
g86
g87
ssg75
g544
sg68
(lp551
g361
asbag61
(g82
g63
NtRp552
(dp553
g66
(dp554
g93
g94
ssg75
g544
sg68
(lp555
S':'
asbag61
(g82
g63
NtRp556
(dp557
g66
(dp558
sg75
g544
sg68
(lp559
g61
(g62
g63
NtRp560
(dp561
g66
(dp562
g74
I3
ssg75
g556
sg68
(lp563
S''
asbasbasbag61
(g77
g63
NtRp564
(dp565
g66
(dp566
sg75
g480
sg68
(lp567
g61
(g82
g63
NtRp568
(dp569
g66
(dp570
g86
g87
ssg75
g564
sg68
(lp571
g382
asbag61
(g82
g63
NtRp572
(dp573
g66
(dp574
g93
g94
ssg75
g564
sg68
(lp575
S':'
asbag61
(g82
g63
NtRp576
(dp577
g66
(dp578
sg75
g564
sg68
(lp579
g61
(g62
g63
NtRp580
(dp581
g66
(dp582
g74
I3
ssg75
g576
sg68
(lp583
S''
asbasbasbag61
(g77
g63
NtRp584
(dp585
g66
(dp586
sg75
g480
sg68
(lp587
g61
(g82
g63
NtRp588
(dp589
g66
(dp590
g86
g87
ssg75
g584
sg68
(lp591
g403
asbag61
(g82
g63
NtRp592
(dp593
g66
(dp594
g93
g94
ssg75
g584
sg68
(lp595
S':'
asbag61
(g82
g63
NtRp596
(dp597
g66
(dp598
sg75
g584
sg68
(lp599
g61
(g62
g63
NtRp600
(dp601
g66
(dp602
g74
I3
ssg75
g596
sg68
(lp603
S''
asbasbasbag61
(g77
g63
NtRp604
(dp605
g66
(dp606
sg75
g480
sg68
(lp607
g61
(g82
g63
NtRp608
(dp609
g66
(dp610
g86
g87
ssg75
g604
sg68
(lp611
g424
asbag61
(g82
g63
NtRp612
(dp613
g66
(dp614
g93
g94
ssg75
g604
sg68
(lp615
S':'
asbag61
(g82
g63
NtRp616
(dp617
g66
(dp618
sg75
g604
sg68
(lp619
g61
(g62
g63
NtRp620
(dp621
g66
(dp622
g74
I3
ssg75
g616
sg68
(lp623
S''
asbasbasbag61
(g77
g63
NtRp624
(dp625
g66
(dp626
sg75
g480
sg68
(lp627
g61
(g82
g63
NtRp628
(dp629
g66
(dp630
g86
g87
ssg75
g624
sg68
(lp631
g445
asbag61
(g82
g63
NtRp632
(dp633
g66
(dp634
g93
g94
ssg75
g624
sg68
(lp635
S':'
asbag61
(g82
g63
NtRp636
(dp637
g66
(dp638
sg75
g624
sg68
(lp639
g61
(g62
g63
NtRp640
(dp641
g66
(dp642
g74
I3
ssg75
g636
sg68
(lp643
S''
asbasbasbasbasbasbasbag61
(g77
g63
NtRp644
(dp645
g66
(dp646
sg75
g260
sg68
(lp647
g61
(g82
g63
NtRp648
(dp649
g66
(dp650
g86
g87
ssg75
g644
sg68
(lp651
S'session_id_welcome'
p652
asbag61
(g82
g63
NtRp653
(dp654
g66
(dp655
g93
g94
ssg75
g644
sg68
(lp656
S':'
asbag61
(g82
g63
NtRp657
(dp658
g66
(dp659
sg75
g644
sg68
(lp660
g61
(g62
g63
NtRp661
(dp662
g66
(dp663
g74
I4
ssg75
g657
sg68
(lp664
S'127.0.0.1-e8e213be-a1e2-49b2-9463-427770960108'
p665
ag61
(g70
g63
NtRp666
(dp667
g66
(dp668
g74
I3
ssg75
Nsg68
(lp669
g61
(g77
g63
NtRp670
(dp671
g66
(dp672
sg75
g666
sg68
(lp673
g61
(g82
g63
NtRp674
(dp675
g66
(dp676
g86
g87
ssg75
g670
sg68
(lp677
g298
asbag61
(g82
g63
NtRp678
(dp679
g66
(dp680
g93
g94
ssg75
g670
sg68
(lp681
S':'
asbag61
(g82
g63
NtRp682
(dp683
g66
(dp684
sg75
g670
sg68
(lp685
g61
(g62
g63
NtRp686
(dp687
g66
(dp688
g74
I3
ssg75
g682
sg68
(lp689
S''
asbasbasbag61
(g77
g63
NtRp690
(dp691
g66
(dp692
sg75
g666
sg68
(lp693
g61
(g82
g63
NtRp694
(dp695
g66
(dp696
g86
g87
ssg75
g690
sg68
(lp697
g319
asbag61
(g82
g63
NtRp698
(dp699
g66
(dp700
g93
g94
ssg75
g690
sg68
(lp701
S':'
asbag61
(g82
g63
NtRp702
(dp703
g66
(dp704
sg75
g690
sg68
(lp705
g61
(g62
g63
NtRp706
(dp707
g66
(dp708
g74
I3
ssg75
g702
sg68
(lp709
S''
asbasbasbag61
(g77
g63
NtRp710
(dp711
g66
(dp712
sg75
g666
sg68
(lp713
g61
(g82
g63
NtRp714
(dp715
g66
(dp716
g86
g87
ssg75
g710
sg68
(lp717
g340
asbag61
(g82
g63
NtRp718
(dp719
g66
(dp720
g93
g94
ssg75
g710
sg68
(lp721
S':'
asbag61
(g82
g63
NtRp722
(dp723
g66
(dp724
sg75
g710
sg68
(lp725
g61
(g62
g63
NtRp726
(dp727
g66
(dp728
g74
I3
ssg75
g722
sg68
(lp729
S''
asbasbasbag61
(g77
g63
NtRp730
(dp731
g66
(dp732
sg75
g666
sg68
(lp733
g61
(g82
g63
NtRp734
(dp735
g66
(dp736
g86
g87
ssg75
g730
sg68
(lp737
g361
asbag61
(g82
g63
NtRp738
(dp739
g66
(dp740
g93
g94
ssg75
g730
sg68
(lp741
S':'
asbag61
(g82
g63
NtRp742
(dp743
g66
(dp744
sg75
g730
sg68
(lp745
g61
(g62
g63
NtRp746
(dp747
g66
(dp748
g74
I3
ssg75
g742
sg68
(lp749
S''
asbasbasbag61
(g77
g63
NtRp750
(dp751
g66
(dp752
sg75
g666
sg68
(lp753
g61
(g82
g63
NtRp754
(dp755
g66
(dp756
g86
g87
ssg75
g750
sg68
(lp757
g382
asbag61
(g82
g63
NtRp758
(dp759
g66
(dp760
g93
g94
ssg75
g750
sg68
(lp761
S':'
asbag61
(g82
g63
NtRp762
(dp763
g66
(dp764
sg75
g750
sg68
(lp765
g61
(g62
g63
NtRp766
(dp767
g66
(dp768
g74
I3
ssg75
g762
sg68
(lp769
S''
asbasbasbag61
(g77
g63
NtRp770
(dp771
g66
(dp772
sg75
g666
sg68
(lp773
g61
(g82
g63
NtRp774
(dp775
g66
(dp776
g86
g87
ssg75
g770
sg68
(lp777
g403
asbag61
(g82
g63
NtRp778
(dp779
g66
(dp780
g93
g94
ssg75
g770
sg68
(lp781
S':'
asbag61
(g82
g63
NtRp782
(dp783
g66
(dp784
sg75
g770
sg68
(lp785
g61
(g62
g63
NtRp786
(dp787
g66
(dp788
g74
I3
ssg75
g782
sg68
(lp789
S''
asbasbasbag61
(g77
g63
NtRp790
(dp791
g66
(dp792
sg75
g666
sg68
(lp793
g61
(g82
g63
NtRp794
(dp795
g66
(dp796
g86
g87
ssg75
g790
sg68
(lp797
g424
asbag61
(g82
g63
NtRp798
(dp799
g66
(dp800
g93
g94
ssg75
g790
sg68
(lp801
S':'
asbag61
(g82
g63
NtRp802
(dp803
g66
(dp804
sg75
g790
sg68
(lp805
g61
(g62
g63
NtRp806
(dp807
g66
(dp808
g74
I3
ssg75
g802
sg68
(lp809
S''
asbasbasbag61
(g77
g63
NtRp810
(dp811
g66
(dp812
sg75
g666
sg68
(lp813
g61
(g82
g63
NtRp814
(dp815
g66
(dp816
g86
g87
ssg75
g810
sg68
(lp817
g445
asbag61
(g82
g63
NtRp818
(dp819
g66
(dp820
g93
g94
ssg75
g810
sg68
(lp821
S':'
asbag61
(g82
g63
NtRp822
(dp823
g66
(dp824
sg75
g810
sg68
(lp825
g61
(g62
g63
NtRp826
(dp827
g66
(dp828
g74
I3
ssg75
g822
sg68
(lp829
S''
asbasbasbasbasbasbasbasbasbasbasbag61
(g77
g63
NtRp830
(dp831
g66
(dp832
sg75
g71
sg68
(lp833
g61
(g82
g63
NtRp834
(dp835
g66
(dp836
g86
g87
ssg75
g830
sg68
(lp837
S'env'
p838
asbag61
(g82
g63
NtRp839
(dp840
g66
(dp841
g93
g94
ssg75
g830
sg68
(lp842
S':'
asbag61
(g82
g63
NtRp843
(dp844
g66
(dp845
sg75
g830
sg68
(lp846
g61
(g62
g63
NtRp847
(dp848
g66
(dp849
g74
I5
ssg75
g843
sg68
(lp850
g61
(g70
g63
NtRp851
(dp852
g66
(dp853
g74
I4
ssg75
Nsg68
(lp854
g61
(g77
g63
NtRp855
(dp856
g66
(dp857
sg75
g851
sg68
(lp858
g61
(g82
g63
NtRp859
(dp860
g66
(dp861
g86
g87
ssg75
g855
sg68
(lp862
S'app_folders'
p863
asbag61
(g82
g63
NtRp864
(dp865
g66
(dp866
g93
g94
ssg75
g855
sg68
(lp867
S':'
asbag61
(g82
g63
NtRp868
(dp869
g66
(dp870
sg75
g855
sg68
(lp871
g61
(g62
g63
NtRp872
(dp873
g66
(dp874
g74
I4
ssg75
g868
sg68
(lp875
S"set(['C:\\\\Users\\\\ARPITA\\\\Downloads\\\\web2py_win\\\\web2py\\\\applications\\\\welcome\\\\', 'C:\\\\Users\\\\ARPITA\\\\Downloads\\\\web2py_win\\\\web2py\\\\applications\\\\admin\\\\', 'C:\\\\Users\\\\ARPITA\\\\Downloads\\\\web2py_win\\\\web2py\\\\applications\\\\pro\\\\'])"
p876
asbasbasbag61
(g77
g63
NtRp877
(dp878
g66
(dp879
sg75
g851
sg68
(lp880
g61
(g82
g63
NtRp881
(dp882
g66
(dp883
g86
g87
ssg75
g877
sg68
(lp884
S'applications_parent'
p885
asbag61
(g82
g63
NtRp886
(dp887
g66
(dp888
g93
g94
ssg75
g877
sg68
(lp889
S':'
asbag61
(g82
g63
NtRp890
(dp891
g66
(dp892
sg75
g877
sg68
(lp893
g61
(g62
g63
NtRp894
(dp895
g66
(dp896
g74
I4
ssg75
g890
sg68
(lp897
S'C:\\Users\\ARPITA\\Downloads\\web2py_win\\web2py'
p898
asbasbasbag61
(g77
g63
NtRp899
(dp900
g66
(dp901
sg75
g851
sg68
(lp902
g61
(g82
g63
NtRp903
(dp904
g66
(dp905
g86
g87
ssg75
g899
sg68
(lp906
S'cmd_args'
p907
asbag61
(g82
g63
NtRp908
(dp909
g66
(dp910
g93
g94
ssg75
g899
sg68
(lp911
S':'
asbag61
(g82
g63
NtRp912
(dp913
g66
(dp914
sg75
g899
sg68
(lp915
g61
(g62
g63
NtRp916
(dp917
g66
(dp918
g74
I4
ssg75
g912
sg68
(lp919
g61
(g70
g63
NtRp920
(dp921
g66
(dp922
g74
I3
ssg75
Nsg68
(lp923
sbasbasbasbag61
(g77
g63
NtRp924
(dp925
g66
(dp926
sg75
g851
sg68
(lp927
g61
(g82
g63
NtRp928
(dp929
g66
(dp930
g86
g87
ssg75
g924
sg68
(lp931
S'cmd_options'
p932
asbag61
(g82
g63
NtRp933
(dp934
g66
(dp935
g93
g94
ssg75
g924
sg68
(lp936
S':'
asbag61
(g82
g63
NtRp937
(dp938
g66
(dp939
sg75
g924
sg68
(lp940
g61
(g62
g63
NtRp941
(dp942
g66
(dp943
g74
I4
ssg75
g937
sg68
(lp944
S"<Values at 0x2b3b7d8: {'verbose': False, 'ip': '127.0.0.1', 'with_scheduler': False, 'ips': [], 'shutdown_timeout': 5, 'taskbar': False, 'port': 8000, 'maxthreads': None, 'softcron': False, 'server_name': 'ARPITA-PC', 'bpython': False, 'nogui': False, 'pid_filename': 'httpserver.pid', 'extcron': False, 'runcron': False, 'run_system_tests': False, 'test': None, 'folder': 'C:\\\\Users\\\\ARPITA\\\\Downloads\\\\web2py_win\\\\web2py', 'config': '', 'import_models': False, 'winservice': '', 'shell': None, 'run': '', 'log_filename': 'httpserver.log', 'debuglevel': 30, 'args': [''], 'socket_timeout': 5, 'ssl_ca_certificate': None, 'scheduler': None, 'profiler_filename': None, 'ssl_private_key': '', 'scheduler_groups': None, 'password': '<ask>', 'request_queue_size': 5, 'ssl_certificate': '', 'cronjob': False, 'numthreads': None, 'quiet': False, 'interfaces': None, 'minthreads': None, 'timeout': 10, 'plain': False, 'nobanner': False}>"
p945
asbasbasbag61
(g77
g63
NtRp946
(dp947
g66
(dp948
sg75
g851
sg68
(lp949
g61
(g82
g63
NtRp950
(dp951
g66
(dp952
g86
g87
ssg75
g946
sg68
(lp953
S'db_sessions'
p954
asbag61
(g82
g63
NtRp955
(dp956
g66
(dp957
g93
g94
ssg75
g946
sg68
(lp958
S':'
asbag61
(g82
g63
NtRp959
(dp960
g66
(dp961
sg75
g946
sg68
(lp962
g61
(g62
g63
NtRp963
(dp964
g66
(dp965
g74
I4
ssg75
g959
sg68
(lp966
S'set([])'
p967
asbasbasbag61
(g77
g63
NtRp968
(dp969
g66
(dp970
sg75
g851
sg68
(lp971
g61
(g82
g63
NtRp972
(dp973
g66
(dp974
g86
g87
ssg75
g968
sg68
(lp975
S'debugging'
p976
asbag61
(g82
g63
NtRp977
(dp978
g66
(dp979
g93
g94
ssg75
g968
sg68
(lp980
S':'
asbag61
(g82
g63
NtRp981
(dp982
g66
(dp983
sg75
g968
sg68
(lp984
g61
(g62
g63
NtRp985
(dp986
g66
(dp987
g74
I4
ssg75
g981
sg68
(lp988
g104
asbasbasbag61
(g77
g63
NtRp989
(dp990
g66
(dp991
sg75
g851
sg68
(lp992
g61
(g82
g63
NtRp993
(dp994
g66
(dp995
g86
g87
ssg75
g989
sg68
(lp996
S'gluon_parent'
p997
asbag61
(g82
g63
NtRp998
(dp999
g66
(dp1000
g93
g94
ssg75
g989
sg68
(lp1001
S':'
asbag61
(g82
g63
NtRp1002
(dp1003
g66
(dp1004
sg75
g989
sg68
(lp1005
g61
(g62
g63
NtRp1006
(dp1007
g66
(dp1008
g74
I4
ssg75
g1002
sg68
(lp1009
S'C:\\Users\\ARPITA\\Downloads\\web2py_win\\web2py'
p1010
asbasbasbag61
(g77
g63
NtRp1011
(dp1012
g66
(dp1013
sg75
g851
sg68
(lp1014
g61
(g82
g63
NtRp1015
(dp1016
g66
(dp1017
g86
g87
ssg75
g1011
sg68
(lp1018
S'http_accept'
p1019
asbag61
(g82
g63
NtRp1020
(dp1021
g66
(dp1022
g93
g94
ssg75
g1011
sg68
(lp1023
S':'
asbag61
(g82
g63
NtRp1024
(dp1025
g66
(dp1026
sg75
g1011
sg68
(lp1027
g61
(g62
g63
NtRp1028
(dp1029
g66
(dp1030
g74
I4
ssg75
g1024
sg68
(lp1031
S'text/html,application/xhtml+xml,application/xml;q=0.9,*/*;q=0.8'
p1032
asbasbasbag61
(g77
g63
NtRp1033
(dp1034
g66
(dp1035
sg75
g851
sg68
(lp1036
g61
(g82
g63
NtRp1037
(dp1038
g66
(dp1039
g86
g87
ssg75
g1033
sg68
(lp1040
S'http_accept_encoding'
p1041
asbag61
(g82
g63
NtRp1042
(dp1043
g66
(dp1044
g93
g94
ssg75
g1033
sg68
(lp1045
S':'
asbag61
(g82
g63
NtRp1046
(dp1047
g66
(dp1048
sg75
g1033
sg68
(lp1049
g61
(g62
g63
NtRp1050
(dp1051
g66
(dp1052
g74
I4
ssg75
g1046
sg68
(lp1053
S'gzip, deflate'
p1054
asbasbasbag61
(g77
g63
NtRp1055
(dp1056
g66
(dp1057
sg75
g851
sg68
(lp1058
g61
(g82
g63
NtRp1059
(dp1060
g66
(dp1061
g86
g87
ssg75
g1055
sg68
(lp1062
S'http_accept_language'
p1063
asbag61
(g82
g63
NtRp1064
(dp1065
g66
(dp1066
g93
g94
ssg75
g1055
sg68
(lp1067
S':'
asbag61
(g82
g63
NtRp1068
(dp1069
g66
(dp1070
sg75
g1055
sg68
(lp1071
g61
(g62
g63
NtRp1072
(dp1073
g66
(dp1074
g74
I4
ssg75
g1068
sg68
(lp1075
S'en-US,en;q=0.5'
p1076
asbasbasbag61
(g77
g63
NtRp1077
(dp1078
g66
(dp1079
sg75
g851
sg68
(lp1080
g61
(g82
g63
NtRp1081
(dp1082
g66
(dp1083
g86
g87
ssg75
g1077
sg68
(lp1084
S'http_connection'
p1085
asbag61
(g82
g63
NtRp1086
(dp1087
g66
(dp1088
g93
g94
ssg75
g1077
sg68
(lp1089
S':'
asbag61
(g82
g63
NtRp1090
(dp1091
g66
(dp1092
sg75
g1077
sg68
(lp1093
g61
(g62
g63
NtRp1094
(dp1095
g66
(dp1096
g74
I4
ssg75
g1090
sg68
(lp1097
S'keep-alive'
p1098
asbasbasbag61
(g77
g63
NtRp1099
(dp1100
g66
(dp1101
sg75
g851
sg68
(lp1102
g61
(g82
g63
NtRp1103
(dp1104
g66
(dp1105
g86
g87
ssg75
g1099
sg68
(lp1106
S'http_cookie'
p1107
asbag61
(g82
g63
NtRp1108
(dp1109
g66
(dp1110
g93
g94
ssg75
g1099
sg68
(lp1111
S':'
asbag61
(g82
g63
NtRp1112
(dp1113
g66
(dp1114
sg75
g1099
sg68
(lp1115
g61
(g62
g63
NtRp1116
(dp1117
g66
(dp1118
g74
I4
ssg75
g1112
sg68
(lp1119
S'session_id_welcome=127.0.0.1-e8e213be-a1e2-49b2-9463-427770960108; session_id_pro=127.0.0.1-afe74a09-07f0-44a6-b55c-1a0cbed3087c; session_id_admin=127.0.0.1-59b72695-bf0c-4816-837c-17e5eacd5fb8'
p1120
asbasbasbag61
(g77
g63
NtRp1121
(dp1122
g66
(dp1123
sg75
g851
sg68
(lp1124
g61
(g82
g63
NtRp1125
(dp1126
g66
(dp1127
g86
g87
ssg75
g1121
sg68
(lp1128
S'http_host'
p1129
asbag61
(g82
g63
NtRp1130
(dp1131
g66
(dp1132
g93
g94
ssg75
g1121
sg68
(lp1133
S':'
asbag61
(g82
g63
NtRp1134
(dp1135
g66
(dp1136
sg75
g1121
sg68
(lp1137
g61
(g62
g63
NtRp1138
(dp1139
g66
(dp1140
g74
I4
ssg75
g1134
sg68
(lp1141
S'127.0.0.1:8000'
p1142
asbasbasbag61
(g77
g63
NtRp1143
(dp1144
g66
(dp1145
sg75
g851
sg68
(lp1146
g61
(g82
g63
NtRp1147
(dp1148
g66
(dp1149
g86
g87
ssg75
g1143
sg68
(lp1150
S'http_referer'
p1151
asbag61
(g82
g63
NtRp1152
(dp1153
g66
(dp1154
g93
g94
ssg75
g1143
sg68
(lp1155
S':'
asbag61
(g82
g63
NtRp1156
(dp1157
g66
(dp1158
sg75
g1143
sg68
(lp1159
g61
(g62
g63
NtRp1160
(dp1161
g66
(dp1162
g74
I4
ssg75
g1156
sg68
(lp1163
S'http://127.0.0.1:8000/pro/default/relate'
p1164
asbasbasbag61
(g77
g63
NtRp1165
(dp1166
g66
(dp1167
sg75
g851
sg68
(lp1168
g61
(g82
g63
NtRp1169
(dp1170
g66
(dp1171
g86
g87
ssg75
g1165
sg68
(lp1172
S'http_user_agent'
p1173
asbag61
(g82
g63
NtRp1174
(dp1175
g66
(dp1176
g93
g94
ssg75
g1165
sg68
(lp1177
S':'
asbag61
(g82
g63
NtRp1178
(dp1179
g66
(dp1180
sg75
g1165
sg68
(lp1181
g61
(g62
g63
NtRp1182
(dp1183
g66
(dp1184
g74
I4
ssg75
g1178
sg68
(lp1185
S'Mozilla/5.0 (Windows NT 6.1; WOW64; rv:16.0) Gecko/20100101 Firefox/16.0'
p1186
asbasbasbag61
(g77
g63
NtRp1187
(dp1188
g66
(dp1189
sg75
g851
sg68
(lp1190
g61
(g82
g63
NtRp1191
(dp1192
g66
(dp1193
g86
g87
ssg75
g1187
sg68
(lp1194
S'is_jython'
p1195
asbag61
(g82
g63
NtRp1196
(dp1197
g66
(dp1198
g93
g94
ssg75
g1187
sg68
(lp1199
S':'
asbag61
(g82
g63
NtRp1200
(dp1201
g66
(dp1202
sg75
g1187
sg68
(lp1203
g61
(g62
g63
NtRp1204
(dp1205
g66
(dp1206
g74
I4
ssg75
g1200
sg68
(lp1207
g104
asbasbasbag61
(g77
g63
NtRp1208
(dp1209
g66
(dp1210
sg75
g851
sg68
(lp1211
g61
(g82
g63
NtRp1212
(dp1213
g66
(dp1214
g86
g87
ssg75
g1208
sg68
(lp1215
S'is_pypy'
p1216
asbag61
(g82
g63
NtRp1217
(dp1218
g66
(dp1219
g93
g94
ssg75
g1208
sg68
(lp1220
S':'
asbag61
(g82
g63
NtRp1221
(dp1222
g66
(dp1223
sg75
g1208
sg68
(lp1224
g61
(g62
g63
NtRp1225
(dp1226
g66
(dp1227
g74
I4
ssg75
g1221
sg68
(lp1228
g104
asbasbasbag61
(g77
g63
NtRp1229
(dp1230
g66
(dp1231
sg75
g851
sg68
(lp1232
g61
(g82
g63
NtRp1233
(dp1234
g66
(dp1235
g86
g87
ssg75
g1229
sg68
(lp1236
S'local_hosts'
p1237
asbag61
(g82
g63
NtRp1238
(dp1239
g66
(dp1240
g93
g94
ssg75
g1229
sg68
(lp1241
S':'
asbag61
(g82
g63
NtRp1242
(dp1243
g66
(dp1244
sg75
g1229
sg68
(lp1245
g61
(g62
g63
NtRp1246
(dp1247
g66
(dp1248
g74
I4
ssg75
g1242
sg68
(lp1249
g61
(g70
g63
NtRp1250
(dp1251
g66
(dp1252
g74
I3
ssg75
Nsg68
(lp1253
g61
(g77
g63
NtRp1254
(dp1255
g66
(dp1256
sg75
g1250
sg68
(lp1257
g61
(g82
g63
NtRp1258
(dp1259
g66
(dp1260
sg75
g1254
sg68
(lp1261
g61
(g62
g63
NtRp1262
(dp1263
g66
(dp1264
g74
I3
ssg75
g1258
sg68
(lp1265
S'127.0.0.1'
p1266
asbasbasbag61
(g77
g63
NtRp1267
(dp1268
g66
(dp1269
sg75
g1250
sg68
(lp1270
g61
(g82
g63
NtRp1271
(dp1272
g66
(dp1273
sg75
g1267
sg68
(lp1274
g61
(g62
g63
NtRp1275
(dp1276
g66
(dp1277
g74
I3
ssg75
g1271
sg68
(lp1278
S'::ffff:127.0.0.1'
p1279
asbasbasbag61
(g77
g63
NtRp1280
(dp1281
g66
(dp1282
sg75
g1250
sg68
(lp1283
g61
(g82
g63
NtRp1284
(dp1285
g66
(dp1286
sg75
g1280
sg68
(lp1287
g61
(g62
g63
NtRp1288
(dp1289
g66
(dp1290
g74
I3
ssg75
g1284
sg68
(lp1291
S'ARPITA-PC'
p1292
asbasbasbag61
(g77
g63
NtRp1293
(dp1294
g66
(dp1295
sg75
g1250
sg68
(lp1296
g61
(g82
g63
NtRp1297
(dp1298
g66
(dp1299
sg75
g1293
sg68
(lp1300
g61
(g62
g63
NtRp1301
(dp1302
g66
(dp1303
g74
I3
ssg75
g1297
sg68
(lp1304
S'ARPITA-PC'
p1305
asbasbasbag61
(g77
g63
NtRp1306
(dp1307
g66
(dp1308
sg75
g1250
sg68
(lp1309
g61
(g82
g63
NtRp1310
(dp1311
g66
(dp1312
sg75
g1306
sg68
(lp1313
g61
(g62
g63
NtRp1314
(dp1315
g66
(dp1316
g74
I3
ssg75
g1310
sg68
(lp1317
S'10.1.97.140'
p1318
asbasbasbasbasbasbasbag61
(g77
g63
NtRp1319
(dp1320
g66
(dp1321
sg75
g851
sg68
(lp1322
g61
(g82
g63
NtRp1323
(dp1324
g66
(dp1325
g86
g87
ssg75
g1319
sg68
(lp1326
S'path_info'
p1327
asbag61
(g82
g63
NtRp1328
(dp1329
g66
(dp1330
g93
g94
ssg75
g1319
sg68
(lp1331
S':'
asbag61
(g82
g63
NtRp1332
(dp1333
g66
(dp1334
sg75
g1319
sg68
(lp1335
g61
(g62
g63
NtRp1336
(dp1337
g66
(dp1338
g74
I4
ssg75
g1332
sg68
(lp1339
S'/pro/default/kruskal'
p1340
asbasbasbag61
(g77
g63
NtRp1341
(dp1342
g66
(dp1343
sg75
g851
sg68
(lp1344
g61
(g82
g63
NtRp1345
(dp1346
g66
(dp1347
g86
g87
ssg75
g1341
sg68
(lp1348
S'query_string'
p1349
asbag61
(g82
g63
NtRp1350
(dp1351
g66
(dp1352
g93
g94
ssg75
g1341
sg68
(lp1353
S':'
asbag61
(g82
g63
NtRp1354
(dp1355
g66
(dp1356
sg75
g1341
sg68
(lp1357
g61
(g62
g63
NtRp1358
(dp1359
g66
(dp1360
g74
I4
ssg75
g1354
sg68
(lp1361
S''
asbasbasbag61
(g77
g63
NtRp1362
(dp1363
g66
(dp1364
sg75
g851
sg68
(lp1365
g61
(g82
g63
NtRp1366
(dp1367
g66
(dp1368
g86
g87
ssg75
g1362
sg68
(lp1369
S'remote_addr'
p1370
asbag61
(g82
g63
NtRp1371
(dp1372
g66
(dp1373
g93
g94
ssg75
g1362
sg68
(lp1374
S':'
asbag61
(g82
g63
NtRp1375
(dp1376
g66
(dp1377
sg75
g1362
sg68
(lp1378
g61
(g62
g63
NtRp1379
(dp1380
g66
(dp1381
g74
I4
ssg75
g1375
sg68
(lp1382
g216
asbasbasbag61
(g77
g63
NtRp1383
(dp1384
g66
(dp1385
sg75
g851
sg68
(lp1386
g61
(g82
g63
NtRp1387
(dp1388
g66
(dp1389
g86
g87
ssg75
g1383
sg68
(lp1390
S'remote_port'
p1391
asbag61
(g82
g63
NtRp1392
(dp1393
g66
(dp1394
g93
g94
ssg75
g1383
sg68
(lp1395
S':'
asbag61
(g82
g63
NtRp1396
(dp1397
g66
(dp1398
sg75
g1383
sg68
(lp1399
g61
(g62
g63
NtRp1400
(dp1401
g66
(dp1402
g74
I4
ssg75
g1396
sg68
(lp1403
S'3590'
p1404
asbasbasbag61
(g77
g63
NtRp1405
(dp1406
g66
(dp1407
sg75
g851
sg68
(lp1408
g61
(g82
g63
NtRp1409
(dp1410
g66
(dp1411
g86
g87
ssg75
g1405
sg68
(lp1412
S'request_method'
p1413
asbag61
(g82
g63
NtRp1414
(dp1415
g66
(dp1416
g93
g94
ssg75
g1405
sg68
(lp1417
S':'
asbag61
(g82
g63
NtRp1418
(dp1419
g66
(dp1420
sg75
g1405
sg68
(lp1421
g61
(g62
g63
NtRp1422
(dp1423
g66
(dp1424
g74
I4
ssg75
g1418
sg68
(lp1425
S'GET'
p1426
asbasbasbag61
(g77
g63
NtRp1427
(dp1428
g66
(dp1429
sg75
g851
sg68
(lp1430
g61
(g82
g63
NtRp1431
(dp1432
g66
(dp1433
g86
g87
ssg75
g1427
sg68
(lp1434
S'request_uri'
p1435
asbag61
(g82
g63
NtRp1436
(dp1437
g66
(dp1438
g93
g94
ssg75
g1427
sg68
(lp1439
S':'
asbag61
(g82
g63
NtRp1440
(dp1441
g66
(dp1442
sg75
g1427
sg68
(lp1443
g61
(g62
g63
NtRp1444
(dp1445
g66
(dp1446
g74
I4
ssg75
g1440
sg68
(lp1447
g1340
asbasbasbag61
(g77
g63
NtRp1448
(dp1449
g66
(dp1450
sg75
g851
sg68
(lp1451
g61
(g82
g63
NtRp1452
(dp1453
g66
(dp1454
g86
g87
ssg75
g1448
sg68
(lp1455
S'script_name'
p1456
asbag61
(g82
g63
NtRp1457
(dp1458
g66
(dp1459
g93
g94
ssg75
g1448
sg68
(lp1460
S':'
asbag61
(g82
g63
NtRp1461
(dp1462
g66
(dp1463
sg75
g1448
sg68
(lp1464
g61
(g62
g63
NtRp1465
(dp1466
g66
(dp1467
g74
I4
ssg75
g1461
sg68
(lp1468
S''
asbasbasbag61
(g77
g63
NtRp1469
(dp1470
g66
(dp1471
sg75
g851
sg68
(lp1472
g61
(g82
g63
NtRp1473
(dp1474
g66
(dp1475
g86
g87
ssg75
g1469
sg68
(lp1476
S'server_name'
p1477
asbag61
(g82
g63
NtRp1478
(dp1479
g66
(dp1480
g93
g94
ssg75
g1469
sg68
(lp1481
S':'
asbag61
(g82
g63
NtRp1482
(dp1483
g66
(dp1484
sg75
g1469
sg68
(lp1485
g61
(g62
g63
NtRp1486
(dp1487
g66
(dp1488
g74
I4
ssg75
g1482
sg68
(lp1489
g1305
asbasbasbag61
(g77
g63
NtRp1490
(dp1491
g66
(dp1492
sg75
g851
sg68
(lp1493
g61
(g82
g63
NtRp1494
(dp1495
g66
(dp1496
g86
g87
ssg75
g1490
sg68
(lp1497
S'server_port'
p1498
asbag61
(g82
g63
NtRp1499
(dp1500
g66
(dp1501
g93
g94
ssg75
g1490
sg68
(lp1502
S':'
asbag61
(g82
g63
NtRp1503
(dp1504
g66
(dp1505
sg75
g1490
sg68
(lp1506
g61
(g62
g63
NtRp1507
(dp1508
g66
(dp1509
g74
I4
ssg75
g1503
sg68
(lp1510
S'8000'
p1511
asbasbasbag61
(g77
g63
NtRp1512
(dp1513
g66
(dp1514
sg75
g851
sg68
(lp1515
g61
(g82
g63
NtRp1516
(dp1517
g66
(dp1518
g86
g87
ssg75
g1512
sg68
(lp1519
S'server_protocol'
p1520
asbag61
(g82
g63
NtRp1521
(dp1522
g66
(dp1523
g93
g94
ssg75
g1512
sg68
(lp1524
S':'
asbag61
(g82
g63
NtRp1525
(dp1526
g66
(dp1527
sg75
g1512
sg68
(lp1528
g61
(g62
g63
NtRp1529
(dp1530
g66
(dp1531
g74
I4
ssg75
g1525
sg68
(lp1532
S'HTTP/1.1'
p1533
asbasbasbag61
(g77
g63
NtRp1534
(dp1535
g66
(dp1536
sg75
g851
sg68
(lp1537
g61
(g82
g63
NtRp1538
(dp1539
g66
(dp1540
g86
g87
ssg75
g1534
sg68
(lp1541
S'server_software'
p1542
asbag61
(g82
g63
NtRp1543
(dp1544
g66
(dp1545
g93
g94
ssg75
g1534
sg68
(lp1546
S':'
asbag61
(g82
g63
NtRp1547
(dp1548
g66
(dp1549
sg75
g1534
sg68
(lp1550
g61
(g62
g63
NtRp1551
(dp1552
g66
(dp1553
g74
I4
ssg75
g1547
sg68
(lp1554
S'Rocket 1.2.5'
p1555
asbasbasbag61
(g77
g63
NtRp1556
(dp1557
g66
(dp1558
sg75
g851
sg68
(lp1559
g61
(g82
g63
NtRp1560
(dp1561
g66
(dp1562
g86
g87
ssg75
g1556
sg68
(lp1563
S'web2py_path'
p1564
asbag61
(g82
g63
NtRp1565
(dp1566
g66
(dp1567
g93
g94
ssg75
g1556
sg68
(lp1568
S':'
asbag61
(g82
g63
NtRp1569
(dp1570
g66
(dp1571
sg75
g1556
sg68
(lp1572
g61
(g62
g63
NtRp1573
(dp1574
g66
(dp1575
g74
I4
ssg75
g1569
sg68
(lp1576
g898
asbasbasbag61
(g77
g63
NtRp1577
(dp1578
g66
(dp1579
sg75
g851
sg68
(lp1580
g61
(g82
g63
NtRp1581
(dp1582
g66
(dp1583
g86
g87
ssg75
g1577
sg68
(lp1584
S'web2py_version'
p1585
asbag61
(g82
g63
NtRp1586
(dp1587
g66
(dp1588
g93
g94
ssg75
g1577
sg68
(lp1589
S':'
asbag61
(g82
g63
NtRp1590
(dp1591
g66
(dp1592
sg75
g1577
sg68
(lp1593
g61
(g62
g63
NtRp1594
(dp1595
g66
(dp1596
g74
I4
ssg75
g1590
sg68
(lp1597
g61
(g70
g63
NtRp1598
(dp1599
g66
(dp1600
g74
I3
ssg75
Nsg68
(lp1601
g61
(g77
g63
NtRp1602
(dp1603
g66
(dp1604
sg75
g1598
sg68
(lp1605
g61
(g82
g63
NtRp1606
(dp1607
g66
(dp1608
sg75
g1602
sg68
(lp1609
g61
(g62
g63
NtRp1610
(dp1611
g66
(dp1612
g74
I3
ssg75
g1606
sg68
(lp1613
S'2'
asbasbasbag61
(g77
g63
NtRp1614
(dp1615
g66
(dp1616
sg75
g1598
sg68
(lp1617
g61
(g82
g63
NtRp1618
(dp1619
g66
(dp1620
sg75
g1614
sg68
(lp1621
g61
(g62
g63
NtRp1622
(dp1623
g66
(dp1624
g74
I3
ssg75
g1618
sg68
(lp1625
S'2'
asbasbasbag61
(g77
g63
NtRp1626
(dp1627
g66
(dp1628
sg75
g1598
sg68
(lp1629
g61
(g82
g63
NtRp1630
(dp1631
g66
(dp1632
sg75
g1626
sg68
(lp1633
g61
(g62
g63
NtRp1634
(dp1635
g66
(dp1636
g74
I3
ssg75
g1630
sg68
(lp1637
S'1'
asbasbasbag61
(g77
g63
NtRp1638
(dp1639
g66
(dp1640
sg75
g1598
sg68
(lp1641
g61
(g82
g63
NtRp1642
(dp1643
g66
(dp1644
sg75
g1638
sg68
(lp1645
g61
(g62
g63
NtRp1646
(dp1647
g66
(dp1648
g74
I3
ssg75
g1642
sg68
(lp1649
S'datetime.datetime(2012, 10, 21, 16, 57, 4)'
p1650
asbasbasbag61
(g77
g63
NtRp1651
(dp1652
g66
(dp1653
sg75
g1598
sg68
(lp1654
g61
(g82
g63
NtRp1655
(dp1656
g66
(dp1657
sg75
g1651
sg68
(lp1658
g61
(g62
g63
NtRp1659
(dp1660
g66
(dp1661
g74
I3
ssg75
g1655
sg68
(lp1662
S'stable'
p1663
asbasbasbasbasbasbasbag61
(g77
g63
NtRp1664
(dp1665
g66
(dp1666
sg75
g851
sg68
(lp1667
g61
(g82
g63
NtRp1668
(dp1669
g66
(dp1670
g86
g87
ssg75
g1664
sg68
(lp1671
S'wsgi_errors'
p1672
asbag61
(g82
g63
NtRp1673
(dp1674
g66
(dp1675
g93
g94
ssg75
g1664
sg68
(lp1676
S':'
asbag61
(g82
g63
NtRp1677
(dp1678
g66
(dp1679
sg75
g1664
sg68
(lp1680
g61
(g62
g63
NtRp1681
(dp1682
g66
(dp1683
g74
I4
ssg75
g1677
sg68
(lp1684
S"<open file '<stderr>', mode 'w' at 0x01C250D0>"
p1685
asbasbasbag61
(g77
g63
NtRp1686
(dp1687
g66
(dp1688
sg75
g851
sg68
(lp1689
g61
(g82
g63
NtRp1690
(dp1691
g66
(dp1692
g86
g87
ssg75
g1686
sg68
(lp1693
S'wsgi_file_wrapper'
p1694
asbag61
(g82
g63
NtRp1695
(dp1696
g66
(dp1697
g93
g94
ssg75
g1686
sg68
(lp1698
S':'
asbag61
(g82
g63
NtRp1699
(dp1700
g66
(dp1701
sg75
g1686
sg68
(lp1702
g61
(g62
g63
NtRp1703
(dp1704
g66
(dp1705
g74
I4
ssg75
g1699
sg68
(lp1706
S'<class wsgiref.util.FileWrapper at 0x02A70068>'
p1707
asbasbasbag61
(g77
g63
NtRp1708
(dp1709
g66
(dp1710
sg75
g851
sg68
(lp1711
g61
(g82
g63
NtRp1712
(dp1713
g66
(dp1714
g86
g87
ssg75
g1708
sg68
(lp1715
S'wsgi_input'
p1716
asbag61
(g82
g63
NtRp1717
(dp1718
g66
(dp1719
g93
g94
ssg75
g1708
sg68
(lp1720
S':'
asbag61
(g82
g63
NtRp1721
(dp1722
g66
(dp1723
sg75
g1708
sg68
(lp1724
g61
(g62
g63
NtRp1725
(dp1726
g66
(dp1727
g74
I4
ssg75
g1721
sg68
(lp1728
S'<socket._fileobject object at 0x06BD4AF0>'
p1729
asbasbasbag61
(g77
g63
NtRp1730
(dp1731
g66
(dp1732
sg75
g851
sg68
(lp1733
g61
(g82
g63
NtRp1734
(dp1735
g66
(dp1736
g86
g87
ssg75
g1730
sg68
(lp1737
S'wsgi_multiprocess'
p1738
asbag61
(g82
g63
NtRp1739
(dp1740
g66
(dp1741
g93
g94
ssg75
g1730
sg68
(lp1742
S':'
asbag61
(g82
g63
NtRp1743
(dp1744
g66
(dp1745
sg75
g1730
sg68
(lp1746
g61
(g62
g63
NtRp1747
(dp1748
g66
(dp1749
g74
I4
ssg75
g1743
sg68
(lp1750
g104
asbasbasbag61
(g77
g63
NtRp1751
(dp1752
g66
(dp1753
sg75
g851
sg68
(lp1754
g61
(g82
g63
NtRp1755
(dp1756
g66
(dp1757
g86
g87
ssg75
g1751
sg68
(lp1758
S'wsgi_multithread'
p1759
asbag61
(g82
g63
NtRp1760
(dp1761
g66
(dp1762
g93
g94
ssg75
g1751
sg68
(lp1763
S':'
asbag61
(g82
g63
NtRp1764
(dp1765
g66
(dp1766
sg75
g1751
sg68
(lp1767
g61
(g62
g63
NtRp1768
(dp1769
g66
(dp1770
g74
I4
ssg75
g1764
sg68
(lp1771
S'True'
p1772
asbasbasbag61
(g77
g63
NtRp1773
(dp1774
g66
(dp1775
sg75
g851
sg68
(lp1776
g61
(g82
g63
NtRp1777
(dp1778
g66
(dp1779
g86
g87
ssg75
g1773
sg68
(lp1780
S'wsgi_run_once'
p1781
asbag61
(g82
g63
NtRp1782
(dp1783
g66
(dp1784
g93
g94
ssg75
g1773
sg68
(lp1785
S':'
asbag61
(g82
g63
NtRp1786
(dp1787
g66
(dp1788
sg75
g1773
sg68
(lp1789
g61
(g62
g63
NtRp1790
(dp1791
g66
(dp1792
g74
I4
ssg75
g1786
sg68
(lp1793
g104
asbasbasbag61
(g77
g63
NtRp1794
(dp1795
g66
(dp1796
sg75
g851
sg68
(lp1797
g61
(g82
g63
NtRp1798
(dp1799
g66
(dp1800
g86
g87
ssg75
g1794
sg68
(lp1801
S'wsgi_url_scheme'
p1802
asbag61
(g82
g63
NtRp1803
(dp1804
g66
(dp1805
g93
g94
ssg75
g1794
sg68
(lp1806
S':'
asbag61
(g82
g63
NtRp1807
(dp1808
g66
(dp1809
sg75
g1794
sg68
(lp1810
g61
(g62
g63
NtRp1811
(dp1812
g66
(dp1813
g74
I4
ssg75
g1807
sg68
(lp1814
S'http'
p1815
asbasbasbag61
(g77
g63
NtRp1816
(dp1817
g66
(dp1818
sg75
g851
sg68
(lp1819
g61
(g82
g63
NtRp1820
(dp1821
g66
(dp1822
g86
g87
ssg75
g1816
sg68
(lp1823
S'wsgi_version'
p1824
asbag61
(g82
g63
NtRp1825
(dp1826
g66
(dp1827
g93
g94
ssg75
g1816
sg68
(lp1828
S':'
asbag61
(g82
g63
NtRp1829
(dp1830
g66
(dp1831
sg75
g1816
sg68
(lp1832
g61
(g62
g63
NtRp1833
(dp1834
g66
(dp1835
g74
I4
ssg75
g1829
sg68
(lp1836
g61
(g70
g63
NtRp1837
(dp1838
g66
(dp1839
g74
I3
ssg75
Nsg68
(lp1840
g61
(g77
g63
NtRp1841
(dp1842
g66
(dp1843
sg75
g1837
sg68
(lp1844
g61
(g82
g63
NtRp1845
(dp1846
g66
(dp1847
sg75
g1841
sg68
(lp1848
g61
(g62
g63
NtRp1849
(dp1850
g66
(dp1851
g74
I3
ssg75
g1845
sg68
(lp1852
S'1'
asbasbasbag61
(g77
g63
NtRp1853
(dp1854
g66
(dp1855
sg75
g1837
sg68
(lp1856
g61
(g82
g63
NtRp1857
(dp1858
g66
(dp1859
sg75
g1853
sg68
(lp1860
g61
(g62
g63
NtRp1861
(dp1862
g66
(dp1863
g74
I3
ssg75
g1857
sg68
(lp1864
S'0'
asbasbasbasbasbasbasbasbasbasbasbag61
(g77
g63
NtRp1865
(dp1866
g66
(dp1867
sg75
g71
sg68
(lp1868
g61
(g82
g63
NtRp1869
(dp1870
g66
(dp1871
g86
g87
ssg75
g1865
sg68
(lp1872
S'extension'
p1873
asbag61
(g82
g63
NtRp1874
(dp1875
g66
(dp1876
g93
g94
ssg75
g1865
sg68
(lp1877
S':'
asbag61
(g82
g63
NtRp1878
(dp1879
g66
(dp1880
sg75
g1865
sg68
(lp1881
g61
(g62
g63
NtRp1882
(dp1883
g66
(dp1884
g74
I5
ssg75
g1878
sg68
(lp1885
S'html'
p1886
asbasbasbag61
(g77
g63
NtRp1887
(dp1888
g66
(dp1889
sg75
g71
sg68
(lp1890
g61
(g82
g63
NtRp1891
(dp1892
g66
(dp1893
g86
g87
ssg75
g1887
sg68
(lp1894
S'folder'
p1895
asbag61
(g82
g63
NtRp1896
(dp1897
g66
(dp1898
g93
g94
ssg75
g1887
sg68
(lp1899
S':'
asbag61
(g82
g63
NtRp1900
(dp1901
g66
(dp1902
sg75
g1887
sg68
(lp1903
g61
(g62
g63
NtRp1904
(dp1905
g66
(dp1906
g74
I5
ssg75
g1900
sg68
(lp1907
S'C:\\Users\\ARPITA\\Downloads\\web2py_win\\web2py\\applications\\pro\\'
p1908
asbasbasbag61
(g77
g63
NtRp1909
(dp1910
g66
(dp1911
sg75
g71
sg68
(lp1912
g61
(g82
g63
NtRp1913
(dp1914
g66
(dp1915
g86
g87
ssg75
g1909
sg68
(lp1916
S'function'
p1917
asbag61
(g82
g63
NtRp1918
(dp1919
g66
(dp1920
g93
g94
ssg75
g1909
sg68
(lp1921
S':'
asbag61
(g82
g63
NtRp1922
(dp1923
g66
(dp1924
sg75
g1909
sg68
(lp1925
g61
(g62
g63
NtRp1926
(dp1927
g66
(dp1928
g74
I5
ssg75
g1922
sg68
(lp1929
S'kruskal'
p1930
asbasbasbag61
(g77
g63
NtRp1931
(dp1932
g66
(dp1933
sg75
g71
sg68
(lp1934
g61
(g82
g63
NtRp1935
(dp1936
g66
(dp1937
g86
g87
ssg75
g1931
sg68
(lp1938
S'get_vars'
p1939
asbag61
(g82
g63
NtRp1940
(dp1941
g66
(dp1942
g93
g94
ssg75
g1931
sg68
(lp1943
S':'
asbag61
(g82
g63
NtRp1944
(dp1945
g66
(dp1946
sg75
g1931
sg68
(lp1947
g61
(g62
g63
NtRp1948
(dp1949
g66
(dp1950
g74
I5
ssg75
g1944
sg68
(lp1951
g61
(g70
g63
NtRp1952
(dp1953
g66
(dp1954
g74
I4
ssg75
Nsg68
(lp1955
sbasbasbasbag61
(g77
g63
NtRp1956
(dp1957
g66
(dp1958
sg75
g71
sg68
(lp1959
g61
(g82
g63
NtRp1960
(dp1961
g66
(dp1962
g86
g87
ssg75
g1956
sg68
(lp1963
S'global_settings'
p1964
asbag61
(g82
g63
NtRp1965
(dp1966
g66
(dp1967
g93
g94
ssg75
g1956
sg68
(lp1968
S':'
asbag61
(g82
g63
NtRp1969
(dp1970
g66
(dp1971
sg75
g1956
sg68
(lp1972
g61
(g62
g63
NtRp1973
(dp1974
g66
(dp1975
g74
I5
ssg75
g1969
sg68
(lp1976
g61
(g70
g63
NtRp1977
(dp1978
g66
(dp1979
g74
I4
ssg75
Nsg68
(lp1980
g61
(g77
g63
NtRp1981
(dp1982
g66
(dp1983
sg75
g1977
sg68
(lp1984
g61
(g82
g63
NtRp1985
(dp1986
g66
(dp1987
g86
g87
ssg75
g1981
sg68
(lp1988
g863
asbag61
(g82
g63
NtRp1989
(dp1990
g66
(dp1991
g93
g94
ssg75
g1981
sg68
(lp1992
S':'
asbag61
(g82
g63
NtRp1993
(dp1994
g66
(dp1995
sg75
g1981
sg68
(lp1996
g61
(g62
g63
NtRp1997
(dp1998
g66
(dp1999
g74
I4
ssg75
g1993
sg68
(lp2000
S"set(['C:\\\\Users\\\\ARPITA\\\\Downloads\\\\web2py_win\\\\web2py\\\\applications\\\\welcome\\\\', 'C:\\\\Users\\\\ARPITA\\\\Downloads\\\\web2py_win\\\\web2py\\\\applications\\\\admin\\\\', 'C:\\\\Users\\\\ARPITA\\\\Downloads\\\\web2py_win\\\\web2py\\\\applications\\\\pro\\\\'])"
p2001
asbasbasbag61
(g77
g63
NtRp2002
(dp2003
g66
(dp2004
sg75
g1977
sg68
(lp2005
g61
(g82
g63
NtRp2006
(dp2007
g66
(dp2008
g86
g87
ssg75
g2002
sg68
(lp2009
g885
asbag61
(g82
g63
NtRp2010
(dp2011
g66
(dp2012
g93
g94
ssg75
g2002
sg68
(lp2013
S':'
asbag61
(g82
g63
NtRp2014
(dp2015
g66
(dp2016
sg75
g2002
sg68
(lp2017
g61
(g62
g63
NtRp2018
(dp2019
g66
(dp2020
g74
I4
ssg75
g2014
sg68
(lp2021
g898
asbasbasbag61
(g77
g63
NtRp2022
(dp2023
g66
(dp2024
sg75
g1977
sg68
(lp2025
g61
(g82
g63
NtRp2026
(dp2027
g66
(dp2028
g86
g87
ssg75
g2022
sg68
(lp2029
g907
asbag61
(g82
g63
NtRp2030
(dp2031
g66
(dp2032
g93
g94
ssg75
g2022
sg68
(lp2033
S':'
asbag61
(g82
g63
NtRp2034
(dp2035
g66
(dp2036
sg75
g2022
sg68
(lp2037
g61
(g62
g63
NtRp2038
(dp2039
g66
(dp2040
g74
I4
ssg75
g2034
sg68
(lp2041
g61
(g70
g63
NtRp2042
(dp2043
g66
(dp2044
g74
I3
ssg75
Nsg68
(lp2045
sbasbasbasbag61
(g77
g63
NtRp2046
(dp2047
g66
(dp2048
sg75
g1977
sg68
(lp2049
g61
(g82
g63
NtRp2050
(dp2051
g66
(dp2052
g86
g87
ssg75
g2046
sg68
(lp2053
g932
asbag61
(g82
g63
NtRp2054
(dp2055
g66
(dp2056
g93
g94
ssg75
g2046
sg68
(lp2057
S':'
asbag61
(g82
g63
NtRp2058
(dp2059
g66
(dp2060
sg75
g2046
sg68
(lp2061
g61
(g62
g63
NtRp2062
(dp2063
g66
(dp2064
g74
I4
ssg75
g2058
sg68
(lp2065
S"<Values at 0x2b3b7d8: {'verbose': False, 'ip': '127.0.0.1', 'with_scheduler': False, 'ips': [], 'shutdown_timeout': 5, 'taskbar': False, 'port': 8000, 'maxthreads': None, 'softcron': False, 'server_name': 'ARPITA-PC', 'bpython': False, 'nogui': False, 'pid_filename': 'httpserver.pid', 'extcron': False, 'runcron': False, 'run_system_tests': False, 'test': None, 'folder': 'C:\\\\Users\\\\ARPITA\\\\Downloads\\\\web2py_win\\\\web2py', 'config': '', 'import_models': False, 'winservice': '', 'shell': None, 'run': '', 'log_filename': 'httpserver.log', 'debuglevel': 30, 'args': [''], 'socket_timeout': 5, 'ssl_ca_certificate': None, 'scheduler': None, 'profiler_filename': None, 'ssl_private_key': '', 'scheduler_groups': None, 'password': '<ask>', 'request_queue_size': 5, 'ssl_certificate': '', 'cronjob': False, 'numthreads': None, 'quiet': False, 'interfaces': None, 'minthreads': None, 'timeout': 10, 'plain': False, 'nobanner': False}>"
p2066
asbasbasbag61
(g77
g63
NtRp2067
(dp2068
g66
(dp2069
sg75
g1977
sg68
(lp2070
g61
(g82
g63
NtRp2071
(dp2072
g66
(dp2073
g86
g87
ssg75
g2067
sg68
(lp2074
g954
asbag61
(g82
g63
NtRp2075
(dp2076
g66
(dp2077
g93
g94
ssg75
g2067
sg68
(lp2078
S':'
asbag61
(g82
g63
NtRp2079
(dp2080
g66
(dp2081
sg75
g2067
sg68
(lp2082
g61
(g62
g63
NtRp2083
(dp2084
g66
(dp2085
g74
I4
ssg75
g2079
sg68
(lp2086
S'set([])'
p2087
asbasbasbag61
(g77
g63
NtRp2088
(dp2089
g66
(dp2090
sg75
g1977
sg68
(lp2091
g61
(g82
g63
NtRp2092
(dp2093
g66
(dp2094
g86
g87
ssg75
g2088
sg68
(lp2095
g976
asbag61
(g82
g63
NtRp2096
(dp2097
g66
(dp2098
g93
g94
ssg75
g2088
sg68
(lp2099
S':'
asbag61
(g82
g63
NtRp2100
(dp2101
g66
(dp2102
sg75
g2088
sg68
(lp2103
g61
(g62
g63
NtRp2104
(dp2105
g66
(dp2106
g74
I4
ssg75
g2100
sg68
(lp2107
g104
asbasbasbag61
(g77
g63
NtRp2108
(dp2109
g66
(dp2110
sg75
g1977
sg68
(lp2111
g61
(g82
g63
NtRp2112
(dp2113
g66
(dp2114
g86
g87
ssg75
g2108
sg68
(lp2115
g997
asbag61
(g82
g63
NtRp2116
(dp2117
g66
(dp2118
g93
g94
ssg75
g2108
sg68
(lp2119
S':'
asbag61
(g82
g63
NtRp2120
(dp2121
g66
(dp2122
sg75
g2108
sg68
(lp2123
g61
(g62
g63
NtRp2124
(dp2125
g66
(dp2126
g74
I4
ssg75
g2120
sg68
(lp2127
g1010
asbasbasbag61
(g77
g63
NtRp2128
(dp2129
g66
(dp2130
sg75
g1977
sg68
(lp2131
g61
(g82
g63
NtRp2132
(dp2133
g66
(dp2134
g86
g87
ssg75
g2128
sg68
(lp2135
g1195
asbag61
(g82
g63
NtRp2136
(dp2137
g66
(dp2138
g93
g94
ssg75
g2128
sg68
(lp2139
S':'
asbag61
(g82
g63
NtRp2140
(dp2141
g66
(dp2142
sg75
g2128
sg68
(lp2143
g61
(g62
g63
NtRp2144
(dp2145
g66
(dp2146
g74
I4
ssg75
g2140
sg68
(lp2147
g104
asbasbasbag61
(g77
g63
NtRp2148
(dp2149
g66
(dp2150
sg75
g1977
sg68
(lp2151
g61
(g82
g63
NtRp2152
(dp2153
g66
(dp2154
g86
g87
ssg75
g2148
sg68
(lp2155
g1216
asbag61
(g82
g63
NtRp2156
(dp2157
g66
(dp2158
g93
g94
ssg75
g2148
sg68
(lp2159
S':'
asbag61
(g82
g63
NtRp2160
(dp2161
g66
(dp2162
sg75
g2148
sg68
(lp2163
g61
(g62
g63
NtRp2164
(dp2165
g66
(dp2166
g74
I4
ssg75
g2160
sg68
(lp2167
g104
asbasbasbag61
(g77
g63
NtRp2168
(dp2169
g66
(dp2170
sg75
g1977
sg68
(lp2171
g61
(g82
g63
NtRp2172
(dp2173
g66
(dp2174
g86
g87
ssg75
g2168
sg68
(lp2175
g1237
asbag61
(g82
g63
NtRp2176
(dp2177
g66
(dp2178
g93
g94
ssg75
g2168
sg68
(lp2179
S':'
asbag61
(g82
g63
NtRp2180
(dp2181
g66
(dp2182
sg75
g2168
sg68
(lp2183
g61
(g62
g63
NtRp2184
(dp2185
g66
(dp2186
g74
I4
ssg75
g2180
sg68
(lp2187
g61
(g70
g63
NtRp2188
(dp2189
g66
(dp2190
g74
I3
ssg75
Nsg68
(lp2191
g61
(g77
g63
NtRp2192
(dp2193
g66
(dp2194
sg75
g2188
sg68
(lp2195
g61
(g82
g63
NtRp2196
(dp2197
g66
(dp2198
sg75
g2192
sg68
(lp2199
g61
(g62
g63
NtRp2200
(dp2201
g66
(dp2202
g74
I3
ssg75
g2196
sg68
(lp2203
g1266
asbasbasbag61
(g77
g63
NtRp2204
(dp2205
g66
(dp2206
sg75
g2188
sg68
(lp2207
g61
(g82
g63
NtRp2208
(dp2209
g66
(dp2210
sg75
g2204
sg68
(lp2211
g61
(g62
g63
NtRp2212
(dp2213
g66
(dp2214
g74
I3
ssg75
g2208
sg68
(lp2215
g1279
asbasbasbag61
(g77
g63
NtRp2216
(dp2217
g66
(dp2218
sg75
g2188
sg68
(lp2219
g61
(g82
g63
NtRp2220
(dp2221
g66
(dp2222
sg75
g2216
sg68
(lp2223
g61
(g62
g63
NtRp2224
(dp2225
g66
(dp2226
g74
I3
ssg75
g2220
sg68
(lp2227
g1292
asbasbasbag61
(g77
g63
NtRp2228
(dp2229
g66
(dp2230
sg75
g2188
sg68
(lp2231
g61
(g82
g63
NtRp2232
(dp2233
g66
(dp2234
sg75
g2228
sg68
(lp2235
g61
(g62
g63
NtRp2236
(dp2237
g66
(dp2238
g74
I3
ssg75
g2232
sg68
(lp2239
g1305
asbasbasbag61
(g77
g63
NtRp2240
(dp2241
g66
(dp2242
sg75
g2188
sg68
(lp2243
g61
(g82
g63
NtRp2244
(dp2245
g66
(dp2246
sg75
g2240
sg68
(lp2247
g61
(g62
g63
NtRp2248
(dp2249
g66
(dp2250
g74
I3
ssg75
g2244
sg68
(lp2251
g1318
asbasbasbasbasbasbasbag61
(g77
g63
NtRp2252
(dp2253
g66
(dp2254
sg75
g1977
sg68
(lp2255
g61
(g82
g63
NtRp2256
(dp2257
g66
(dp2258
g86
g87
ssg75
g2252
sg68
(lp2259
g1585
asbag61
(g82
g63
NtRp2260
(dp2261
g66
(dp2262
g93
g94
ssg75
g2252
sg68
(lp2263
S':'
asbag61
(g82
g63
NtRp2264
(dp2265
g66
(dp2266
sg75
g2252
sg68
(lp2267
g61
(g62
g63
NtRp2268
(dp2269
g66
(dp2270
g74
I4
ssg75
g2264
sg68
(lp2271
g61
(g70
g63
NtRp2272
(dp2273
g66
(dp2274
g74
I3
ssg75
Nsg68
(lp2275
g61
(g77
g63
NtRp2276
(dp2277
g66
(dp2278
sg75
g2272
sg68
(lp2279
g61
(g82
g63
NtRp2280
(dp2281
g66
(dp2282
sg75
g2276
sg68
(lp2283
g61
(g62
g63
NtRp2284
(dp2285
g66
(dp2286
g74
I3
ssg75
g2280
sg68
(lp2287
S'2'
asbasbasbag61
(g77
g63
NtRp2288
(dp2289
g66
(dp2290
sg75
g2272
sg68
(lp2291
g61
(g82
g63
NtRp2292
(dp2293
g66
(dp2294
sg75
g2288
sg68
(lp2295
g61
(g62
g63
NtRp2296
(dp2297
g66
(dp2298
g74
I3
ssg75
g2292
sg68
(lp2299
S'2'
asbasbasbag61
(g77
g63
NtRp2300
(dp2301
g66
(dp2302
sg75
g2272
sg68
(lp2303
g61
(g82
g63
NtRp2304
(dp2305
g66
(dp2306
sg75
g2300
sg68
(lp2307
g61
(g62
g63
NtRp2308
(dp2309
g66
(dp2310
g74
I3
ssg75
g2304
sg68
(lp2311
S'1'
asbasbasbag61
(g77
g63
NtRp2312
(dp2313
g66
(dp2314
sg75
g2272
sg68
(lp2315
g61
(g82
g63
NtRp2316
(dp2317
g66
(dp2318
sg75
g2312
sg68
(lp2319
g61
(g62
g63
NtRp2320
(dp2321
g66
(dp2322
g74
I3
ssg75
g2316
sg68
(lp2323
S'datetime.datetime(2012, 10, 21, 16, 57, 4)'
p2324
asbasbasbag61
(g77
g63
NtRp2325
(dp2326
g66
(dp2327
sg75
g2272
sg68
(lp2328
g61
(g82
g63
NtRp2329
(dp2330
g66
(dp2331
sg75
g2325
sg68
(lp2332
g61
(g62
g63
NtRp2333
(dp2334
g66
(dp2335
g74
I3
ssg75
g2329
sg68
(lp2336
g1663
asbasbasbasbasbasbasbasbasbasbasbag61
(g77
g63
NtRp2337
(dp2338
g66
(dp2339
sg75
g71
sg68
(lp2340
g61
(g82
g63
NtRp2341
(dp2342
g66
(dp2343
g86
g87
ssg75
g2337
sg68
(lp2344
S'is_https'
p2345
asbag61
(g82
g63
NtRp2346
(dp2347
g66
(dp2348
g93
g94
ssg75
g2337
sg68
(lp2349
S':'
asbag61
(g82
g63
NtRp2350
(dp2351
g66
(dp2352
sg75
g2337
sg68
(lp2353
g61
(g62
g63
NtRp2354
(dp2355
g66
(dp2356
g74
I5
ssg75
g2350
sg68
(lp2357
g104
asbasbasbag61
(g77
g63
NtRp2358
(dp2359
g66
(dp2360
sg75
g71
sg68
(lp2361
g61
(g82
g63
NtRp2362
(dp2363
g66
(dp2364
g86
g87
ssg75
g2358
sg68
(lp2365
S'is_local'
p2366
asbag61
(g82
g63
NtRp2367
(dp2368
g66
(dp2369
g93
g94
ssg75
g2358
sg68
(lp2370
S':'
asbag61
(g82
g63
NtRp2371
(dp2372
g66
(dp2373
sg75
g2358
sg68
(lp2374
g61
(g62
g63
NtRp2375
(dp2376
g66
(dp2377
g74
I5
ssg75
g2371
sg68
(lp2378
g1772
asbasbasbag61
(g77
g63
NtRp2379
(dp2380
g66
(dp2381
sg75
g71
sg68
(lp2382
g61
(g82
g63
NtRp2383
(dp2384
g66
(dp2385
g86
g87
ssg75
g2379
sg68
(lp2386
S'is_restful'
p2387
asbag61
(g82
g63
NtRp2388
(dp2389
g66
(dp2390
g93
g94
ssg75
g2379
sg68
(lp2391
S':'
asbag61
(g82
g63
NtRp2392
(dp2393
g66
(dp2394
sg75
g2379
sg68
(lp2395
g61
(g62
g63
NtRp2396
(dp2397
g66
(dp2398
g74
I5
ssg75
g2392
sg68
(lp2399
g104
asbasbasbag61
(g77
g63
NtRp2400
(dp2401
g66
(dp2402
sg75
g71
sg68
(lp2403
g61
(g82
g63
NtRp2404
(dp2405
g66
(dp2406
g86
g87
ssg75
g2400
sg68
(lp2407
S'now'
p2408
asbag61
(g82
g63
NtRp2409
(dp2410
g66
(dp2411
g93
g94
ssg75
g2400
sg68
(lp2412
S':'
asbag61
(g82
g63
NtRp2413
(dp2414
g66
(dp2415
sg75
g2400
sg68
(lp2416
g61
(g62
g63
NtRp2417
(dp2418
g66
(dp2419
g74
I5
ssg75
g2413
sg68
(lp2420
S'datetime.datetime(2012, 11, 13, 9, 11, 36, 733000)'
p2421
asbasbasbag61
(g77
g63
NtRp2422
(dp2423
g66
(dp2424
sg75
g71
sg68
(lp2425
g61
(g82
g63
NtRp2426
(dp2427
g66
(dp2428
g86
g87
ssg75
g2422
sg68
(lp2429
S'post_vars'
p2430
asbag61
(g82
g63
NtRp2431
(dp2432
g66
(dp2433
g93
g94
ssg75
g2422
sg68
(lp2434
S':'
asbag61
(g82
g63
NtRp2435
(dp2436
g66
(dp2437
sg75
g2422
sg68
(lp2438
g61
(g62
g63
NtRp2439
(dp2440
g66
(dp2441
g74
I5
ssg75
g2435
sg68
(lp2442
g61
(g70
g63
NtRp2443
(dp2444
g66
(dp2445
g74
I4
ssg75
Nsg68
(lp2446
sbasbasbasbag61
(g77
g63
NtRp2447
(dp2448
g66
(dp2449
sg75
g71
sg68
(lp2450
g61
(g82
g63
NtRp2451
(dp2452
g66
(dp2453
g86
g87
ssg75
g2447
sg68
(lp2454
S'raw_args'
p2455
asbag61
(g82
g63
NtRp2456
(dp2457
g66
(dp2458
g93
g94
ssg75
g2447
sg68
(lp2459
S':'
asbag61
(g82
g63
NtRp2460
(dp2461
g66
(dp2462
sg75
g2447
sg68
(lp2463
g61
(g62
g63
NtRp2464
(dp2465
g66
(dp2466
g74
I5
ssg75
g2460
sg68
(lp2467
S''
asbasbasbag61
(g77
g63
NtRp2468
(dp2469
g66
(dp2470
sg75
g71
sg68
(lp2471
g61
(g82
g63
NtRp2472
(dp2473
g66
(dp2474
g86
g87
ssg75
g2468
sg68
(lp2475
S'raw_extension'
p2476
asbag61
(g82
g63
NtRp2477
(dp2478
g66
(dp2479
g93
g94
ssg75
g2468
sg68
(lp2480
S':'
asbag61
(g82
g63
NtRp2481
(dp2482
g66
(dp2483
sg75
g2468
sg68
(lp2484
g61
(g62
g63
NtRp2485
(dp2486
g66
(dp2487
g74
I5
ssg75
g2481
sg68
(lp2488
S'None'
p2489
asbasbasbag61
(g77
g63
NtRp2490
(dp2491
g66
(dp2492
sg75
g71
sg68
(lp2493
g61
(g82
g63
NtRp2494
(dp2495
g66
(dp2496
g86
g87
ssg75
g2490
sg68
(lp2497
S'url'
p2498
asbag61
(g82
g63
NtRp2499
(dp2500
g66
(dp2501
g93
g94
ssg75
g2490
sg68
(lp2502
S':'
asbag61
(g82
g63
NtRp2503
(dp2504
g66
(dp2505
sg75
g2490
sg68
(lp2506
g61
(g62
g63
NtRp2507
(dp2508
g66
(dp2509
g74
I5
ssg75
g2503
sg68
(lp2510
g1340
asbasbasbag61
(g77
g63
NtRp2511
(dp2512
g66
(dp2513
sg75
g71
sg68
(lp2514
g61
(g82
g63
NtRp2515
(dp2516
g66
(dp2517
g86
g87
ssg75
g2511
sg68
(lp2518
S'utcnow'
p2519
asbag61
(g82
g63
NtRp2520
(dp2521
g66
(dp2522
g93
g94
ssg75
g2511
sg68
(lp2523
S':'
asbag61
(g82
g63
NtRp2524
(dp2525
g66
(dp2526
sg75
g2511
sg68
(lp2527
g61
(g62
g63
NtRp2528
(dp2529
g66
(dp2530
g74
I5
ssg75
g2524
sg68
(lp2531
S'datetime.datetime(2012, 11, 13, 3, 41, 36, 733000)'
p2532
asbasbasbag61
(g77
g63
NtRp2533
(dp2534
g66
(dp2535
sg75
g71
sg68
(lp2536
g61
(g82
g63
NtRp2537
(dp2538
g66
(dp2539
g86
g87
ssg75
g2533
sg68
(lp2540
S'uuid'
p2541
asbag61
(g82
g63
NtRp2542
(dp2543
g66
(dp2544
g93
g94
ssg75
g2533
sg68
(lp2545
S':'
asbag61
(g82
g63
NtRp2546
(dp2547
g66
(dp2548
sg75
g2533
sg68
(lp2549
g61
(g62
g63
NtRp2550
(dp2551
g66
(dp2552
g74
I5
ssg75
g2546
sg68
(lp2553
S'pro/127.0.0.1.2012-11-13.09-11-36.fd90607c-9e19-4304-993e-ffb3f07b39b2'
p2554
asbasbasbag61
(g77
g63
NtRp2555
(dp2556
g66
(dp2557
sg75
g71
sg68
(lp2558
g61
(g82
g63
NtRp2559
(dp2560
g66
(dp2561
g86
g87
ssg75
g2555
sg68
(lp2562
S'vars'
p2563
asbag61
(g82
g63
NtRp2564
(dp2565
g66
(dp2566
g93
g94
ssg75
g2555
sg68
(lp2567
S':'
asbag61
(g82
g63
NtRp2568
(dp2569
g66
(dp2570
sg75
g2555
sg68
(lp2571
g61
(g62
g63
NtRp2572
(dp2573
g66
(dp2574
g74
I5
ssg75
g2568
sg68
(lp2575
g61
(g70
g63
NtRp2576
(dp2577
g66
(dp2578
g74
I4
ssg75
Nsg68
(lp2579
sbasbasbasbag61
(g77
g63
NtRp2580
(dp2581
g66
(dp2582
sg75
g71
sg68
(lp2583
g61
(g82
g63
NtRp2584
(dp2585
g66
(dp2586
g86
g87
ssg75
g2580
sg68
(lp2587
S'wsgi'
p2588
asbag61
(g82
g63
NtRp2589
(dp2590
g66
(dp2591
g93
g94
ssg75
g2580
sg68
(lp2592
S':'
asbag61
(g82
g63
NtRp2593
(dp2594
g66
(dp2595
sg75
g2580
sg68
(lp2596
g61
(g62
g63
NtRp2597
(dp2598
g66
(dp2599
g74
I5
ssg75
g2593
sg68
(lp2600
g61
(g70
g63
NtRp2601
(dp2602
g66
(dp2603
g74
I4
ssg75
Nsg68
(lp2604
g61
(g77
g63
NtRp2605
(dp2606
g66
(dp2607
sg75
g2601
sg68
(lp2608
g61
(g82
g63
NtRp2609
(dp2610
g66
(dp2611
g86
g87
ssg75
g2605
sg68
(lp2612
S'environ'
p2613
asbag61
(g82
g63
NtRp2614
(dp2615
g66
(dp2616
g93
g94
ssg75
g2605
sg68
(lp2617
S':'
asbag61
(g82
g63
NtRp2618
(dp2619
g66
(dp2620
sg75
g2605
sg68
(lp2621
g61
(g62
g63
NtRp2622
(dp2623
g66
(dp2624
g74
I4
ssg75
g2618
sg68
(lp2625
g61
(g70
g63
NtRp2626
(dp2627
g66
(dp2628
g74
I3
ssg75
Nsg68
(lp2629
g61
(g77
g63
NtRp2630
(dp2631
g66
(dp2632
sg75
g2626
sg68
(lp2633
g61
(g82
g63
NtRp2634
(dp2635
g66
(dp2636
g86
g87
ssg75
g2630
sg68
(lp2637
S'HTTP_ACCEPT'
p2638
asbag61
(g82
g63
NtRp2639
(dp2640
g66
(dp2641
g93
g94
ssg75
g2630
sg68
(lp2642
S':'
asbag61
(g82
g63
NtRp2643
(dp2644
g66
(dp2645
sg75
g2630
sg68
(lp2646
g61
(g62
g63
NtRp2647
(dp2648
g66
(dp2649
g74
I3
ssg75
g2643
sg68
(lp2650
g1032
asbasbasbag61
(g77
g63
NtRp2651
(dp2652
g66
(dp2653
sg75
g2626
sg68
(lp2654
g61
(g82
g63
NtRp2655
(dp2656
g66
(dp2657
g86
g87
ssg75
g2651
sg68
(lp2658
S'HTTP_ACCEPT_ENCODING'
p2659
asbag61
(g82
g63
NtRp2660
(dp2661
g66
(dp2662
g93
g94
ssg75
g2651
sg68
(lp2663
S':'
asbag61
(g82
g63
NtRp2664
(dp2665
g66
(dp2666
sg75
g2651
sg68
(lp2667
g61
(g62
g63
NtRp2668
(dp2669
g66
(dp2670
g74
I3
ssg75
g2664
sg68
(lp2671
g1054
asbasbasbag61
(g77
g63
NtRp2672
(dp2673
g66
(dp2674
sg75
g2626
sg68
(lp2675
g61
(g82
g63
NtRp2676
(dp2677
g66
(dp2678
g86
g87
ssg75
g2672
sg68
(lp2679
S'HTTP_ACCEPT_LANGUAGE'
p2680
asbag61
(g82
g63
NtRp2681
(dp2682
g66
(dp2683
g93
g94
ssg75
g2672
sg68
(lp2684
S':'
asbag61
(g82
g63
NtRp2685
(dp2686
g66
(dp2687
sg75
g2672
sg68
(lp2688
g61
(g62
g63
NtRp2689
(dp2690
g66
(dp2691
g74
I3
ssg75
g2685
sg68
(lp2692
g1076
asbasbasbag61
(g77
g63
NtRp2693
(dp2694
g66
(dp2695
sg75
g2626
sg68
(lp2696
g61
(g82
g63
NtRp2697
(dp2698
g66
(dp2699
g86
g87
ssg75
g2693
sg68
(lp2700
S'HTTP_CONNECTION'
p2701
asbag61
(g82
g63
NtRp2702
(dp2703
g66
(dp2704
g93
g94
ssg75
g2693
sg68
(lp2705
S':'
asbag61
(g82
g63
NtRp2706
(dp2707
g66
(dp2708
sg75
g2693
sg68
(lp2709
g61
(g62
g63
NtRp2710
(dp2711
g66
(dp2712
g74
I3
ssg75
g2706
sg68
(lp2713
g1098
asbasbasbag61
(g77
g63
NtRp2714
(dp2715
g66
(dp2716
sg75
g2626
sg68
(lp2717
g61
(g82
g63
NtRp2718
(dp2719
g66
(dp2720
g86
g87
ssg75
g2714
sg68
(lp2721
S'HTTP_COOKIE'
p2722
asbag61
(g82
g63
NtRp2723
(dp2724
g66
(dp2725
g93
g94
ssg75
g2714
sg68
(lp2726
S':'
asbag61
(g82
g63
NtRp2727
(dp2728
g66
(dp2729
sg75
g2714
sg68
(lp2730
g61
(g62
g63
NtRp2731
(dp2732
g66
(dp2733
g74
I3
ssg75
g2727
sg68
(lp2734
g1120
asbasbasbag61
(g77
g63
NtRp2735
(dp2736
g66
(dp2737
sg75
g2626
sg68
(lp2738
g61
(g82
g63
NtRp2739
(dp2740
g66
(dp2741
g86
g87
ssg75
g2735
sg68
(lp2742
S'HTTP_HOST'
p2743
asbag61
(g82
g63
NtRp2744
(dp2745
g66
(dp2746
g93
g94
ssg75
g2735
sg68
(lp2747
S':'
asbag61
(g82
g63
NtRp2748
(dp2749
g66
(dp2750
sg75
g2735
sg68
(lp2751
g61
(g62
g63
NtRp2752
(dp2753
g66
(dp2754
g74
I3
ssg75
g2748
sg68
(lp2755
g1142
asbasbasbag61
(g77
g63
NtRp2756
(dp2757
g66
(dp2758
sg75
g2626
sg68
(lp2759
g61
(g82
g63
NtRp2760
(dp2761
g66
(dp2762
g86
g87
ssg75
g2756
sg68
(lp2763
S'HTTP_REFERER'
p2764
asbag61
(g82
g63
NtRp2765
(dp2766
g66
(dp2767
g93
g94
ssg75
g2756
sg68
(lp2768
S':'
asbag61
(g82
g63
NtRp2769
(dp2770
g66
(dp2771
sg75
g2756
sg68
(lp2772
g61
(g62
g63
NtRp2773
(dp2774
g66
(dp2775
g74
I3
ssg75
g2769
sg68
(lp2776
g1164
asbasbasbag61
(g77
g63
NtRp2777
(dp2778
g66
(dp2779
sg75
g2626
sg68
(lp2780
g61
(g82
g63
NtRp2781
(dp2782
g66
(dp2783
g86
g87
ssg75
g2777
sg68
(lp2784
S'HTTP_USER_AGENT'
p2785
asbag61
(g82
g63
NtRp2786
(dp2787
g66
(dp2788
g93
g94
ssg75
g2777
sg68
(lp2789
S':'
asbag61
(g82
g63
NtRp2790
(dp2791
g66
(dp2792
sg75
g2777
sg68
(lp2793
g61
(g62
g63
NtRp2794
(dp2795
g66
(dp2796
g74
I3
ssg75
g2790
sg68
(lp2797
g1186
asbasbasbag61
(g77
g63
NtRp2798
(dp2799
g66
(dp2800
sg75
g2626
sg68
(lp2801
g61
(g82
g63
NtRp2802
(dp2803
g66
(dp2804
g86
g87
ssg75
g2798
sg68
(lp2805
S'PATH_INFO'
p2806
asbag61
(g82
g63
NtRp2807
(dp2808
g66
(dp2809
g93
g94
ssg75
g2798
sg68
(lp2810
S':'
asbag61
(g82
g63
NtRp2811
(dp2812
g66
(dp2813
sg75
g2798
sg68
(lp2814
g61
(g62
g63
NtRp2815
(dp2816
g66
(dp2817
g74
I3
ssg75
g2811
sg68
(lp2818
g1340
asbasbasbag61
(g77
g63
NtRp2819
(dp2820
g66
(dp2821
sg75
g2626
sg68
(lp2822
g61
(g82
g63
NtRp2823
(dp2824
g66
(dp2825
g86
g87
ssg75
g2819
sg68
(lp2826
S'QUERY_STRING'
p2827
asbag61
(g82
g63
NtRp2828
(dp2829
g66
(dp2830
g93
g94
ssg75
g2819
sg68
(lp2831
S':'
asbag61
(g82
g63
NtRp2832
(dp2833
g66
(dp2834
sg75
g2819
sg68
(lp2835
g61
(g62
g63
NtRp2836
(dp2837
g66
(dp2838
g74
I3
ssg75
g2832
sg68
(lp2839
S''
asbasbasbag61
(g77
g63
NtRp2840
(dp2841
g66
(dp2842
sg75
g2626
sg68
(lp2843
g61
(g82
g63
NtRp2844
(dp2845
g66
(dp2846
g86
g87
ssg75
g2840
sg68
(lp2847
S'REMOTE_ADDR'
p2848
asbag61
(g82
g63
NtRp2849
(dp2850
g66
(dp2851
g93
g94
ssg75
g2840
sg68
(lp2852
S':'
asbag61
(g82
g63
NtRp2853
(dp2854
g66
(dp2855
sg75
g2840
sg68
(lp2856
g61
(g62
g63
NtRp2857
(dp2858
g66
(dp2859
g74
I3
ssg75
g2853
sg68
(lp2860
g216
asbasbasbag61
(g77
g63
NtRp2861
(dp2862
g66
(dp2863
sg75
g2626
sg68
(lp2864
g61
(g82
g63
NtRp2865
(dp2866
g66
(dp2867
g86
g87
ssg75
g2861
sg68
(lp2868
S'REMOTE_PORT'
p2869
asbag61
(g82
g63
NtRp2870
(dp2871
g66
(dp2872
g93
g94
ssg75
g2861
sg68
(lp2873
S':'
asbag61
(g82
g63
NtRp2874
(dp2875
g66
(dp2876
sg75
g2861
sg68
(lp2877
g61
(g62
g63
NtRp2878
(dp2879
g66
(dp2880
g74
I3
ssg75
g2874
sg68
(lp2881
g1404
asbasbasbag61
(g77
g63
NtRp2882
(dp2883
g66
(dp2884
sg75
g2626
sg68
(lp2885
g61
(g82
g63
NtRp2886
(dp2887
g66
(dp2888
g86
g87
ssg75
g2882
sg68
(lp2889
S'REQUEST_METHOD'
p2890
asbag61
(g82
g63
NtRp2891
(dp2892
g66
(dp2893
g93
g94
ssg75
g2882
sg68
(lp2894
S':'
asbag61
(g82
g63
NtRp2895
(dp2896
g66
(dp2897
sg75
g2882
sg68
(lp2898
g61
(g62
g63
NtRp2899
(dp2900
g66
(dp2901
g74
I3
ssg75
g2895
sg68
(lp2902
g1426
asbasbasbag61
(g77
g63
NtRp2903
(dp2904
g66
(dp2905
sg75
g2626
sg68
(lp2906
g61
(g82
g63
NtRp2907
(dp2908
g66
(dp2909
g86
g87
ssg75
g2903
sg68
(lp2910
S'REQUEST_URI'
p2911
asbag61
(g82
g63
NtRp2912
(dp2913
g66
(dp2914
g93
g94
ssg75
g2903
sg68
(lp2915
S':'
asbag61
(g82
g63
NtRp2916
(dp2917
g66
(dp2918
sg75
g2903
sg68
(lp2919
g61
(g62
g63
NtRp2920
(dp2921
g66
(dp2922
g74
I3
ssg75
g2916
sg68
(lp2923
g1340
asbasbasbag61
(g77
g63
NtRp2924
(dp2925
g66
(dp2926
sg75
g2626
sg68
(lp2927
g61
(g82
g63
NtRp2928
(dp2929
g66
(dp2930
g86
g87
ssg75
g2924
sg68
(lp2931
S'SCRIPT_NAME'
p2932
asbag61
(g82
g63
NtRp2933
(dp2934
g66
(dp2935
g93
g94
ssg75
g2924
sg68
(lp2936
S':'
asbag61
(g82
g63
NtRp2937
(dp2938
g66
(dp2939
sg75
g2924
sg68
(lp2940
g61
(g62
g63
NtRp2941
(dp2942
g66
(dp2943
g74
I3
ssg75
g2937
sg68
(lp2944
S''
asbasbasbag61
(g77
g63
NtRp2945
(dp2946
g66
(dp2947
sg75
g2626
sg68
(lp2948
g61
(g82
g63
NtRp2949
(dp2950
g66
(dp2951
g86
g87
ssg75
g2945
sg68
(lp2952
S'SERVER_NAME'
p2953
asbag61
(g82
g63
NtRp2954
(dp2955
g66
(dp2956
g93
g94
ssg75
g2945
sg68
(lp2957
S':'
asbag61
(g82
g63
NtRp2958
(dp2959
g66
(dp2960
sg75
g2945
sg68
(lp2961
g61
(g62
g63
NtRp2962
(dp2963
g66
(dp2964
g74
I3
ssg75
g2958
sg68
(lp2965
g1305
asbasbasbag61
(g77
g63
NtRp2966
(dp2967
g66
(dp2968
sg75
g2626
sg68
(lp2969
g61
(g82
g63
NtRp2970
(dp2971
g66
(dp2972
g86
g87
ssg75
g2966
sg68
(lp2973
S'SERVER_PORT'
p2974
asbag61
(g82
g63
NtRp2975
(dp2976
g66
(dp2977
g93
g94
ssg75
g2966
sg68
(lp2978
S':'
asbag61
(g82
g63
NtRp2979
(dp2980
g66
(dp2981
sg75
g2966
sg68
(lp2982
g61
(g62
g63
NtRp2983
(dp2984
g66
(dp2985
g74
I3
ssg75
g2979
sg68
(lp2986
g1511
asbasbasbag61
(g77
g63
NtRp2987
(dp2988
g66
(dp2989
sg75
g2626
sg68
(lp2990
g61
(g82
g63
NtRp2991
(dp2992
g66
(dp2993
g86
g87
ssg75
g2987
sg68
(lp2994
S'SERVER_PROTOCOL'
p2995
asbag61
(g82
g63
NtRp2996
(dp2997
g66
(dp2998
g93
g94
ssg75
g2987
sg68
(lp2999
S':'
asbag61
(g82
g63
NtRp3000
(dp3001
g66
(dp3002
sg75
g2987
sg68
(lp3003
g61
(g62
g63
NtRp3004
(dp3005
g66
(dp3006
g74
I3
ssg75
g3000
sg68
(lp3007
g1533
asbasbasbag61
(g77
g63
NtRp3008
(dp3009
g66
(dp3010
sg75
g2626
sg68
(lp3011
g61
(g82
g63
NtRp3012
(dp3013
g66
(dp3014
g86
g87
ssg75
g3008
sg68
(lp3015
S'SERVER_SOFTWARE'
p3016
asbag61
(g82
g63
NtRp3017
(dp3018
g66
(dp3019
g93
g94
ssg75
g3008
sg68
(lp3020
S':'
asbag61
(g82
g63
NtRp3021
(dp3022
g66
(dp3023
sg75
g3008
sg68
(lp3024
g61
(g62
g63
NtRp3025
(dp3026
g66
(dp3027
g74
I3
ssg75
g3021
sg68
(lp3028
g1555
asbasbasbag61
(g77
g63
NtRp3029
(dp3030
g66
(dp3031
sg75
g2626
sg68
(lp3032
g61
(g82
g63
NtRp3033
(dp3034
g66
(dp3035
g86
g87
ssg75
g3029
sg68
(lp3036
S'wsgi.errors'
p3037
asbag61
(g82
g63
NtRp3038
(dp3039
g66
(dp3040
g93
g94
ssg75
g3029
sg68
(lp3041
S':'
asbag61
(g82
g63
NtRp3042
(dp3043
g66
(dp3044
sg75
g3029
sg68
(lp3045
g61
(g62
g63
NtRp3046
(dp3047
g66
(dp3048
g74
I3
ssg75
g3042
sg68
(lp3049
S"<open file '<stderr>', mode 'w' at 0x01C250D0>"
p3050
asbasbasbag61
(g77
g63
NtRp3051
(dp3052
g66
(dp3053
sg75
g2626
sg68
(lp3054
g61
(g82
g63
NtRp3055
(dp3056
g66
(dp3057
g86
g87
ssg75
g3051
sg68
(lp3058
S'wsgi.file_wrapper'
p3059
asbag61
(g82
g63
NtRp3060
(dp3061
g66
(dp3062
g93
g94
ssg75
g3051
sg68
(lp3063
S':'
asbag61
(g82
g63
NtRp3064
(dp3065
g66
(dp3066
sg75
g3051
sg68
(lp3067
g61
(g62
g63
NtRp3068
(dp3069
g66
(dp3070
g74
I3
ssg75
g3064
sg68
(lp3071
S'<class wsgiref.util.FileWrapper at 0x02A70068>'
p3072
asbasbasbag61
(g77
g63
NtRp3073
(dp3074
g66
(dp3075
sg75
g2626
sg68
(lp3076
g61
(g82
g63
NtRp3077
(dp3078
g66
(dp3079
g86
g87
ssg75
g3073
sg68
(lp3080
S'wsgi.input'
p3081
asbag61
(g82
g63
NtRp3082
(dp3083
g66
(dp3084
g93
g94
ssg75
g3073
sg68
(lp3085
S':'
asbag61
(g82
g63
NtRp3086
(dp3087
g66
(dp3088
sg75
g3073
sg68
(lp3089
g61
(g62
g63
NtRp3090
(dp3091
g66
(dp3092
g74
I3
ssg75
g3086
sg68
(lp3093
S'<cStringIO.StringO object at 0x06A15060>'
p3094
asbasbasbag61
(g77
g63
NtRp3095
(dp3096
g66
(dp3097
sg75
g2626
sg68
(lp3098
g61
(g82
g63
NtRp3099
(dp3100
g66
(dp3101
g86
g87
ssg75
g3095
sg68
(lp3102
S'wsgi.multiprocess'
p3103
asbag61
(g82
g63
NtRp3104
(dp3105
g66
(dp3106
g93
g94
ssg75
g3095
sg68
(lp3107
S':'
asbag61
(g82
g63
NtRp3108
(dp3109
g66
(dp3110
sg75
g3095
sg68
(lp3111
g61
(g62
g63
NtRp3112
(dp3113
g66
(dp3114
g74
I3
ssg75
g3108
sg68
(lp3115
g104
asbasbasbag61
(g77
g63
NtRp3116
(dp3117
g66
(dp3118
sg75
g2626
sg68
(lp3119
g61
(g82
g63
NtRp3120
(dp3121
g66
(dp3122
g86
g87
ssg75
g3116
sg68
(lp3123
S'wsgi.multithread'
p3124
asbag61
(g82
g63
NtRp3125
(dp3126
g66
(dp3127
g93
g94
ssg75
g3116
sg68
(lp3128
S':'
asbag61
(g82
g63
NtRp3129
(dp3130
g66
(dp3131
sg75
g3116
sg68
(lp3132
g61
(g62
g63
NtRp3133
(dp3134
g66
(dp3135
g74
I3
ssg75
g3129
sg68
(lp3136
g1772
asbasbasbag61
(g77
g63
NtRp3137
(dp3138
g66
(dp3139
sg75
g2626
sg68
(lp3140
g61
(g82
g63
NtRp3141
(dp3142
g66
(dp3143
g86
g87
ssg75
g3137
sg68
(lp3144
S'wsgi.run_once'
p3145
asbag61
(g82
g63
NtRp3146
(dp3147
g66
(dp3148
g93
g94
ssg75
g3137
sg68
(lp3149
S':'
asbag61
(g82
g63
NtRp3150
(dp3151
g66
(dp3152
sg75
g3137
sg68
(lp3153
g61
(g62
g63
NtRp3154
(dp3155
g66
(dp3156
g74
I3
ssg75
g3150
sg68
(lp3157
g104
asbasbasbag61
(g77
g63
NtRp3158
(dp3159
g66
(dp3160
sg75
g2626
sg68
(lp3161
g61
(g82
g63
NtRp3162
(dp3163
g66
(dp3164
g86
g87
ssg75
g3158
sg68
(lp3165
S'wsgi.url_scheme'
p3166
asbag61
(g82
g63
NtRp3167
(dp3168
g66
(dp3169
g93
g94
ssg75
g3158
sg68
(lp3170
S':'
asbag61
(g82
g63
NtRp3171
(dp3172
g66
(dp3173
sg75
g3158
sg68
(lp3174
g61
(g62
g63
NtRp3175
(dp3176
g66
(dp3177
g74
I3
ssg75
g3171
sg68
(lp3178
g1815
asbasbasbag61
(g77
g63
NtRp3179
(dp3180
g66
(dp3181
sg75
g2626
sg68
(lp3182
g61
(g82
g63
NtRp3183
(dp3184
g66
(dp3185
g86
g87
ssg75
g3179
sg68
(lp3186
S'wsgi.version'
p3187
asbag61
(g82
g63
NtRp3188
(dp3189
g66
(dp3190
g93
g94
ssg75
g3179
sg68
(lp3191
S':'
asbag61
(g82
g63
NtRp3192
(dp3193
g66
(dp3194
sg75
g3179
sg68
(lp3195
g61
(g62
g63
NtRp3196
(dp3197
g66
(dp3198
g74
I3
ssg75
g3192
sg68
(lp3199
S'1'
asbasbasbasbasbasbasbasbasbasbasbasbasbsS'frames'
p3200
(lp3201
(dp3202
S'file'
p3203
S'C:\\Users\\ARPITA\\Downloads\\web2py_win\\web2py\\gluon\\restricted.py'
p3204
sS'dump'
p3205
(dp3206
sS'lnum'
p3207
I212
sS'lines'
p3208
(dp3209
sS'call'
p3210
S"(code='# -*- coding: utf-8 -*-\\n# this file is released ...p,q=q)\\n\\nresponse._vars=response._caller(kruskal)\\n', environment={'A': <class 'gluon.html.A'>, 'Auth': <class 'gluon.tools.Auth'>, 'B': <class 'gluon.html.B'>, 'BEAUTIFY': <class 'gluon.html.BEAUTIFY'>, 'BODY': <class 'gluon.html.BODY'>, 'BR': <class 'gluon.html.BR'>, 'BUTTON': <class 'gluon.html.BUTTON'>, 'CAT': <class 'gluon.html.CAT'>, 'CENTER': <class 'gluon.html.CENTER'>, 'CLEANUP': <class 'gluon.validators.CLEANUP'>, ...}, layer=r'C:\\Users\\ARPITA\\Downloads\\web2py_win\\web2py\\applications\\pro\\controllers/default.py')"
p3211
sS'func'
p3212
S'restricted'
p3213
sa(dp3214
g3203
S'C:\\Users\\ARPITA\\Downloads\\web2py_win\\web2py\\applications\\pro\\controllers\\default.py'
p3215
sg3205
(dp3216
sg3207
I207
sg3208
(dp3217
I196
S"    f=open('applications/pro/controllers/trig_map.json','r')"
p3218
sI197
S'    l=f.readlines()'
p3219
sI198
S'    str=l[0]'
p3220
sI199
S'    f.close()'
p3221
sI200
S"    f=open('applications/pro/controllers/trig_map.json','w')"
p3222
sI201
S'    f.write("%s" %str.replace("\'","\\""))'
p3223
sI202
S'    f.close()'
p3224
sI203
S''
sI204
S''
sI205
S'    return dict(p=p,q=q)'
p3225
ssg3210
S'()'
p3226
sg3212
S'<module>'
p3227
sa(dp3228
g3203
S'C:\\Users\\ARPITA\\Downloads\\web2py_win\\web2py\\gluon\\globals.py'
p3229
sg3205
(dp3230
sg3207
I188
sg3208
(dp3231
sg3210
S'(f=<function kruskal>)'
p3232
sg3212
S'<lambda>'
p3233
sa(dp3234
g3203
S'C:\\Users\\ARPITA\\Downloads\\web2py_win\\web2py\\applications\\pro\\controllers\\default.py'
p3235
sg3205
(dp3236
sg3207
I144
sg3208
(dp3237
I139
S'                           k=k+1'
p3238
sI140
S''
sI141
S"    file=open('applications/pro/controllers/inp.txt','w')"
p3239
sI142
S'    file.write("%d\\n" %k)'
p3240
sI143
S'    for i in xrange(k):'
p3241
sI144
S"        ro=db.executesql('select Designation from Employee where id==p[i];')"
p3242
sI145
S'        print ro[0][0]'
p3243
sI146
S'        #ro=db(db.Employee.id==p[i]).select(db.Employee.Designation)'
p3244
sI147
S'        #d1=ro.Employee.Designation'
p3245
sI148
S'        #print d1'
p3246
ssg3210
S'()'
p3247
sg3212
S'kruskal'
p3248
sa(dp3249
g3203
S'C:\\Users\\ARPITA\\Downloads\\web2py_win\\web2py\\gluon\\dal.py'
p3250
sg3205
(dp3251
sg3207
I7247
sg3208
(dp3252
sg3210
S'(self=<DAL uri="sqlite://storage.sqlite">, query=\'select Designation from Employee where id==p[i];\', placeholders=None, as_dict=False, fields=None, colnames=None)'
p3253
sg3212
S'executesql'
p3254
sa(dp3255
g3203
S'C:\\Users\\ARPITA\\Downloads\\web2py_win\\web2py\\gluon\\dal.py'
p3256
sg3205
(dp3257
sg3207
I1694
sg3208
(dp3258
sg3210
S"(self=<gluon.dal.SQLiteAdapter object>, *a=('select Designation from Employee where id==p[i];',), **b={})"
p3259
sg3212
S'execute'
p3260
sa(dp3261
g3203
S'C:\\Users\\ARPITA\\Downloads\\web2py_win\\web2py\\gluon\\dal.py'
p3262
sg3205
(dp3263
sg3207
I1688
sg3208
(dp3264
sg3210
S"(self=<gluon.dal.SQLiteAdapter object>, *a=('select Designation from Employee where id==p[i];',), **b={})"
p3265
sg3212
S'log_execute'
p3266
sasS'pyver'
p3267
S'Python 2.7: C:\\Users\\ARPITA\\Downloads\\web2py_win\\web2py\\web2py.exe'
p3268
sS'session'
p3269
g61
(g62
g63
NtRp3270
(dp3271
g66
(dp3272
sg68
(lp3273
g61
(g70
g63
NtRp3274
(dp3275
g66
(dp3276
g74
I5
ssg75
Nsg68
(lp3277
g61
(g77
g63
NtRp3278
(dp3279
g66
(dp3280
sg75
g3274
sg68
(lp3281
g61
(g82
g63
NtRp3282
(dp3283
g66
(dp3284
g86
g87
ssg75
g3278
sg68
(lp3285
S'auth'
p3286
asbag61
(g82
g63
NtRp3287
(dp3288
g66
(dp3289
g93
g94
ssg75
g3278
sg68
(lp3290
S':'
asbag61
(g82
g63
NtRp3291
(dp3292
g66
(dp3293
sg75
g3278
sg68
(lp3294
g61
(g62
g63
NtRp3295
(dp3296
g66
(dp3297
g74
I5
ssg75
g3291
sg68
(lp3298
g61
(g70
g63
NtRp3299
(dp3300
g66
(dp3301
g74
I4
ssg75
Nsg68
(lp3302
g61
(g77
g63
NtRp3303
(dp3304
g66
(dp3305
sg75
g3299
sg68
(lp3306
g61
(g82
g63
NtRp3307
(dp3308
g66
(dp3309
g86
g87
ssg75
g3303
sg68
(lp3310
S'expiration'
p3311
asbag61
(g82
g63
NtRp3312
(dp3313
g66
(dp3314
g93
g94
ssg75
g3303
sg68
(lp3315
S':'
asbag61
(g82
g63
NtRp3316
(dp3317
g66
(dp3318
sg75
g3303
sg68
(lp3319
g61
(g62
g63
NtRp3320
(dp3321
g66
(dp3322
g74
I4
ssg75
g3316
sg68
(lp3323
S'3600'
p3324
asbasbasbag61
(g77
g63
NtRp3325
(dp3326
g66
(dp3327
sg75
g3299
sg68
(lp3328
g61
(g82
g63
NtRp3329
(dp3330
g66
(dp3331
g86
g87
ssg75
g3325
sg68
(lp3332
S'hmac_key'
p3333
asbag61
(g82
g63
NtRp3334
(dp3335
g66
(dp3336
g93
g94
ssg75
g3325
sg68
(lp3337
S':'
asbag61
(g82
g63
NtRp3338
(dp3339
g66
(dp3340
sg75
g3325
sg68
(lp3341
g61
(g62
g63
NtRp3342
(dp3343
g66
(dp3344
g74
I4
ssg75
g3338
sg68
(lp3345
S'435f5f42-1bd7-4f91-9a85-6509be67cf11'
p3346
asbasbasbag61
(g77
g63
NtRp3347
(dp3348
g66
(dp3349
sg75
g3299
sg68
(lp3350
g61
(g82
g63
NtRp3351
(dp3352
g66
(dp3353
g86
g87
ssg75
g3347
sg68
(lp3354
S'last_visit'
p3355
asbag61
(g82
g63
NtRp3356
(dp3357
g66
(dp3358
g93
g94
ssg75
g3347
sg68
(lp3359
S':'
asbag61
(g82
g63
NtRp3360
(dp3361
g66
(dp3362
sg75
g3347
sg68
(lp3363
g61
(g62
g63
NtRp3364
(dp3365
g66
(dp3366
g74
I4
ssg75
g3360
sg68
(lp3367
S'datetime.datetime(2012, 11, 13, 9, 11, 34, 730000)'
p3368
asbasbasbag61
(g77
g63
NtRp3369
(dp3370
g66
(dp3371
sg75
g3299
sg68
(lp3372
g61
(g82
g63
NtRp3373
(dp3374
g66
(dp3375
g86
g87
ssg75
g3369
sg68
(lp3376
S'remember'
p3377
asbag61
(g82
g63
NtRp3378
(dp3379
g66
(dp3380
g93
g94
ssg75
g3369
sg68
(lp3381
S':'
asbag61
(g82
g63
NtRp3382
(dp3383
g66
(dp3384
sg75
g3369
sg68
(lp3385
g61
(g62
g63
NtRp3386
(dp3387
g66
(dp3388
g74
I4
ssg75
g3382
sg68
(lp3389
g104
asbasbasbag61
(g77
g63
NtRp3390
(dp3391
g66
(dp3392
sg75
g3299
sg68
(lp3393
g61
(g82
g63
NtRp3394
(dp3395
g66
(dp3396
g86
g87
ssg75
g3390
sg68
(lp3397
S'user'
p3398
asbag61
(g82
g63
NtRp3399
(dp3400
g66
(dp3401
g93
g94
ssg75
g3390
sg68
(lp3402
S':'
asbag61
(g82
g63
NtRp3403
(dp3404
g66
(dp3405
sg75
g3390
sg68
(lp3406
g61
(g62
g63
NtRp3407
(dp3408
g66
(dp3409
g74
I4
ssg75
g3403
sg68
(lp3410
g61
(g70
g63
NtRp3411
(dp3412
g66
(dp3413
g74
I3
ssg75
Nsg68
(lp3414
g61
(g77
g63
NtRp3415
(dp3416
g66
(dp3417
sg75
g3411
sg68
(lp3418
g61
(g82
g63
NtRp3419
(dp3420
g66
(dp3421
g86
g87
ssg75
g3415
sg68
(lp3422
S'email'
p3423
asbag61
(g82
g63
NtRp3424
(dp3425
g66
(dp3426
g93
g94
ssg75
g3415
sg68
(lp3427
S':'
asbag61
(g82
g63
NtRp3428
(dp3429
g66
(dp3430
sg75
g3415
sg68
(lp3431
g61
(g62
g63
NtRp3432
(dp3433
g66
(dp3434
g74
I3
ssg75
g3428
sg68
(lp3435
S'rammurthy@faculty.iiit.ac.in'
p3436
asbasbasbag61
(g77
g63
NtRp3437
(dp3438
g66
(dp3439
sg75
g3411
sg68
(lp3440
g61
(g82
g63
NtRp3441
(dp3442
g66
(dp3443
g86
g87
ssg75
g3437
sg68
(lp3444
S'first_name'
p3445
asbag61
(g82
g63
NtRp3446
(dp3447
g66
(dp3448
g93
g94
ssg75
g3437
sg68
(lp3449
S':'
asbag61
(g82
g63
NtRp3450
(dp3451
g66
(dp3452
sg75
g3437
sg68
(lp3453
g61
(g62
g63
NtRp3454
(dp3455
g66
(dp3456
g74
I3
ssg75
g3450
sg68
(lp3457
S'rammurthy'
p3458
asbasbasbag61
(g77
g63
NtRp3459
(dp3460
g66
(dp3461
sg75
g3411
sg68
(lp3462
g61
(g82
g63
NtRp3463
(dp3464
g66
(dp3465
g86
g87
ssg75
g3459
sg68
(lp3466
S'id'
p3467
asbag61
(g82
g63
NtRp3468
(dp3469
g66
(dp3470
g93
g94
ssg75
g3459
sg68
(lp3471
S':'
asbag61
(g82
g63
NtRp3472
(dp3473
g66
(dp3474
sg75
g3459
sg68
(lp3475
g61
(g62
g63
NtRp3476
(dp3477
g66
(dp3478
g74
I3
ssg75
g3472
sg68
(lp3479
S'1'
asbasbasbag61
(g77
g63
NtRp3480
(dp3481
g66
(dp3482
sg75
g3411
sg68
(lp3483
g61
(g82
g63
NtRp3484
(dp3485
g66
(dp3486
g86
g87
ssg75
g3480
sg68
(lp3487
S'last_name'
p3488
asbag61
(g82
g63
NtRp3489
(dp3490
g66
(dp3491
g93
g94
ssg75
g3480
sg68
(lp3492
S':'
asbag61
(g82
g63
NtRp3493
(dp3494
g66
(dp3495
sg75
g3480
sg68
(lp3496
g61
(g62
g63
NtRp3497
(dp3498
g66
(dp3499
g74
I3
ssg75
g3493
sg68
(lp3500
S'sir'
p3501
asbasbasbag61
(g77
g63
NtRp3502
(dp3503
g66
(dp3504
sg75
g3411
sg68
(lp3505
g61
(g82
g63
NtRp3506
(dp3507
g66
(dp3508
g86
g87
ssg75
g3502
sg68
(lp3509
S'registration_id'
p3510
asbag61
(g82
g63
NtRp3511
(dp3512
g66
(dp3513
g93
g94
ssg75
g3502
sg68
(lp3514
S':'
asbag61
(g82
g63
NtRp3515
(dp3516
g66
(dp3517
sg75
g3502
sg68
(lp3518
g61
(g62
g63
NtRp3519
(dp3520
g66
(dp3521
g74
I3
ssg75
g3515
sg68
(lp3522
S''
asbasbasbag61
(g77
g63
NtRp3523
(dp3524
g66
(dp3525
sg75
g3411
sg68
(lp3526
g61
(g82
g63
NtRp3527
(dp3528
g66
(dp3529
g86
g87
ssg75
g3523
sg68
(lp3530
S'registration_key'
p3531
asbag61
(g82
g63
NtRp3532
(dp3533
g66
(dp3534
g93
g94
ssg75
g3523
sg68
(lp3535
S':'
asbag61
(g82
g63
NtRp3536
(dp3537
g66
(dp3538
sg75
g3523
sg68
(lp3539
g61
(g62
g63
NtRp3540
(dp3541
g66
(dp3542
g74
I3
ssg75
g3536
sg68
(lp3543
S''
asbasbasbag61
(g77
g63
NtRp3544
(dp3545
g66
(dp3546
sg75
g3411
sg68
(lp3547
g61
(g82
g63
NtRp3548
(dp3549
g66
(dp3550
g86
g87
ssg75
g3544
sg68
(lp3551
S'reset_password_key'
p3552
asbag61
(g82
g63
NtRp3553
(dp3554
g66
(dp3555
g93
g94
ssg75
g3544
sg68
(lp3556
S':'
asbag61
(g82
g63
NtRp3557
(dp3558
g66
(dp3559
sg75
g3544
sg68
(lp3560
g61
(g62
g63
NtRp3561
(dp3562
g66
(dp3563
g74
I3
ssg75
g3557
sg68
(lp3564
S''
asbasbasbasbasbasbasbag61
(g77
g63
NtRp3565
(dp3566
g66
(dp3567
sg75
g3299
sg68
(lp3568
g61
(g82
g63
NtRp3569
(dp3570
g66
(dp3571
g86
g87
ssg75
g3565
sg68
(lp3572
S'user_groups'
p3573
asbag61
(g82
g63
NtRp3574
(dp3575
g66
(dp3576
g93
g94
ssg75
g3565
sg68
(lp3577
S':'
asbag61
(g82
g63
NtRp3578
(dp3579
g66
(dp3580
sg75
g3565
sg68
(lp3581
g61
(g62
g63
NtRp3582
(dp3583
g66
(dp3584
g74
I4
ssg75
g3578
sg68
(lp3585
g61
(g70
g63
NtRp3586
(dp3587
g66
(dp3588
g74
I3
ssg75
Nsg68
(lp3589
g61
(g77
g63
NtRp3590
(dp3591
g66
(dp3592
sg75
g3586
sg68
(lp3593
g61
(g82
g63
NtRp3594
(dp3595
g66
(dp3596
g86
g87
ssg75
g3590
sg68
(lp3597
S'1'
asbag61
(g82
g63
NtRp3598
(dp3599
g66
(dp3600
g93
g94
ssg75
g3590
sg68
(lp3601
S':'
asbag61
(g82
g63
NtRp3602
(dp3603
g66
(dp3604
sg75
g3590
sg68
(lp3605
g61
(g62
g63
NtRp3606
(dp3607
g66
(dp3608
g74
I3
ssg75
g3602
sg68
(lp3609
S'user_1'
p3610
asbasbasbag61
(g77
g63
NtRp3611
(dp3612
g66
(dp3613
sg75
g3586
sg68
(lp3614
g61
(g82
g63
NtRp3615
(dp3616
g66
(dp3617
g86
g87
ssg75
g3611
sg68
(lp3618
S'2'
asbag61
(g82
g63
NtRp3619
(dp3620
g66
(dp3621
g93
g94
ssg75
g3611
sg68
(lp3622
S':'
asbag61
(g82
g63
NtRp3623
(dp3624
g66
(dp3625
sg75
g3611
sg68
(lp3626
g61
(g62
g63
NtRp3627
(dp3628
g66
(dp3629
g74
I3
ssg75
g3623
sg68
(lp3630
S'Administrator'
p3631
asbasbasbasbasbasbasbasbasbasbasbag61
(g77
g63
NtRp3632
(dp3633
g66
(dp3634
sg75
g3274
sg68
(lp3635
g61
(g82
g63
NtRp3636
(dp3637
g66
(dp3638
g86
g87
ssg75
g3632
sg68
(lp3639
S'flash'
p3640
asbag61
(g82
g63
NtRp3641
(dp3642
g66
(dp3643
g93
g94
ssg75
g3632
sg68
(lp3644
S':'
asbag61
(g82
g63
NtRp3645
(dp3646
g66
(dp3647
sg75
g3632
sg68
(lp3648
g61
(g62
g63
NtRp3649
(dp3650
g66
(dp3651
g74
I5
ssg75
g3645
sg68
(lp3652
S'None'
p3653
asbasbasbasbasbsS'etype'
p3654
S"<class 'sqlite3.OperationalError'>"
p3655
sS'date'
p3656
S'Tue Nov 13 09:11:36 2012'
p3657
sS'response'
p3658
g61
(g62
g63
NtRp3659
(dp3660
g66
(dp3661
sg68
(lp3662
g61
(g70
g63
NtRp3663
(dp3664
g66
(dp3665
g74
I5
ssg75
Nsg68
(lp3666
g61
(g77
g63
NtRp3667
(dp3668
g66
(dp3669
sg75
g3663
sg68
(lp3670
g61
(g82
g63
NtRp3671
(dp3672
g66
(dp3673
g86
g87
ssg75
g3667
sg68
(lp3674
g159
asbag61
(g82
g63
NtRp3675
(dp3676
g66
(dp3677
g93
g94
ssg75
g3667
sg68
(lp3678
S':'
asbag61
(g82
g63
NtRp3679
(dp3680
g66
(dp3681
sg75
g3667
sg68
(lp3682
g61
(g62
g63
NtRp3683
(dp3684
g66
(dp3685
g74
I5
ssg75
g3679
sg68
(lp3686
S'<cStringIO.StringO object at 0x06EA4E20>'
p3687
asbasbasbag61
(g77
g63
NtRp3688
(dp3689
g66
(dp3690
sg75
g3663
sg68
(lp3691
g61
(g82
g63
NtRp3692
(dp3693
g66
(dp3694
g86
g87
ssg75
g3688
sg68
(lp3695
g247
asbag61
(g82
g63
NtRp3696
(dp3697
g66
(dp3698
g93
g94
ssg75
g3688
sg68
(lp3699
S':'
asbag61
(g82
g63
NtRp3700
(dp3701
g66
(dp3702
sg75
g3688
sg68
(lp3703
g61
(g62
g63
NtRp3704
(dp3705
g66
(dp3706
g74
I5
ssg75
g3700
sg68
(lp3707
g61
(g70
g63
NtRp3708
(dp3709
g66
(dp3710
g74
I4
ssg75
Nsg68
(lp3711
g61
(g77
g63
NtRp3712
(dp3713
g66
(dp3714
sg75
g3708
sg68
(lp3715
g61
(g82
g63
NtRp3716
(dp3717
g66
(dp3718
g86
g87
ssg75
g3712
sg68
(lp3719
S'session_id_pro'
p3720
asbag61
(g82
g63
NtRp3721
(dp3722
g66
(dp3723
g93
g94
ssg75
g3712
sg68
(lp3724
S':'
asbag61
(g82
g63
NtRp3725
(dp3726
g66
(dp3727
sg75
g3712
sg68
(lp3728
g61
(g62
g63
NtRp3729
(dp3730
g66
(dp3731
g74
I4
ssg75
g3725
sg68
(lp3732
g479
ag61
(g70
g63
NtRp3733
(dp3734
g66
(dp3735
g74
I3
ssg75
Nsg68
(lp3736
g61
(g77
g63
NtRp3737
(dp3738
g66
(dp3739
sg75
g3733
sg68
(lp3740
g61
(g82
g63
NtRp3741
(dp3742
g66
(dp3743
g86
g87
ssg75
g3737
sg68
(lp3744
g298
asbag61
(g82
g63
NtRp3745
(dp3746
g66
(dp3747
g93
g94
ssg75
g3737
sg68
(lp3748
S':'
asbag61
(g82
g63
NtRp3749
(dp3750
g66
(dp3751
sg75
g3737
sg68
(lp3752
g61
(g62
g63
NtRp3753
(dp3754
g66
(dp3755
g74
I3
ssg75
g3749
sg68
(lp3756
S''
asbasbasbag61
(g77
g63
NtRp3757
(dp3758
g66
(dp3759
sg75
g3733
sg68
(lp3760
g61
(g82
g63
NtRp3761
(dp3762
g66
(dp3763
g86
g87
ssg75
g3757
sg68
(lp3764
g319
asbag61
(g82
g63
NtRp3765
(dp3766
g66
(dp3767
g93
g94
ssg75
g3757
sg68
(lp3768
S':'
asbag61
(g82
g63
NtRp3769
(dp3770
g66
(dp3771
sg75
g3757
sg68
(lp3772
g61
(g62
g63
NtRp3773
(dp3774
g66
(dp3775
g74
I3
ssg75
g3769
sg68
(lp3776
S''
asbasbasbag61
(g77
g63
NtRp3777
(dp3778
g66
(dp3779
sg75
g3733
sg68
(lp3780
g61
(g82
g63
NtRp3781
(dp3782
g66
(dp3783
g86
g87
ssg75
g3777
sg68
(lp3784
g340
asbag61
(g82
g63
NtRp3785
(dp3786
g66
(dp3787
g93
g94
ssg75
g3777
sg68
(lp3788
S':'
asbag61
(g82
g63
NtRp3789
(dp3790
g66
(dp3791
sg75
g3777
sg68
(lp3792
g61
(g62
g63
NtRp3793
(dp3794
g66
(dp3795
g74
I3
ssg75
g3789
sg68
(lp3796
S''
asbasbasbag61
(g77
g63
NtRp3797
(dp3798
g66
(dp3799
sg75
g3733
sg68
(lp3800
g61
(g82
g63
NtRp3801
(dp3802
g66
(dp3803
g86
g87
ssg75
g3797
sg68
(lp3804
g361
asbag61
(g82
g63
NtRp3805
(dp3806
g66
(dp3807
g93
g94
ssg75
g3797
sg68
(lp3808
S':'
asbag61
(g82
g63
NtRp3809
(dp3810
g66
(dp3811
sg75
g3797
sg68
(lp3812
g61
(g62
g63
NtRp3813
(dp3814
g66
(dp3815
g74
I3
ssg75
g3809
sg68
(lp3816
S''
asbasbasbag61
(g77
g63
NtRp3817
(dp3818
g66
(dp3819
sg75
g3733
sg68
(lp3820
g61
(g82
g63
NtRp3821
(dp3822
g66
(dp3823
g86
g87
ssg75
g3817
sg68
(lp3824
g382
asbag61
(g82
g63
NtRp3825
(dp3826
g66
(dp3827
g93
g94
ssg75
g3817
sg68
(lp3828
S':'
asbag61
(g82
g63
NtRp3829
(dp3830
g66
(dp3831
sg75
g3817
sg68
(lp3832
g61
(g62
g63
NtRp3833
(dp3834
g66
(dp3835
g74
I3
ssg75
g3829
sg68
(lp3836
S''
asbasbasbag61
(g77
g63
NtRp3837
(dp3838
g66
(dp3839
sg75
g3733
sg68
(lp3840
g61
(g82
g63
NtRp3841
(dp3842
g66
(dp3843
g86
g87
ssg75
g3837
sg68
(lp3844
g403
asbag61
(g82
g63
NtRp3845
(dp3846
g66
(dp3847
g93
g94
ssg75
g3837
sg68
(lp3848
S':'
asbag61
(g82
g63
NtRp3849
(dp3850
g66
(dp3851
sg75
g3837
sg68
(lp3852
g61
(g62
g63
NtRp3853
(dp3854
g66
(dp3855
g74
I3
ssg75
g3849
sg68
(lp3856
S'/'
asbasbasbag61
(g77
g63
NtRp3857
(dp3858
g66
(dp3859
sg75
g3733
sg68
(lp3860
g61
(g82
g63
NtRp3861
(dp3862
g66
(dp3863
g86
g87
ssg75
g3857
sg68
(lp3864
g424
asbag61
(g82
g63
NtRp3865
(dp3866
g66
(dp3867
g93
g94
ssg75
g3857
sg68
(lp3868
S':'
asbag61
(g82
g63
NtRp3869
(dp3870
g66
(dp3871
sg75
g3857
sg68
(lp3872
g61
(g62
g63
NtRp3873
(dp3874
g66
(dp3875
g74
I3
ssg75
g3869
sg68
(lp3876
S''
asbasbasbag61
(g77
g63
NtRp3877
(dp3878
g66
(dp3879
sg75
g3733
sg68
(lp3880
g61
(g82
g63
NtRp3881
(dp3882
g66
(dp3883
g86
g87
ssg75
g3877
sg68
(lp3884
g445
asbag61
(g82
g63
NtRp3885
(dp3886
g66
(dp3887
g93
g94
ssg75
g3877
sg68
(lp3888
S':'
asbag61
(g82
g63
NtRp3889
(dp3890
g66
(dp3891
sg75
g3877
sg68
(lp3892
g61
(g62
g63
NtRp3893
(dp3894
g66
(dp3895
g74
I3
ssg75
g3889
sg68
(lp3896
S''
asbasbasbasbasbasbasbasbasbasbasbag61
(g77
g63
NtRp3897
(dp3898
g66
(dp3899
sg75
g3663
sg68
(lp3900
g61
(g82
g63
NtRp3901
(dp3902
g66
(dp3903
g86
g87
ssg75
g3897
sg68
(lp3904
S'delimiters'
p3905
asbag61
(g82
g63
NtRp3906
(dp3907
g66
(dp3908
g93
g94
ssg75
g3897
sg68
(lp3909
S':'
asbag61
(g82
g63
NtRp3910
(dp3911
g66
(dp3912
sg75
g3897
sg68
(lp3913
g61
(g62
g63
NtRp3914
(dp3915
g66
(dp3916
g74
I5
ssg75
g3910
sg68
(lp3917
g61
(g70
g63
NtRp3918
(dp3919
g66
(dp3920
g74
I4
ssg75
Nsg68
(lp3921
g61
(g77
g63
NtRp3922
(dp3923
g66
(dp3924
sg75
g3918
sg68
(lp3925
g61
(g82
g63
NtRp3926
(dp3927
g66
(dp3928
sg75
g3922
sg68
(lp3929
g61
(g62
g63
NtRp3930
(dp3931
g66
(dp3932
g74
I4
ssg75
g3926
sg68
(lp3933
S'{{'
p3934
asbasbasbag61
(g77
g63
NtRp3935
(dp3936
g66
(dp3937
sg75
g3918
sg68
(lp3938
g61
(g82
g63
NtRp3939
(dp3940
g66
(dp3941
sg75
g3935
sg68
(lp3942
g61
(g62
g63
NtRp3943
(dp3944
g66
(dp3945
g74
I4
ssg75
g3939
sg68
(lp3946
S'}}'
p3947
asbasbasbasbasbasbasbag61
(g77
g63
NtRp3948
(dp3949
g66
(dp3950
sg75
g3663
sg68
(lp3951
g61
(g82
g63
NtRp3952
(dp3953
g66
(dp3954
g86
g87
ssg75
g3948
sg68
(lp3955
S'files'
p3956
asbag61
(g82
g63
NtRp3957
(dp3958
g66
(dp3959
g93
g94
ssg75
g3948
sg68
(lp3960
S':'
asbag61
(g82
g63
NtRp3961
(dp3962
g66
(dp3963
sg75
g3948
sg68
(lp3964
g61
(g62
g63
NtRp3965
(dp3966
g66
(dp3967
g74
I5
ssg75
g3961
sg68
(lp3968
g61
(g70
g63
NtRp3969
(dp3970
g66
(dp3971
g74
I4
ssg75
Nsg68
(lp3972
sbasbasbasbag61
(g77
g63
NtRp3973
(dp3974
g66
(dp3975
sg75
g3663
sg68
(lp3976
g61
(g82
g63
NtRp3977
(dp3978
g66
(dp3979
g86
g87
ssg75
g3973
sg68
(lp3980
S'flash'
p3981
asbag61
(g82
g63
NtRp3982
(dp3983
g66
(dp3984
g93
g94
ssg75
g3973
sg68
(lp3985
S':'
asbag61
(g82
g63
NtRp3986
(dp3987
g66
(dp3988
sg75
g3973
sg68
(lp3989
g61
(g62
g63
NtRp3990
(dp3991
g66
(dp3992
g74
I5
ssg75
g3986
sg68
(lp3993
S''
asbasbasbag61
(g77
g63
NtRp3994
(dp3995
g66
(dp3996
sg75
g3663
sg68
(lp3997
g61
(g82
g63
NtRp3998
(dp3999
g66
(dp4000
g86
g87
ssg75
g3994
sg68
(lp4001
S'generic_patterns'
p4002
asbag61
(g82
g63
NtRp4003
(dp4004
g66
(dp4005
g93
g94
ssg75
g3994
sg68
(lp4006
S':'
asbag61
(g82
g63
NtRp4007
(dp4008
g66
(dp4009
sg75
g3994
sg68
(lp4010
g61
(g62
g63
NtRp4011
(dp4012
g66
(dp4013
g74
I5
ssg75
g4007
sg68
(lp4014
g61
(g70
g63
NtRp4015
(dp4016
g66
(dp4017
g74
I4
ssg75
Nsg68
(lp4018
g61
(g77
g63
NtRp4019
(dp4020
g66
(dp4021
sg75
g4015
sg68
(lp4022
g61
(g82
g63
NtRp4023
(dp4024
g66
(dp4025
sg75
g4019
sg68
(lp4026
g61
(g62
g63
NtRp4027
(dp4028
g66
(dp4029
g74
I4
ssg75
g4023
sg68
(lp4030
S'*'
asbasbasbasbasbasbasbag61
(g77
g63
NtRp4031
(dp4032
g66
(dp4033
sg75
g3663
sg68
(lp4034
g61
(g82
g63
NtRp4035
(dp4036
g66
(dp4037
g86
g87
ssg75
g4031
sg68
(lp4038
S'google_analytics_id'
p4039
asbag61
(g82
g63
NtRp4040
(dp4041
g66
(dp4042
g93
g94
ssg75
g4031
sg68
(lp4043
S':'
asbag61
(g82
g63
NtRp4044
(dp4045
g66
(dp4046
sg75
g4031
sg68
(lp4047
g61
(g62
g63
NtRp4048
(dp4049
g66
(dp4050
g74
I5
ssg75
g4044
sg68
(lp4051
S'None'
p4052
asbasbasbag61
(g77
g63
NtRp4053
(dp4054
g66
(dp4055
sg75
g3663
sg68
(lp4056
g61
(g82
g63
NtRp4057
(dp4058
g66
(dp4059
g86
g87
ssg75
g4053
sg68
(lp4060
S'headers'
p4061
asbag61
(g82
g63
NtRp4062
(dp4063
g66
(dp4064
g93
g94
ssg75
g4053
sg68
(lp4065
S':'
asbag61
(g82
g63
NtRp4066
(dp4067
g66
(dp4068
sg75
g4053
sg68
(lp4069
g61
(g62
g63
NtRp4070
(dp4071
g66
(dp4072
g74
I5
ssg75
g4066
sg68
(lp4073
g61
(g70
g63
NtRp4074
(dp4075
g66
(dp4076
g74
I4
ssg75
Nsg68
(lp4077
g61
(g77
g63
NtRp4078
(dp4079
g66
(dp4080
sg75
g4074
sg68
(lp4081
g61
(g82
g63
NtRp4082
(dp4083
g66
(dp4084
g86
g87
ssg75
g4078
sg68
(lp4085
S'X-Powered-By'
p4086
asbag61
(g82
g63
NtRp4087
(dp4088
g66
(dp4089
g93
g94
ssg75
g4078
sg68
(lp4090
S':'
asbag61
(g82
g63
NtRp4091
(dp4092
g66
(dp4093
sg75
g4078
sg68
(lp4094
g61
(g62
g63
NtRp4095
(dp4096
g66
(dp4097
g74
I4
ssg75
g4091
sg68
(lp4098
S'web2py'
p4099
asbasbasbasbasbasbasbag61
(g77
g63
NtRp4100
(dp4101
g66
(dp4102
sg75
g3663
sg68
(lp4103
g61
(g82
g63
NtRp4104
(dp4105
g66
(dp4106
g86
g87
ssg75
g4100
sg68
(lp4107
S'menu'
p4108
asbag61
(g82
g63
NtRp4109
(dp4110
g66
(dp4111
g93
g94
ssg75
g4100
sg68
(lp4112
S':'
asbag61
(g82
g63
NtRp4113
(dp4114
g66
(dp4115
sg75
g4100
sg68
(lp4116
g61
(g62
g63
NtRp4117
(dp4118
g66
(dp4119
g74
I5
ssg75
g4113
sg68
(lp4120
g61
(g70
g63
NtRp4121
(dp4122
g66
(dp4123
g74
I4
ssg75
Nsg68
(lp4124
g61
(g77
g63
NtRp4125
(dp4126
g66
(dp4127
sg75
g4121
sg68
(lp4128
g61
(g82
g63
NtRp4129
(dp4130
g66
(dp4131
sg75
g4125
sg68
(lp4132
g61
(g62
g63
NtRp4133
(dp4134
g66
(dp4135
g74
I4
ssg75
g4129
sg68
(lp4136
g61
(g70
g63
NtRp4137
(dp4138
g66
(dp4139
g74
I3
ssg75
Nsg68
(lp4140
g61
(g77
g63
NtRp4141
(dp4142
g66
(dp4143
sg75
g4137
sg68
(lp4144
g61
(g82
g63
NtRp4145
(dp4146
g66
(dp4147
sg75
g4141
sg68
(lp4148
g61
(g62
g63
NtRp4149
(dp4150
g66
(dp4151
g74
I3
ssg75
g4145
sg68
(lp4152
cgluon.languages
lazyT_unpickle
p4153
(S't\x04\x00\x00\x00Home'
tRp4154
asbasbasbag61
(g77
g63
NtRp4155
(dp4156
g66
(dp4157
sg75
g4137
sg68
(lp4158
g61
(g82
g63
NtRp4159
(dp4160
g66
(dp4161
sg75
g4155
sg68
(lp4162
g61
(g62
g63
NtRp4163
(dp4164
g66
(dp4165
g74
I3
ssg75
g4159
sg68
(lp4166
g104
asbasbasbag61
(g77
g63
NtRp4167
(dp4168
g66
(dp4169
sg75
g4137
sg68
(lp4170
g61
(g82
g63
NtRp4171
(dp4172
g66
(dp4173
sg75
g4167
sg68
(lp4174
g61
(g62
g63
NtRp4175
(dp4176
g66
(dp4177
g74
I3
ssg75
g4171
sg68
(lp4178
S'/pro/default/index'
p4179
asbasbasbag61
(g77
g63
NtRp4180
(dp4181
g66
(dp4182
sg75
g4137
sg68
(lp4183
g61
(g82
g63
NtRp4184
(dp4185
g66
(dp4186
sg75
g4180
sg68
(lp4187
g61
(g62
g63
NtRp4188
(dp4189
g66
(dp4190
g74
I3
ssg75
g4184
sg68
(lp4191
g61
(g70
g63
NtRp4192
(dp4193
g66
(dp4194
g74
I2
ssg75
Nsg68
(lp4195
sbasbasbasbasbasbasbasbag61
(g77
g63
NtRp4196
(dp4197
g66
(dp4198
sg75
g4121
sg68
(lp4199
g61
(g82
g63
NtRp4200
(dp4201
g66
(dp4202
sg75
g4196
sg68
(lp4203
g61
(g62
g63
NtRp4204
(dp4205
g66
(dp4206
g74
I4
ssg75
g4200
sg68
(lp4207
g61
(g70
g63
NtRp4208
(dp4209
g66
(dp4210
g74
I3
ssg75
Nsg68
(lp4211
g61
(g77
g63
NtRp4212
(dp4213
g66
(dp4214
sg75
g4208
sg68
(lp4215
g61
(g82
g63
NtRp4216
(dp4217
g66
(dp4218
sg75
g4212
sg68
(lp4219
g61
(g62
g63
NtRp4220
(dp4221
g66
(dp4222
g74
I3
ssg75
g4216
sg68
(lp4223
g61
(cgluon.html
SPAN
p4224
g63
NtRp4225
(dp4226
g66
(dp4227
g86
S'color:yellow'
p4228
ssg75
Nsg68
(lp4229
g4099
asbasbasbasbag61
(g77
g63
NtRp4230
(dp4231
g66
(dp4232
sg75
g4208
sg68
(lp4233
g61
(g82
g63
NtRp4234
(dp4235
g66
(dp4236
sg75
g4230
sg68
(lp4237
g61
(g62
g63
NtRp4238
(dp4239
g66
(dp4240
g74
I3
ssg75
g4234
sg68
(lp4241
g104
asbasbasbag61
(g77
g63
NtRp4242
(dp4243
g66
(dp4244
sg75
g4208
sg68
(lp4245
g61
(g82
g63
NtRp4246
(dp4247
g66
(dp4248
sg75
g4242
sg68
(lp4249
g61
(g62
g63
NtRp4250
(dp4251
g66
(dp4252
g74
I3
ssg75
g4246
sg68
(lp4253
S'None'
p4254
asbasbasbag61
(g77
g63
NtRp4255
(dp4256
g66
(dp4257
sg75
g4208
sg68
(lp4258
g61
(g82
g63
NtRp4259
(dp4260
g66
(dp4261
sg75
g4255
sg68
(lp4262
g61
(g62
g63
NtRp4263
(dp4264
g66
(dp4265
g74
I3
ssg75
g4259
sg68
(lp4266
g61
(g70
g63
NtRp4267
(dp4268
g66
(dp4269
g74
I2
ssg75
Nsg68
(lp4270
g61
(g77
g63
NtRp4271
(dp4272
g66
(dp4273
sg75
g4267
sg68
(lp4274
g61
(g82
g63
NtRp4275
(dp4276
g66
(dp4277
sg75
g4271
sg68
(lp4278
g61
(g62
g63
NtRp4279
(dp4280
g66
(dp4281
g74
I2
ssg75
g4275
sg68
(lp4282
g61
(g70
g63
NtRp4283
(dp4284
g66
(dp4285
g74
I1
ssg75
Nsg68
(lp4286
g61
(g77
g63
NtRp4287
(dp4288
g66
(dp4289
sg75
g4283
sg68
(lp4290
g61
(g82
g63
NtRp4291
(dp4292
g66
(dp4293
sg75
g4287
sg68
(lp4294
g61
(g62
g63
NtRp4295
(dp4296
g66
(dp4297
g74
I1
ssg75
g4291
sg68
(lp4298
g4153
(S's\x08\x00\x00\x00My Sites'
tRp4299
asbasbasbag61
(g77
g63
NtRp4300
(dp4301
g66
(dp4302
sg75
g4283
sg68
(lp4303
g61
(g82
g63
NtRp4304
(dp4305
g66
(dp4306
sg75
g4300
sg68
(lp4307
g61
(g62
g63
NtRp4308
(dp4309
g66
(dp4310
g74
I1
ssg75
g4304
sg68
(lp4311
I00
asbasbasbag61
(g77
g63
NtRp4312
(dp4313
g66
(dp4314
sg75
g4283
sg68
(lp4315
g61
(g82
g63
NtRp4316
(dp4317
g66
(dp4318
sg75
g4312
sg68
(lp4319
g61
(g62
g63
NtRp4320
(dp4321
g66
(dp4322
g74
I1
ssg75
g4316
sg68
(lp4323
S'/admin/default/site'
p4324
asbasbasbasbasbasbasbag61
(g77
g63
NtRp4325
(dp4326
g66
(dp4327
sg75
g4267
sg68
(lp4328
g61
(g82
g63
NtRp4329
(dp4330
g66
(dp4331
sg75
g4325
sg68
(lp4332
g61
(g62
g63
NtRp4333
(dp4334
g66
(dp4335
g74
I2
ssg75
g4329
sg68
(lp4336
g61
(g70
g63
NtRp4337
(dp4338
g66
(dp4339
g74
I1
ssg75
Nsg68
(lp4340
g61
(g77
g63
NtRp4341
(dp4342
g66
(dp4343
sg75
g4337
sg68
(lp4344
g61
(g82
g63
NtRp4345
(dp4346
g66
(dp4347
sg75
g4341
sg68
(lp4348
g61
(g62
g63
NtRp4349
(dp4350
g66
(dp4351
g74
I1
ssg75
g4345
sg68
(lp4352
g4153
(S's\x08\x00\x00\x00This App'
tRp4353
asbasbasbag61
(g77
g63
NtRp4354
(dp4355
g66
(dp4356
sg75
g4337
sg68
(lp4357
g61
(g82
g63
NtRp4358
(dp4359
g66
(dp4360
sg75
g4354
sg68
(lp4361
g61
(g62
g63
NtRp4362
(dp4363
g66
(dp4364
g74
I1
ssg75
g4358
sg68
(lp4365
I00
asbasbasbag61
(g77
g63
NtRp4366
(dp4367
g66
(dp4368
sg75
g4337
sg68
(lp4369
g61
(g82
g63
NtRp4370
(dp4371
g66
(dp4372
sg75
g4366
sg68
(lp4373
g61
(g62
g63
NtRp4374
(dp4375
g66
(dp4376
g74
I1
ssg75
g4370
sg68
(lp4377
S'/admin/default/design/pro'
p4378
asbasbasbag61
(g77
g63
NtRp4379
(dp4380
g66
(dp4381
sg75
g4337
sg68
(lp4382
g61
(g82
g63
NtRp4383
(dp4384
g66
(dp4385
sg75
g4379
sg68
(lp4386
g61
(g62
g63
NtRp4387
(dp4388
g66
(dp4389
g74
I1
ssg75
g4383
sg68
(lp4390
(lp4391
(g4153
(S't\n\x00\x00\x00Controller'
tRp4392
I00
S'/admin/default/edit/pro/controllers/default.py'
tp4393
a(g4153
(S't\x04\x00\x00\x00View'
tRp4394
I00
S'/admin/default/edit/pro/views/default/kruskal.html'
tp4395
a(g4153
(S't\x06\x00\x00\x00Layout'
tRp4396
I00
S'/admin/default/edit/pro/views/layout.html'
tp4397
a(g4153
(S't\n\x00\x00\x00Stylesheet'
tRp4398
I00
S'/admin/default/edit/pro/static/css/web2py.css'
tp4399
a(g4153
(S's\x08\x00\x00\x00DB Model'
tRp4400
I00
S'/admin/default/edit/pro/models/db.py'
tp4401
a(g4153
(S's\n\x00\x00\x00Menu Model'
tRp4402
I00
S'/admin/default/edit/pro/models/menu.py'
tp4403
a(g4153
(S't\x08\x00\x00\x00Database'
tRp4404
I00
S'/pro/appadmin/index'
tp4405
a(g4153
(S't\x06\x00\x00\x00Errors'
tRp4406
I00
S'/admin/default/errors/pro'
tp4407
a(g4153
(S't\x05\x00\x00\x00About'
tRp4408
I00
S'/admin/default/about/pro'
tp4409
aasbasbasbasbasbasbasbag61
(g77
g63
NtRp4410
(dp4411
g66
(dp4412
sg75
g4267
sg68
(lp4413
g61
(g82
g63
NtRp4414
(dp4415
g66
(dp4416
sg75
g4410
sg68
(lp4417
g61
(g62
g63
NtRp4418
(dp4419
g66
(dp4420
g74
I2
ssg75
g4414
sg68
(lp4421
g61
(g70
g63
NtRp4422
(dp4423
g66
(dp4424
g74
I1
ssg75
Nsg68
(lp4425
g61
(g77
g63
NtRp4426
(dp4427
g66
(dp4428
sg75
g4422
sg68
(lp4429
g61
(g82
g63
NtRp4430
(dp4431
g66
(dp4432
sg75
g4426
sg68
(lp4433
g61
(g62
g63
NtRp4434
(dp4435
g66
(dp4436
g74
I1
ssg75
g4430
sg68
(lp4437
S'web2py.com'
p4438
asbasbasbag61
(g77
g63
NtRp4439
(dp4440
g66
(dp4441
sg75
g4422
sg68
(lp4442
g61
(g82
g63
NtRp4443
(dp4444
g66
(dp4445
sg75
g4439
sg68
(lp4446
g61
(g62
g63
NtRp4447
(dp4448
g66
(dp4449
g74
I1
ssg75
g4443
sg68
(lp4450
I00
asbasbasbag61
(g77
g63
NtRp4451
(dp4452
g66
(dp4453
sg75
g4422
sg68
(lp4454
g61
(g82
g63
NtRp4455
(dp4456
g66
(dp4457
sg75
g4451
sg68
(lp4458
g61
(g62
g63
NtRp4459
(dp4460
g66
(dp4461
g74
I1
ssg75
g4455
sg68
(lp4462
S'http://www.web2py.com'
p4463
asbasbasbag61
(g77
g63
NtRp4464
(dp4465
g66
(dp4466
sg75
g4422
sg68
(lp4467
g61
(g82
g63
NtRp4468
(dp4469
g66
(dp4470
sg75
g4464
sg68
(lp4471
g61
(g62
g63
NtRp4472
(dp4473
g66
(dp4474
g74
I1
ssg75
g4468
sg68
(lp4475
(lp4476
(g4153
(S't\x08\x00\x00\x00Download'
tRp4477
I00
S'http://www.web2py.com/examples/default/download'
p4478
tp4479
a(g4153
(S't\x07\x00\x00\x00Support'
tRp4480
I00
S'http://www.web2py.com/examples/default/support'
p4481
tp4482
a(g4153
(S't\x04\x00\x00\x00Demo'
tRp4483
I00
S'http://web2py.com/demo_admin'
p4484
tp4485
a(g4153
(S's\x0e\x00\x00\x00Quick Examples'
tRp4486
I00
S'http://web2py.com/examples/default/examples'
p4487
tp4488
a(g4153
(S't\x03\x00\x00\x00FAQ'
tRp4489
I00
S'http://web2py.com/AlterEgo'
p4490
tp4491
a(g4153
(S't\x06\x00\x00\x00Videos'
tRp4492
I00
S'http://www.web2py.com/examples/default/videos/'
p4493
tp4494
a(g4153
(S's\x11\x00\x00\x00Free Applications'
tRp4495
I00
S'http://web2py.com/appliances'
p4496
tp4497
a(g4153
(S't\x07\x00\x00\x00Plugins'
tRp4498
I00
S'http://web2py.com/plugins'
p4499
tp4500
a(g4153
(S't\x07\x00\x00\x00Layouts'
tRp4501
I00
S'http://web2py.com/layouts'
p4502
tp4503
a(g4153
(S't\x07\x00\x00\x00Recipes'
tRp4504
I00
S'http://web2pyslices.com/'
p4505
tp4506
a(g4153
(S't\x08\x00\x00\x00Semantic'
tRp4507
I00
S'http://web2py.com/semantic'
p4508
tp4509
aasbasbasbasbasbasbasbag61
(g77
g63
NtRp4510
(dp4511
g66
(dp4512
sg75
g4267
sg68
(lp4513
g61
(g82
g63
NtRp4514
(dp4515
g66
(dp4516
sg75
g4510
sg68
(lp4517
g61
(g62
g63
NtRp4518
(dp4519
g66
(dp4520
g74
I2
ssg75
g4514
sg68
(lp4521
g61
(g70
g63
NtRp4522
(dp4523
g66
(dp4524
g74
I1
ssg75
Nsg68
(lp4525
g61
(g77
g63
NtRp4526
(dp4527
g66
(dp4528
sg75
g4522
sg68
(lp4529
g61
(g82
g63
NtRp4530
(dp4531
g66
(dp4532
sg75
g4526
sg68
(lp4533
g61
(g62
g63
NtRp4534
(dp4535
g66
(dp4536
g74
I1
ssg75
g4530
sg68
(lp4537
g4153
(S't\r\x00\x00\x00Documentation'
tRp4538
asbasbasbag61
(g77
g63
NtRp4539
(dp4540
g66
(dp4541
sg75
g4522
sg68
(lp4542
g61
(g82
g63
NtRp4543
(dp4544
g66
(dp4545
sg75
g4539
sg68
(lp4546
g61
(g62
g63
NtRp4547
(dp4548
g66
(dp4549
g74
I1
ssg75
g4543
sg68
(lp4550
I00
asbasbasbag61
(g77
g63
NtRp4551
(dp4552
g66
(dp4553
sg75
g4522
sg68
(lp4554
g61
(g82
g63
NtRp4555
(dp4556
g66
(dp4557
sg75
g4551
sg68
(lp4558
g61
(g62
g63
NtRp4559
(dp4560
g66
(dp4561
g74
I1
ssg75
g4555
sg68
(lp4562
S'http://www.web2py.com/book'
p4563
asbasbasbag61
(g77
g63
NtRp4564
(dp4565
g66
(dp4566
sg75
g4522
sg68
(lp4567
g61
(g82
g63
NtRp4568
(dp4569
g66
(dp4570
sg75
g4564
sg68
(lp4571
g61
(g62
g63
NtRp4572
(dp4573
g66
(dp4574
g74
I1
ssg75
g4568
sg68
(lp4575
(lp4576
(g4153
(S't\x07\x00\x00\x00Preface'
tRp4577
I00
S'http://www.web2py.com/book/default/chapter/00'
p4578
tp4579
a(g4153
(S't\x0c\x00\x00\x00Introduction'
tRp4580
I00
S'http://www.web2py.com/book/default/chapter/01'
p4581
tp4582
a(g4153
(S't\x06\x00\x00\x00Python'
tRp4583
I00
S'http://www.web2py.com/book/default/chapter/02'
p4584
tp4585
a(g4153
(S't\x08\x00\x00\x00Overview'
tRp4586
I00
S'http://www.web2py.com/book/default/chapter/03'
p4587
tp4588
a(g4153
(S's\x08\x00\x00\x00The Core'
tRp4589
I00
S'http://www.web2py.com/book/default/chapter/04'
p4590
tp4591
a(g4153
(S's\t\x00\x00\x00The Views'
tRp4592
I00
S'http://www.web2py.com/book/default/chapter/05'
p4593
tp4594
a(g4153
(S't\x08\x00\x00\x00Database'
tRp4595
I00
S'http://www.web2py.com/book/default/chapter/06'
p4596
tp4597
a(g4153
(S's\x14\x00\x00\x00Forms and Validators'
tRp4598
I00
S'http://www.web2py.com/book/default/chapter/07'
p4599
tp4600
a(g4153
(S's\r\x00\x00\x00Email and SMS'
tRp4601
I00
S'http://www.web2py.com/book/default/chapter/08'
p4602
tp4603
a(g4153
(S's\x0e\x00\x00\x00Access Control'
tRp4604
I00
S'http://www.web2py.com/book/default/chapter/09'
p4605
tp4606
a(g4153
(S't\x08\x00\x00\x00Services'
tRp4607
I00
S'http://www.web2py.com/book/default/chapter/10'
p4608
tp4609
a(g4153
(S's\x0c\x00\x00\x00Ajax Recipes'
tRp4610
I00
S'http://www.web2py.com/book/default/chapter/11'
p4611
tp4612
a(g4153
(S's\x16\x00\x00\x00Components and Plugins'
tRp4613
I00
S'http://www.web2py.com/book/default/chapter/12'
p4614
tp4615
a(g4153
(S's\x12\x00\x00\x00Deployment Recipes'
tRp4616
I00
S'http://www.web2py.com/book/default/chapter/13'
p4617
tp4618
a(g4153
(S's\r\x00\x00\x00Other Recipes'
tRp4619
I00
S'http://www.web2py.com/book/default/chapter/14'
p4620
tp4621
a(g4153
(S's\r\x00\x00\x00Buy this book'
tRp4622
I00
S'http://stores.lulu.com/web2py'
p4623
tp4624
aasbasbasbasbasbasbasbag61
(g77
g63
NtRp4625
(dp4626
g66
(dp4627
sg75
g4267
sg68
(lp4628
g61
(g82
g63
NtRp4629
(dp4630
g66
(dp4631
sg75
g4625
sg68
(lp4632
g61
(g62
g63
NtRp4633
(dp4634
g66
(dp4635
g74
I2
ssg75
g4629
sg68
(lp4636
g61
(g70
g63
NtRp4637
(dp4638
g66
(dp4639
g74
I1
ssg75
Nsg68
(lp4640
g61
(g77
g63
NtRp4641
(dp4642
g66
(dp4643
sg75
g4637
sg68
(lp4644
g61
(g82
g63
NtRp4645
(dp4646
g66
(dp4647
sg75
g4641
sg68
(lp4648
g61
(g62
g63
NtRp4649
(dp4650
g66
(dp4651
g74
I1
ssg75
g4645
sg68
(lp4652
g4153
(S't\t\x00\x00\x00Community'
tRp4653
asbasbasbag61
(g77
g63
NtRp4654
(dp4655
g66
(dp4656
sg75
g4637
sg68
(lp4657
g61
(g82
g63
NtRp4658
(dp4659
g66
(dp4660
sg75
g4654
sg68
(lp4661
g61
(g62
g63
NtRp4662
(dp4663
g66
(dp4664
g74
I1
ssg75
g4658
sg68
(lp4665
I00
asbasbasbag61
(g77
g63
NtRp4666
(dp4667
g66
(dp4668
sg75
g4637
sg68
(lp4669
g61
(g82
g63
NtRp4670
(dp4671
g66
(dp4672
sg75
g4666
sg68
(lp4673
g61
(g62
g63
NtRp4674
(dp4675
g66
(dp4676
g74
I1
ssg75
g4670
sg68
(lp4677
Nasbasbasbag61
(g77
g63
NtRp4678
(dp4679
g66
(dp4680
sg75
g4637
sg68
(lp4681
g61
(g82
g63
NtRp4682
(dp4683
g66
(dp4684
sg75
g4678
sg68
(lp4685
g61
(g62
g63
NtRp4686
(dp4687
g66
(dp4688
g74
I1
ssg75
g4682
sg68
(lp4689
(lp4690
(g4153
(S't\x06\x00\x00\x00Groups'
tRp4691
I00
S'http://www.web2py.com/examples/default/usergroups'
p4692
tp4693
a(g4153
(S't\x07\x00\x00\x00Twitter'
tRp4694
I00
S'http://twitter.com/web2py'
p4695
tp4696
a(g4153
(S's\t\x00\x00\x00Live Chat'
tRp4697
I00
S'http://webchat.freenode.net/?channels=web2py'
p4698
tp4699
aasbasbasbasbasbasbasbag61
(g77
g63
NtRp4700
(dp4701
g66
(dp4702
sg75
g4267
sg68
(lp4703
g61
(g82
g63
NtRp4704
(dp4705
g66
(dp4706
sg75
g4700
sg68
(lp4707
g61
(g62
g63
NtRp4708
(dp4709
g66
(dp4710
g74
I2
ssg75
g4704
sg68
(lp4711
g61
(g70
g63
NtRp4712
(dp4713
g66
(dp4714
g74
I1
ssg75
Nsg68
(lp4715
g61
(g77
g63
NtRp4716
(dp4717
g66
(dp4718
sg75
g4712
sg68
(lp4719
g61
(g82
g63
NtRp4720
(dp4721
g66
(dp4722
sg75
g4716
sg68
(lp4723
g61
(g62
g63
NtRp4724
(dp4725
g66
(dp4726
g74
I1
ssg75
g4720
sg68
(lp4727
g4153
(S't\x07\x00\x00\x00Plugins'
tRp4728
asbasbasbag61
(g77
g63
NtRp4729
(dp4730
g66
(dp4731
sg75
g4712
sg68
(lp4732
g61
(g82
g63
NtRp4733
(dp4734
g66
(dp4735
sg75
g4729
sg68
(lp4736
g61
(g62
g63
NtRp4737
(dp4738
g66
(dp4739
g74
I1
ssg75
g4733
sg68
(lp4740
I00
asbasbasbag61
(g77
g63
NtRp4741
(dp4742
g66
(dp4743
sg75
g4712
sg68
(lp4744
g61
(g82
g63
NtRp4745
(dp4746
g66
(dp4747
sg75
g4741
sg68
(lp4748
g61
(g62
g63
NtRp4749
(dp4750
g66
(dp4751
g74
I1
ssg75
g4745
sg68
(lp4752
Nasbasbasbag61
(g77
g63
NtRp4753
(dp4754
g66
(dp4755
sg75
g4712
sg68
(lp4756
g61
(g82
g63
NtRp4757
(dp4758
g66
(dp4759
sg75
g4753
sg68
(lp4760
g61
(g62
g63
NtRp4761
(dp4762
g66
(dp4763
g74
I1
ssg75
g4757
sg68
(lp4764
(lp4765
(S'plugin_wiki'
p4766
I00
S'http://web2py.com/examples/default/download'
p4767
tp4768
a(g4153
(S's\r\x00\x00\x00Other Plugins'
tRp4769
I00
g4499
tp4770
a(g4153
(S's\x0e\x00\x00\x00Layout Plugins'
tRp4771
I00
g4502
tp4772
aasbasbasbasbasbasbasbasbasbasbasbasbasbasbasbasbasbasbasbag61
(g77
g63
NtRp4773
(dp4774
g66
(dp4775
sg75
g3663
sg68
(lp4776
g61
(g82
g63
NtRp4777
(dp4778
g66
(dp4779
g86
g87
ssg75
g4773
sg68
(lp4780
S'meta'
p4781
asbag61
(g82
g63
NtRp4782
(dp4783
g66
(dp4784
g93
g94
ssg75
g4773
sg68
(lp4785
S':'
asbag61
(g82
g63
NtRp4786
(dp4787
g66
(dp4788
sg75
g4773
sg68
(lp4789
g61
(g62
g63
NtRp4790
(dp4791
g66
(dp4792
g74
I5
ssg75
g4786
sg68
(lp4793
g61
(g70
g63
NtRp4794
(dp4795
g66
(dp4796
g74
I4
ssg75
Nsg68
(lp4797
g61
(g77
g63
NtRp4798
(dp4799
g66
(dp4800
sg75
g4794
sg68
(lp4801
g61
(g82
g63
NtRp4802
(dp4803
g66
(dp4804
g86
g87
ssg75
g4798
sg68
(lp4805
S'author'
p4806
asbag61
(g82
g63
NtRp4807
(dp4808
g66
(dp4809
g93
g94
ssg75
g4798
sg68
(lp4810
S':'
asbag61
(g82
g63
NtRp4811
(dp4812
g66
(dp4813
sg75
g4798
sg68
(lp4814
g61
(g62
g63
NtRp4815
(dp4816
g66
(dp4817
g74
I4
ssg75
g4811
sg68
(lp4818
S'Your Name <you@example.com>'
p4819
asbasbasbag61
(g77
g63
NtRp4820
(dp4821
g66
(dp4822
sg75
g4794
sg68
(lp4823
g61
(g82
g63
NtRp4824
(dp4825
g66
(dp4826
g86
g87
ssg75
g4820
sg68
(lp4827
S'copyright'
p4828
asbag61
(g82
g63
NtRp4829
(dp4830
g66
(dp4831
g93
g94
ssg75
g4820
sg68
(lp4832
S':'
asbag61
(g82
g63
NtRp4833
(dp4834
g66
(dp4835
sg75
g4820
sg68
(lp4836
g61
(g62
g63
NtRp4837
(dp4838
g66
(dp4839
g74
I4
ssg75
g4833
sg68
(lp4840
S'Copyright 2011'
p4841
asbasbasbag61
(g77
g63
NtRp4842
(dp4843
g66
(dp4844
sg75
g4794
sg68
(lp4845
g61
(g82
g63
NtRp4846
(dp4847
g66
(dp4848
g86
g87
ssg75
g4842
sg68
(lp4849
S'description'
p4850
asbag61
(g82
g63
NtRp4851
(dp4852
g66
(dp4853
g93
g94
ssg75
g4842
sg68
(lp4854
S':'
asbag61
(g82
g63
NtRp4855
(dp4856
g66
(dp4857
sg75
g4842
sg68
(lp4858
g61
(g62
g63
NtRp4859
(dp4860
g66
(dp4861
g74
I4
ssg75
g4855
sg68
(lp4862
S'a cool new app'
p4863
asbasbasbag61
(g77
g63
NtRp4864
(dp4865
g66
(dp4866
sg75
g4794
sg68
(lp4867
g61
(g82
g63
NtRp4868
(dp4869
g66
(dp4870
g86
g87
ssg75
g4864
sg68
(lp4871
S'generator'
p4872
asbag61
(g82
g63
NtRp4873
(dp4874
g66
(dp4875
g93
g94
ssg75
g4864
sg68
(lp4876
S':'
asbag61
(g82
g63
NtRp4877
(dp4878
g66
(dp4879
sg75
g4864
sg68
(lp4880
g61
(g62
g63
NtRp4881
(dp4882
g66
(dp4883
g74
I4
ssg75
g4877
sg68
(lp4884
S'Web2py Web Framework'
p4885
asbasbasbag61
(g77
g63
NtRp4886
(dp4887
g66
(dp4888
sg75
g4794
sg68
(lp4889
g61
(g82
g63
NtRp4890
(dp4891
g66
(dp4892
g86
g87
ssg75
g4886
sg68
(lp4893
S'keywords'
p4894
asbag61
(g82
g63
NtRp4895
(dp4896
g66
(dp4897
g93
g94
ssg75
g4886
sg68
(lp4898
S':'
asbag61
(g82
g63
NtRp4899
(dp4900
g66
(dp4901
sg75
g4886
sg68
(lp4902
g61
(g62
g63
NtRp4903
(dp4904
g66
(dp4905
g74
I4
ssg75
g4899
sg68
(lp4906
S'web2py, python, framework'
p4907
asbasbasbasbasbasbasbag61
(g77
g63
NtRp4908
(dp4909
g66
(dp4910
sg75
g3663
sg68
(lp4911
g61
(g82
g63
NtRp4912
(dp4913
g66
(dp4914
g86
g87
ssg75
g4908
sg68
(lp4915
S'models_to_run'
p4916
asbag61
(g82
g63
NtRp4917
(dp4918
g66
(dp4919
g93
g94
ssg75
g4908
sg68
(lp4920
S':'
asbag61
(g82
g63
NtRp4921
(dp4922
g66
(dp4923
sg75
g4908
sg68
(lp4924
g61
(g62
g63
NtRp4925
(dp4926
g66
(dp4927
g74
I5
ssg75
g4921
sg68
(lp4928
g61
(g70
g63
NtRp4929
(dp4930
g66
(dp4931
g74
I4
ssg75
Nsg68
(lp4932
g61
(g77
g63
NtRp4933
(dp4934
g66
(dp4935
sg75
g4929
sg68
(lp4936
g61
(g82
g63
NtRp4937
(dp4938
g66
(dp4939
sg75
g4933
sg68
(lp4940
g61
(g62
g63
NtRp4941
(dp4942
g66
(dp4943
g74
I4
ssg75
g4937
sg68
(lp4944
S'^\\w+\\.py$'
p4945
asbasbasbag61
(g77
g63
NtRp4946
(dp4947
g66
(dp4948
sg75
g4929
sg68
(lp4949
g61
(g82
g63
NtRp4950
(dp4951
g66
(dp4952
sg75
g4946
sg68
(lp4953
g61
(g62
g63
NtRp4954
(dp4955
g66
(dp4956
g74
I4
ssg75
g4950
sg68
(lp4957
S'^default/\\w+\\.py$'
p4958
asbasbasbag61
(g77
g63
NtRp4959
(dp4960
g66
(dp4961
sg75
g4929
sg68
(lp4962
g61
(g82
g63
NtRp4963
(dp4964
g66
(dp4965
sg75
g4959
sg68
(lp4966
g61
(g62
g63
NtRp4967
(dp4968
g66
(dp4969
g74
I4
ssg75
g4963
sg68
(lp4970
S'^default/kruskal/\\w+\\.py$'
p4971
asbasbasbasbasbasbasbag61
(g77
g63
NtRp4972
(dp4973
g66
(dp4974
sg75
g3663
sg68
(lp4975
g61
(g82
g63
NtRp4976
(dp4977
g66
(dp4978
g86
g87
ssg75
g4972
sg68
(lp4979
S'postprocessing'
p4980
asbag61
(g82
g63
NtRp4981
(dp4982
g66
(dp4983
g93
g94
ssg75
g4972
sg68
(lp4984
S':'
asbag61
(g82
g63
NtRp4985
(dp4986
g66
(dp4987
sg75
g4972
sg68
(lp4988
g61
(g62
g63
NtRp4989
(dp4990
g66
(dp4991
g74
I5
ssg75
g4985
sg68
(lp4992
g61
(g70
g63
NtRp4993
(dp4994
g66
(dp4995
g74
I4
ssg75
Nsg68
(lp4996
sbasbasbasbag61
(g77
g63
NtRp4997
(dp4998
g66
(dp4999
sg75
g3663
sg68
(lp5000
g61
(g82
g63
NtRp5001
(dp5002
g66
(dp5003
g86
g87
ssg75
g4997
sg68
(lp5004
S'session_cookie_expires'
p5005
asbag61
(g82
g63
NtRp5006
(dp5007
g66
(dp5008
g93
g94
ssg75
g4997
sg68
(lp5009
S':'
asbag61
(g82
g63
NtRp5010
(dp5011
g66
(dp5012
sg75
g4997
sg68
(lp5013
g61
(g62
g63
NtRp5014
(dp5015
g66
(dp5016
g74
I5
ssg75
g5010
sg68
(lp5017
S'None'
p5018
asbasbasbag61
(g77
g63
NtRp5019
(dp5020
g66
(dp5021
sg75
g3663
sg68
(lp5022
g61
(g82
g63
NtRp5023
(dp5024
g66
(dp5025
g86
g87
ssg75
g5019
sg68
(lp5026
S'session_data_name'
p5027
asbag61
(g82
g63
NtRp5028
(dp5029
g66
(dp5030
g93
g94
ssg75
g5019
sg68
(lp5031
S':'
asbag61
(g82
g63
NtRp5032
(dp5033
g66
(dp5034
sg75
g5019
sg68
(lp5035
g61
(g62
g63
NtRp5036
(dp5037
g66
(dp5038
g74
I5
ssg75
g5032
sg68
(lp5039
S'session_data_pro'
p5040
asbasbasbag61
(g77
g63
NtRp5041
(dp5042
g66
(dp5043
sg75
g3663
sg68
(lp5044
g61
(g82
g63
NtRp5045
(dp5046
g66
(dp5047
g86
g87
ssg75
g5041
sg68
(lp5048
S'session_file'
p5049
asbag61
(g82
g63
NtRp5050
(dp5051
g66
(dp5052
g93
g94
ssg75
g5041
sg68
(lp5053
S':'
asbag61
(g82
g63
NtRp5054
(dp5055
g66
(dp5056
sg75
g5041
sg68
(lp5057
g61
(g62
g63
NtRp5058
(dp5059
g66
(dp5060
g74
I5
ssg75
g5054
sg68
(lp5061
S"<open file 'C:\\Users\\ARPITA\\Downloads\\web2py_win\\web2py\\applications\\pro\\sessions\\127.0.0.1-afe74a09-07f0-44a6-b55c-1a0cbed3087c', mode 'rb+' at 0x06DCCBD0>"
p5062
asbasbasbag61
(g77
g63
NtRp5063
(dp5064
g66
(dp5065
sg75
g3663
sg68
(lp5066
g61
(g82
g63
NtRp5067
(dp5068
g66
(dp5069
g86
g87
ssg75
g5063
sg68
(lp5070
S'session_filename'
p5071
asbag61
(g82
g63
NtRp5072
(dp5073
g66
(dp5074
g93
g94
ssg75
g5063
sg68
(lp5075
S':'
asbag61
(g82
g63
NtRp5076
(dp5077
g66
(dp5078
sg75
g5063
sg68
(lp5079
g61
(g62
g63
NtRp5080
(dp5081
g66
(dp5082
g74
I5
ssg75
g5076
sg68
(lp5083
S'C:\\Users\\ARPITA\\Downloads\\web2py_win\\web2py\\applications\\pro\\sessions\\127.0.0.1-afe74a09-07f0-44a6-b55c-1a0cbed3087c'
p5084
asbasbasbag61
(g77
g63
NtRp5085
(dp5086
g66
(dp5087
sg75
g3663
sg68
(lp5088
g61
(g82
g63
NtRp5089
(dp5090
g66
(dp5091
g86
g87
ssg75
g5085
sg68
(lp5092
S'session_id'
p5093
asbag61
(g82
g63
NtRp5094
(dp5095
g66
(dp5096
g93
g94
ssg75
g5085
sg68
(lp5097
S':'
asbag61
(g82
g63
NtRp5098
(dp5099
g66
(dp5100
sg75
g5085
sg68
(lp5101
g61
(g62
g63
NtRp5102
(dp5103
g66
(dp5104
g74
I5
ssg75
g5098
sg68
(lp5105
g479
asbasbasbag61
(g77
g63
NtRp5106
(dp5107
g66
(dp5108
sg75
g3663
sg68
(lp5109
g61
(g82
g63
NtRp5110
(dp5111
g66
(dp5112
g86
g87
ssg75
g5106
sg68
(lp5113
S'session_id_name'
p5114
asbag61
(g82
g63
NtRp5115
(dp5116
g66
(dp5117
g93
g94
ssg75
g5106
sg68
(lp5118
S':'
asbag61
(g82
g63
NtRp5119
(dp5120
g66
(dp5121
sg75
g5106
sg68
(lp5122
g61
(g62
g63
NtRp5123
(dp5124
g66
(dp5125
g74
I5
ssg75
g5119
sg68
(lp5126
g3720
asbasbasbag61
(g77
g63
NtRp5127
(dp5128
g66
(dp5129
sg75
g3663
sg68
(lp5130
g61
(g82
g63
NtRp5131
(dp5132
g66
(dp5133
g86
g87
ssg75
g5127
sg68
(lp5134
S'session_locked'
p5135
asbag61
(g82
g63
NtRp5136
(dp5137
g66
(dp5138
g93
g94
ssg75
g5127
sg68
(lp5139
S':'
asbag61
(g82
g63
NtRp5140
(dp5141
g66
(dp5142
sg75
g5127
sg68
(lp5143
g61
(g62
g63
NtRp5144
(dp5145
g66
(dp5146
g74
I5
ssg75
g5140
sg68
(lp5147
g1772
asbasbasbag61
(g77
g63
NtRp5148
(dp5149
g66
(dp5150
sg75
g3663
sg68
(lp5151
g61
(g82
g63
NtRp5152
(dp5153
g66
(dp5154
g86
g87
ssg75
g5148
sg68
(lp5155
S'session_new'
p5156
asbag61
(g82
g63
NtRp5157
(dp5158
g66
(dp5159
g93
g94
ssg75
g5148
sg68
(lp5160
S':'
asbag61
(g82
g63
NtRp5161
(dp5162
g66
(dp5163
sg75
g5148
sg68
(lp5164
g61
(g62
g63
NtRp5165
(dp5166
g66
(dp5167
g74
I5
ssg75
g5161
sg68
(lp5168
g104
asbasbasbag61
(g77
g63
NtRp5169
(dp5170
g66
(dp5171
sg75
g3663
sg68
(lp5172
g61
(g82
g63
NtRp5173
(dp5174
g66
(dp5175
g86
g87
ssg75
g5169
sg68
(lp5176
S'session_storage_type'
p5177
asbag61
(g82
g63
NtRp5178
(dp5179
g66
(dp5180
g93
g94
ssg75
g5169
sg68
(lp5181
S':'
asbag61
(g82
g63
NtRp5182
(dp5183
g66
(dp5184
sg75
g5169
sg68
(lp5185
g61
(g62
g63
NtRp5186
(dp5187
g66
(dp5188
g74
I5
ssg75
g5182
sg68
(lp5189
g3203
asbasbasbag61
(g77
g63
NtRp5190
(dp5191
g66
(dp5192
sg75
g3663
sg68
(lp5193
g61
(g82
g63
NtRp5194
(dp5195
g66
(dp5196
g86
g87
ssg75
g5190
sg68
(lp5197
S'status'
p5198
asbag61
(g82
g63
NtRp5199
(dp5200
g66
(dp5201
g93
g94
ssg75
g5190
sg68
(lp5202
S':'
asbag61
(g82
g63
NtRp5203
(dp5204
g66
(dp5205
sg75
g5190
sg68
(lp5206
g61
(g62
g63
NtRp5207
(dp5208
g66
(dp5209
g74
I5
ssg75
g5203
sg68
(lp5210
S'200'
p5211
asbasbasbag61
(g77
g63
NtRp5212
(dp5213
g66
(dp5214
sg75
g3663
sg68
(lp5215
g61
(g82
g63
NtRp5216
(dp5217
g66
(dp5218
g86
g87
ssg75
g5212
sg68
(lp5219
S'subtitle'
p5220
asbag61
(g82
g63
NtRp5221
(dp5222
g66
(dp5223
g93
g94
ssg75
g5212
sg68
(lp5224
S':'
asbag61
(g82
g63
NtRp5225
(dp5226
g66
(dp5227
sg75
g5212
sg68
(lp5228
g61
(g62
g63
NtRp5229
(dp5230
g66
(dp5231
g74
I5
ssg75
g5225
sg68
(lp5232
g4153
(S's\r\x00\x00\x00customize me!'
tRp5233
asbasbasbag61
(g77
g63
NtRp5234
(dp5235
g66
(dp5236
sg75
g3663
sg68
(lp5237
g61
(g82
g63
NtRp5238
(dp5239
g66
(dp5240
g86
g87
ssg75
g5234
sg68
(lp5241
S'title'
p5242
asbag61
(g82
g63
NtRp5243
(dp5244
g66
(dp5245
g93
g94
ssg75
g5234
sg68
(lp5246
S':'
asbag61
(g82
g63
NtRp5247
(dp5248
g66
(dp5249
sg75
g5234
sg68
(lp5250
g61
(g62
g63
NtRp5251
(dp5252
g66
(dp5253
g74
I5
ssg75
g5247
sg68
(lp5254
S'Pro'
p5255
asbasbasbag61
(g77
g63
NtRp5256
(dp5257
g66
(dp5258
sg75
g3663
sg68
(lp5259
g61
(g82
g63
NtRp5260
(dp5261
g66
(dp5262
g86
g87
ssg75
g5256
sg68
(lp5263
S'view'
p5264
asbag61
(g82
g63
NtRp5265
(dp5266
g66
(dp5267
g93
g94
ssg75
g5256
sg68
(lp5268
S':'
asbag61
(g82
g63
NtRp5269
(dp5270
g66
(dp5271
sg75
g5256
sg68
(lp5272
g61
(g62
g63
NtRp5273
(dp5274
g66
(dp5275
g74
I5
ssg75
g5269
sg68
(lp5276
S'default/kruskal.html'
p5277
asbasbasbasbasbsS'locals'
p5278
(dp5279
S'a'
S"('select Designation from Employee where id==p[i];',)"
p5280
sS'self'
p5281
S'<gluon.dal.SQLiteAdapter object>'
p5282
sS'b'
g21
sS'command'
p5283
S"'select Designation from Employee where id==p[i];'"
p5284
sS't0'
p5285
S'1352778096.85'
p5286
sssS'traceback'
p5287
S'Traceback (most recent call last):\n  File "gluon/restricted.py", line 212, in restricted\n  File "C:\\Users\\ARPITA\\Downloads\\web2py_win\\web2py\\applications\\pro\\controllers/default.py", line 207, in <module>\n  File "gluon/globals.py", line 188, in <lambda>\n  File "C:\\Users\\ARPITA\\Downloads\\web2py_win\\web2py\\applications\\pro\\controllers/default.py", line 144, in kruskal\n  File "gluon/dal.py", line 7247, in executesql\n  File "gluon/dal.py", line 1694, in execute\n  File "gluon/dal.py", line 1688, in log_execute\nOperationalError: near "[i]": syntax error\n'
p5288
s.