(dp1
S'output'
p2
S"<type 'exceptions.KeyError'> 1"
p3
sS'layer'
p4
S'/home/arpita/courses/sem3/ssad/web2py/applications/project/controllers/default.py'
p5
sS'code'
p6
S'# -*- coding: utf-8 -*-\n# this file is released under public domain and you can use without limitations\n\n#########################################################################\n## This is a samples controller\n## - index is the default action of any application\n## - user is required for authentication and authorization\n## - download is for downloading files uploaded in the db (does streaming)\n## - call exposes all registered services (none by default)\n#########################################################################\n@auth.requires_membership(\'Administrator\')\ndef index():\n    emp=db().select(db.Employee.ALL, orderby=db.Employee.Name)\n    """\n    example action using the internationalization operator T and flash\n    rendered by views/default/index.html or views/generic.html\n    """\n    form=crud.create(db.Employee)\n    response.flash = "Welcome to web2py!"\n    return dict(message=T(\'Hello World\'),form=form,emp=emp)\n\ndef user():\n    """\n    exposes:\n    http://..../[app]/default/user/login\n    http://..../[app]/default/user/logout\n    http://..../[app]/default/user/register\n    http://..../[app]/default/user/profile\n    http://..../[app]/default/user/retrieve_password\n    http://..../[app]/default/user/change_password\n    use @auth.requires_login()\n        @auth.requires_membership(\'group name\')\n        @auth.requires_permission(\'read\',\'table name\',record_id)\n    to decorate functions that need access control\n    """\n    return dict(form=auth())\n\n\ndef download():\n    """\n    allows downloading of uploaded files\n    http://..../[app]/default/download/[filename]\n    """\n    return response.download(request,db)\n\n\ndef call():\n    """\n    exposes services. for example:\n    http://..../[app]/default/call/jsonrpc\n    decorate with @services.jsonrpc the functions to expose\n    supports xml, json, xmlrpc, jsonrpc, amfrpc, rss, csv\n    """\n    return service()\n\n\n@auth.requires_signature()\ndef data():\n    """\n    http://..../[app]/default/data/tables\n    http://..../[app]/default/data/create/[table]\n    http://..../[app]/default/data/read/[table]/[id]\n    http://..../[app]/default/data/update/[table]/[id]\n    http://..../[app]/default/data/delete/[table]/[id]\n    http://..../[app]/default/data/select/[table]\n    http://..../[app]/default/data/search/[table]\n    but URLs must be signed, i.e. linked with\n      A(\'table\',_href=URL(\'data/tables\',user_signature=True))\n    or with the signed load operator\n      LOAD(\'default\',\'data.load\',args=\'tables\',ajax=True,user_signature=True)\n    """\n    return dict(form=crud())\n\ndef graph():\n    empl=db.Employee(request.args(0))\n   # lis[i]=empl.id\n    #i=i+1\n    #empl=db(db.Employee.Name==em.Name).select()\n    return dict(empl=empl)  \n #   id=db(db.Employee.Name==emp.\n  #  redirect(URL(\'index\'))\n\n\ndef relate():\n   form=crud.create(db.Relation)\n   return dict(form=form)\n\na={}\nb={}\nc={}\ndef kruskal():\n    i=0 \n    lis = db().select(db.Relation.ALL)\n    for li in lis:\n       a=li.Emp1_id\n       b=li.Emp2_id\n       c[a][b]=1\n    return dict(lis=lis,i=i,c=c)\n\nresponse._vars=response._caller(kruskal)\n'
p7
sS'snapshot'
p8
(dp9
S'exception'
p10
(dp11
S'__hash__'
p12
S"<method-wrapper '__hash__' of exceptions.KeyError object>"
p13
sS'__setattr__'
p14
S"<method-wrapper '__setattr__' of exceptions.KeyError object>"
p15
sS'__reduce_ex__'
p16
S'<built-in method __reduce_ex__ of exceptions.KeyError object>'
p17
sS'__getslice__'
p18
S"<method-wrapper '__getslice__' of exceptions.KeyError object>"
p19
sS'__getitem__'
p20
S"<method-wrapper '__getitem__' of exceptions.KeyError object>"
p21
sS'__setstate__'
p22
S'<built-in method __setstate__ of exceptions.KeyError object>'
p23
sS'__reduce__'
p24
S'<built-in method __reduce__ of exceptions.KeyError object>'
p25
sS'__str__'
p26
S"<method-wrapper '__str__' of exceptions.KeyError object>"
p27
sS'__format__'
p28
S'<built-in method __format__ of exceptions.KeyError object>'
p29
sS'__getattribute__'
p30
S"<method-wrapper '__getattribute__' of exceptions.KeyError object>"
p31
sS'__class__'
p32
S"<type 'exceptions.KeyError'>"
p33
sS'__unicode__'
p34
S'<built-in method __unicode__ of exceptions.KeyError object>'
p35
sS'__delattr__'
p36
S"<method-wrapper '__delattr__' of exceptions.KeyError object>"
p37
sS'__subclasshook__'
p38
S'<built-in method __subclasshook__ of type object>'
p39
sS'__repr__'
p40
S"<method-wrapper '__repr__' of exceptions.KeyError object>"
p41
sS'args'
p42
S'(1,)'
p43
sS'__dict__'
p44
S'{}'
p45
sS'__sizeof__'
p46
S'<built-in method __sizeof__ of exceptions.KeyError object>'
p47
sS'__doc__'
p48
S"'Mapping key not found.'"
p49
sS'__init__'
p50
S"<method-wrapper '__init__' of exceptions.KeyError object>"
p51
sS'__new__'
p52
S'<built-in method __new__ of type object>'
p53
ssS'evalue'
p54
S'1'
sS'request'
p55
ccopy_reg
_reconstructor
p56
(cgluon.html
BEAUTIFY
p57
c__builtin__
object
p58
NtRp59
(dp60
S'attributes'
p61
(dp62
sS'components'
p63
(lp64
g56
(cgluon.html
TABLE
p65
g58
NtRp66
(dp67
g61
(dp68
S'level'
p69
I5
ssS'parent'
p70
Nsg63
(lp71
g56
(cgluon.html
TR
p72
g58
NtRp73
(dp74
g61
(dp75
sg70
g66
sg63
(lp76
g56
(cgluon.html
TD
p77
g58
NtRp78
(dp79
g61
(dp80
S'_style'
p81
S'font-weight:bold;vertical-align:top'
p82
ssg70
g73
sg63
(lp83
S'ajax'
p84
asbag56
(g77
g58
NtRp85
(dp86
g61
(dp87
S'_valign'
p88
S'top'
p89
ssg70
g73
sg63
(lp90
S':'
asbag56
(g77
g58
NtRp91
(dp92
g61
(dp93
sg70
g73
sg63
(lp94
g56
(g57
g58
NtRp95
(dp96
g61
(dp97
g69
I5
ssg70
g91
sg63
(lp98
S'False'
p99
asbasbasbag56
(g72
g58
NtRp100
(dp101
g61
(dp102
sg70
g66
sg63
(lp103
g56
(g77
g58
NtRp104
(dp105
g61
(dp106
g81
g82
ssg70
g100
sg63
(lp107
S'application'
p108
asbag56
(g77
g58
NtRp109
(dp110
g61
(dp111
g88
g89
ssg70
g100
sg63
(lp112
S':'
asbag56
(g77
g58
NtRp113
(dp114
g61
(dp115
sg70
g100
sg63
(lp116
g56
(g57
g58
NtRp117
(dp118
g61
(dp119
g69
I5
ssg70
g113
sg63
(lp120
S'project'
p121
asbasbasbag56
(g72
g58
NtRp122
(dp123
g61
(dp124
sg70
g66
sg63
(lp125
g56
(g77
g58
NtRp126
(dp127
g61
(dp128
g81
g82
ssg70
g122
sg63
(lp129
g42
asbag56
(g77
g58
NtRp130
(dp131
g61
(dp132
g88
g89
ssg70
g122
sg63
(lp133
S':'
asbag56
(g77
g58
NtRp134
(dp135
g61
(dp136
sg70
g122
sg63
(lp137
g56
(g57
g58
NtRp138
(dp139
g61
(dp140
g69
I5
ssg70
g134
sg63
(lp141
g56
(g65
g58
NtRp142
(dp143
g61
(dp144
g69
I4
ssg70
Nsg63
(lp145
sbasbasbasbag56
(g72
g58
NtRp146
(dp147
g61
(dp148
sg70
g66
sg63
(lp149
g56
(g77
g58
NtRp150
(dp151
g61
(dp152
g81
g82
ssg70
g146
sg63
(lp153
S'body'
p154
asbag56
(g77
g58
NtRp155
(dp156
g61
(dp157
g88
g89
ssg70
g146
sg63
(lp158
S':'
asbag56
(g77
g58
NtRp159
(dp160
g61
(dp161
sg70
g146
sg63
(lp162
g56
(g57
g58
NtRp163
(dp164
g61
(dp165
g69
I5
ssg70
g159
sg63
(lp166
S'<cStringIO.StringO object at 0x953a700>'
p167
asbasbasbag56
(g72
g58
NtRp168
(dp169
g61
(dp170
sg70
g66
sg63
(lp171
g56
(g77
g58
NtRp172
(dp173
g61
(dp174
g81
g82
ssg70
g168
sg63
(lp175
S'client'
p176
asbag56
(g77
g58
NtRp177
(dp178
g61
(dp179
g88
g89
ssg70
g168
sg63
(lp180
S':'
asbag56
(g77
g58
NtRp181
(dp182
g61
(dp183
sg70
g168
sg63
(lp184
g56
(g57
g58
NtRp185
(dp186
g61
(dp187
g69
I5
ssg70
g181
sg63
(lp188
S'127.0.0.1'
p189
asbasbasbag56
(g72
g58
NtRp190
(dp191
g61
(dp192
sg70
g66
sg63
(lp193
g56
(g77
g58
NtRp194
(dp195
g61
(dp196
g81
g82
ssg70
g190
sg63
(lp197
S'controller'
p198
asbag56
(g77
g58
NtRp199
(dp200
g61
(dp201
g88
g89
ssg70
g190
sg63
(lp202
S':'
asbag56
(g77
g58
NtRp203
(dp204
g61
(dp205
sg70
g190
sg63
(lp206
g56
(g57
g58
NtRp207
(dp208
g61
(dp209
g69
I5
ssg70
g203
sg63
(lp210
S'default'
p211
asbasbasbag56
(g72
g58
NtRp212
(dp213
g61
(dp214
sg70
g66
sg63
(lp215
g56
(g77
g58
NtRp216
(dp217
g61
(dp218
g81
g82
ssg70
g212
sg63
(lp219
S'cookies'
p220
asbag56
(g77
g58
NtRp221
(dp222
g61
(dp223
g88
g89
ssg70
g212
sg63
(lp224
S':'
asbag56
(g77
g58
NtRp225
(dp226
g61
(dp227
sg70
g212
sg63
(lp228
g56
(g57
g58
NtRp229
(dp230
g61
(dp231
g69
I5
ssg70
g225
sg63
(lp232
g56
(g65
g58
NtRp233
(dp234
g61
(dp235
g69
I4
ssg70
Nsg63
(lp236
g56
(g72
g58
NtRp237
(dp238
g61
(dp239
sg70
g233
sg63
(lp240
g56
(g77
g58
NtRp241
(dp242
g61
(dp243
g81
g82
ssg70
g237
sg63
(lp244
S'session_id_admin'
p245
asbag56
(g77
g58
NtRp246
(dp247
g61
(dp248
g88
g89
ssg70
g237
sg63
(lp249
S':'
asbag56
(g77
g58
NtRp250
(dp251
g61
(dp252
sg70
g237
sg63
(lp253
g56
(g57
g58
NtRp254
(dp255
g61
(dp256
g69
I4
ssg70
g250
sg63
(lp257
g56
(g65
g58
NtRp258
(dp259
g61
(dp260
g69
I3
ssg70
Nsg63
(lp261
g56
(g72
g58
NtRp262
(dp263
g61
(dp264
sg70
g258
sg63
(lp265
g56
(g77
g58
NtRp266
(dp267
g61
(dp268
g81
g82
ssg70
g262
sg63
(lp269
S'comment'
p270
asbag56
(g77
g58
NtRp271
(dp272
g61
(dp273
g88
g89
ssg70
g262
sg63
(lp274
S':'
asbag56
(g77
g58
NtRp275
(dp276
g61
(dp277
sg70
g262
sg63
(lp278
g56
(g57
g58
NtRp279
(dp280
g61
(dp281
g69
I3
ssg70
g275
sg63
(lp282
S''
asbasbasbag56
(g72
g58
NtRp283
(dp284
g61
(dp285
sg70
g258
sg63
(lp286
g56
(g77
g58
NtRp287
(dp288
g61
(dp289
g81
g82
ssg70
g283
sg63
(lp290
S'domain'
p291
asbag56
(g77
g58
NtRp292
(dp293
g61
(dp294
g88
g89
ssg70
g283
sg63
(lp295
S':'
asbag56
(g77
g58
NtRp296
(dp297
g61
(dp298
sg70
g283
sg63
(lp299
g56
(g57
g58
NtRp300
(dp301
g61
(dp302
g69
I3
ssg70
g296
sg63
(lp303
S''
asbasbasbag56
(g72
g58
NtRp304
(dp305
g61
(dp306
sg70
g258
sg63
(lp307
g56
(g77
g58
NtRp308
(dp309
g61
(dp310
g81
g82
ssg70
g304
sg63
(lp311
S'expires'
p312
asbag56
(g77
g58
NtRp313
(dp314
g61
(dp315
g88
g89
ssg70
g304
sg63
(lp316
S':'
asbag56
(g77
g58
NtRp317
(dp318
g61
(dp319
sg70
g304
sg63
(lp320
g56
(g57
g58
NtRp321
(dp322
g61
(dp323
g69
I3
ssg70
g317
sg63
(lp324
S''
asbasbasbag56
(g72
g58
NtRp325
(dp326
g61
(dp327
sg70
g258
sg63
(lp328
g56
(g77
g58
NtRp329
(dp330
g61
(dp331
g81
g82
ssg70
g325
sg63
(lp332
S'httponly'
p333
asbag56
(g77
g58
NtRp334
(dp335
g61
(dp336
g88
g89
ssg70
g325
sg63
(lp337
S':'
asbag56
(g77
g58
NtRp338
(dp339
g61
(dp340
sg70
g325
sg63
(lp341
g56
(g57
g58
NtRp342
(dp343
g61
(dp344
g69
I3
ssg70
g338
sg63
(lp345
S''
asbasbasbag56
(g72
g58
NtRp346
(dp347
g61
(dp348
sg70
g258
sg63
(lp349
g56
(g77
g58
NtRp350
(dp351
g61
(dp352
g81
g82
ssg70
g346
sg63
(lp353
S'max-age'
p354
asbag56
(g77
g58
NtRp355
(dp356
g61
(dp357
g88
g89
ssg70
g346
sg63
(lp358
S':'
asbag56
(g77
g58
NtRp359
(dp360
g61
(dp361
sg70
g346
sg63
(lp362
g56
(g57
g58
NtRp363
(dp364
g61
(dp365
g69
I3
ssg70
g359
sg63
(lp366
S''
asbasbasbag56
(g72
g58
NtRp367
(dp368
g61
(dp369
sg70
g258
sg63
(lp370
g56
(g77
g58
NtRp371
(dp372
g61
(dp373
g81
g82
ssg70
g367
sg63
(lp374
S'path'
p375
asbag56
(g77
g58
NtRp376
(dp377
g61
(dp378
g88
g89
ssg70
g367
sg63
(lp379
S':'
asbag56
(g77
g58
NtRp380
(dp381
g61
(dp382
sg70
g367
sg63
(lp383
g56
(g57
g58
NtRp384
(dp385
g61
(dp386
g69
I3
ssg70
g380
sg63
(lp387
S''
asbasbasbag56
(g72
g58
NtRp388
(dp389
g61
(dp390
sg70
g258
sg63
(lp391
g56
(g77
g58
NtRp392
(dp393
g61
(dp394
g81
g82
ssg70
g388
sg63
(lp395
S'secure'
p396
asbag56
(g77
g58
NtRp397
(dp398
g61
(dp399
g88
g89
ssg70
g388
sg63
(lp400
S':'
asbag56
(g77
g58
NtRp401
(dp402
g61
(dp403
sg70
g388
sg63
(lp404
g56
(g57
g58
NtRp405
(dp406
g61
(dp407
g69
I3
ssg70
g401
sg63
(lp408
S''
asbasbasbag56
(g72
g58
NtRp409
(dp410
g61
(dp411
sg70
g258
sg63
(lp412
g56
(g77
g58
NtRp413
(dp414
g61
(dp415
g81
g82
ssg70
g409
sg63
(lp416
S'version'
p417
asbag56
(g77
g58
NtRp418
(dp419
g61
(dp420
g88
g89
ssg70
g409
sg63
(lp421
S':'
asbag56
(g77
g58
NtRp422
(dp423
g61
(dp424
sg70
g409
sg63
(lp425
g56
(g57
g58
NtRp426
(dp427
g61
(dp428
g69
I3
ssg70
g422
sg63
(lp429
S''
asbasbasbasbasbasbasbag56
(g72
g58
NtRp430
(dp431
g61
(dp432
sg70
g233
sg63
(lp433
g56
(g77
g58
NtRp434
(dp435
g61
(dp436
g81
g82
ssg70
g430
sg63
(lp437
S'session_id_hierarchy'
p438
asbag56
(g77
g58
NtRp439
(dp440
g61
(dp441
g88
g89
ssg70
g430
sg63
(lp442
S':'
asbag56
(g77
g58
NtRp443
(dp444
g61
(dp445
sg70
g430
sg63
(lp446
g56
(g57
g58
NtRp447
(dp448
g61
(dp449
g69
I4
ssg70
g443
sg63
(lp450
g56
(g65
g58
NtRp451
(dp452
g61
(dp453
g69
I3
ssg70
Nsg63
(lp454
g56
(g72
g58
NtRp455
(dp456
g61
(dp457
sg70
g451
sg63
(lp458
g56
(g77
g58
NtRp459
(dp460
g61
(dp461
g81
g82
ssg70
g455
sg63
(lp462
g270
asbag56
(g77
g58
NtRp463
(dp464
g61
(dp465
g88
g89
ssg70
g455
sg63
(lp466
S':'
asbag56
(g77
g58
NtRp467
(dp468
g61
(dp469
sg70
g455
sg63
(lp470
g56
(g57
g58
NtRp471
(dp472
g61
(dp473
g69
I3
ssg70
g467
sg63
(lp474
S''
asbasbasbag56
(g72
g58
NtRp475
(dp476
g61
(dp477
sg70
g451
sg63
(lp478
g56
(g77
g58
NtRp479
(dp480
g61
(dp481
g81
g82
ssg70
g475
sg63
(lp482
g291
asbag56
(g77
g58
NtRp483
(dp484
g61
(dp485
g88
g89
ssg70
g475
sg63
(lp486
S':'
asbag56
(g77
g58
NtRp487
(dp488
g61
(dp489
sg70
g475
sg63
(lp490
g56
(g57
g58
NtRp491
(dp492
g61
(dp493
g69
I3
ssg70
g487
sg63
(lp494
S''
asbasbasbag56
(g72
g58
NtRp495
(dp496
g61
(dp497
sg70
g451
sg63
(lp498
g56
(g77
g58
NtRp499
(dp500
g61
(dp501
g81
g82
ssg70
g495
sg63
(lp502
g312
asbag56
(g77
g58
NtRp503
(dp504
g61
(dp505
g88
g89
ssg70
g495
sg63
(lp506
S':'
asbag56
(g77
g58
NtRp507
(dp508
g61
(dp509
sg70
g495
sg63
(lp510
g56
(g57
g58
NtRp511
(dp512
g61
(dp513
g69
I3
ssg70
g507
sg63
(lp514
S''
asbasbasbag56
(g72
g58
NtRp515
(dp516
g61
(dp517
sg70
g451
sg63
(lp518
g56
(g77
g58
NtRp519
(dp520
g61
(dp521
g81
g82
ssg70
g515
sg63
(lp522
g333
asbag56
(g77
g58
NtRp523
(dp524
g61
(dp525
g88
g89
ssg70
g515
sg63
(lp526
S':'
asbag56
(g77
g58
NtRp527
(dp528
g61
(dp529
sg70
g515
sg63
(lp530
g56
(g57
g58
NtRp531
(dp532
g61
(dp533
g69
I3
ssg70
g527
sg63
(lp534
S''
asbasbasbag56
(g72
g58
NtRp535
(dp536
g61
(dp537
sg70
g451
sg63
(lp538
g56
(g77
g58
NtRp539
(dp540
g61
(dp541
g81
g82
ssg70
g535
sg63
(lp542
g354
asbag56
(g77
g58
NtRp543
(dp544
g61
(dp545
g88
g89
ssg70
g535
sg63
(lp546
S':'
asbag56
(g77
g58
NtRp547
(dp548
g61
(dp549
sg70
g535
sg63
(lp550
g56
(g57
g58
NtRp551
(dp552
g61
(dp553
g69
I3
ssg70
g547
sg63
(lp554
S''
asbasbasbag56
(g72
g58
NtRp555
(dp556
g61
(dp557
sg70
g451
sg63
(lp558
g56
(g77
g58
NtRp559
(dp560
g61
(dp561
g81
g82
ssg70
g555
sg63
(lp562
g375
asbag56
(g77
g58
NtRp563
(dp564
g61
(dp565
g88
g89
ssg70
g555
sg63
(lp566
S':'
asbag56
(g77
g58
NtRp567
(dp568
g61
(dp569
sg70
g555
sg63
(lp570
g56
(g57
g58
NtRp571
(dp572
g61
(dp573
g69
I3
ssg70
g567
sg63
(lp574
S''
asbasbasbag56
(g72
g58
NtRp575
(dp576
g61
(dp577
sg70
g451
sg63
(lp578
g56
(g77
g58
NtRp579
(dp580
g61
(dp581
g81
g82
ssg70
g575
sg63
(lp582
g396
asbag56
(g77
g58
NtRp583
(dp584
g61
(dp585
g88
g89
ssg70
g575
sg63
(lp586
S':'
asbag56
(g77
g58
NtRp587
(dp588
g61
(dp589
sg70
g575
sg63
(lp590
g56
(g57
g58
NtRp591
(dp592
g61
(dp593
g69
I3
ssg70
g587
sg63
(lp594
S''
asbasbasbag56
(g72
g58
NtRp595
(dp596
g61
(dp597
sg70
g451
sg63
(lp598
g56
(g77
g58
NtRp599
(dp600
g61
(dp601
g81
g82
ssg70
g595
sg63
(lp602
g417
asbag56
(g77
g58
NtRp603
(dp604
g61
(dp605
g88
g89
ssg70
g595
sg63
(lp606
S':'
asbag56
(g77
g58
NtRp607
(dp608
g61
(dp609
sg70
g595
sg63
(lp610
g56
(g57
g58
NtRp611
(dp612
g61
(dp613
g69
I3
ssg70
g607
sg63
(lp614
S''
asbasbasbasbasbasbasbag56
(g72
g58
NtRp615
(dp616
g61
(dp617
sg70
g233
sg63
(lp618
g56
(g77
g58
NtRp619
(dp620
g61
(dp621
g81
g82
ssg70
g615
sg63
(lp622
S'session_id_images'
p623
asbag56
(g77
g58
NtRp624
(dp625
g61
(dp626
g88
g89
ssg70
g615
sg63
(lp627
S':'
asbag56
(g77
g58
NtRp628
(dp629
g61
(dp630
sg70
g615
sg63
(lp631
g56
(g57
g58
NtRp632
(dp633
g61
(dp634
g69
I4
ssg70
g628
sg63
(lp635
g56
(g65
g58
NtRp636
(dp637
g61
(dp638
g69
I3
ssg70
Nsg63
(lp639
g56
(g72
g58
NtRp640
(dp641
g61
(dp642
sg70
g636
sg63
(lp643
g56
(g77
g58
NtRp644
(dp645
g61
(dp646
g81
g82
ssg70
g640
sg63
(lp647
g270
asbag56
(g77
g58
NtRp648
(dp649
g61
(dp650
g88
g89
ssg70
g640
sg63
(lp651
S':'
asbag56
(g77
g58
NtRp652
(dp653
g61
(dp654
sg70
g640
sg63
(lp655
g56
(g57
g58
NtRp656
(dp657
g61
(dp658
g69
I3
ssg70
g652
sg63
(lp659
S''
asbasbasbag56
(g72
g58
NtRp660
(dp661
g61
(dp662
sg70
g636
sg63
(lp663
g56
(g77
g58
NtRp664
(dp665
g61
(dp666
g81
g82
ssg70
g660
sg63
(lp667
g291
asbag56
(g77
g58
NtRp668
(dp669
g61
(dp670
g88
g89
ssg70
g660
sg63
(lp671
S':'
asbag56
(g77
g58
NtRp672
(dp673
g61
(dp674
sg70
g660
sg63
(lp675
g56
(g57
g58
NtRp676
(dp677
g61
(dp678
g69
I3
ssg70
g672
sg63
(lp679
S''
asbasbasbag56
(g72
g58
NtRp680
(dp681
g61
(dp682
sg70
g636
sg63
(lp683
g56
(g77
g58
NtRp684
(dp685
g61
(dp686
g81
g82
ssg70
g680
sg63
(lp687
g312
asbag56
(g77
g58
NtRp688
(dp689
g61
(dp690
g88
g89
ssg70
g680
sg63
(lp691
S':'
asbag56
(g77
g58
NtRp692
(dp693
g61
(dp694
sg70
g680
sg63
(lp695
g56
(g57
g58
NtRp696
(dp697
g61
(dp698
g69
I3
ssg70
g692
sg63
(lp699
S''
asbasbasbag56
(g72
g58
NtRp700
(dp701
g61
(dp702
sg70
g636
sg63
(lp703
g56
(g77
g58
NtRp704
(dp705
g61
(dp706
g81
g82
ssg70
g700
sg63
(lp707
g333
asbag56
(g77
g58
NtRp708
(dp709
g61
(dp710
g88
g89
ssg70
g700
sg63
(lp711
S':'
asbag56
(g77
g58
NtRp712
(dp713
g61
(dp714
sg70
g700
sg63
(lp715
g56
(g57
g58
NtRp716
(dp717
g61
(dp718
g69
I3
ssg70
g712
sg63
(lp719
S''
asbasbasbag56
(g72
g58
NtRp720
(dp721
g61
(dp722
sg70
g636
sg63
(lp723
g56
(g77
g58
NtRp724
(dp725
g61
(dp726
g81
g82
ssg70
g720
sg63
(lp727
g354
asbag56
(g77
g58
NtRp728
(dp729
g61
(dp730
g88
g89
ssg70
g720
sg63
(lp731
S':'
asbag56
(g77
g58
NtRp732
(dp733
g61
(dp734
sg70
g720
sg63
(lp735
g56
(g57
g58
NtRp736
(dp737
g61
(dp738
g69
I3
ssg70
g732
sg63
(lp739
S''
asbasbasbag56
(g72
g58
NtRp740
(dp741
g61
(dp742
sg70
g636
sg63
(lp743
g56
(g77
g58
NtRp744
(dp745
g61
(dp746
g81
g82
ssg70
g740
sg63
(lp747
g375
asbag56
(g77
g58
NtRp748
(dp749
g61
(dp750
g88
g89
ssg70
g740
sg63
(lp751
S':'
asbag56
(g77
g58
NtRp752
(dp753
g61
(dp754
sg70
g740
sg63
(lp755
g56
(g57
g58
NtRp756
(dp757
g61
(dp758
g69
I3
ssg70
g752
sg63
(lp759
S''
asbasbasbag56
(g72
g58
NtRp760
(dp761
g61
(dp762
sg70
g636
sg63
(lp763
g56
(g77
g58
NtRp764
(dp765
g61
(dp766
g81
g82
ssg70
g760
sg63
(lp767
g396
asbag56
(g77
g58
NtRp768
(dp769
g61
(dp770
g88
g89
ssg70
g760
sg63
(lp771
S':'
asbag56
(g77
g58
NtRp772
(dp773
g61
(dp774
sg70
g760
sg63
(lp775
g56
(g57
g58
NtRp776
(dp777
g61
(dp778
g69
I3
ssg70
g772
sg63
(lp779
S''
asbasbasbag56
(g72
g58
NtRp780
(dp781
g61
(dp782
sg70
g636
sg63
(lp783
g56
(g77
g58
NtRp784
(dp785
g61
(dp786
g81
g82
ssg70
g780
sg63
(lp787
g417
asbag56
(g77
g58
NtRp788
(dp789
g61
(dp790
g88
g89
ssg70
g780
sg63
(lp791
S':'
asbag56
(g77
g58
NtRp792
(dp793
g61
(dp794
sg70
g780
sg63
(lp795
g56
(g57
g58
NtRp796
(dp797
g61
(dp798
g69
I3
ssg70
g792
sg63
(lp799
S''
asbasbasbasbasbasbasbag56
(g72
g58
NtRp800
(dp801
g61
(dp802
sg70
g233
sg63
(lp803
g56
(g77
g58
NtRp804
(dp805
g61
(dp806
g81
g82
ssg70
g800
sg63
(lp807
S'session_id_project'
p808
asbag56
(g77
g58
NtRp809
(dp810
g61
(dp811
g88
g89
ssg70
g800
sg63
(lp812
S':'
asbag56
(g77
g58
NtRp813
(dp814
g61
(dp815
sg70
g800
sg63
(lp816
g56
(g57
g58
NtRp817
(dp818
g61
(dp819
g69
I4
ssg70
g813
sg63
(lp820
g56
(g65
g58
NtRp821
(dp822
g61
(dp823
g69
I3
ssg70
Nsg63
(lp824
g56
(g72
g58
NtRp825
(dp826
g61
(dp827
sg70
g821
sg63
(lp828
g56
(g77
g58
NtRp829
(dp830
g61
(dp831
g81
g82
ssg70
g825
sg63
(lp832
g270
asbag56
(g77
g58
NtRp833
(dp834
g61
(dp835
g88
g89
ssg70
g825
sg63
(lp836
S':'
asbag56
(g77
g58
NtRp837
(dp838
g61
(dp839
sg70
g825
sg63
(lp840
g56
(g57
g58
NtRp841
(dp842
g61
(dp843
g69
I3
ssg70
g837
sg63
(lp844
S''
asbasbasbag56
(g72
g58
NtRp845
(dp846
g61
(dp847
sg70
g821
sg63
(lp848
g56
(g77
g58
NtRp849
(dp850
g61
(dp851
g81
g82
ssg70
g845
sg63
(lp852
g291
asbag56
(g77
g58
NtRp853
(dp854
g61
(dp855
g88
g89
ssg70
g845
sg63
(lp856
S':'
asbag56
(g77
g58
NtRp857
(dp858
g61
(dp859
sg70
g845
sg63
(lp860
g56
(g57
g58
NtRp861
(dp862
g61
(dp863
g69
I3
ssg70
g857
sg63
(lp864
S''
asbasbasbag56
(g72
g58
NtRp865
(dp866
g61
(dp867
sg70
g821
sg63
(lp868
g56
(g77
g58
NtRp869
(dp870
g61
(dp871
g81
g82
ssg70
g865
sg63
(lp872
g312
asbag56
(g77
g58
NtRp873
(dp874
g61
(dp875
g88
g89
ssg70
g865
sg63
(lp876
S':'
asbag56
(g77
g58
NtRp877
(dp878
g61
(dp879
sg70
g865
sg63
(lp880
g56
(g57
g58
NtRp881
(dp882
g61
(dp883
g69
I3
ssg70
g877
sg63
(lp884
S''
asbasbasbag56
(g72
g58
NtRp885
(dp886
g61
(dp887
sg70
g821
sg63
(lp888
g56
(g77
g58
NtRp889
(dp890
g61
(dp891
g81
g82
ssg70
g885
sg63
(lp892
g333
asbag56
(g77
g58
NtRp893
(dp894
g61
(dp895
g88
g89
ssg70
g885
sg63
(lp896
S':'
asbag56
(g77
g58
NtRp897
(dp898
g61
(dp899
sg70
g885
sg63
(lp900
g56
(g57
g58
NtRp901
(dp902
g61
(dp903
g69
I3
ssg70
g897
sg63
(lp904
S''
asbasbasbag56
(g72
g58
NtRp905
(dp906
g61
(dp907
sg70
g821
sg63
(lp908
g56
(g77
g58
NtRp909
(dp910
g61
(dp911
g81
g82
ssg70
g905
sg63
(lp912
g354
asbag56
(g77
g58
NtRp913
(dp914
g61
(dp915
g88
g89
ssg70
g905
sg63
(lp916
S':'
asbag56
(g77
g58
NtRp917
(dp918
g61
(dp919
sg70
g905
sg63
(lp920
g56
(g57
g58
NtRp921
(dp922
g61
(dp923
g69
I3
ssg70
g917
sg63
(lp924
S''
asbasbasbag56
(g72
g58
NtRp925
(dp926
g61
(dp927
sg70
g821
sg63
(lp928
g56
(g77
g58
NtRp929
(dp930
g61
(dp931
g81
g82
ssg70
g925
sg63
(lp932
g375
asbag56
(g77
g58
NtRp933
(dp934
g61
(dp935
g88
g89
ssg70
g925
sg63
(lp936
S':'
asbag56
(g77
g58
NtRp937
(dp938
g61
(dp939
sg70
g925
sg63
(lp940
g56
(g57
g58
NtRp941
(dp942
g61
(dp943
g69
I3
ssg70
g937
sg63
(lp944
S''
asbasbasbag56
(g72
g58
NtRp945
(dp946
g61
(dp947
sg70
g821
sg63
(lp948
g56
(g77
g58
NtRp949
(dp950
g61
(dp951
g81
g82
ssg70
g945
sg63
(lp952
g396
asbag56
(g77
g58
NtRp953
(dp954
g61
(dp955
g88
g89
ssg70
g945
sg63
(lp956
S':'
asbag56
(g77
g58
NtRp957
(dp958
g61
(dp959
sg70
g945
sg63
(lp960
g56
(g57
g58
NtRp961
(dp962
g61
(dp963
g69
I3
ssg70
g957
sg63
(lp964
S''
asbasbasbag56
(g72
g58
NtRp965
(dp966
g61
(dp967
sg70
g821
sg63
(lp968
g56
(g77
g58
NtRp969
(dp970
g61
(dp971
g81
g82
ssg70
g965
sg63
(lp972
g417
asbag56
(g77
g58
NtRp973
(dp974
g61
(dp975
g88
g89
ssg70
g965
sg63
(lp976
S':'
asbag56
(g77
g58
NtRp977
(dp978
g61
(dp979
sg70
g965
sg63
(lp980
g56
(g57
g58
NtRp981
(dp982
g61
(dp983
g69
I3
ssg70
g977
sg63
(lp984
S''
asbasbasbasbasbasbasbag56
(g72
g58
NtRp985
(dp986
g61
(dp987
sg70
g233
sg63
(lp988
g56
(g77
g58
NtRp989
(dp990
g61
(dp991
g81
g82
ssg70
g985
sg63
(lp992
S'session_id_welcome'
p993
asbag56
(g77
g58
NtRp994
(dp995
g61
(dp996
g88
g89
ssg70
g985
sg63
(lp997
S':'
asbag56
(g77
g58
NtRp998
(dp999
g61
(dp1000
sg70
g985
sg63
(lp1001
g56
(g57
g58
NtRp1002
(dp1003
g61
(dp1004
g69
I4
ssg70
g998
sg63
(lp1005
g56
(g65
g58
NtRp1006
(dp1007
g61
(dp1008
g69
I3
ssg70
Nsg63
(lp1009
g56
(g72
g58
NtRp1010
(dp1011
g61
(dp1012
sg70
g1006
sg63
(lp1013
g56
(g77
g58
NtRp1014
(dp1015
g61
(dp1016
g81
g82
ssg70
g1010
sg63
(lp1017
g270
asbag56
(g77
g58
NtRp1018
(dp1019
g61
(dp1020
g88
g89
ssg70
g1010
sg63
(lp1021
S':'
asbag56
(g77
g58
NtRp1022
(dp1023
g61
(dp1024
sg70
g1010
sg63
(lp1025
g56
(g57
g58
NtRp1026
(dp1027
g61
(dp1028
g69
I3
ssg70
g1022
sg63
(lp1029
S''
asbasbasbag56
(g72
g58
NtRp1030
(dp1031
g61
(dp1032
sg70
g1006
sg63
(lp1033
g56
(g77
g58
NtRp1034
(dp1035
g61
(dp1036
g81
g82
ssg70
g1030
sg63
(lp1037
g291
asbag56
(g77
g58
NtRp1038
(dp1039
g61
(dp1040
g88
g89
ssg70
g1030
sg63
(lp1041
S':'
asbag56
(g77
g58
NtRp1042
(dp1043
g61
(dp1044
sg70
g1030
sg63
(lp1045
g56
(g57
g58
NtRp1046
(dp1047
g61
(dp1048
g69
I3
ssg70
g1042
sg63
(lp1049
S''
asbasbasbag56
(g72
g58
NtRp1050
(dp1051
g61
(dp1052
sg70
g1006
sg63
(lp1053
g56
(g77
g58
NtRp1054
(dp1055
g61
(dp1056
g81
g82
ssg70
g1050
sg63
(lp1057
g312
asbag56
(g77
g58
NtRp1058
(dp1059
g61
(dp1060
g88
g89
ssg70
g1050
sg63
(lp1061
S':'
asbag56
(g77
g58
NtRp1062
(dp1063
g61
(dp1064
sg70
g1050
sg63
(lp1065
g56
(g57
g58
NtRp1066
(dp1067
g61
(dp1068
g69
I3
ssg70
g1062
sg63
(lp1069
S''
asbasbasbag56
(g72
g58
NtRp1070
(dp1071
g61
(dp1072
sg70
g1006
sg63
(lp1073
g56
(g77
g58
NtRp1074
(dp1075
g61
(dp1076
g81
g82
ssg70
g1070
sg63
(lp1077
g333
asbag56
(g77
g58
NtRp1078
(dp1079
g61
(dp1080
g88
g89
ssg70
g1070
sg63
(lp1081
S':'
asbag56
(g77
g58
NtRp1082
(dp1083
g61
(dp1084
sg70
g1070
sg63
(lp1085
g56
(g57
g58
NtRp1086
(dp1087
g61
(dp1088
g69
I3
ssg70
g1082
sg63
(lp1089
S''
asbasbasbag56
(g72
g58
NtRp1090
(dp1091
g61
(dp1092
sg70
g1006
sg63
(lp1093
g56
(g77
g58
NtRp1094
(dp1095
g61
(dp1096
g81
g82
ssg70
g1090
sg63
(lp1097
g354
asbag56
(g77
g58
NtRp1098
(dp1099
g61
(dp1100
g88
g89
ssg70
g1090
sg63
(lp1101
S':'
asbag56
(g77
g58
NtRp1102
(dp1103
g61
(dp1104
sg70
g1090
sg63
(lp1105
g56
(g57
g58
NtRp1106
(dp1107
g61
(dp1108
g69
I3
ssg70
g1102
sg63
(lp1109
S''
asbasbasbag56
(g72
g58
NtRp1110
(dp1111
g61
(dp1112
sg70
g1006
sg63
(lp1113
g56
(g77
g58
NtRp1114
(dp1115
g61
(dp1116
g81
g82
ssg70
g1110
sg63
(lp1117
g375
asbag56
(g77
g58
NtRp1118
(dp1119
g61
(dp1120
g88
g89
ssg70
g1110
sg63
(lp1121
S':'
asbag56
(g77
g58
NtRp1122
(dp1123
g61
(dp1124
sg70
g1110
sg63
(lp1125
g56
(g57
g58
NtRp1126
(dp1127
g61
(dp1128
g69
I3
ssg70
g1122
sg63
(lp1129
S''
asbasbasbag56
(g72
g58
NtRp1130
(dp1131
g61
(dp1132
sg70
g1006
sg63
(lp1133
g56
(g77
g58
NtRp1134
(dp1135
g61
(dp1136
g81
g82
ssg70
g1130
sg63
(lp1137
g396
asbag56
(g77
g58
NtRp1138
(dp1139
g61
(dp1140
g88
g89
ssg70
g1130
sg63
(lp1141
S':'
asbag56
(g77
g58
NtRp1142
(dp1143
g61
(dp1144
sg70
g1130
sg63
(lp1145
g56
(g57
g58
NtRp1146
(dp1147
g61
(dp1148
g69
I3
ssg70
g1142
sg63
(lp1149
S''
asbasbasbag56
(g72
g58
NtRp1150
(dp1151
g61
(dp1152
sg70
g1006
sg63
(lp1153
g56
(g77
g58
NtRp1154
(dp1155
g61
(dp1156
g81
g82
ssg70
g1150
sg63
(lp1157
g417
asbag56
(g77
g58
NtRp1158
(dp1159
g61
(dp1160
g88
g89
ssg70
g1150
sg63
(lp1161
S':'
asbag56
(g77
g58
NtRp1162
(dp1163
g61
(dp1164
sg70
g1150
sg63
(lp1165
g56
(g57
g58
NtRp1166
(dp1167
g61
(dp1168
g69
I3
ssg70
g1162
sg63
(lp1169
S''
asbasbasbasbasbasbasbasbasbasbasbag56
(g72
g58
NtRp1170
(dp1171
g61
(dp1172
sg70
g66
sg63
(lp1173
g56
(g77
g58
NtRp1174
(dp1175
g61
(dp1176
g81
g82
ssg70
g1170
sg63
(lp1177
S'env'
p1178
asbag56
(g77
g58
NtRp1179
(dp1180
g61
(dp1181
g88
g89
ssg70
g1170
sg63
(lp1182
S':'
asbag56
(g77
g58
NtRp1183
(dp1184
g61
(dp1185
sg70
g1170
sg63
(lp1186
g56
(g57
g58
NtRp1187
(dp1188
g61
(dp1189
g69
I5
ssg70
g1183
sg63
(lp1190
g56
(g65
g58
NtRp1191
(dp1192
g61
(dp1193
g69
I4
ssg70
Nsg63
(lp1194
g56
(g72
g58
NtRp1195
(dp1196
g61
(dp1197
sg70
g1191
sg63
(lp1198
g56
(g77
g58
NtRp1199
(dp1200
g61
(dp1201
g81
g82
ssg70
g1195
sg63
(lp1202
S'app_folders'
p1203
asbag56
(g77
g58
NtRp1204
(dp1205
g61
(dp1206
g88
g89
ssg70
g1195
sg63
(lp1207
S':'
asbag56
(g77
g58
NtRp1208
(dp1209
g61
(dp1210
sg70
g1195
sg63
(lp1211
g56
(g57
g58
NtRp1212
(dp1213
g61
(dp1214
g69
I4
ssg70
g1208
sg63
(lp1215
S"set(['/home/arpita/courses/sem3/ssad/web2py/applications/examples/', '/home/arpita/courses/sem3/ssad/web2py/applications/admin/', '/home/arpita/courses/sem3/ssad/web2py/applications/project/', '/home/arpita/courses/sem3/ssad/web2py/applications/Images/', '/home/arpita/courses/sem3/ssad/web2py/applications/welcome/'])"
p1216
asbasbasbag56
(g72
g58
NtRp1217
(dp1218
g61
(dp1219
sg70
g1191
sg63
(lp1220
g56
(g77
g58
NtRp1221
(dp1222
g61
(dp1223
g81
g82
ssg70
g1217
sg63
(lp1224
S'applications_parent'
p1225
asbag56
(g77
g58
NtRp1226
(dp1227
g61
(dp1228
g88
g89
ssg70
g1217
sg63
(lp1229
S':'
asbag56
(g77
g58
NtRp1230
(dp1231
g61
(dp1232
sg70
g1217
sg63
(lp1233
g56
(g57
g58
NtRp1234
(dp1235
g61
(dp1236
g69
I4
ssg70
g1230
sg63
(lp1237
S'/home/arpita/courses/sem3/ssad/web2py'
p1238
asbasbasbag56
(g72
g58
NtRp1239
(dp1240
g61
(dp1241
sg70
g1191
sg63
(lp1242
g56
(g77
g58
NtRp1243
(dp1244
g61
(dp1245
g81
g82
ssg70
g1239
sg63
(lp1246
S'cmd_args'
p1247
asbag56
(g77
g58
NtRp1248
(dp1249
g61
(dp1250
g88
g89
ssg70
g1239
sg63
(lp1251
S':'
asbag56
(g77
g58
NtRp1252
(dp1253
g61
(dp1254
sg70
g1239
sg63
(lp1255
g56
(g57
g58
NtRp1256
(dp1257
g61
(dp1258
g69
I4
ssg70
g1252
sg63
(lp1259
g56
(g65
g58
NtRp1260
(dp1261
g61
(dp1262
g69
I3
ssg70
Nsg63
(lp1263
sbasbasbasbag56
(g72
g58
NtRp1264
(dp1265
g61
(dp1266
sg70
g1191
sg63
(lp1267
g56
(g77
g58
NtRp1268
(dp1269
g61
(dp1270
g81
g82
ssg70
g1264
sg63
(lp1271
S'cmd_options'
p1272
asbag56
(g77
g58
NtRp1273
(dp1274
g61
(dp1275
g88
g89
ssg70
g1264
sg63
(lp1276
S':'
asbag56
(g77
g58
NtRp1277
(dp1278
g61
(dp1279
sg70
g1264
sg63
(lp1280
g56
(g57
g58
NtRp1281
(dp1282
g61
(dp1283
g69
I4
ssg70
g1277
sg63
(lp1284
S"<Values at 0x88b33cc: {'verbose': False, 'ip': '127.0.0.1', 'shutdown_timeout': 5, 'taskbar': False, 'nocron': False, 'pid_filename': 'httpserver.pid', 'maxthreads': None, 'softcron': False, 'server_name': 'arpita-HP-630-Notebook-PC', 'bpython': False, 'nogui': False, 'port': 8000, 'extcron': False, 'debuglevel': 30, 'test': None, 'folder': '/home/arpita/courses/sem3/ssad/web2py', 'config': '', 'import_models': False, 'winservice': '', 'shell': None, 'run': '', 'log_filename': 'httpserver.log', 'args': [''], 'socket_timeout': 5, 'ssl_ca_certificate': None, 'scheduler': None, 'profiler_filename': None, 'ssl_private_key': '', 'password': 'arpita', 'request_queue_size': 5, 'ssl_certificate': '', 'cronjob': False, 'numthreads': None, 'quiet': False, 'interfaces': None, 'minthreads': None, 'timeout': 10, 'plain': False, 'nobanner': False}>"
p1285
asbasbasbag56
(g72
g58
NtRp1286
(dp1287
g61
(dp1288
sg70
g1191
sg63
(lp1289
g56
(g77
g58
NtRp1290
(dp1291
g61
(dp1292
g81
g82
ssg70
g1286
sg63
(lp1293
S'db_sessions'
p1294
asbag56
(g77
g58
NtRp1295
(dp1296
g61
(dp1297
g88
g89
ssg70
g1286
sg63
(lp1298
S':'
asbag56
(g77
g58
NtRp1299
(dp1300
g61
(dp1301
sg70
g1286
sg63
(lp1302
g56
(g57
g58
NtRp1303
(dp1304
g61
(dp1305
g69
I4
ssg70
g1299
sg63
(lp1306
S'set([])'
p1307
asbasbasbag56
(g72
g58
NtRp1308
(dp1309
g61
(dp1310
sg70
g1191
sg63
(lp1311
g56
(g77
g58
NtRp1312
(dp1313
g61
(dp1314
g81
g82
ssg70
g1308
sg63
(lp1315
S'debugging'
p1316
asbag56
(g77
g58
NtRp1317
(dp1318
g61
(dp1319
g88
g89
ssg70
g1308
sg63
(lp1320
S':'
asbag56
(g77
g58
NtRp1321
(dp1322
g61
(dp1323
sg70
g1308
sg63
(lp1324
g56
(g57
g58
NtRp1325
(dp1326
g61
(dp1327
g69
I4
ssg70
g1321
sg63
(lp1328
g99
asbasbasbag56
(g72
g58
NtRp1329
(dp1330
g61
(dp1331
sg70
g1191
sg63
(lp1332
g56
(g77
g58
NtRp1333
(dp1334
g61
(dp1335
g81
g82
ssg70
g1329
sg63
(lp1336
S'gluon_parent'
p1337
asbag56
(g77
g58
NtRp1338
(dp1339
g61
(dp1340
g88
g89
ssg70
g1329
sg63
(lp1341
S':'
asbag56
(g77
g58
NtRp1342
(dp1343
g61
(dp1344
sg70
g1329
sg63
(lp1345
g56
(g57
g58
NtRp1346
(dp1347
g61
(dp1348
g69
I4
ssg70
g1342
sg63
(lp1349
S'/home/arpita/courses/sem3/ssad/web2py'
p1350
asbasbasbag56
(g72
g58
NtRp1351
(dp1352
g61
(dp1353
sg70
g1191
sg63
(lp1354
g56
(g77
g58
NtRp1355
(dp1356
g61
(dp1357
g81
g82
ssg70
g1351
sg63
(lp1358
S'http_accept'
p1359
asbag56
(g77
g58
NtRp1360
(dp1361
g61
(dp1362
g88
g89
ssg70
g1351
sg63
(lp1363
S':'
asbag56
(g77
g58
NtRp1364
(dp1365
g61
(dp1366
sg70
g1351
sg63
(lp1367
g56
(g57
g58
NtRp1368
(dp1369
g61
(dp1370
g69
I4
ssg70
g1364
sg63
(lp1371
S'text/html,application/xhtml+xml,application/xml;q=0.9,*/*;q=0.8'
p1372
asbasbasbag56
(g72
g58
NtRp1373
(dp1374
g61
(dp1375
sg70
g1191
sg63
(lp1376
g56
(g77
g58
NtRp1377
(dp1378
g61
(dp1379
g81
g82
ssg70
g1373
sg63
(lp1380
S'http_accept_charset'
p1381
asbag56
(g77
g58
NtRp1382
(dp1383
g61
(dp1384
g88
g89
ssg70
g1373
sg63
(lp1385
S':'
asbag56
(g77
g58
NtRp1386
(dp1387
g61
(dp1388
sg70
g1373
sg63
(lp1389
g56
(g57
g58
NtRp1390
(dp1391
g61
(dp1392
g69
I4
ssg70
g1386
sg63
(lp1393
S'ISO-8859-1,utf-8;q=0.7,*;q=0.7'
p1394
asbasbasbag56
(g72
g58
NtRp1395
(dp1396
g61
(dp1397
sg70
g1191
sg63
(lp1398
g56
(g77
g58
NtRp1399
(dp1400
g61
(dp1401
g81
g82
ssg70
g1395
sg63
(lp1402
S'http_accept_encoding'
p1403
asbag56
(g77
g58
NtRp1404
(dp1405
g61
(dp1406
g88
g89
ssg70
g1395
sg63
(lp1407
S':'
asbag56
(g77
g58
NtRp1408
(dp1409
g61
(dp1410
sg70
g1395
sg63
(lp1411
g56
(g57
g58
NtRp1412
(dp1413
g61
(dp1414
g69
I4
ssg70
g1408
sg63
(lp1415
S'gzip, deflate'
p1416
asbasbasbag56
(g72
g58
NtRp1417
(dp1418
g61
(dp1419
sg70
g1191
sg63
(lp1420
g56
(g77
g58
NtRp1421
(dp1422
g61
(dp1423
g81
g82
ssg70
g1417
sg63
(lp1424
S'http_accept_language'
p1425
asbag56
(g77
g58
NtRp1426
(dp1427
g61
(dp1428
g88
g89
ssg70
g1417
sg63
(lp1429
S':'
asbag56
(g77
g58
NtRp1430
(dp1431
g61
(dp1432
sg70
g1417
sg63
(lp1433
g56
(g57
g58
NtRp1434
(dp1435
g61
(dp1436
g69
I4
ssg70
g1430
sg63
(lp1437
S'en-us,en;q=0.5'
p1438
asbasbasbag56
(g72
g58
NtRp1439
(dp1440
g61
(dp1441
sg70
g1191
sg63
(lp1442
g56
(g77
g58
NtRp1443
(dp1444
g61
(dp1445
g81
g82
ssg70
g1439
sg63
(lp1446
S'http_connection'
p1447
asbag56
(g77
g58
NtRp1448
(dp1449
g61
(dp1450
g88
g89
ssg70
g1439
sg63
(lp1451
S':'
asbag56
(g77
g58
NtRp1452
(dp1453
g61
(dp1454
sg70
g1439
sg63
(lp1455
g56
(g57
g58
NtRp1456
(dp1457
g61
(dp1458
g69
I4
ssg70
g1452
sg63
(lp1459
S'keep-alive'
p1460
asbasbasbag56
(g72
g58
NtRp1461
(dp1462
g61
(dp1463
sg70
g1191
sg63
(lp1464
g56
(g77
g58
NtRp1465
(dp1466
g61
(dp1467
g81
g82
ssg70
g1461
sg63
(lp1468
S'http_cookie'
p1469
asbag56
(g77
g58
NtRp1470
(dp1471
g61
(dp1472
g88
g89
ssg70
g1461
sg63
(lp1473
S':'
asbag56
(g77
g58
NtRp1474
(dp1475
g61
(dp1476
sg70
g1461
sg63
(lp1477
g56
(g57
g58
NtRp1478
(dp1479
g61
(dp1480
g69
I4
ssg70
g1474
sg63
(lp1481
S'session_id_welcome=127.0.0.1-426d06be-8e28-4795-b1aa-4f62538e6b91; session_id_admin=127.0.0.1-d0fa27c3-33fb-4d62-b465-b57698848fa8; session_id_hierarchy=127.0.0.1-10df1d62-8e94-4459-9103-c3a65988848a; session_id_images=127.0.0.1-87437d8b-9395-4e77-ae7d-de543fa4d802; session_id_project=127.0.0.1-685fbf0f-7e19-4757-b51e-738a125b352f'
p1482
asbasbasbag56
(g72
g58
NtRp1483
(dp1484
g61
(dp1485
sg70
g1191
sg63
(lp1486
g56
(g77
g58
NtRp1487
(dp1488
g61
(dp1489
g81
g82
ssg70
g1483
sg63
(lp1490
S'http_host'
p1491
asbag56
(g77
g58
NtRp1492
(dp1493
g61
(dp1494
g88
g89
ssg70
g1483
sg63
(lp1495
S':'
asbag56
(g77
g58
NtRp1496
(dp1497
g61
(dp1498
sg70
g1483
sg63
(lp1499
g56
(g57
g58
NtRp1500
(dp1501
g61
(dp1502
g69
I4
ssg70
g1496
sg63
(lp1503
S'127.0.0.1:8000'
p1504
asbasbasbag56
(g72
g58
NtRp1505
(dp1506
g61
(dp1507
sg70
g1191
sg63
(lp1508
g56
(g77
g58
NtRp1509
(dp1510
g61
(dp1511
g81
g82
ssg70
g1505
sg63
(lp1512
S'http_referer'
p1513
asbag56
(g77
g58
NtRp1514
(dp1515
g61
(dp1516
g88
g89
ssg70
g1505
sg63
(lp1517
S':'
asbag56
(g77
g58
NtRp1518
(dp1519
g61
(dp1520
sg70
g1505
sg63
(lp1521
g56
(g57
g58
NtRp1522
(dp1523
g61
(dp1524
g69
I4
ssg70
g1518
sg63
(lp1525
S'http://127.0.0.1:8000/project/default/relate'
p1526
asbasbasbag56
(g72
g58
NtRp1527
(dp1528
g61
(dp1529
sg70
g1191
sg63
(lp1530
g56
(g77
g58
NtRp1531
(dp1532
g61
(dp1533
g81
g82
ssg70
g1527
sg63
(lp1534
S'http_user_agent'
p1535
asbag56
(g77
g58
NtRp1536
(dp1537
g61
(dp1538
g88
g89
ssg70
g1527
sg63
(lp1539
S':'
asbag56
(g77
g58
NtRp1540
(dp1541
g61
(dp1542
sg70
g1527
sg63
(lp1543
g56
(g57
g58
NtRp1544
(dp1545
g61
(dp1546
g69
I4
ssg70
g1540
sg63
(lp1547
S'Mozilla/5.0 (X11; Linux i686; rv:7.0.1) Gecko/20100101 Firefox/7.0.1'
p1548
asbasbasbag56
(g72
g58
NtRp1549
(dp1550
g61
(dp1551
sg70
g1191
sg63
(lp1552
g56
(g77
g58
NtRp1553
(dp1554
g61
(dp1555
g81
g82
ssg70
g1549
sg63
(lp1556
S'is_jython'
p1557
asbag56
(g77
g58
NtRp1558
(dp1559
g61
(dp1560
g88
g89
ssg70
g1549
sg63
(lp1561
S':'
asbag56
(g77
g58
NtRp1562
(dp1563
g61
(dp1564
sg70
g1549
sg63
(lp1565
g56
(g57
g58
NtRp1566
(dp1567
g61
(dp1568
g69
I4
ssg70
g1562
sg63
(lp1569
g99
asbasbasbag56
(g72
g58
NtRp1570
(dp1571
g61
(dp1572
sg70
g1191
sg63
(lp1573
g56
(g77
g58
NtRp1574
(dp1575
g61
(dp1576
g81
g82
ssg70
g1570
sg63
(lp1577
S'is_pypy'
p1578
asbag56
(g77
g58
NtRp1579
(dp1580
g61
(dp1581
g88
g89
ssg70
g1570
sg63
(lp1582
S':'
asbag56
(g77
g58
NtRp1583
(dp1584
g61
(dp1585
sg70
g1570
sg63
(lp1586
g56
(g57
g58
NtRp1587
(dp1588
g61
(dp1589
g69
I4
ssg70
g1583
sg63
(lp1590
g99
asbasbasbag56
(g72
g58
NtRp1591
(dp1592
g61
(dp1593
sg70
g1191
sg63
(lp1594
g56
(g77
g58
NtRp1595
(dp1596
g61
(dp1597
g81
g82
ssg70
g1591
sg63
(lp1598
S'path_info'
p1599
asbag56
(g77
g58
NtRp1600
(dp1601
g61
(dp1602
g88
g89
ssg70
g1591
sg63
(lp1603
S':'
asbag56
(g77
g58
NtRp1604
(dp1605
g61
(dp1606
sg70
g1591
sg63
(lp1607
g56
(g57
g58
NtRp1608
(dp1609
g61
(dp1610
g69
I4
ssg70
g1604
sg63
(lp1611
S'/project/default/kruskal'
p1612
asbasbasbag56
(g72
g58
NtRp1613
(dp1614
g61
(dp1615
sg70
g1191
sg63
(lp1616
g56
(g77
g58
NtRp1617
(dp1618
g61
(dp1619
g81
g82
ssg70
g1613
sg63
(lp1620
S'query_string'
p1621
asbag56
(g77
g58
NtRp1622
(dp1623
g61
(dp1624
g88
g89
ssg70
g1613
sg63
(lp1625
S':'
asbag56
(g77
g58
NtRp1626
(dp1627
g61
(dp1628
sg70
g1613
sg63
(lp1629
g56
(g57
g58
NtRp1630
(dp1631
g61
(dp1632
g69
I4
ssg70
g1626
sg63
(lp1633
S''
asbasbasbag56
(g72
g58
NtRp1634
(dp1635
g61
(dp1636
sg70
g1191
sg63
(lp1637
g56
(g77
g58
NtRp1638
(dp1639
g61
(dp1640
g81
g82
ssg70
g1634
sg63
(lp1641
S'remote_addr'
p1642
asbag56
(g77
g58
NtRp1643
(dp1644
g61
(dp1645
g88
g89
ssg70
g1634
sg63
(lp1646
S':'
asbag56
(g77
g58
NtRp1647
(dp1648
g61
(dp1649
sg70
g1634
sg63
(lp1650
g56
(g57
g58
NtRp1651
(dp1652
g61
(dp1653
g69
I4
ssg70
g1647
sg63
(lp1654
g189
asbasbasbag56
(g72
g58
NtRp1655
(dp1656
g61
(dp1657
sg70
g1191
sg63
(lp1658
g56
(g77
g58
NtRp1659
(dp1660
g61
(dp1661
g81
g82
ssg70
g1655
sg63
(lp1662
S'remote_port'
p1663
asbag56
(g77
g58
NtRp1664
(dp1665
g61
(dp1666
g88
g89
ssg70
g1655
sg63
(lp1667
S':'
asbag56
(g77
g58
NtRp1668
(dp1669
g61
(dp1670
sg70
g1655
sg63
(lp1671
g56
(g57
g58
NtRp1672
(dp1673
g61
(dp1674
g69
I4
ssg70
g1668
sg63
(lp1675
S'55805'
p1676
asbasbasbag56
(g72
g58
NtRp1677
(dp1678
g61
(dp1679
sg70
g1191
sg63
(lp1680
g56
(g77
g58
NtRp1681
(dp1682
g61
(dp1683
g81
g82
ssg70
g1677
sg63
(lp1684
S'request_method'
p1685
asbag56
(g77
g58
NtRp1686
(dp1687
g61
(dp1688
g88
g89
ssg70
g1677
sg63
(lp1689
S':'
asbag56
(g77
g58
NtRp1690
(dp1691
g61
(dp1692
sg70
g1677
sg63
(lp1693
g56
(g57
g58
NtRp1694
(dp1695
g61
(dp1696
g69
I4
ssg70
g1690
sg63
(lp1697
S'GET'
p1698
asbasbasbag56
(g72
g58
NtRp1699
(dp1700
g61
(dp1701
sg70
g1191
sg63
(lp1702
g56
(g77
g58
NtRp1703
(dp1704
g61
(dp1705
g81
g82
ssg70
g1699
sg63
(lp1706
S'script_name'
p1707
asbag56
(g77
g58
NtRp1708
(dp1709
g61
(dp1710
g88
g89
ssg70
g1699
sg63
(lp1711
S':'
asbag56
(g77
g58
NtRp1712
(dp1713
g61
(dp1714
sg70
g1699
sg63
(lp1715
g56
(g57
g58
NtRp1716
(dp1717
g61
(dp1718
g69
I4
ssg70
g1712
sg63
(lp1719
S''
asbasbasbag56
(g72
g58
NtRp1720
(dp1721
g61
(dp1722
sg70
g1191
sg63
(lp1723
g56
(g77
g58
NtRp1724
(dp1725
g61
(dp1726
g81
g82
ssg70
g1720
sg63
(lp1727
S'server_name'
p1728
asbag56
(g77
g58
NtRp1729
(dp1730
g61
(dp1731
g88
g89
ssg70
g1720
sg63
(lp1732
S':'
asbag56
(g77
g58
NtRp1733
(dp1734
g61
(dp1735
sg70
g1720
sg63
(lp1736
g56
(g57
g58
NtRp1737
(dp1738
g61
(dp1739
g69
I4
ssg70
g1733
sg63
(lp1740
S'arpita-HP-630-Notebook-PC'
p1741
asbasbasbag56
(g72
g58
NtRp1742
(dp1743
g61
(dp1744
sg70
g1191
sg63
(lp1745
g56
(g77
g58
NtRp1746
(dp1747
g61
(dp1748
g81
g82
ssg70
g1742
sg63
(lp1749
S'server_port'
p1750
asbag56
(g77
g58
NtRp1751
(dp1752
g61
(dp1753
g88
g89
ssg70
g1742
sg63
(lp1754
S':'
asbag56
(g77
g58
NtRp1755
(dp1756
g61
(dp1757
sg70
g1742
sg63
(lp1758
g56
(g57
g58
NtRp1759
(dp1760
g61
(dp1761
g69
I4
ssg70
g1755
sg63
(lp1762
S'8000'
p1763
asbasbasbag56
(g72
g58
NtRp1764
(dp1765
g61
(dp1766
sg70
g1191
sg63
(lp1767
g56
(g77
g58
NtRp1768
(dp1769
g61
(dp1770
g81
g82
ssg70
g1764
sg63
(lp1771
S'server_protocol'
p1772
asbag56
(g77
g58
NtRp1773
(dp1774
g61
(dp1775
g88
g89
ssg70
g1764
sg63
(lp1776
S':'
asbag56
(g77
g58
NtRp1777
(dp1778
g61
(dp1779
sg70
g1764
sg63
(lp1780
g56
(g57
g58
NtRp1781
(dp1782
g61
(dp1783
g69
I4
ssg70
g1777
sg63
(lp1784
S'HTTP/1.1'
p1785
asbasbasbag56
(g72
g58
NtRp1786
(dp1787
g61
(dp1788
sg70
g1191
sg63
(lp1789
g56
(g77
g58
NtRp1790
(dp1791
g61
(dp1792
g81
g82
ssg70
g1786
sg63
(lp1793
S'server_software'
p1794
asbag56
(g77
g58
NtRp1795
(dp1796
g61
(dp1797
g88
g89
ssg70
g1786
sg63
(lp1798
S':'
asbag56
(g77
g58
NtRp1799
(dp1800
g61
(dp1801
sg70
g1786
sg63
(lp1802
g56
(g57
g58
NtRp1803
(dp1804
g61
(dp1805
g69
I4
ssg70
g1799
sg63
(lp1806
S'Rocket 1.2.4'
p1807
asbasbasbag56
(g72
g58
NtRp1808
(dp1809
g61
(dp1810
sg70
g1191
sg63
(lp1811
g56
(g77
g58
NtRp1812
(dp1813
g61
(dp1814
g81
g82
ssg70
g1808
sg63
(lp1815
S'web2py_crontype'
p1816
asbag56
(g77
g58
NtRp1817
(dp1818
g61
(dp1819
g88
g89
ssg70
g1808
sg63
(lp1820
S':'
asbag56
(g77
g58
NtRp1821
(dp1822
g61
(dp1823
sg70
g1808
sg63
(lp1824
g56
(g57
g58
NtRp1825
(dp1826
g61
(dp1827
g69
I4
ssg70
g1821
sg63
(lp1828
S'hard'
p1829
asbasbasbag56
(g72
g58
NtRp1830
(dp1831
g61
(dp1832
sg70
g1191
sg63
(lp1833
g56
(g77
g58
NtRp1834
(dp1835
g61
(dp1836
g81
g82
ssg70
g1830
sg63
(lp1837
S'web2py_path'
p1838
asbag56
(g77
g58
NtRp1839
(dp1840
g61
(dp1841
g88
g89
ssg70
g1830
sg63
(lp1842
S':'
asbag56
(g77
g58
NtRp1843
(dp1844
g61
(dp1845
sg70
g1830
sg63
(lp1846
g56
(g57
g58
NtRp1847
(dp1848
g61
(dp1849
g69
I4
ssg70
g1843
sg63
(lp1850
g1238
asbasbasbag56
(g72
g58
NtRp1851
(dp1852
g61
(dp1853
sg70
g1191
sg63
(lp1854
g56
(g77
g58
NtRp1855
(dp1856
g61
(dp1857
g81
g82
ssg70
g1851
sg63
(lp1858
S'web2py_version'
p1859
asbag56
(g77
g58
NtRp1860
(dp1861
g61
(dp1862
g88
g89
ssg70
g1851
sg63
(lp1863
S':'
asbag56
(g77
g58
NtRp1864
(dp1865
g61
(dp1866
sg70
g1851
sg63
(lp1867
g56
(g57
g58
NtRp1868
(dp1869
g61
(dp1870
g69
I4
ssg70
g1864
sg63
(lp1871
g56
(g65
g58
NtRp1872
(dp1873
g61
(dp1874
g69
I3
ssg70
Nsg63
(lp1875
g56
(g72
g58
NtRp1876
(dp1877
g61
(dp1878
sg70
g1872
sg63
(lp1879
g56
(g77
g58
NtRp1880
(dp1881
g61
(dp1882
sg70
g1876
sg63
(lp1883
g56
(g57
g58
NtRp1884
(dp1885
g61
(dp1886
g69
I3
ssg70
g1880
sg63
(lp1887
S'1'
asbasbasbag56
(g72
g58
NtRp1888
(dp1889
g61
(dp1890
sg70
g1872
sg63
(lp1891
g56
(g77
g58
NtRp1892
(dp1893
g61
(dp1894
sg70
g1888
sg63
(lp1895
g56
(g57
g58
NtRp1896
(dp1897
g61
(dp1898
g69
I3
ssg70
g1892
sg63
(lp1899
S'99'
p1900
asbasbasbag56
(g72
g58
NtRp1901
(dp1902
g61
(dp1903
sg70
g1872
sg63
(lp1904
g56
(g77
g58
NtRp1905
(dp1906
g61
(dp1907
sg70
g1901
sg63
(lp1908
g56
(g57
g58
NtRp1909
(dp1910
g61
(dp1911
g69
I3
ssg70
g1905
sg63
(lp1912
S'7'
asbasbasbag56
(g72
g58
NtRp1913
(dp1914
g61
(dp1915
sg70
g1872
sg63
(lp1916
g56
(g77
g58
NtRp1917
(dp1918
g61
(dp1919
sg70
g1913
sg63
(lp1920
g56
(g57
g58
NtRp1921
(dp1922
g61
(dp1923
g69
I3
ssg70
g1917
sg63
(lp1924
S'datetime.datetime(2012, 3, 4, 22, 12, 8)'
p1925
asbasbasbag56
(g72
g58
NtRp1926
(dp1927
g61
(dp1928
sg70
g1872
sg63
(lp1929
g56
(g77
g58
NtRp1930
(dp1931
g61
(dp1932
sg70
g1926
sg63
(lp1933
g56
(g57
g58
NtRp1934
(dp1935
g61
(dp1936
g69
I3
ssg70
g1930
sg63
(lp1937
S'stable'
p1938
asbasbasbasbasbasbasbag56
(g72
g58
NtRp1939
(dp1940
g61
(dp1941
sg70
g1191
sg63
(lp1942
g56
(g77
g58
NtRp1943
(dp1944
g61
(dp1945
g81
g82
ssg70
g1939
sg63
(lp1946
S'wsgi_errors'
p1947
asbag56
(g77
g58
NtRp1948
(dp1949
g61
(dp1950
g88
g89
ssg70
g1939
sg63
(lp1951
S':'
asbag56
(g77
g58
NtRp1952
(dp1953
g61
(dp1954
sg70
g1939
sg63
(lp1955
g56
(g57
g58
NtRp1956
(dp1957
g61
(dp1958
g69
I4
ssg70
g1952
sg63
(lp1959
S"<open file '<stderr>', mode 'w' at 0xb74c30d0>"
p1960
asbasbasbag56
(g72
g58
NtRp1961
(dp1962
g61
(dp1963
sg70
g1191
sg63
(lp1964
g56
(g77
g58
NtRp1965
(dp1966
g61
(dp1967
g81
g82
ssg70
g1961
sg63
(lp1968
S'wsgi_file_wrapper'
p1969
asbag56
(g77
g58
NtRp1970
(dp1971
g61
(dp1972
g88
g89
ssg70
g1961
sg63
(lp1973
S':'
asbag56
(g77
g58
NtRp1974
(dp1975
g61
(dp1976
sg70
g1961
sg63
(lp1977
g56
(g57
g58
NtRp1978
(dp1979
g61
(dp1980
g69
I4
ssg70
g1974
sg63
(lp1981
S'<class wsgiref.util.FileWrapper at 0x8856f5c>'
p1982
asbasbasbag56
(g72
g58
NtRp1983
(dp1984
g61
(dp1985
sg70
g1191
sg63
(lp1986
g56
(g77
g58
NtRp1987
(dp1988
g61
(dp1989
g81
g82
ssg70
g1983
sg63
(lp1990
S'wsgi_input'
p1991
asbag56
(g77
g58
NtRp1992
(dp1993
g61
(dp1994
g88
g89
ssg70
g1983
sg63
(lp1995
S':'
asbag56
(g77
g58
NtRp1996
(dp1997
g61
(dp1998
sg70
g1983
sg63
(lp1999
g56
(g57
g58
NtRp2000
(dp2001
g61
(dp2002
g69
I4
ssg70
g1996
sg63
(lp2003
S'<socket._fileobject object at 0x8a704ec>'
p2004
asbasbasbag56
(g72
g58
NtRp2005
(dp2006
g61
(dp2007
sg70
g1191
sg63
(lp2008
g56
(g77
g58
NtRp2009
(dp2010
g61
(dp2011
g81
g82
ssg70
g2005
sg63
(lp2012
S'wsgi_multiprocess'
p2013
asbag56
(g77
g58
NtRp2014
(dp2015
g61
(dp2016
g88
g89
ssg70
g2005
sg63
(lp2017
S':'
asbag56
(g77
g58
NtRp2018
(dp2019
g61
(dp2020
sg70
g2005
sg63
(lp2021
g56
(g57
g58
NtRp2022
(dp2023
g61
(dp2024
g69
I4
ssg70
g2018
sg63
(lp2025
g99
asbasbasbag56
(g72
g58
NtRp2026
(dp2027
g61
(dp2028
sg70
g1191
sg63
(lp2029
g56
(g77
g58
NtRp2030
(dp2031
g61
(dp2032
g81
g82
ssg70
g2026
sg63
(lp2033
S'wsgi_multithread'
p2034
asbag56
(g77
g58
NtRp2035
(dp2036
g61
(dp2037
g88
g89
ssg70
g2026
sg63
(lp2038
S':'
asbag56
(g77
g58
NtRp2039
(dp2040
g61
(dp2041
sg70
g2026
sg63
(lp2042
g56
(g57
g58
NtRp2043
(dp2044
g61
(dp2045
g69
I4
ssg70
g2039
sg63
(lp2046
S'True'
p2047
asbasbasbag56
(g72
g58
NtRp2048
(dp2049
g61
(dp2050
sg70
g1191
sg63
(lp2051
g56
(g77
g58
NtRp2052
(dp2053
g61
(dp2054
g81
g82
ssg70
g2048
sg63
(lp2055
S'wsgi_run_once'
p2056
asbag56
(g77
g58
NtRp2057
(dp2058
g61
(dp2059
g88
g89
ssg70
g2048
sg63
(lp2060
S':'
asbag56
(g77
g58
NtRp2061
(dp2062
g61
(dp2063
sg70
g2048
sg63
(lp2064
g56
(g57
g58
NtRp2065
(dp2066
g61
(dp2067
g69
I4
ssg70
g2061
sg63
(lp2068
g99
asbasbasbag56
(g72
g58
NtRp2069
(dp2070
g61
(dp2071
sg70
g1191
sg63
(lp2072
g56
(g77
g58
NtRp2073
(dp2074
g61
(dp2075
g81
g82
ssg70
g2069
sg63
(lp2076
S'wsgi_url_scheme'
p2077
asbag56
(g77
g58
NtRp2078
(dp2079
g61
(dp2080
g88
g89
ssg70
g2069
sg63
(lp2081
S':'
asbag56
(g77
g58
NtRp2082
(dp2083
g61
(dp2084
sg70
g2069
sg63
(lp2085
g56
(g57
g58
NtRp2086
(dp2087
g61
(dp2088
g69
I4
ssg70
g2082
sg63
(lp2089
S'http'
p2090
asbasbasbag56
(g72
g58
NtRp2091
(dp2092
g61
(dp2093
sg70
g1191
sg63
(lp2094
g56
(g77
g58
NtRp2095
(dp2096
g61
(dp2097
g81
g82
ssg70
g2091
sg63
(lp2098
S'wsgi_version'
p2099
asbag56
(g77
g58
NtRp2100
(dp2101
g61
(dp2102
g88
g89
ssg70
g2091
sg63
(lp2103
S':'
asbag56
(g77
g58
NtRp2104
(dp2105
g61
(dp2106
sg70
g2091
sg63
(lp2107
g56
(g57
g58
NtRp2108
(dp2109
g61
(dp2110
g69
I4
ssg70
g2104
sg63
(lp2111
g56
(g65
g58
NtRp2112
(dp2113
g61
(dp2114
g69
I3
ssg70
Nsg63
(lp2115
g56
(g72
g58
NtRp2116
(dp2117
g61
(dp2118
sg70
g2112
sg63
(lp2119
g56
(g77
g58
NtRp2120
(dp2121
g61
(dp2122
sg70
g2116
sg63
(lp2123
g56
(g57
g58
NtRp2124
(dp2125
g61
(dp2126
g69
I3
ssg70
g2120
sg63
(lp2127
S'1'
asbasbasbag56
(g72
g58
NtRp2128
(dp2129
g61
(dp2130
sg70
g2112
sg63
(lp2131
g56
(g77
g58
NtRp2132
(dp2133
g61
(dp2134
sg70
g2128
sg63
(lp2135
g56
(g57
g58
NtRp2136
(dp2137
g61
(dp2138
g69
I3
ssg70
g2132
sg63
(lp2139
S'0'
asbasbasbasbasbasbasbasbasbasbasbag56
(g72
g58
NtRp2140
(dp2141
g61
(dp2142
sg70
g66
sg63
(lp2143
g56
(g77
g58
NtRp2144
(dp2145
g61
(dp2146
g81
g82
ssg70
g2140
sg63
(lp2147
S'extension'
p2148
asbag56
(g77
g58
NtRp2149
(dp2150
g61
(dp2151
g88
g89
ssg70
g2140
sg63
(lp2152
S':'
asbag56
(g77
g58
NtRp2153
(dp2154
g61
(dp2155
sg70
g2140
sg63
(lp2156
g56
(g57
g58
NtRp2157
(dp2158
g61
(dp2159
g69
I5
ssg70
g2153
sg63
(lp2160
S'html'
p2161
asbasbasbag56
(g72
g58
NtRp2162
(dp2163
g61
(dp2164
sg70
g66
sg63
(lp2165
g56
(g77
g58
NtRp2166
(dp2167
g61
(dp2168
g81
g82
ssg70
g2162
sg63
(lp2169
S'folder'
p2170
asbag56
(g77
g58
NtRp2171
(dp2172
g61
(dp2173
g88
g89
ssg70
g2162
sg63
(lp2174
S':'
asbag56
(g77
g58
NtRp2175
(dp2176
g61
(dp2177
sg70
g2162
sg63
(lp2178
g56
(g57
g58
NtRp2179
(dp2180
g61
(dp2181
g69
I5
ssg70
g2175
sg63
(lp2182
S'/home/arpita/courses/sem3/ssad/web2py/applications/project/'
p2183
asbasbasbag56
(g72
g58
NtRp2184
(dp2185
g61
(dp2186
sg70
g66
sg63
(lp2187
g56
(g77
g58
NtRp2188
(dp2189
g61
(dp2190
g81
g82
ssg70
g2184
sg63
(lp2191
S'function'
p2192
asbag56
(g77
g58
NtRp2193
(dp2194
g61
(dp2195
g88
g89
ssg70
g2184
sg63
(lp2196
S':'
asbag56
(g77
g58
NtRp2197
(dp2198
g61
(dp2199
sg70
g2184
sg63
(lp2200
g56
(g57
g58
NtRp2201
(dp2202
g61
(dp2203
g69
I5
ssg70
g2197
sg63
(lp2204
S'kruskal'
p2205
asbasbasbag56
(g72
g58
NtRp2206
(dp2207
g61
(dp2208
sg70
g66
sg63
(lp2209
g56
(g77
g58
NtRp2210
(dp2211
g61
(dp2212
g81
g82
ssg70
g2206
sg63
(lp2213
S'get_vars'
p2214
asbag56
(g77
g58
NtRp2215
(dp2216
g61
(dp2217
g88
g89
ssg70
g2206
sg63
(lp2218
S':'
asbag56
(g77
g58
NtRp2219
(dp2220
g61
(dp2221
sg70
g2206
sg63
(lp2222
g56
(g57
g58
NtRp2223
(dp2224
g61
(dp2225
g69
I5
ssg70
g2219
sg63
(lp2226
g56
(g65
g58
NtRp2227
(dp2228
g61
(dp2229
g69
I4
ssg70
Nsg63
(lp2230
sbasbasbasbag56
(g72
g58
NtRp2231
(dp2232
g61
(dp2233
sg70
g66
sg63
(lp2234
g56
(g77
g58
NtRp2235
(dp2236
g61
(dp2237
g81
g82
ssg70
g2231
sg63
(lp2238
S'global_settings'
p2239
asbag56
(g77
g58
NtRp2240
(dp2241
g61
(dp2242
g88
g89
ssg70
g2231
sg63
(lp2243
S':'
asbag56
(g77
g58
NtRp2244
(dp2245
g61
(dp2246
sg70
g2231
sg63
(lp2247
g56
(g57
g58
NtRp2248
(dp2249
g61
(dp2250
g69
I5
ssg70
g2244
sg63
(lp2251
g56
(g65
g58
NtRp2252
(dp2253
g61
(dp2254
g69
I4
ssg70
Nsg63
(lp2255
g56
(g72
g58
NtRp2256
(dp2257
g61
(dp2258
sg70
g2252
sg63
(lp2259
g56
(g77
g58
NtRp2260
(dp2261
g61
(dp2262
g81
g82
ssg70
g2256
sg63
(lp2263
g1203
asbag56
(g77
g58
NtRp2264
(dp2265
g61
(dp2266
g88
g89
ssg70
g2256
sg63
(lp2267
S':'
asbag56
(g77
g58
NtRp2268
(dp2269
g61
(dp2270
sg70
g2256
sg63
(lp2271
g56
(g57
g58
NtRp2272
(dp2273
g61
(dp2274
g69
I4
ssg70
g2268
sg63
(lp2275
S"set(['/home/arpita/courses/sem3/ssad/web2py/applications/examples/', '/home/arpita/courses/sem3/ssad/web2py/applications/admin/', '/home/arpita/courses/sem3/ssad/web2py/applications/project/', '/home/arpita/courses/sem3/ssad/web2py/applications/Images/', '/home/arpita/courses/sem3/ssad/web2py/applications/welcome/'])"
p2276
asbasbasbag56
(g72
g58
NtRp2277
(dp2278
g61
(dp2279
sg70
g2252
sg63
(lp2280
g56
(g77
g58
NtRp2281
(dp2282
g61
(dp2283
g81
g82
ssg70
g2277
sg63
(lp2284
g1225
asbag56
(g77
g58
NtRp2285
(dp2286
g61
(dp2287
g88
g89
ssg70
g2277
sg63
(lp2288
S':'
asbag56
(g77
g58
NtRp2289
(dp2290
g61
(dp2291
sg70
g2277
sg63
(lp2292
g56
(g57
g58
NtRp2293
(dp2294
g61
(dp2295
g69
I4
ssg70
g2289
sg63
(lp2296
g1238
asbasbasbag56
(g72
g58
NtRp2297
(dp2298
g61
(dp2299
sg70
g2252
sg63
(lp2300
g56
(g77
g58
NtRp2301
(dp2302
g61
(dp2303
g81
g82
ssg70
g2297
sg63
(lp2304
g1247
asbag56
(g77
g58
NtRp2305
(dp2306
g61
(dp2307
g88
g89
ssg70
g2297
sg63
(lp2308
S':'
asbag56
(g77
g58
NtRp2309
(dp2310
g61
(dp2311
sg70
g2297
sg63
(lp2312
g56
(g57
g58
NtRp2313
(dp2314
g61
(dp2315
g69
I4
ssg70
g2309
sg63
(lp2316
g56
(g65
g58
NtRp2317
(dp2318
g61
(dp2319
g69
I3
ssg70
Nsg63
(lp2320
sbasbasbasbag56
(g72
g58
NtRp2321
(dp2322
g61
(dp2323
sg70
g2252
sg63
(lp2324
g56
(g77
g58
NtRp2325
(dp2326
g61
(dp2327
g81
g82
ssg70
g2321
sg63
(lp2328
g1272
asbag56
(g77
g58
NtRp2329
(dp2330
g61
(dp2331
g88
g89
ssg70
g2321
sg63
(lp2332
S':'
asbag56
(g77
g58
NtRp2333
(dp2334
g61
(dp2335
sg70
g2321
sg63
(lp2336
g56
(g57
g58
NtRp2337
(dp2338
g61
(dp2339
g69
I4
ssg70
g2333
sg63
(lp2340
S"<Values at 0x88b33cc: {'verbose': False, 'ip': '127.0.0.1', 'shutdown_timeout': 5, 'taskbar': False, 'nocron': False, 'pid_filename': 'httpserver.pid', 'maxthreads': None, 'softcron': False, 'server_name': 'arpita-HP-630-Notebook-PC', 'bpython': False, 'nogui': False, 'port': 8000, 'extcron': False, 'debuglevel': 30, 'test': None, 'folder': '/home/arpita/courses/sem3/ssad/web2py', 'config': '', 'import_models': False, 'winservice': '', 'shell': None, 'run': '', 'log_filename': 'httpserver.log', 'args': [''], 'socket_timeout': 5, 'ssl_ca_certificate': None, 'scheduler': None, 'profiler_filename': None, 'ssl_private_key': '', 'password': 'arpita', 'request_queue_size': 5, 'ssl_certificate': '', 'cronjob': False, 'numthreads': None, 'quiet': False, 'interfaces': None, 'minthreads': None, 'timeout': 10, 'plain': False, 'nobanner': False}>"
p2341
asbasbasbag56
(g72
g58
NtRp2342
(dp2343
g61
(dp2344
sg70
g2252
sg63
(lp2345
g56
(g77
g58
NtRp2346
(dp2347
g61
(dp2348
g81
g82
ssg70
g2342
sg63
(lp2349
g1294
asbag56
(g77
g58
NtRp2350
(dp2351
g61
(dp2352
g88
g89
ssg70
g2342
sg63
(lp2353
S':'
asbag56
(g77
g58
NtRp2354
(dp2355
g61
(dp2356
sg70
g2342
sg63
(lp2357
g56
(g57
g58
NtRp2358
(dp2359
g61
(dp2360
g69
I4
ssg70
g2354
sg63
(lp2361
S'set([])'
p2362
asbasbasbag56
(g72
g58
NtRp2363
(dp2364
g61
(dp2365
sg70
g2252
sg63
(lp2366
g56
(g77
g58
NtRp2367
(dp2368
g61
(dp2369
g81
g82
ssg70
g2363
sg63
(lp2370
g1316
asbag56
(g77
g58
NtRp2371
(dp2372
g61
(dp2373
g88
g89
ssg70
g2363
sg63
(lp2374
S':'
asbag56
(g77
g58
NtRp2375
(dp2376
g61
(dp2377
sg70
g2363
sg63
(lp2378
g56
(g57
g58
NtRp2379
(dp2380
g61
(dp2381
g69
I4
ssg70
g2375
sg63
(lp2382
g99
asbasbasbag56
(g72
g58
NtRp2383
(dp2384
g61
(dp2385
sg70
g2252
sg63
(lp2386
g56
(g77
g58
NtRp2387
(dp2388
g61
(dp2389
g81
g82
ssg70
g2383
sg63
(lp2390
g1337
asbag56
(g77
g58
NtRp2391
(dp2392
g61
(dp2393
g88
g89
ssg70
g2383
sg63
(lp2394
S':'
asbag56
(g77
g58
NtRp2395
(dp2396
g61
(dp2397
sg70
g2383
sg63
(lp2398
g56
(g57
g58
NtRp2399
(dp2400
g61
(dp2401
g69
I4
ssg70
g2395
sg63
(lp2402
g1350
asbasbasbag56
(g72
g58
NtRp2403
(dp2404
g61
(dp2405
sg70
g2252
sg63
(lp2406
g56
(g77
g58
NtRp2407
(dp2408
g61
(dp2409
g81
g82
ssg70
g2403
sg63
(lp2410
g1557
asbag56
(g77
g58
NtRp2411
(dp2412
g61
(dp2413
g88
g89
ssg70
g2403
sg63
(lp2414
S':'
asbag56
(g77
g58
NtRp2415
(dp2416
g61
(dp2417
sg70
g2403
sg63
(lp2418
g56
(g57
g58
NtRp2419
(dp2420
g61
(dp2421
g69
I4
ssg70
g2415
sg63
(lp2422
g99
asbasbasbag56
(g72
g58
NtRp2423
(dp2424
g61
(dp2425
sg70
g2252
sg63
(lp2426
g56
(g77
g58
NtRp2427
(dp2428
g61
(dp2429
g81
g82
ssg70
g2423
sg63
(lp2430
g1578
asbag56
(g77
g58
NtRp2431
(dp2432
g61
(dp2433
g88
g89
ssg70
g2423
sg63
(lp2434
S':'
asbag56
(g77
g58
NtRp2435
(dp2436
g61
(dp2437
sg70
g2423
sg63
(lp2438
g56
(g57
g58
NtRp2439
(dp2440
g61
(dp2441
g69
I4
ssg70
g2435
sg63
(lp2442
g99
asbasbasbag56
(g72
g58
NtRp2443
(dp2444
g61
(dp2445
sg70
g2252
sg63
(lp2446
g56
(g77
g58
NtRp2447
(dp2448
g61
(dp2449
g81
g82
ssg70
g2443
sg63
(lp2450
g1816
asbag56
(g77
g58
NtRp2451
(dp2452
g61
(dp2453
g88
g89
ssg70
g2443
sg63
(lp2454
S':'
asbag56
(g77
g58
NtRp2455
(dp2456
g61
(dp2457
sg70
g2443
sg63
(lp2458
g56
(g57
g58
NtRp2459
(dp2460
g61
(dp2461
g69
I4
ssg70
g2455
sg63
(lp2462
g1829
asbasbasbag56
(g72
g58
NtRp2463
(dp2464
g61
(dp2465
sg70
g2252
sg63
(lp2466
g56
(g77
g58
NtRp2467
(dp2468
g61
(dp2469
g81
g82
ssg70
g2463
sg63
(lp2470
g1859
asbag56
(g77
g58
NtRp2471
(dp2472
g61
(dp2473
g88
g89
ssg70
g2463
sg63
(lp2474
S':'
asbag56
(g77
g58
NtRp2475
(dp2476
g61
(dp2477
sg70
g2463
sg63
(lp2478
g56
(g57
g58
NtRp2479
(dp2480
g61
(dp2481
g69
I4
ssg70
g2475
sg63
(lp2482
g56
(g65
g58
NtRp2483
(dp2484
g61
(dp2485
g69
I3
ssg70
Nsg63
(lp2486
g56
(g72
g58
NtRp2487
(dp2488
g61
(dp2489
sg70
g2483
sg63
(lp2490
g56
(g77
g58
NtRp2491
(dp2492
g61
(dp2493
sg70
g2487
sg63
(lp2494
g56
(g57
g58
NtRp2495
(dp2496
g61
(dp2497
g69
I3
ssg70
g2491
sg63
(lp2498
S'1'
asbasbasbag56
(g72
g58
NtRp2499
(dp2500
g61
(dp2501
sg70
g2483
sg63
(lp2502
g56
(g77
g58
NtRp2503
(dp2504
g61
(dp2505
sg70
g2499
sg63
(lp2506
g56
(g57
g58
NtRp2507
(dp2508
g61
(dp2509
g69
I3
ssg70
g2503
sg63
(lp2510
S'99'
p2511
asbasbasbag56
(g72
g58
NtRp2512
(dp2513
g61
(dp2514
sg70
g2483
sg63
(lp2515
g56
(g77
g58
NtRp2516
(dp2517
g61
(dp2518
sg70
g2512
sg63
(lp2519
g56
(g57
g58
NtRp2520
(dp2521
g61
(dp2522
g69
I3
ssg70
g2516
sg63
(lp2523
S'7'
asbasbasbag56
(g72
g58
NtRp2524
(dp2525
g61
(dp2526
sg70
g2483
sg63
(lp2527
g56
(g77
g58
NtRp2528
(dp2529
g61
(dp2530
sg70
g2524
sg63
(lp2531
g56
(g57
g58
NtRp2532
(dp2533
g61
(dp2534
g69
I3
ssg70
g2528
sg63
(lp2535
S'datetime.datetime(2012, 3, 4, 22, 12, 8)'
p2536
asbasbasbag56
(g72
g58
NtRp2537
(dp2538
g61
(dp2539
sg70
g2483
sg63
(lp2540
g56
(g77
g58
NtRp2541
(dp2542
g61
(dp2543
sg70
g2537
sg63
(lp2544
g56
(g57
g58
NtRp2545
(dp2546
g61
(dp2547
g69
I3
ssg70
g2541
sg63
(lp2548
g1938
asbasbasbasbasbasbasbasbasbasbasbag56
(g72
g58
NtRp2549
(dp2550
g61
(dp2551
sg70
g66
sg63
(lp2552
g56
(g77
g58
NtRp2553
(dp2554
g61
(dp2555
g81
g82
ssg70
g2549
sg63
(lp2556
S'is_https'
p2557
asbag56
(g77
g58
NtRp2558
(dp2559
g61
(dp2560
g88
g89
ssg70
g2549
sg63
(lp2561
S':'
asbag56
(g77
g58
NtRp2562
(dp2563
g61
(dp2564
sg70
g2549
sg63
(lp2565
g56
(g57
g58
NtRp2566
(dp2567
g61
(dp2568
g69
I5
ssg70
g2562
sg63
(lp2569
g99
asbasbasbag56
(g72
g58
NtRp2570
(dp2571
g61
(dp2572
sg70
g66
sg63
(lp2573
g56
(g77
g58
NtRp2574
(dp2575
g61
(dp2576
g81
g82
ssg70
g2570
sg63
(lp2577
S'is_local'
p2578
asbag56
(g77
g58
NtRp2579
(dp2580
g61
(dp2581
g88
g89
ssg70
g2570
sg63
(lp2582
S':'
asbag56
(g77
g58
NtRp2583
(dp2584
g61
(dp2585
sg70
g2570
sg63
(lp2586
g56
(g57
g58
NtRp2587
(dp2588
g61
(dp2589
g69
I5
ssg70
g2583
sg63
(lp2590
g2047
asbasbasbag56
(g72
g58
NtRp2591
(dp2592
g61
(dp2593
sg70
g66
sg63
(lp2594
g56
(g77
g58
NtRp2595
(dp2596
g61
(dp2597
g81
g82
ssg70
g2591
sg63
(lp2598
S'is_restful'
p2599
asbag56
(g77
g58
NtRp2600
(dp2601
g61
(dp2602
g88
g89
ssg70
g2591
sg63
(lp2603
S':'
asbag56
(g77
g58
NtRp2604
(dp2605
g61
(dp2606
sg70
g2591
sg63
(lp2607
g56
(g57
g58
NtRp2608
(dp2609
g61
(dp2610
g69
I5
ssg70
g2604
sg63
(lp2611
g99
asbasbasbag56
(g72
g58
NtRp2612
(dp2613
g61
(dp2614
sg70
g66
sg63
(lp2615
g56
(g77
g58
NtRp2616
(dp2617
g61
(dp2618
g81
g82
ssg70
g2612
sg63
(lp2619
S'now'
p2620
asbag56
(g77
g58
NtRp2621
(dp2622
g61
(dp2623
g88
g89
ssg70
g2612
sg63
(lp2624
S':'
asbag56
(g77
g58
NtRp2625
(dp2626
g61
(dp2627
sg70
g2612
sg63
(lp2628
g56
(g57
g58
NtRp2629
(dp2630
g61
(dp2631
g69
I5
ssg70
g2625
sg63
(lp2632
S'datetime.datetime(2012, 10, 13, 23, 52, 42, 847087)'
p2633
asbasbasbag56
(g72
g58
NtRp2634
(dp2635
g61
(dp2636
sg70
g66
sg63
(lp2637
g56
(g77
g58
NtRp2638
(dp2639
g61
(dp2640
g81
g82
ssg70
g2634
sg63
(lp2641
S'post_vars'
p2642
asbag56
(g77
g58
NtRp2643
(dp2644
g61
(dp2645
g88
g89
ssg70
g2634
sg63
(lp2646
S':'
asbag56
(g77
g58
NtRp2647
(dp2648
g61
(dp2649
sg70
g2634
sg63
(lp2650
g56
(g57
g58
NtRp2651
(dp2652
g61
(dp2653
g69
I5
ssg70
g2647
sg63
(lp2654
g56
(g65
g58
NtRp2655
(dp2656
g61
(dp2657
g69
I4
ssg70
Nsg63
(lp2658
sbasbasbasbag56
(g72
g58
NtRp2659
(dp2660
g61
(dp2661
sg70
g66
sg63
(lp2662
g56
(g77
g58
NtRp2663
(dp2664
g61
(dp2665
g81
g82
ssg70
g2659
sg63
(lp2666
S'url'
p2667
asbag56
(g77
g58
NtRp2668
(dp2669
g61
(dp2670
g88
g89
ssg70
g2659
sg63
(lp2671
S':'
asbag56
(g77
g58
NtRp2672
(dp2673
g61
(dp2674
sg70
g2659
sg63
(lp2675
g56
(g57
g58
NtRp2676
(dp2677
g61
(dp2678
g69
I5
ssg70
g2672
sg63
(lp2679
S'/project/default/kruskal'
p2680
asbasbasbag56
(g72
g58
NtRp2681
(dp2682
g61
(dp2683
sg70
g66
sg63
(lp2684
g56
(g77
g58
NtRp2685
(dp2686
g61
(dp2687
g81
g82
ssg70
g2681
sg63
(lp2688
S'utcnow'
p2689
asbag56
(g77
g58
NtRp2690
(dp2691
g61
(dp2692
g88
g89
ssg70
g2681
sg63
(lp2693
S':'
asbag56
(g77
g58
NtRp2694
(dp2695
g61
(dp2696
sg70
g2681
sg63
(lp2697
g56
(g57
g58
NtRp2698
(dp2699
g61
(dp2700
g69
I5
ssg70
g2694
sg63
(lp2701
S'datetime.datetime(2012, 10, 13, 18, 22, 42, 847112)'
p2702
asbasbasbag56
(g72
g58
NtRp2703
(dp2704
g61
(dp2705
sg70
g66
sg63
(lp2706
g56
(g77
g58
NtRp2707
(dp2708
g61
(dp2709
g81
g82
ssg70
g2703
sg63
(lp2710
S'uuid'
p2711
asbag56
(g77
g58
NtRp2712
(dp2713
g61
(dp2714
g88
g89
ssg70
g2703
sg63
(lp2715
S':'
asbag56
(g77
g58
NtRp2716
(dp2717
g61
(dp2718
sg70
g2703
sg63
(lp2719
g56
(g57
g58
NtRp2720
(dp2721
g61
(dp2722
g69
I5
ssg70
g2716
sg63
(lp2723
S'project/127.0.0.1.2012-10-13.23-52-42.1343857d-69fc-4e12-9664-2ac5fff93fa3'
p2724
asbasbasbag56
(g72
g58
NtRp2725
(dp2726
g61
(dp2727
sg70
g66
sg63
(lp2728
g56
(g77
g58
NtRp2729
(dp2730
g61
(dp2731
g81
g82
ssg70
g2725
sg63
(lp2732
S'vars'
p2733
asbag56
(g77
g58
NtRp2734
(dp2735
g61
(dp2736
g88
g89
ssg70
g2725
sg63
(lp2737
S':'
asbag56
(g77
g58
NtRp2738
(dp2739
g61
(dp2740
sg70
g2725
sg63
(lp2741
g56
(g57
g58
NtRp2742
(dp2743
g61
(dp2744
g69
I5
ssg70
g2738
sg63
(lp2745
g56
(g65
g58
NtRp2746
(dp2747
g61
(dp2748
g69
I4
ssg70
Nsg63
(lp2749
sbasbasbasbag56
(g72
g58
NtRp2750
(dp2751
g61
(dp2752
sg70
g66
sg63
(lp2753
g56
(g77
g58
NtRp2754
(dp2755
g61
(dp2756
g81
g82
ssg70
g2750
sg63
(lp2757
S'wsgi'
p2758
asbag56
(g77
g58
NtRp2759
(dp2760
g61
(dp2761
g88
g89
ssg70
g2750
sg63
(lp2762
S':'
asbag56
(g77
g58
NtRp2763
(dp2764
g61
(dp2765
sg70
g2750
sg63
(lp2766
g56
(g57
g58
NtRp2767
(dp2768
g61
(dp2769
g69
I5
ssg70
g2763
sg63
(lp2770
g56
(g65
g58
NtRp2771
(dp2772
g61
(dp2773
g69
I4
ssg70
Nsg63
(lp2774
g56
(g72
g58
NtRp2775
(dp2776
g61
(dp2777
sg70
g2771
sg63
(lp2778
g56
(g77
g58
NtRp2779
(dp2780
g61
(dp2781
g81
g82
ssg70
g2775
sg63
(lp2782
S'environ'
p2783
asbag56
(g77
g58
NtRp2784
(dp2785
g61
(dp2786
g88
g89
ssg70
g2775
sg63
(lp2787
S':'
asbag56
(g77
g58
NtRp2788
(dp2789
g61
(dp2790
sg70
g2775
sg63
(lp2791
g56
(g57
g58
NtRp2792
(dp2793
g61
(dp2794
g69
I4
ssg70
g2788
sg63
(lp2795
g56
(g65
g58
NtRp2796
(dp2797
g61
(dp2798
g69
I3
ssg70
Nsg63
(lp2799
g56
(g72
g58
NtRp2800
(dp2801
g61
(dp2802
sg70
g2796
sg63
(lp2803
g56
(g77
g58
NtRp2804
(dp2805
g61
(dp2806
g81
g82
ssg70
g2800
sg63
(lp2807
S'HTTP_ACCEPT'
p2808
asbag56
(g77
g58
NtRp2809
(dp2810
g61
(dp2811
g88
g89
ssg70
g2800
sg63
(lp2812
S':'
asbag56
(g77
g58
NtRp2813
(dp2814
g61
(dp2815
sg70
g2800
sg63
(lp2816
g56
(g57
g58
NtRp2817
(dp2818
g61
(dp2819
g69
I3
ssg70
g2813
sg63
(lp2820
g1372
asbasbasbag56
(g72
g58
NtRp2821
(dp2822
g61
(dp2823
sg70
g2796
sg63
(lp2824
g56
(g77
g58
NtRp2825
(dp2826
g61
(dp2827
g81
g82
ssg70
g2821
sg63
(lp2828
S'HTTP_ACCEPT_CHARSET'
p2829
asbag56
(g77
g58
NtRp2830
(dp2831
g61
(dp2832
g88
g89
ssg70
g2821
sg63
(lp2833
S':'
asbag56
(g77
g58
NtRp2834
(dp2835
g61
(dp2836
sg70
g2821
sg63
(lp2837
g56
(g57
g58
NtRp2838
(dp2839
g61
(dp2840
g69
I3
ssg70
g2834
sg63
(lp2841
g1394
asbasbasbag56
(g72
g58
NtRp2842
(dp2843
g61
(dp2844
sg70
g2796
sg63
(lp2845
g56
(g77
g58
NtRp2846
(dp2847
g61
(dp2848
g81
g82
ssg70
g2842
sg63
(lp2849
S'HTTP_ACCEPT_ENCODING'
p2850
asbag56
(g77
g58
NtRp2851
(dp2852
g61
(dp2853
g88
g89
ssg70
g2842
sg63
(lp2854
S':'
asbag56
(g77
g58
NtRp2855
(dp2856
g61
(dp2857
sg70
g2842
sg63
(lp2858
g56
(g57
g58
NtRp2859
(dp2860
g61
(dp2861
g69
I3
ssg70
g2855
sg63
(lp2862
g1416
asbasbasbag56
(g72
g58
NtRp2863
(dp2864
g61
(dp2865
sg70
g2796
sg63
(lp2866
g56
(g77
g58
NtRp2867
(dp2868
g61
(dp2869
g81
g82
ssg70
g2863
sg63
(lp2870
S'HTTP_ACCEPT_LANGUAGE'
p2871
asbag56
(g77
g58
NtRp2872
(dp2873
g61
(dp2874
g88
g89
ssg70
g2863
sg63
(lp2875
S':'
asbag56
(g77
g58
NtRp2876
(dp2877
g61
(dp2878
sg70
g2863
sg63
(lp2879
g56
(g57
g58
NtRp2880
(dp2881
g61
(dp2882
g69
I3
ssg70
g2876
sg63
(lp2883
g1438
asbasbasbag56
(g72
g58
NtRp2884
(dp2885
g61
(dp2886
sg70
g2796
sg63
(lp2887
g56
(g77
g58
NtRp2888
(dp2889
g61
(dp2890
g81
g82
ssg70
g2884
sg63
(lp2891
S'HTTP_CONNECTION'
p2892
asbag56
(g77
g58
NtRp2893
(dp2894
g61
(dp2895
g88
g89
ssg70
g2884
sg63
(lp2896
S':'
asbag56
(g77
g58
NtRp2897
(dp2898
g61
(dp2899
sg70
g2884
sg63
(lp2900
g56
(g57
g58
NtRp2901
(dp2902
g61
(dp2903
g69
I3
ssg70
g2897
sg63
(lp2904
g1460
asbasbasbag56
(g72
g58
NtRp2905
(dp2906
g61
(dp2907
sg70
g2796
sg63
(lp2908
g56
(g77
g58
NtRp2909
(dp2910
g61
(dp2911
g81
g82
ssg70
g2905
sg63
(lp2912
S'HTTP_COOKIE'
p2913
asbag56
(g77
g58
NtRp2914
(dp2915
g61
(dp2916
g88
g89
ssg70
g2905
sg63
(lp2917
S':'
asbag56
(g77
g58
NtRp2918
(dp2919
g61
(dp2920
sg70
g2905
sg63
(lp2921
g56
(g57
g58
NtRp2922
(dp2923
g61
(dp2924
g69
I3
ssg70
g2918
sg63
(lp2925
g1482
asbasbasbag56
(g72
g58
NtRp2926
(dp2927
g61
(dp2928
sg70
g2796
sg63
(lp2929
g56
(g77
g58
NtRp2930
(dp2931
g61
(dp2932
g81
g82
ssg70
g2926
sg63
(lp2933
S'HTTP_HOST'
p2934
asbag56
(g77
g58
NtRp2935
(dp2936
g61
(dp2937
g88
g89
ssg70
g2926
sg63
(lp2938
S':'
asbag56
(g77
g58
NtRp2939
(dp2940
g61
(dp2941
sg70
g2926
sg63
(lp2942
g56
(g57
g58
NtRp2943
(dp2944
g61
(dp2945
g69
I3
ssg70
g2939
sg63
(lp2946
g1504
asbasbasbag56
(g72
g58
NtRp2947
(dp2948
g61
(dp2949
sg70
g2796
sg63
(lp2950
g56
(g77
g58
NtRp2951
(dp2952
g61
(dp2953
g81
g82
ssg70
g2947
sg63
(lp2954
S'HTTP_REFERER'
p2955
asbag56
(g77
g58
NtRp2956
(dp2957
g61
(dp2958
g88
g89
ssg70
g2947
sg63
(lp2959
S':'
asbag56
(g77
g58
NtRp2960
(dp2961
g61
(dp2962
sg70
g2947
sg63
(lp2963
g56
(g57
g58
NtRp2964
(dp2965
g61
(dp2966
g69
I3
ssg70
g2960
sg63
(lp2967
g1526
asbasbasbag56
(g72
g58
NtRp2968
(dp2969
g61
(dp2970
sg70
g2796
sg63
(lp2971
g56
(g77
g58
NtRp2972
(dp2973
g61
(dp2974
g81
g82
ssg70
g2968
sg63
(lp2975
S'HTTP_USER_AGENT'
p2976
asbag56
(g77
g58
NtRp2977
(dp2978
g61
(dp2979
g88
g89
ssg70
g2968
sg63
(lp2980
S':'
asbag56
(g77
g58
NtRp2981
(dp2982
g61
(dp2983
sg70
g2968
sg63
(lp2984
g56
(g57
g58
NtRp2985
(dp2986
g61
(dp2987
g69
I3
ssg70
g2981
sg63
(lp2988
g1548
asbasbasbag56
(g72
g58
NtRp2989
(dp2990
g61
(dp2991
sg70
g2796
sg63
(lp2992
g56
(g77
g58
NtRp2993
(dp2994
g61
(dp2995
g81
g82
ssg70
g2989
sg63
(lp2996
S'PATH_INFO'
p2997
asbag56
(g77
g58
NtRp2998
(dp2999
g61
(dp3000
g88
g89
ssg70
g2989
sg63
(lp3001
S':'
asbag56
(g77
g58
NtRp3002
(dp3003
g61
(dp3004
sg70
g2989
sg63
(lp3005
g56
(g57
g58
NtRp3006
(dp3007
g61
(dp3008
g69
I3
ssg70
g3002
sg63
(lp3009
g1612
asbasbasbag56
(g72
g58
NtRp3010
(dp3011
g61
(dp3012
sg70
g2796
sg63
(lp3013
g56
(g77
g58
NtRp3014
(dp3015
g61
(dp3016
g81
g82
ssg70
g3010
sg63
(lp3017
S'QUERY_STRING'
p3018
asbag56
(g77
g58
NtRp3019
(dp3020
g61
(dp3021
g88
g89
ssg70
g3010
sg63
(lp3022
S':'
asbag56
(g77
g58
NtRp3023
(dp3024
g61
(dp3025
sg70
g3010
sg63
(lp3026
g56
(g57
g58
NtRp3027
(dp3028
g61
(dp3029
g69
I3
ssg70
g3023
sg63
(lp3030
S''
asbasbasbag56
(g72
g58
NtRp3031
(dp3032
g61
(dp3033
sg70
g2796
sg63
(lp3034
g56
(g77
g58
NtRp3035
(dp3036
g61
(dp3037
g81
g82
ssg70
g3031
sg63
(lp3038
S'REMOTE_ADDR'
p3039
asbag56
(g77
g58
NtRp3040
(dp3041
g61
(dp3042
g88
g89
ssg70
g3031
sg63
(lp3043
S':'
asbag56
(g77
g58
NtRp3044
(dp3045
g61
(dp3046
sg70
g3031
sg63
(lp3047
g56
(g57
g58
NtRp3048
(dp3049
g61
(dp3050
g69
I3
ssg70
g3044
sg63
(lp3051
g189
asbasbasbag56
(g72
g58
NtRp3052
(dp3053
g61
(dp3054
sg70
g2796
sg63
(lp3055
g56
(g77
g58
NtRp3056
(dp3057
g61
(dp3058
g81
g82
ssg70
g3052
sg63
(lp3059
S'REMOTE_PORT'
p3060
asbag56
(g77
g58
NtRp3061
(dp3062
g61
(dp3063
g88
g89
ssg70
g3052
sg63
(lp3064
S':'
asbag56
(g77
g58
NtRp3065
(dp3066
g61
(dp3067
sg70
g3052
sg63
(lp3068
g56
(g57
g58
NtRp3069
(dp3070
g61
(dp3071
g69
I3
ssg70
g3065
sg63
(lp3072
g1676
asbasbasbag56
(g72
g58
NtRp3073
(dp3074
g61
(dp3075
sg70
g2796
sg63
(lp3076
g56
(g77
g58
NtRp3077
(dp3078
g61
(dp3079
g81
g82
ssg70
g3073
sg63
(lp3080
S'REQUEST_METHOD'
p3081
asbag56
(g77
g58
NtRp3082
(dp3083
g61
(dp3084
g88
g89
ssg70
g3073
sg63
(lp3085
S':'
asbag56
(g77
g58
NtRp3086
(dp3087
g61
(dp3088
sg70
g3073
sg63
(lp3089
g56
(g57
g58
NtRp3090
(dp3091
g61
(dp3092
g69
I3
ssg70
g3086
sg63
(lp3093
g1698
asbasbasbag56
(g72
g58
NtRp3094
(dp3095
g61
(dp3096
sg70
g2796
sg63
(lp3097
g56
(g77
g58
NtRp3098
(dp3099
g61
(dp3100
g81
g82
ssg70
g3094
sg63
(lp3101
S'SCRIPT_NAME'
p3102
asbag56
(g77
g58
NtRp3103
(dp3104
g61
(dp3105
g88
g89
ssg70
g3094
sg63
(lp3106
S':'
asbag56
(g77
g58
NtRp3107
(dp3108
g61
(dp3109
sg70
g3094
sg63
(lp3110
g56
(g57
g58
NtRp3111
(dp3112
g61
(dp3113
g69
I3
ssg70
g3107
sg63
(lp3114
S''
asbasbasbag56
(g72
g58
NtRp3115
(dp3116
g61
(dp3117
sg70
g2796
sg63
(lp3118
g56
(g77
g58
NtRp3119
(dp3120
g61
(dp3121
g81
g82
ssg70
g3115
sg63
(lp3122
S'SERVER_NAME'
p3123
asbag56
(g77
g58
NtRp3124
(dp3125
g61
(dp3126
g88
g89
ssg70
g3115
sg63
(lp3127
S':'
asbag56
(g77
g58
NtRp3128
(dp3129
g61
(dp3130
sg70
g3115
sg63
(lp3131
g56
(g57
g58
NtRp3132
(dp3133
g61
(dp3134
g69
I3
ssg70
g3128
sg63
(lp3135
g1741
asbasbasbag56
(g72
g58
NtRp3136
(dp3137
g61
(dp3138
sg70
g2796
sg63
(lp3139
g56
(g77
g58
NtRp3140
(dp3141
g61
(dp3142
g81
g82
ssg70
g3136
sg63
(lp3143
S'SERVER_PORT'
p3144
asbag56
(g77
g58
NtRp3145
(dp3146
g61
(dp3147
g88
g89
ssg70
g3136
sg63
(lp3148
S':'
asbag56
(g77
g58
NtRp3149
(dp3150
g61
(dp3151
sg70
g3136
sg63
(lp3152
g56
(g57
g58
NtRp3153
(dp3154
g61
(dp3155
g69
I3
ssg70
g3149
sg63
(lp3156
g1763
asbasbasbag56
(g72
g58
NtRp3157
(dp3158
g61
(dp3159
sg70
g2796
sg63
(lp3160
g56
(g77
g58
NtRp3161
(dp3162
g61
(dp3163
g81
g82
ssg70
g3157
sg63
(lp3164
S'SERVER_PROTOCOL'
p3165
asbag56
(g77
g58
NtRp3166
(dp3167
g61
(dp3168
g88
g89
ssg70
g3157
sg63
(lp3169
S':'
asbag56
(g77
g58
NtRp3170
(dp3171
g61
(dp3172
sg70
g3157
sg63
(lp3173
g56
(g57
g58
NtRp3174
(dp3175
g61
(dp3176
g69
I3
ssg70
g3170
sg63
(lp3177
g1785
asbasbasbag56
(g72
g58
NtRp3178
(dp3179
g61
(dp3180
sg70
g2796
sg63
(lp3181
g56
(g77
g58
NtRp3182
(dp3183
g61
(dp3184
g81
g82
ssg70
g3178
sg63
(lp3185
S'SERVER_SOFTWARE'
p3186
asbag56
(g77
g58
NtRp3187
(dp3188
g61
(dp3189
g88
g89
ssg70
g3178
sg63
(lp3190
S':'
asbag56
(g77
g58
NtRp3191
(dp3192
g61
(dp3193
sg70
g3178
sg63
(lp3194
g56
(g57
g58
NtRp3195
(dp3196
g61
(dp3197
g69
I3
ssg70
g3191
sg63
(lp3198
g1807
asbasbasbag56
(g72
g58
NtRp3199
(dp3200
g61
(dp3201
sg70
g2796
sg63
(lp3202
g56
(g77
g58
NtRp3203
(dp3204
g61
(dp3205
g81
g82
ssg70
g3199
sg63
(lp3206
S'wsgi.errors'
p3207
asbag56
(g77
g58
NtRp3208
(dp3209
g61
(dp3210
g88
g89
ssg70
g3199
sg63
(lp3211
S':'
asbag56
(g77
g58
NtRp3212
(dp3213
g61
(dp3214
sg70
g3199
sg63
(lp3215
g56
(g57
g58
NtRp3216
(dp3217
g61
(dp3218
g69
I3
ssg70
g3212
sg63
(lp3219
S"<open file '<stderr>', mode 'w' at 0xb74c30d0>"
p3220
asbasbasbag56
(g72
g58
NtRp3221
(dp3222
g61
(dp3223
sg70
g2796
sg63
(lp3224
g56
(g77
g58
NtRp3225
(dp3226
g61
(dp3227
g81
g82
ssg70
g3221
sg63
(lp3228
S'wsgi.file_wrapper'
p3229
asbag56
(g77
g58
NtRp3230
(dp3231
g61
(dp3232
g88
g89
ssg70
g3221
sg63
(lp3233
S':'
asbag56
(g77
g58
NtRp3234
(dp3235
g61
(dp3236
sg70
g3221
sg63
(lp3237
g56
(g57
g58
NtRp3238
(dp3239
g61
(dp3240
g69
I3
ssg70
g3234
sg63
(lp3241
S'<class wsgiref.util.FileWrapper at 0x8856f5c>'
p3242
asbasbasbag56
(g72
g58
NtRp3243
(dp3244
g61
(dp3245
sg70
g2796
sg63
(lp3246
g56
(g77
g58
NtRp3247
(dp3248
g61
(dp3249
g81
g82
ssg70
g3243
sg63
(lp3250
S'wsgi.input'
p3251
asbag56
(g77
g58
NtRp3252
(dp3253
g61
(dp3254
g88
g89
ssg70
g3243
sg63
(lp3255
S':'
asbag56
(g77
g58
NtRp3256
(dp3257
g61
(dp3258
sg70
g3243
sg63
(lp3259
g56
(g57
g58
NtRp3260
(dp3261
g61
(dp3262
g69
I3
ssg70
g3256
sg63
(lp3263
S'<cStringIO.StringO object at 0x953a700>'
p3264
asbasbasbag56
(g72
g58
NtRp3265
(dp3266
g61
(dp3267
sg70
g2796
sg63
(lp3268
g56
(g77
g58
NtRp3269
(dp3270
g61
(dp3271
g81
g82
ssg70
g3265
sg63
(lp3272
S'wsgi.multiprocess'
p3273
asbag56
(g77
g58
NtRp3274
(dp3275
g61
(dp3276
g88
g89
ssg70
g3265
sg63
(lp3277
S':'
asbag56
(g77
g58
NtRp3278
(dp3279
g61
(dp3280
sg70
g3265
sg63
(lp3281
g56
(g57
g58
NtRp3282
(dp3283
g61
(dp3284
g69
I3
ssg70
g3278
sg63
(lp3285
g99
asbasbasbag56
(g72
g58
NtRp3286
(dp3287
g61
(dp3288
sg70
g2796
sg63
(lp3289
g56
(g77
g58
NtRp3290
(dp3291
g61
(dp3292
g81
g82
ssg70
g3286
sg63
(lp3293
S'wsgi.multithread'
p3294
asbag56
(g77
g58
NtRp3295
(dp3296
g61
(dp3297
g88
g89
ssg70
g3286
sg63
(lp3298
S':'
asbag56
(g77
g58
NtRp3299
(dp3300
g61
(dp3301
sg70
g3286
sg63
(lp3302
g56
(g57
g58
NtRp3303
(dp3304
g61
(dp3305
g69
I3
ssg70
g3299
sg63
(lp3306
g2047
asbasbasbag56
(g72
g58
NtRp3307
(dp3308
g61
(dp3309
sg70
g2796
sg63
(lp3310
g56
(g77
g58
NtRp3311
(dp3312
g61
(dp3313
g81
g82
ssg70
g3307
sg63
(lp3314
S'wsgi.run_once'
p3315
asbag56
(g77
g58
NtRp3316
(dp3317
g61
(dp3318
g88
g89
ssg70
g3307
sg63
(lp3319
S':'
asbag56
(g77
g58
NtRp3320
(dp3321
g61
(dp3322
sg70
g3307
sg63
(lp3323
g56
(g57
g58
NtRp3324
(dp3325
g61
(dp3326
g69
I3
ssg70
g3320
sg63
(lp3327
g99
asbasbasbag56
(g72
g58
NtRp3328
(dp3329
g61
(dp3330
sg70
g2796
sg63
(lp3331
g56
(g77
g58
NtRp3332
(dp3333
g61
(dp3334
g81
g82
ssg70
g3328
sg63
(lp3335
S'wsgi.url_scheme'
p3336
asbag56
(g77
g58
NtRp3337
(dp3338
g61
(dp3339
g88
g89
ssg70
g3328
sg63
(lp3340
S':'
asbag56
(g77
g58
NtRp3341
(dp3342
g61
(dp3343
sg70
g3328
sg63
(lp3344
g56
(g57
g58
NtRp3345
(dp3346
g61
(dp3347
g69
I3
ssg70
g3341
sg63
(lp3348
g2090
asbasbasbag56
(g72
g58
NtRp3349
(dp3350
g61
(dp3351
sg70
g2796
sg63
(lp3352
g56
(g77
g58
NtRp3353
(dp3354
g61
(dp3355
g81
g82
ssg70
g3349
sg63
(lp3356
S'wsgi.version'
p3357
asbag56
(g77
g58
NtRp3358
(dp3359
g61
(dp3360
g88
g89
ssg70
g3349
sg63
(lp3361
S':'
asbag56
(g77
g58
NtRp3362
(dp3363
g61
(dp3364
sg70
g3349
sg63
(lp3365
g56
(g57
g58
NtRp3366
(dp3367
g61
(dp3368
g69
I3
ssg70
g3362
sg63
(lp3369
S'1'
asbasbasbasbasbasbasbasbasbasbasbasbasbsS'frames'
p3370
(lp3371
(dp3372
S'file'
p3373
S'/home/arpita/courses/sem3/ssad/web2py/gluon/restricted.py'
p3374
sS'dump'
p3375
(dp3376
S'environment'
p3377
S"{'A': <class 'gluon.html.A'>, 'Auth': <class 'gluon.tools.Auth'>, 'B': <class 'gluon.html.B'>, 'BEAUTIFY': <class 'gluon.html.BEAUTIFY'>, 'BODY': <class 'gluon.html.BODY'>, 'BR': <class 'gluon.html.BR'>, 'BUTTON': <class 'gluon.html.BUTTON'>, 'CAT': <class 'gluon.html.CAT'>, 'CENTER': <class 'gluon.html.CENTER'>, 'CLEANUP': <class 'gluon.validators.CLEANUP'>, ...}"
p3378
sS'ccode'
p3379
S'<code object <module> at 0x958d410, file "/home/...cations/project/controllers/default.py", line 11>'
p3380
ssS'lnum'
p3381
I205
sS'lines'
p3382
(dp3383
I200
S'    try:'
p3384
sI201
S'        if type(code) == types.CodeType:'
p3385
sI202
S'            ccode = code'
p3386
sI203
S'        else:'
p3387
sI204
S'            ccode = compile2(code,layer)'
p3388
sI205
S'        exec ccode in environment'
p3389
sI206
S'    except HTTP:'
p3390
sI207
S'        raise'
p3391
sI208
S'    except RestrictedError:'
p3392
sI209
S'        # do not encapsulate (obfuscate) the original RestrictedError'
p3393
ssS'call'
p3394
S"(code='# -*- coding: utf-8 -*-\\n# this file is released ...i,c=c)\\n\\nresponse._vars=response._caller(kruskal)\\n', environment={'A': <class 'gluon.html.A'>, 'Auth': <class 'gluon.tools.Auth'>, 'B': <class 'gluon.html.B'>, 'BEAUTIFY': <class 'gluon.html.BEAUTIFY'>, 'BODY': <class 'gluon.html.BODY'>, 'BR': <class 'gluon.html.BR'>, 'BUTTON': <class 'gluon.html.BUTTON'>, 'CAT': <class 'gluon.html.CAT'>, 'CENTER': <class 'gluon.html.CENTER'>, 'CLEANUP': <class 'gluon.validators.CLEANUP'>, ...}, layer='/home/arpita/courses/sem3/ssad/web2py/applications/project/controllers/default.py')"
p3395
sS'func'
p3396
S'restricted'
p3397
sa(dp3398
g3373
S'/home/arpita/courses/sem3/ssad/web2py/applications/project/controllers/default.py'
p3399
sg3375
(dp3400
sg3381
I100
sg3382
(dp3401
I96
S'       b=li.Emp2_id'
p3402
sI97
S'       c[a][b]=1'
p3403
sI98
S'    return dict(lis=lis,i=i,c=c)'
p3404
sI89
S'b={}'
p3405
sI90
S'c={}'
p3406
sI91
S'def kruskal():'
p3407
sI92
S'    i=0'
p3408
sI93
S'    lis = db().select(db.Relation.ALL)'
p3409
sI94
S'    for li in lis:'
p3410
sI95
S'       a=li.Emp1_id'
p3411
ssg3394
S'()'
p3412
sg3396
S'<module>'
p3413
sa(dp3414
g3373
S'/home/arpita/courses/sem3/ssad/web2py/gluon/globals.py'
p3415
sg3375
(dp3416
S'self'
p3417
S'undefined'
p3418
sS'f'
S'<function kruskal>'
p3419
ssg3381
I173
sg3382
(dp3420
I168
S'        self.menu = []             # used by the default view layout'
p3421
sI169
S'        self.files = []            # used by web2py_ajax.html'
p3422
sI170
S'        self.generic_patterns = [] # patterns to allow generic views'
p3423
sI171
S"        self.delimiters = ('{{','}}')"
p3424
sI172
S'        self._vars = None'
p3425
sI173
S'        self._caller = lambda f: f()'
p3426
sI174
S'        self._view_environment = None'
p3427
sI175
S'        self._custom_commit = None'
p3428
sI176
S'        self._custom_rollback = None'
p3429
sI177
S''
ssg3394
S'(f=<function kruskal>)'
p3430
sg3396
S'<lambda>'
p3431
sa(dp3432
g3373
S'/home/arpita/courses/sem3/ssad/web2py/applications/project/controllers/default.py'
p3433
sg3375
(dp3434
S'a'
S'1'
sS'b'
S'2'
sS'global c'
p3435
g45
ssg3381
I97
sg3382
(dp3436
I96
S'       b=li.Emp2_id'
p3437
sI97
S'       c[a][b]=1'
p3438
sI98
S'    return dict(lis=lis,i=i,c=c)'
p3439
sI89
S'b={}'
p3440
sI90
S'c={}'
p3441
sI91
S'def kruskal():'
p3442
sI92
S'    i=0'
p3443
sI93
S'    lis = db().select(db.Relation.ALL)'
p3444
sI94
S'    for li in lis:'
p3445
sI95
S'       a=li.Emp1_id'
p3446
ssg3394
S'()'
p3447
sg3396
S'kruskal'
p3448
sasS'pyver'
p3449
S'Python 2.7.2+: /usr/bin/python'
p3450
sS'session'
p3451
g56
(g57
g58
NtRp3452
(dp3453
g61
(dp3454
sg63
(lp3455
g56
(g65
g58
NtRp3456
(dp3457
g61
(dp3458
g69
I5
ssg70
Nsg63
(lp3459
g56
(g72
g58
NtRp3460
(dp3461
g61
(dp3462
sg70
g3456
sg63
(lp3463
g56
(g77
g58
NtRp3464
(dp3465
g61
(dp3466
g81
g82
ssg70
g3460
sg63
(lp3467
S'auth'
p3468
asbag56
(g77
g58
NtRp3469
(dp3470
g61
(dp3471
g88
g89
ssg70
g3460
sg63
(lp3472
S':'
asbag56
(g77
g58
NtRp3473
(dp3474
g61
(dp3475
sg70
g3460
sg63
(lp3476
g56
(g57
g58
NtRp3477
(dp3478
g61
(dp3479
g69
I5
ssg70
g3473
sg63
(lp3480
g56
(g65
g58
NtRp3481
(dp3482
g61
(dp3483
g69
I4
ssg70
Nsg63
(lp3484
g56
(g72
g58
NtRp3485
(dp3486
g61
(dp3487
sg70
g3481
sg63
(lp3488
g56
(g77
g58
NtRp3489
(dp3490
g61
(dp3491
g81
g82
ssg70
g3485
sg63
(lp3492
S'expiration'
p3493
asbag56
(g77
g58
NtRp3494
(dp3495
g61
(dp3496
g88
g89
ssg70
g3485
sg63
(lp3497
S':'
asbag56
(g77
g58
NtRp3498
(dp3499
g61
(dp3500
sg70
g3485
sg63
(lp3501
g56
(g57
g58
NtRp3502
(dp3503
g61
(dp3504
g69
I4
ssg70
g3498
sg63
(lp3505
S'3600'
p3506
asbasbasbag56
(g72
g58
NtRp3507
(dp3508
g61
(dp3509
sg70
g3481
sg63
(lp3510
g56
(g77
g58
NtRp3511
(dp3512
g61
(dp3513
g81
g82
ssg70
g3507
sg63
(lp3514
S'hmac_key'
p3515
asbag56
(g77
g58
NtRp3516
(dp3517
g61
(dp3518
g88
g89
ssg70
g3507
sg63
(lp3519
S':'
asbag56
(g77
g58
NtRp3520
(dp3521
g61
(dp3522
sg70
g3507
sg63
(lp3523
g56
(g57
g58
NtRp3524
(dp3525
g61
(dp3526
g69
I4
ssg70
g3520
sg63
(lp3527
S'60283367-cb10-44cb-a9a5-120c15b70ddc'
p3528
asbasbasbag56
(g72
g58
NtRp3529
(dp3530
g61
(dp3531
sg70
g3481
sg63
(lp3532
g56
(g77
g58
NtRp3533
(dp3534
g61
(dp3535
g81
g82
ssg70
g3529
sg63
(lp3536
S'last_visit'
p3537
asbag56
(g77
g58
NtRp3538
(dp3539
g61
(dp3540
g88
g89
ssg70
g3529
sg63
(lp3541
S':'
asbag56
(g77
g58
NtRp3542
(dp3543
g61
(dp3544
sg70
g3529
sg63
(lp3545
g56
(g57
g58
NtRp3546
(dp3547
g61
(dp3548
g69
I4
ssg70
g3542
sg63
(lp3549
S'datetime.datetime(2012, 10, 13, 23, 52, 34, 171950)'
p3550
asbasbasbag56
(g72
g58
NtRp3551
(dp3552
g61
(dp3553
sg70
g3481
sg63
(lp3554
g56
(g77
g58
NtRp3555
(dp3556
g61
(dp3557
g81
g82
ssg70
g3551
sg63
(lp3558
S'remember'
p3559
asbag56
(g77
g58
NtRp3560
(dp3561
g61
(dp3562
g88
g89
ssg70
g3551
sg63
(lp3563
S':'
asbag56
(g77
g58
NtRp3564
(dp3565
g61
(dp3566
sg70
g3551
sg63
(lp3567
g56
(g57
g58
NtRp3568
(dp3569
g61
(dp3570
g69
I4
ssg70
g3564
sg63
(lp3571
g99
asbasbasbag56
(g72
g58
NtRp3572
(dp3573
g61
(dp3574
sg70
g3481
sg63
(lp3575
g56
(g77
g58
NtRp3576
(dp3577
g61
(dp3578
g81
g82
ssg70
g3572
sg63
(lp3579
S'user'
p3580
asbag56
(g77
g58
NtRp3581
(dp3582
g61
(dp3583
g88
g89
ssg70
g3572
sg63
(lp3584
S':'
asbag56
(g77
g58
NtRp3585
(dp3586
g61
(dp3587
sg70
g3572
sg63
(lp3588
g56
(g57
g58
NtRp3589
(dp3590
g61
(dp3591
g69
I4
ssg70
g3585
sg63
(lp3592
g56
(g65
g58
NtRp3593
(dp3594
g61
(dp3595
g69
I3
ssg70
Nsg63
(lp3596
g56
(g72
g58
NtRp3597
(dp3598
g61
(dp3599
sg70
g3593
sg63
(lp3600
g56
(g77
g58
NtRp3601
(dp3602
g61
(dp3603
g81
g82
ssg70
g3597
sg63
(lp3604
S'email'
p3605
asbag56
(g77
g58
NtRp3606
(dp3607
g61
(dp3608
g88
g89
ssg70
g3597
sg63
(lp3609
S':'
asbag56
(g77
g58
NtRp3610
(dp3611
g61
(dp3612
sg70
g3597
sg63
(lp3613
g56
(g57
g58
NtRp3614
(dp3615
g61
(dp3616
g69
I3
ssg70
g3610
sg63
(lp3617
S'rammurthy@faculty.iiit.ac.in'
p3618
asbasbasbag56
(g72
g58
NtRp3619
(dp3620
g61
(dp3621
sg70
g3593
sg63
(lp3622
g56
(g77
g58
NtRp3623
(dp3624
g61
(dp3625
g81
g82
ssg70
g3619
sg63
(lp3626
S'first_name'
p3627
asbag56
(g77
g58
NtRp3628
(dp3629
g61
(dp3630
g88
g89
ssg70
g3619
sg63
(lp3631
S':'
asbag56
(g77
g58
NtRp3632
(dp3633
g61
(dp3634
sg70
g3619
sg63
(lp3635
g56
(g57
g58
NtRp3636
(dp3637
g61
(dp3638
g69
I3
ssg70
g3632
sg63
(lp3639
S'rammurthy'
p3640
asbasbasbag56
(g72
g58
NtRp3641
(dp3642
g61
(dp3643
sg70
g3593
sg63
(lp3644
g56
(g77
g58
NtRp3645
(dp3646
g61
(dp3647
g81
g82
ssg70
g3641
sg63
(lp3648
S'id'
p3649
asbag56
(g77
g58
NtRp3650
(dp3651
g61
(dp3652
g88
g89
ssg70
g3641
sg63
(lp3653
S':'
asbag56
(g77
g58
NtRp3654
(dp3655
g61
(dp3656
sg70
g3641
sg63
(lp3657
g56
(g57
g58
NtRp3658
(dp3659
g61
(dp3660
g69
I3
ssg70
g3654
sg63
(lp3661
S'1'
asbasbasbag56
(g72
g58
NtRp3662
(dp3663
g61
(dp3664
sg70
g3593
sg63
(lp3665
g56
(g77
g58
NtRp3666
(dp3667
g61
(dp3668
g81
g82
ssg70
g3662
sg63
(lp3669
S'last_name'
p3670
asbag56
(g77
g58
NtRp3671
(dp3672
g61
(dp3673
g88
g89
ssg70
g3662
sg63
(lp3674
S':'
asbag56
(g77
g58
NtRp3675
(dp3676
g61
(dp3677
sg70
g3662
sg63
(lp3678
g56
(g57
g58
NtRp3679
(dp3680
g61
(dp3681
g69
I3
ssg70
g3675
sg63
(lp3682
S'sir'
p3683
asbasbasbag56
(g72
g58
NtRp3684
(dp3685
g61
(dp3686
sg70
g3593
sg63
(lp3687
g56
(g77
g58
NtRp3688
(dp3689
g61
(dp3690
g81
g82
ssg70
g3684
sg63
(lp3691
S'password'
p3692
asbag56
(g77
g58
NtRp3693
(dp3694
g61
(dp3695
g88
g89
ssg70
g3684
sg63
(lp3696
S':'
asbag56
(g77
g58
NtRp3697
(dp3698
g61
(dp3699
sg70
g3684
sg63
(lp3700
g56
(g57
g58
NtRp3701
(dp3702
g61
(dp3703
g69
I3
ssg70
g3697
sg63
(lp3704
S'9da56e6636f0f89c2a2b7b54a400c423'
p3705
asbasbasbag56
(g72
g58
NtRp3706
(dp3707
g61
(dp3708
sg70
g3593
sg63
(lp3709
g56
(g77
g58
NtRp3710
(dp3711
g61
(dp3712
g81
g82
ssg70
g3706
sg63
(lp3713
S'registration_id'
p3714
asbag56
(g77
g58
NtRp3715
(dp3716
g61
(dp3717
g88
g89
ssg70
g3706
sg63
(lp3718
S':'
asbag56
(g77
g58
NtRp3719
(dp3720
g61
(dp3721
sg70
g3706
sg63
(lp3722
g56
(g57
g58
NtRp3723
(dp3724
g61
(dp3725
g69
I3
ssg70
g3719
sg63
(lp3726
S''
asbasbasbag56
(g72
g58
NtRp3727
(dp3728
g61
(dp3729
sg70
g3593
sg63
(lp3730
g56
(g77
g58
NtRp3731
(dp3732
g61
(dp3733
g81
g82
ssg70
g3727
sg63
(lp3734
S'registration_key'
p3735
asbag56
(g77
g58
NtRp3736
(dp3737
g61
(dp3738
g88
g89
ssg70
g3727
sg63
(lp3739
S':'
asbag56
(g77
g58
NtRp3740
(dp3741
g61
(dp3742
sg70
g3727
sg63
(lp3743
g56
(g57
g58
NtRp3744
(dp3745
g61
(dp3746
g69
I3
ssg70
g3740
sg63
(lp3747
S''
asbasbasbag56
(g72
g58
NtRp3748
(dp3749
g61
(dp3750
sg70
g3593
sg63
(lp3751
g56
(g77
g58
NtRp3752
(dp3753
g61
(dp3754
g81
g82
ssg70
g3748
sg63
(lp3755
S'reset_password_key'
p3756
asbag56
(g77
g58
NtRp3757
(dp3758
g61
(dp3759
g88
g89
ssg70
g3748
sg63
(lp3760
S':'
asbag56
(g77
g58
NtRp3761
(dp3762
g61
(dp3763
sg70
g3748
sg63
(lp3764
g56
(g57
g58
NtRp3765
(dp3766
g61
(dp3767
g69
I3
ssg70
g3761
sg63
(lp3768
S''
asbasbasbasbasbasbasbag56
(g72
g58
NtRp3769
(dp3770
g61
(dp3771
sg70
g3481
sg63
(lp3772
g56
(g77
g58
NtRp3773
(dp3774
g61
(dp3775
g81
g82
ssg70
g3769
sg63
(lp3776
S'user_groups'
p3777
asbag56
(g77
g58
NtRp3778
(dp3779
g61
(dp3780
g88
g89
ssg70
g3769
sg63
(lp3781
S':'
asbag56
(g77
g58
NtRp3782
(dp3783
g61
(dp3784
sg70
g3769
sg63
(lp3785
g56
(g57
g58
NtRp3786
(dp3787
g61
(dp3788
g69
I4
ssg70
g3782
sg63
(lp3789
g56
(g65
g58
NtRp3790
(dp3791
g61
(dp3792
g69
I3
ssg70
Nsg63
(lp3793
g56
(g72
g58
NtRp3794
(dp3795
g61
(dp3796
sg70
g3790
sg63
(lp3797
g56
(g77
g58
NtRp3798
(dp3799
g61
(dp3800
g81
g82
ssg70
g3794
sg63
(lp3801
S'1'
asbag56
(g77
g58
NtRp3802
(dp3803
g61
(dp3804
g88
g89
ssg70
g3794
sg63
(lp3805
S':'
asbag56
(g77
g58
NtRp3806
(dp3807
g61
(dp3808
sg70
g3794
sg63
(lp3809
g56
(g57
g58
NtRp3810
(dp3811
g61
(dp3812
g69
I3
ssg70
g3806
sg63
(lp3813
S'user_1'
p3814
asbasbasbag56
(g72
g58
NtRp3815
(dp3816
g61
(dp3817
sg70
g3790
sg63
(lp3818
g56
(g77
g58
NtRp3819
(dp3820
g61
(dp3821
g81
g82
ssg70
g3815
sg63
(lp3822
S'2'
asbag56
(g77
g58
NtRp3823
(dp3824
g61
(dp3825
g88
g89
ssg70
g3815
sg63
(lp3826
S':'
asbag56
(g77
g58
NtRp3827
(dp3828
g61
(dp3829
sg70
g3815
sg63
(lp3830
g56
(g57
g58
NtRp3831
(dp3832
g61
(dp3833
g69
I3
ssg70
g3827
sg63
(lp3834
S'Administrator'
p3835
asbasbasbasbasbasbasbasbasbasbasbag56
(g72
g58
NtRp3836
(dp3837
g61
(dp3838
sg70
g3456
sg63
(lp3839
g56
(g77
g58
NtRp3840
(dp3841
g61
(dp3842
g81
g82
ssg70
g3836
sg63
(lp3843
S'last_query'
p3844
asbag56
(g77
g58
NtRp3845
(dp3846
g61
(dp3847
g88
g89
ssg70
g3836
sg63
(lp3848
S':'
asbag56
(g77
g58
NtRp3849
(dp3850
g61
(dp3851
sg70
g3836
sg63
(lp3852
g56
(g57
g58
NtRp3853
(dp3854
g61
(dp3855
g69
I5
ssg70
g3849
sg63
(lp3856
S'db.Employee.id>0'
p3857
asbasbasbasbasbsS'etype'
p3858
S"<type 'exceptions.KeyError'>"
p3859
sS'date'
p3860
S'Sat Oct 13 23:52:42 2012'
p3861
sS'response'
p3862
g56
(g57
g58
NtRp3863
(dp3864
g61
(dp3865
sg63
(lp3866
g56
(g65
g58
NtRp3867
(dp3868
g61
(dp3869
g69
I5
ssg70
Nsg63
(lp3870
g56
(g72
g58
NtRp3871
(dp3872
g61
(dp3873
sg70
g3867
sg63
(lp3874
g56
(g77
g58
NtRp3875
(dp3876
g61
(dp3877
g81
g82
ssg70
g3871
sg63
(lp3878
g154
asbag56
(g77
g58
NtRp3879
(dp3880
g61
(dp3881
g88
g89
ssg70
g3871
sg63
(lp3882
S':'
asbag56
(g77
g58
NtRp3883
(dp3884
g61
(dp3885
sg70
g3871
sg63
(lp3886
g56
(g57
g58
NtRp3887
(dp3888
g61
(dp3889
g69
I5
ssg70
g3883
sg63
(lp3890
S'<cStringIO.StringO object at 0x8bb8d20>'
p3891
asbasbasbag56
(g72
g58
NtRp3892
(dp3893
g61
(dp3894
sg70
g3867
sg63
(lp3895
g56
(g77
g58
NtRp3896
(dp3897
g61
(dp3898
g81
g82
ssg70
g3892
sg63
(lp3899
g220
asbag56
(g77
g58
NtRp3900
(dp3901
g61
(dp3902
g88
g89
ssg70
g3892
sg63
(lp3903
S':'
asbag56
(g77
g58
NtRp3904
(dp3905
g61
(dp3906
sg70
g3892
sg63
(lp3907
g56
(g57
g58
NtRp3908
(dp3909
g61
(dp3910
g69
I5
ssg70
g3904
sg63
(lp3911
g56
(g65
g58
NtRp3912
(dp3913
g61
(dp3914
g69
I4
ssg70
Nsg63
(lp3915
g56
(g72
g58
NtRp3916
(dp3917
g61
(dp3918
sg70
g3912
sg63
(lp3919
g56
(g77
g58
NtRp3920
(dp3921
g61
(dp3922
g81
g82
ssg70
g3916
sg63
(lp3923
S'session_id_project'
p3924
asbag56
(g77
g58
NtRp3925
(dp3926
g61
(dp3927
g88
g89
ssg70
g3916
sg63
(lp3928
S':'
asbag56
(g77
g58
NtRp3929
(dp3930
g61
(dp3931
sg70
g3916
sg63
(lp3932
g56
(g57
g58
NtRp3933
(dp3934
g61
(dp3935
g69
I4
ssg70
g3929
sg63
(lp3936
g56
(g65
g58
NtRp3937
(dp3938
g61
(dp3939
g69
I3
ssg70
Nsg63
(lp3940
g56
(g72
g58
NtRp3941
(dp3942
g61
(dp3943
sg70
g3937
sg63
(lp3944
g56
(g77
g58
NtRp3945
(dp3946
g61
(dp3947
g81
g82
ssg70
g3941
sg63
(lp3948
g270
asbag56
(g77
g58
NtRp3949
(dp3950
g61
(dp3951
g88
g89
ssg70
g3941
sg63
(lp3952
S':'
asbag56
(g77
g58
NtRp3953
(dp3954
g61
(dp3955
sg70
g3941
sg63
(lp3956
g56
(g57
g58
NtRp3957
(dp3958
g61
(dp3959
g69
I3
ssg70
g3953
sg63
(lp3960
S''
asbasbasbag56
(g72
g58
NtRp3961
(dp3962
g61
(dp3963
sg70
g3937
sg63
(lp3964
g56
(g77
g58
NtRp3965
(dp3966
g61
(dp3967
g81
g82
ssg70
g3961
sg63
(lp3968
g291
asbag56
(g77
g58
NtRp3969
(dp3970
g61
(dp3971
g88
g89
ssg70
g3961
sg63
(lp3972
S':'
asbag56
(g77
g58
NtRp3973
(dp3974
g61
(dp3975
sg70
g3961
sg63
(lp3976
g56
(g57
g58
NtRp3977
(dp3978
g61
(dp3979
g69
I3
ssg70
g3973
sg63
(lp3980
S''
asbasbasbag56
(g72
g58
NtRp3981
(dp3982
g61
(dp3983
sg70
g3937
sg63
(lp3984
g56
(g77
g58
NtRp3985
(dp3986
g61
(dp3987
g81
g82
ssg70
g3981
sg63
(lp3988
g312
asbag56
(g77
g58
NtRp3989
(dp3990
g61
(dp3991
g88
g89
ssg70
g3981
sg63
(lp3992
S':'
asbag56
(g77
g58
NtRp3993
(dp3994
g61
(dp3995
sg70
g3981
sg63
(lp3996
g56
(g57
g58
NtRp3997
(dp3998
g61
(dp3999
g69
I3
ssg70
g3993
sg63
(lp4000
S''
asbasbasbag56
(g72
g58
NtRp4001
(dp4002
g61
(dp4003
sg70
g3937
sg63
(lp4004
g56
(g77
g58
NtRp4005
(dp4006
g61
(dp4007
g81
g82
ssg70
g4001
sg63
(lp4008
g333
asbag56
(g77
g58
NtRp4009
(dp4010
g61
(dp4011
g88
g89
ssg70
g4001
sg63
(lp4012
S':'
asbag56
(g77
g58
NtRp4013
(dp4014
g61
(dp4015
sg70
g4001
sg63
(lp4016
g56
(g57
g58
NtRp4017
(dp4018
g61
(dp4019
g69
I3
ssg70
g4013
sg63
(lp4020
S''
asbasbasbag56
(g72
g58
NtRp4021
(dp4022
g61
(dp4023
sg70
g3937
sg63
(lp4024
g56
(g77
g58
NtRp4025
(dp4026
g61
(dp4027
g81
g82
ssg70
g4021
sg63
(lp4028
g354
asbag56
(g77
g58
NtRp4029
(dp4030
g61
(dp4031
g88
g89
ssg70
g4021
sg63
(lp4032
S':'
asbag56
(g77
g58
NtRp4033
(dp4034
g61
(dp4035
sg70
g4021
sg63
(lp4036
g56
(g57
g58
NtRp4037
(dp4038
g61
(dp4039
g69
I3
ssg70
g4033
sg63
(lp4040
S''
asbasbasbag56
(g72
g58
NtRp4041
(dp4042
g61
(dp4043
sg70
g3937
sg63
(lp4044
g56
(g77
g58
NtRp4045
(dp4046
g61
(dp4047
g81
g82
ssg70
g4041
sg63
(lp4048
g375
asbag56
(g77
g58
NtRp4049
(dp4050
g61
(dp4051
g88
g89
ssg70
g4041
sg63
(lp4052
S':'
asbag56
(g77
g58
NtRp4053
(dp4054
g61
(dp4055
sg70
g4041
sg63
(lp4056
g56
(g57
g58
NtRp4057
(dp4058
g61
(dp4059
g69
I3
ssg70
g4053
sg63
(lp4060
S'/'
asbasbasbag56
(g72
g58
NtRp4061
(dp4062
g61
(dp4063
sg70
g3937
sg63
(lp4064
g56
(g77
g58
NtRp4065
(dp4066
g61
(dp4067
g81
g82
ssg70
g4061
sg63
(lp4068
g396
asbag56
(g77
g58
NtRp4069
(dp4070
g61
(dp4071
g88
g89
ssg70
g4061
sg63
(lp4072
S':'
asbag56
(g77
g58
NtRp4073
(dp4074
g61
(dp4075
sg70
g4061
sg63
(lp4076
g56
(g57
g58
NtRp4077
(dp4078
g61
(dp4079
g69
I3
ssg70
g4073
sg63
(lp4080
S''
asbasbasbag56
(g72
g58
NtRp4081
(dp4082
g61
(dp4083
sg70
g3937
sg63
(lp4084
g56
(g77
g58
NtRp4085
(dp4086
g61
(dp4087
g81
g82
ssg70
g4081
sg63
(lp4088
g417
asbag56
(g77
g58
NtRp4089
(dp4090
g61
(dp4091
g88
g89
ssg70
g4081
sg63
(lp4092
S':'
asbag56
(g77
g58
NtRp4093
(dp4094
g61
(dp4095
sg70
g4081
sg63
(lp4096
g56
(g57
g58
NtRp4097
(dp4098
g61
(dp4099
g69
I3
ssg70
g4093
sg63
(lp4100
S''
asbasbasbasbasbasbasbasbasbasbasbag56
(g72
g58
NtRp4101
(dp4102
g61
(dp4103
sg70
g3867
sg63
(lp4104
g56
(g77
g58
NtRp4105
(dp4106
g61
(dp4107
g81
g82
ssg70
g4101
sg63
(lp4108
S'delimiters'
p4109
asbag56
(g77
g58
NtRp4110
(dp4111
g61
(dp4112
g88
g89
ssg70
g4101
sg63
(lp4113
S':'
asbag56
(g77
g58
NtRp4114
(dp4115
g61
(dp4116
sg70
g4101
sg63
(lp4117
g56
(g57
g58
NtRp4118
(dp4119
g61
(dp4120
g69
I5
ssg70
g4114
sg63
(lp4121
g56
(g65
g58
NtRp4122
(dp4123
g61
(dp4124
g69
I4
ssg70
Nsg63
(lp4125
g56
(g72
g58
NtRp4126
(dp4127
g61
(dp4128
sg70
g4122
sg63
(lp4129
g56
(g77
g58
NtRp4130
(dp4131
g61
(dp4132
sg70
g4126
sg63
(lp4133
g56
(g57
g58
NtRp4134
(dp4135
g61
(dp4136
g69
I4
ssg70
g4130
sg63
(lp4137
S'{{'
p4138
asbasbasbag56
(g72
g58
NtRp4139
(dp4140
g61
(dp4141
sg70
g4122
sg63
(lp4142
g56
(g77
g58
NtRp4143
(dp4144
g61
(dp4145
sg70
g4139
sg63
(lp4146
g56
(g57
g58
NtRp4147
(dp4148
g61
(dp4149
g69
I4
ssg70
g4143
sg63
(lp4150
S'}}'
p4151
asbasbasbasbasbasbasbag56
(g72
g58
NtRp4152
(dp4153
g61
(dp4154
sg70
g3867
sg63
(lp4155
g56
(g77
g58
NtRp4156
(dp4157
g61
(dp4158
g81
g82
ssg70
g4152
sg63
(lp4159
S'files'
p4160
asbag56
(g77
g58
NtRp4161
(dp4162
g61
(dp4163
g88
g89
ssg70
g4152
sg63
(lp4164
S':'
asbag56
(g77
g58
NtRp4165
(dp4166
g61
(dp4167
sg70
g4152
sg63
(lp4168
g56
(g57
g58
NtRp4169
(dp4170
g61
(dp4171
g69
I5
ssg70
g4165
sg63
(lp4172
g56
(g65
g58
NtRp4173
(dp4174
g61
(dp4175
g69
I4
ssg70
Nsg63
(lp4176
sbasbasbasbag56
(g72
g58
NtRp4177
(dp4178
g61
(dp4179
sg70
g3867
sg63
(lp4180
g56
(g77
g58
NtRp4181
(dp4182
g61
(dp4183
g81
g82
ssg70
g4177
sg63
(lp4184
S'flash'
p4185
asbag56
(g77
g58
NtRp4186
(dp4187
g61
(dp4188
g88
g89
ssg70
g4177
sg63
(lp4189
S':'
asbag56
(g77
g58
NtRp4190
(dp4191
g61
(dp4192
sg70
g4177
sg63
(lp4193
g56
(g57
g58
NtRp4194
(dp4195
g61
(dp4196
g69
I5
ssg70
g4190
sg63
(lp4197
S''
asbasbasbag56
(g72
g58
NtRp4198
(dp4199
g61
(dp4200
sg70
g3867
sg63
(lp4201
g56
(g77
g58
NtRp4202
(dp4203
g61
(dp4204
g81
g82
ssg70
g4198
sg63
(lp4205
S'generic_patterns'
p4206
asbag56
(g77
g58
NtRp4207
(dp4208
g61
(dp4209
g88
g89
ssg70
g4198
sg63
(lp4210
S':'
asbag56
(g77
g58
NtRp4211
(dp4212
g61
(dp4213
sg70
g4198
sg63
(lp4214
g56
(g57
g58
NtRp4215
(dp4216
g61
(dp4217
g69
I5
ssg70
g4211
sg63
(lp4218
g56
(g65
g58
NtRp4219
(dp4220
g61
(dp4221
g69
I4
ssg70
Nsg63
(lp4222
g56
(g72
g58
NtRp4223
(dp4224
g61
(dp4225
sg70
g4219
sg63
(lp4226
g56
(g77
g58
NtRp4227
(dp4228
g61
(dp4229
sg70
g4223
sg63
(lp4230
g56
(g57
g58
NtRp4231
(dp4232
g61
(dp4233
g69
I4
ssg70
g4227
sg63
(lp4234
S'*'
asbasbasbasbasbasbasbag56
(g72
g58
NtRp4235
(dp4236
g61
(dp4237
sg70
g3867
sg63
(lp4238
g56
(g77
g58
NtRp4239
(dp4240
g61
(dp4241
g81
g82
ssg70
g4235
sg63
(lp4242
S'headers'
p4243
asbag56
(g77
g58
NtRp4244
(dp4245
g61
(dp4246
g88
g89
ssg70
g4235
sg63
(lp4247
S':'
asbag56
(g77
g58
NtRp4248
(dp4249
g61
(dp4250
sg70
g4235
sg63
(lp4251
g56
(g57
g58
NtRp4252
(dp4253
g61
(dp4254
g69
I5
ssg70
g4248
sg63
(lp4255
g56
(g65
g58
NtRp4256
(dp4257
g61
(dp4258
g69
I4
ssg70
Nsg63
(lp4259
g56
(g72
g58
NtRp4260
(dp4261
g61
(dp4262
sg70
g4256
sg63
(lp4263
g56
(g77
g58
NtRp4264
(dp4265
g61
(dp4266
g81
g82
ssg70
g4260
sg63
(lp4267
S'Cache-Control'
p4268
asbag56
(g77
g58
NtRp4269
(dp4270
g61
(dp4271
g88
g89
ssg70
g4260
sg63
(lp4272
S':'
asbag56
(g77
g58
NtRp4273
(dp4274
g61
(dp4275
sg70
g4260
sg63
(lp4276
g56
(g57
g58
NtRp4277
(dp4278
g61
(dp4279
g69
I4
ssg70
g4273
sg63
(lp4280
S'no-store, no-cache, must-revalidate, post-check=0, pre-check=0'
p4281
asbasbasbag56
(g72
g58
NtRp4282
(dp4283
g61
(dp4284
sg70
g4256
sg63
(lp4285
g56
(g77
g58
NtRp4286
(dp4287
g61
(dp4288
g81
g82
ssg70
g4282
sg63
(lp4289
S'Content-Type'
p4290
asbag56
(g77
g58
NtRp4291
(dp4292
g61
(dp4293
g88
g89
ssg70
g4282
sg63
(lp4294
S':'
asbag56
(g77
g58
NtRp4295
(dp4296
g61
(dp4297
sg70
g4282
sg63
(lp4298
g56
(g57
g58
NtRp4299
(dp4300
g61
(dp4301
g69
I4
ssg70
g4295
sg63
(lp4302
S'text/html; charset=utf-8'
p4303
asbasbasbag56
(g72
g58
NtRp4304
(dp4305
g61
(dp4306
sg70
g4256
sg63
(lp4307
g56
(g77
g58
NtRp4308
(dp4309
g61
(dp4310
g81
g82
ssg70
g4304
sg63
(lp4311
S'Expires'
p4312
asbag56
(g77
g58
NtRp4313
(dp4314
g61
(dp4315
g88
g89
ssg70
g4304
sg63
(lp4316
S':'
asbag56
(g77
g58
NtRp4317
(dp4318
g61
(dp4319
sg70
g4304
sg63
(lp4320
g56
(g57
g58
NtRp4321
(dp4322
g61
(dp4323
g69
I4
ssg70
g4317
sg63
(lp4324
S'Sat, 13 Oct 2012 18:22:42 GMT'
p4325
asbasbasbag56
(g72
g58
NtRp4326
(dp4327
g61
(dp4328
sg70
g4256
sg63
(lp4329
g56
(g77
g58
NtRp4330
(dp4331
g61
(dp4332
g81
g82
ssg70
g4326
sg63
(lp4333
S'Pragma'
p4334
asbag56
(g77
g58
NtRp4335
(dp4336
g61
(dp4337
g88
g89
ssg70
g4326
sg63
(lp4338
S':'
asbag56
(g77
g58
NtRp4339
(dp4340
g61
(dp4341
sg70
g4326
sg63
(lp4342
g56
(g57
g58
NtRp4343
(dp4344
g61
(dp4345
g69
I4
ssg70
g4339
sg63
(lp4346
S'no-cache'
p4347
asbasbasbag56
(g72
g58
NtRp4348
(dp4349
g61
(dp4350
sg70
g4256
sg63
(lp4351
g56
(g77
g58
NtRp4352
(dp4353
g61
(dp4354
g81
g82
ssg70
g4348
sg63
(lp4355
S'X-Powered-By'
p4356
asbag56
(g77
g58
NtRp4357
(dp4358
g61
(dp4359
g88
g89
ssg70
g4348
sg63
(lp4360
S':'
asbag56
(g77
g58
NtRp4361
(dp4362
g61
(dp4363
sg70
g4348
sg63
(lp4364
g56
(g57
g58
NtRp4365
(dp4366
g61
(dp4367
g69
I4
ssg70
g4361
sg63
(lp4368
S'web2py'
p4369
asbasbasbasbasbasbasbag56
(g72
g58
NtRp4370
(dp4371
g61
(dp4372
sg70
g3867
sg63
(lp4373
g56
(g77
g58
NtRp4374
(dp4375
g61
(dp4376
g81
g82
ssg70
g4370
sg63
(lp4377
S'menu'
p4378
asbag56
(g77
g58
NtRp4379
(dp4380
g61
(dp4381
g88
g89
ssg70
g4370
sg63
(lp4382
S':'
asbag56
(g77
g58
NtRp4383
(dp4384
g61
(dp4385
sg70
g4370
sg63
(lp4386
g56
(g57
g58
NtRp4387
(dp4388
g61
(dp4389
g69
I5
ssg70
g4383
sg63
(lp4390
g56
(g65
g58
NtRp4391
(dp4392
g61
(dp4393
g69
I4
ssg70
Nsg63
(lp4394
g56
(g72
g58
NtRp4395
(dp4396
g61
(dp4397
sg70
g4391
sg63
(lp4398
g56
(g77
g58
NtRp4399
(dp4400
g61
(dp4401
sg70
g4395
sg63
(lp4402
g56
(g57
g58
NtRp4403
(dp4404
g61
(dp4405
g69
I4
ssg70
g4399
sg63
(lp4406
g56
(g65
g58
NtRp4407
(dp4408
g61
(dp4409
g69
I3
ssg70
Nsg63
(lp4410
g56
(g72
g58
NtRp4411
(dp4412
g61
(dp4413
sg70
g4407
sg63
(lp4414
g56
(g77
g58
NtRp4415
(dp4416
g61
(dp4417
sg70
g4411
sg63
(lp4418
g56
(g57
g58
NtRp4419
(dp4420
g61
(dp4421
g69
I3
ssg70
g4415
sg63
(lp4422
cgluon.languages
lazyT_unpickle
p4423
(S't\x04\x00\x00\x00Home'
tRp4424
asbasbasbag56
(g72
g58
NtRp4425
(dp4426
g61
(dp4427
sg70
g4407
sg63
(lp4428
g56
(g77
g58
NtRp4429
(dp4430
g61
(dp4431
sg70
g4425
sg63
(lp4432
g56
(g57
g58
NtRp4433
(dp4434
g61
(dp4435
g69
I3
ssg70
g4429
sg63
(lp4436
g99
asbasbasbag56
(g72
g58
NtRp4437
(dp4438
g61
(dp4439
sg70
g4407
sg63
(lp4440
g56
(g77
g58
NtRp4441
(dp4442
g61
(dp4443
sg70
g4437
sg63
(lp4444
g56
(g57
g58
NtRp4445
(dp4446
g61
(dp4447
g69
I3
ssg70
g4441
sg63
(lp4448
S'/project/default/index'
p4449
asbasbasbag56
(g72
g58
NtRp4450
(dp4451
g61
(dp4452
sg70
g4407
sg63
(lp4453
g56
(g77
g58
NtRp4454
(dp4455
g61
(dp4456
sg70
g4450
sg63
(lp4457
g56
(g57
g58
NtRp4458
(dp4459
g61
(dp4460
g69
I3
ssg70
g4454
sg63
(lp4461
g56
(g65
g58
NtRp4462
(dp4463
g61
(dp4464
g69
I2
ssg70
Nsg63
(lp4465
sbasbasbasbasbasbasbasbag56
(g72
g58
NtRp4466
(dp4467
g61
(dp4468
sg70
g4391
sg63
(lp4469
g56
(g77
g58
NtRp4470
(dp4471
g61
(dp4472
sg70
g4466
sg63
(lp4473
g56
(g57
g58
NtRp4474
(dp4475
g61
(dp4476
g69
I4
ssg70
g4470
sg63
(lp4477
g56
(g65
g58
NtRp4478
(dp4479
g61
(dp4480
g69
I3
ssg70
Nsg63
(lp4481
g56
(g72
g58
NtRp4482
(dp4483
g61
(dp4484
sg70
g4478
sg63
(lp4485
g56
(g77
g58
NtRp4486
(dp4487
g61
(dp4488
sg70
g4482
sg63
(lp4489
g56
(g57
g58
NtRp4490
(dp4491
g61
(dp4492
g69
I3
ssg70
g4486
sg63
(lp4493
g56
(cgluon.html
SPAN
p4494
g58
NtRp4495
(dp4496
g61
(dp4497
g81
S'color:yellow'
p4498
ssg70
Nsg63
(lp4499
g4369
asbasbasbasbag56
(g72
g58
NtRp4500
(dp4501
g61
(dp4502
sg70
g4478
sg63
(lp4503
g56
(g77
g58
NtRp4504
(dp4505
g61
(dp4506
sg70
g4500
sg63
(lp4507
g56
(g57
g58
NtRp4508
(dp4509
g61
(dp4510
g69
I3
ssg70
g4504
sg63
(lp4511
g99
asbasbasbag56
(g72
g58
NtRp4512
(dp4513
g61
(dp4514
sg70
g4478
sg63
(lp4515
g56
(g77
g58
NtRp4516
(dp4517
g61
(dp4518
sg70
g4512
sg63
(lp4519
g56
(g57
g58
NtRp4520
(dp4521
g61
(dp4522
g69
I3
ssg70
g4516
sg63
(lp4523
S'None'
p4524
asbasbasbag56
(g72
g58
NtRp4525
(dp4526
g61
(dp4527
sg70
g4478
sg63
(lp4528
g56
(g77
g58
NtRp4529
(dp4530
g61
(dp4531
sg70
g4525
sg63
(lp4532
g56
(g57
g58
NtRp4533
(dp4534
g61
(dp4535
g69
I3
ssg70
g4529
sg63
(lp4536
g56
(g65
g58
NtRp4537
(dp4538
g61
(dp4539
g69
I2
ssg70
Nsg63
(lp4540
g56
(g72
g58
NtRp4541
(dp4542
g61
(dp4543
sg70
g4537
sg63
(lp4544
g56
(g77
g58
NtRp4545
(dp4546
g61
(dp4547
sg70
g4541
sg63
(lp4548
g56
(g57
g58
NtRp4549
(dp4550
g61
(dp4551
g69
I2
ssg70
g4545
sg63
(lp4552
g56
(g65
g58
NtRp4553
(dp4554
g61
(dp4555
g69
I1
ssg70
Nsg63
(lp4556
g56
(g72
g58
NtRp4557
(dp4558
g61
(dp4559
sg70
g4553
sg63
(lp4560
g56
(g77
g58
NtRp4561
(dp4562
g61
(dp4563
sg70
g4557
sg63
(lp4564
g56
(g57
g58
NtRp4565
(dp4566
g61
(dp4567
g69
I1
ssg70
g4561
sg63
(lp4568
g4423
(S's\x08\x00\x00\x00My Sites'
tRp4569
asbasbasbag56
(g72
g58
NtRp4570
(dp4571
g61
(dp4572
sg70
g4553
sg63
(lp4573
g56
(g77
g58
NtRp4574
(dp4575
g61
(dp4576
sg70
g4570
sg63
(lp4577
g56
(g57
g58
NtRp4578
(dp4579
g61
(dp4580
g69
I1
ssg70
g4574
sg63
(lp4581
I00
asbasbasbag56
(g72
g58
NtRp4582
(dp4583
g61
(dp4584
sg70
g4553
sg63
(lp4585
g56
(g77
g58
NtRp4586
(dp4587
g61
(dp4588
sg70
g4582
sg63
(lp4589
g56
(g57
g58
NtRp4590
(dp4591
g61
(dp4592
g69
I1
ssg70
g4586
sg63
(lp4593
S'/admin/default/site'
p4594
asbasbasbasbasbasbasbag56
(g72
g58
NtRp4595
(dp4596
g61
(dp4597
sg70
g4537
sg63
(lp4598
g56
(g77
g58
NtRp4599
(dp4600
g61
(dp4601
sg70
g4595
sg63
(lp4602
g56
(g57
g58
NtRp4603
(dp4604
g61
(dp4605
g69
I2
ssg70
g4599
sg63
(lp4606
g56
(g65
g58
NtRp4607
(dp4608
g61
(dp4609
g69
I1
ssg70
Nsg63
(lp4610
g56
(g72
g58
NtRp4611
(dp4612
g61
(dp4613
sg70
g4607
sg63
(lp4614
g56
(g77
g58
NtRp4615
(dp4616
g61
(dp4617
sg70
g4611
sg63
(lp4618
g56
(g57
g58
NtRp4619
(dp4620
g61
(dp4621
g69
I1
ssg70
g4615
sg63
(lp4622
g4423
(S's\x08\x00\x00\x00This App'
tRp4623
asbasbasbag56
(g72
g58
NtRp4624
(dp4625
g61
(dp4626
sg70
g4607
sg63
(lp4627
g56
(g77
g58
NtRp4628
(dp4629
g61
(dp4630
sg70
g4624
sg63
(lp4631
g56
(g57
g58
NtRp4632
(dp4633
g61
(dp4634
g69
I1
ssg70
g4628
sg63
(lp4635
I00
asbasbasbag56
(g72
g58
NtRp4636
(dp4637
g61
(dp4638
sg70
g4607
sg63
(lp4639
g56
(g77
g58
NtRp4640
(dp4641
g61
(dp4642
sg70
g4636
sg63
(lp4643
g56
(g57
g58
NtRp4644
(dp4645
g61
(dp4646
g69
I1
ssg70
g4640
sg63
(lp4647
S'/admin/default/design/project'
p4648
asbasbasbag56
(g72
g58
NtRp4649
(dp4650
g61
(dp4651
sg70
g4607
sg63
(lp4652
g56
(g77
g58
NtRp4653
(dp4654
g61
(dp4655
sg70
g4649
sg63
(lp4656
g56
(g57
g58
NtRp4657
(dp4658
g61
(dp4659
g69
I1
ssg70
g4653
sg63
(lp4660
(lp4661
(g4423
(S't\n\x00\x00\x00Controller'
tRp4662
I00
S'/admin/default/edit/project/controllers/default.py'
tp4663
a(g4423
(S't\x04\x00\x00\x00View'
tRp4664
I00
S'/admin/default/edit/project/views/default/kruskal.html'
tp4665
a(g4423
(S't\x06\x00\x00\x00Layout'
tRp4666
I00
S'/admin/default/edit/project/views/layout.html'
tp4667
a(g4423
(S't\n\x00\x00\x00Stylesheet'
tRp4668
I00
S'/admin/default/edit/project/static/css/web2py.css'
tp4669
a(g4423
(S's\x08\x00\x00\x00DB Model'
tRp4670
I00
S'/admin/default/edit/project/models/db.py'
tp4671
a(g4423
(S's\n\x00\x00\x00Menu Model'
tRp4672
I00
S'/admin/default/edit/project/models/menu.py'
tp4673
a(g4423
(S't\x08\x00\x00\x00Database'
tRp4674
I00
S'/project/appadmin/index'
tp4675
a(g4423
(S't\x06\x00\x00\x00Errors'
tRp4676
I00
S'/admin/default/errors/project'
tp4677
a(g4423
(S't\x05\x00\x00\x00About'
tRp4678
I00
S'/admin/default/about/project'
tp4679
aasbasbasbasbasbasbasbag56
(g72
g58
NtRp4680
(dp4681
g61
(dp4682
sg70
g4537
sg63
(lp4683
g56
(g77
g58
NtRp4684
(dp4685
g61
(dp4686
sg70
g4680
sg63
(lp4687
g56
(g57
g58
NtRp4688
(dp4689
g61
(dp4690
g69
I2
ssg70
g4684
sg63
(lp4691
g56
(g65
g58
NtRp4692
(dp4693
g61
(dp4694
g69
I1
ssg70
Nsg63
(lp4695
g56
(g72
g58
NtRp4696
(dp4697
g61
(dp4698
sg70
g4692
sg63
(lp4699
g56
(g77
g58
NtRp4700
(dp4701
g61
(dp4702
sg70
g4696
sg63
(lp4703
g56
(g57
g58
NtRp4704
(dp4705
g61
(dp4706
g69
I1
ssg70
g4700
sg63
(lp4707
S'web2py.com'
p4708
asbasbasbag56
(g72
g58
NtRp4709
(dp4710
g61
(dp4711
sg70
g4692
sg63
(lp4712
g56
(g77
g58
NtRp4713
(dp4714
g61
(dp4715
sg70
g4709
sg63
(lp4716
g56
(g57
g58
NtRp4717
(dp4718
g61
(dp4719
g69
I1
ssg70
g4713
sg63
(lp4720
I00
asbasbasbag56
(g72
g58
NtRp4721
(dp4722
g61
(dp4723
sg70
g4692
sg63
(lp4724
g56
(g77
g58
NtRp4725
(dp4726
g61
(dp4727
sg70
g4721
sg63
(lp4728
g56
(g57
g58
NtRp4729
(dp4730
g61
(dp4731
g69
I1
ssg70
g4725
sg63
(lp4732
S'http://www.web2py.com'
p4733
asbasbasbag56
(g72
g58
NtRp4734
(dp4735
g61
(dp4736
sg70
g4692
sg63
(lp4737
g56
(g77
g58
NtRp4738
(dp4739
g61
(dp4740
sg70
g4734
sg63
(lp4741
g56
(g57
g58
NtRp4742
(dp4743
g61
(dp4744
g69
I1
ssg70
g4738
sg63
(lp4745
(lp4746
(g4423
(S't\x08\x00\x00\x00Download'
tRp4747
I00
S'http://www.web2py.com/examples/default/download'
p4748
tp4749
a(g4423
(S't\x07\x00\x00\x00Support'
tRp4750
I00
S'http://www.web2py.com/examples/default/support'
p4751
tp4752
a(g4423
(S't\x04\x00\x00\x00Demo'
tRp4753
I00
S'http://web2py.com/demo_admin'
p4754
tp4755
a(g4423
(S's\x0e\x00\x00\x00Quick Examples'
tRp4756
I00
S'http://web2py.com/examples/default/examples'
p4757
tp4758
a(g4423
(S't\x03\x00\x00\x00FAQ'
tRp4759
I00
S'http://web2py.com/AlterEgo'
p4760
tp4761
a(g4423
(S't\x06\x00\x00\x00Videos'
tRp4762
I00
S'http://www.web2py.com/examples/default/videos/'
p4763
tp4764
a(g4423
(S's\x11\x00\x00\x00Free Applications'
tRp4765
I00
S'http://web2py.com/appliances'
p4766
tp4767
a(g4423
(S't\x07\x00\x00\x00Plugins'
tRp4768
I00
S'http://web2py.com/plugins'
p4769
tp4770
a(g4423
(S't\x07\x00\x00\x00Layouts'
tRp4771
I00
S'http://web2py.com/layouts'
p4772
tp4773
a(g4423
(S't\x07\x00\x00\x00Recipes'
tRp4774
I00
S'http://web2pyslices.com/'
p4775
tp4776
a(g4423
(S't\x08\x00\x00\x00Semantic'
tRp4777
I00
S'http://web2py.com/semantic'
p4778
tp4779
aasbasbasbasbasbasbasbag56
(g72
g58
NtRp4780
(dp4781
g61
(dp4782
sg70
g4537
sg63
(lp4783
g56
(g77
g58
NtRp4784
(dp4785
g61
(dp4786
sg70
g4780
sg63
(lp4787
g56
(g57
g58
NtRp4788
(dp4789
g61
(dp4790
g69
I2
ssg70
g4784
sg63
(lp4791
g56
(g65
g58
NtRp4792
(dp4793
g61
(dp4794
g69
I1
ssg70
Nsg63
(lp4795
g56
(g72
g58
NtRp4796
(dp4797
g61
(dp4798
sg70
g4792
sg63
(lp4799
g56
(g77
g58
NtRp4800
(dp4801
g61
(dp4802
sg70
g4796
sg63
(lp4803
g56
(g57
g58
NtRp4804
(dp4805
g61
(dp4806
g69
I1
ssg70
g4800
sg63
(lp4807
g4423
(S't\r\x00\x00\x00Documentation'
tRp4808
asbasbasbag56
(g72
g58
NtRp4809
(dp4810
g61
(dp4811
sg70
g4792
sg63
(lp4812
g56
(g77
g58
NtRp4813
(dp4814
g61
(dp4815
sg70
g4809
sg63
(lp4816
g56
(g57
g58
NtRp4817
(dp4818
g61
(dp4819
g69
I1
ssg70
g4813
sg63
(lp4820
I00
asbasbasbag56
(g72
g58
NtRp4821
(dp4822
g61
(dp4823
sg70
g4792
sg63
(lp4824
g56
(g77
g58
NtRp4825
(dp4826
g61
(dp4827
sg70
g4821
sg63
(lp4828
g56
(g57
g58
NtRp4829
(dp4830
g61
(dp4831
g69
I1
ssg70
g4825
sg63
(lp4832
S'http://www.web2py.com/book'
p4833
asbasbasbag56
(g72
g58
NtRp4834
(dp4835
g61
(dp4836
sg70
g4792
sg63
(lp4837
g56
(g77
g58
NtRp4838
(dp4839
g61
(dp4840
sg70
g4834
sg63
(lp4841
g56
(g57
g58
NtRp4842
(dp4843
g61
(dp4844
g69
I1
ssg70
g4838
sg63
(lp4845
(lp4846
(g4423
(S't\x07\x00\x00\x00Preface'
tRp4847
I00
S'http://www.web2py.com/book/default/chapter/00'
p4848
tp4849
a(g4423
(S't\x0c\x00\x00\x00Introduction'
tRp4850
I00
S'http://www.web2py.com/book/default/chapter/01'
p4851
tp4852
a(g4423
(S't\x06\x00\x00\x00Python'
tRp4853
I00
S'http://www.web2py.com/book/default/chapter/02'
p4854
tp4855
a(g4423
(S't\x08\x00\x00\x00Overview'
tRp4856
I00
S'http://www.web2py.com/book/default/chapter/03'
p4857
tp4858
a(g4423
(S's\x08\x00\x00\x00The Core'
tRp4859
I00
S'http://www.web2py.com/book/default/chapter/04'
p4860
tp4861
a(g4423
(S's\t\x00\x00\x00The Views'
tRp4862
I00
S'http://www.web2py.com/book/default/chapter/05'
p4863
tp4864
a(g4423
(S't\x08\x00\x00\x00Database'
tRp4865
I00
S'http://www.web2py.com/book/default/chapter/06'
p4866
tp4867
a(g4423
(S's\x14\x00\x00\x00Forms and Validators'
tRp4868
I00
S'http://www.web2py.com/book/default/chapter/07'
p4869
tp4870
a(g4423
(S's\r\x00\x00\x00Email and SMS'
tRp4871
I00
S'http://www.web2py.com/book/default/chapter/08'
p4872
tp4873
a(g4423
(S's\x0e\x00\x00\x00Access Control'
tRp4874
I00
S'http://www.web2py.com/book/default/chapter/09'
p4875
tp4876
a(g4423
(S't\x08\x00\x00\x00Services'
tRp4877
I00
S'http://www.web2py.com/book/default/chapter/10'
p4878
tp4879
a(g4423
(S's\x0c\x00\x00\x00Ajax Recipes'
tRp4880
I00
S'http://www.web2py.com/book/default/chapter/11'
p4881
tp4882
a(g4423
(S's\x16\x00\x00\x00Components and Plugins'
tRp4883
I00
S'http://www.web2py.com/book/default/chapter/12'
p4884
tp4885
a(g4423
(S's\x12\x00\x00\x00Deployment Recipes'
tRp4886
I00
S'http://www.web2py.com/book/default/chapter/13'
p4887
tp4888
a(g4423
(S's\r\x00\x00\x00Other Recipes'
tRp4889
I00
S'http://www.web2py.com/book/default/chapter/14'
p4890
tp4891
a(g4423
(S's\r\x00\x00\x00Buy this book'
tRp4892
I00
S'http://stores.lulu.com/web2py'
p4893
tp4894
aasbasbasbasbasbasbasbag56
(g72
g58
NtRp4895
(dp4896
g61
(dp4897
sg70
g4537
sg63
(lp4898
g56
(g77
g58
NtRp4899
(dp4900
g61
(dp4901
sg70
g4895
sg63
(lp4902
g56
(g57
g58
NtRp4903
(dp4904
g61
(dp4905
g69
I2
ssg70
g4899
sg63
(lp4906
g56
(g65
g58
NtRp4907
(dp4908
g61
(dp4909
g69
I1
ssg70
Nsg63
(lp4910
g56
(g72
g58
NtRp4911
(dp4912
g61
(dp4913
sg70
g4907
sg63
(lp4914
g56
(g77
g58
NtRp4915
(dp4916
g61
(dp4917
sg70
g4911
sg63
(lp4918
g56
(g57
g58
NtRp4919
(dp4920
g61
(dp4921
g69
I1
ssg70
g4915
sg63
(lp4922
g4423
(S't\t\x00\x00\x00Community'
tRp4923
asbasbasbag56
(g72
g58
NtRp4924
(dp4925
g61
(dp4926
sg70
g4907
sg63
(lp4927
g56
(g77
g58
NtRp4928
(dp4929
g61
(dp4930
sg70
g4924
sg63
(lp4931
g56
(g57
g58
NtRp4932
(dp4933
g61
(dp4934
g69
I1
ssg70
g4928
sg63
(lp4935
I00
asbasbasbag56
(g72
g58
NtRp4936
(dp4937
g61
(dp4938
sg70
g4907
sg63
(lp4939
g56
(g77
g58
NtRp4940
(dp4941
g61
(dp4942
sg70
g4936
sg63
(lp4943
g56
(g57
g58
NtRp4944
(dp4945
g61
(dp4946
g69
I1
ssg70
g4940
sg63
(lp4947
Nasbasbasbag56
(g72
g58
NtRp4948
(dp4949
g61
(dp4950
sg70
g4907
sg63
(lp4951
g56
(g77
g58
NtRp4952
(dp4953
g61
(dp4954
sg70
g4948
sg63
(lp4955
g56
(g57
g58
NtRp4956
(dp4957
g61
(dp4958
g69
I1
ssg70
g4952
sg63
(lp4959
(lp4960
(g4423
(S't\x06\x00\x00\x00Groups'
tRp4961
I00
S'http://www.web2py.com/examples/default/usergroups'
p4962
tp4963
a(g4423
(S't\x07\x00\x00\x00Twitter'
tRp4964
I00
S'http://twitter.com/web2py'
p4965
tp4966
a(g4423
(S's\t\x00\x00\x00Live Chat'
tRp4967
I00
S'http://webchat.freenode.net/?channels=web2py'
p4968
tp4969
aasbasbasbasbasbasbasbag56
(g72
g58
NtRp4970
(dp4971
g61
(dp4972
sg70
g4537
sg63
(lp4973
g56
(g77
g58
NtRp4974
(dp4975
g61
(dp4976
sg70
g4970
sg63
(lp4977
g56
(g57
g58
NtRp4978
(dp4979
g61
(dp4980
g69
I2
ssg70
g4974
sg63
(lp4981
g56
(g65
g58
NtRp4982
(dp4983
g61
(dp4984
g69
I1
ssg70
Nsg63
(lp4985
g56
(g72
g58
NtRp4986
(dp4987
g61
(dp4988
sg70
g4982
sg63
(lp4989
g56
(g77
g58
NtRp4990
(dp4991
g61
(dp4992
sg70
g4986
sg63
(lp4993
g56
(g57
g58
NtRp4994
(dp4995
g61
(dp4996
g69
I1
ssg70
g4990
sg63
(lp4997
g4423
(S't\x07\x00\x00\x00Plugins'
tRp4998
asbasbasbag56
(g72
g58
NtRp4999
(dp5000
g61
(dp5001
sg70
g4982
sg63
(lp5002
g56
(g77
g58
NtRp5003
(dp5004
g61
(dp5005
sg70
g4999
sg63
(lp5006
g56
(g57
g58
NtRp5007
(dp5008
g61
(dp5009
g69
I1
ssg70
g5003
sg63
(lp5010
I00
asbasbasbag56
(g72
g58
NtRp5011
(dp5012
g61
(dp5013
sg70
g4982
sg63
(lp5014
g56
(g77
g58
NtRp5015
(dp5016
g61
(dp5017
sg70
g5011
sg63
(lp5018
g56
(g57
g58
NtRp5019
(dp5020
g61
(dp5021
g69
I1
ssg70
g5015
sg63
(lp5022
Nasbasbasbag56
(g72
g58
NtRp5023
(dp5024
g61
(dp5025
sg70
g4982
sg63
(lp5026
g56
(g77
g58
NtRp5027
(dp5028
g61
(dp5029
sg70
g5023
sg63
(lp5030
g56
(g57
g58
NtRp5031
(dp5032
g61
(dp5033
g69
I1
ssg70
g5027
sg63
(lp5034
(lp5035
(S'plugin_wiki'
p5036
I00
S'http://web2py.com/examples/default/download'
p5037
tp5038
a(g4423
(S's\r\x00\x00\x00Other Plugins'
tRp5039
I00
g4769
tp5040
a(g4423
(S's\x0e\x00\x00\x00Layout Plugins'
tRp5041
I00
g4772
tp5042
aasbasbasbasbasbasbasbasbasbasbasbasbasbasbasbasbasbasbasbag56
(g72
g58
NtRp5043
(dp5044
g61
(dp5045
sg70
g3867
sg63
(lp5046
g56
(g77
g58
NtRp5047
(dp5048
g61
(dp5049
g81
g82
ssg70
g5043
sg63
(lp5050
S'meta'
p5051
asbag56
(g77
g58
NtRp5052
(dp5053
g61
(dp5054
g88
g89
ssg70
g5043
sg63
(lp5055
S':'
asbag56
(g77
g58
NtRp5056
(dp5057
g61
(dp5058
sg70
g5043
sg63
(lp5059
g56
(g57
g58
NtRp5060
(dp5061
g61
(dp5062
g69
I5
ssg70
g5056
sg63
(lp5063
g56
(g65
g58
NtRp5064
(dp5065
g61
(dp5066
g69
I4
ssg70
Nsg63
(lp5067
g56
(g72
g58
NtRp5068
(dp5069
g61
(dp5070
sg70
g5064
sg63
(lp5071
g56
(g77
g58
NtRp5072
(dp5073
g61
(dp5074
g81
g82
ssg70
g5068
sg63
(lp5075
S'author'
p5076
asbag56
(g77
g58
NtRp5077
(dp5078
g61
(dp5079
g88
g89
ssg70
g5068
sg63
(lp5080
S':'
asbag56
(g77
g58
NtRp5081
(dp5082
g61
(dp5083
sg70
g5068
sg63
(lp5084
g56
(g57
g58
NtRp5085
(dp5086
g61
(dp5087
g69
I4
ssg70
g5081
sg63
(lp5088
S'Your Name <you@example.com>'
p5089
asbasbasbag56
(g72
g58
NtRp5090
(dp5091
g61
(dp5092
sg70
g5064
sg63
(lp5093
g56
(g77
g58
NtRp5094
(dp5095
g61
(dp5096
g81
g82
ssg70
g5090
sg63
(lp5097
S'copyright'
p5098
asbag56
(g77
g58
NtRp5099
(dp5100
g61
(dp5101
g88
g89
ssg70
g5090
sg63
(lp5102
S':'
asbag56
(g77
g58
NtRp5103
(dp5104
g61
(dp5105
sg70
g5090
sg63
(lp5106
g56
(g57
g58
NtRp5107
(dp5108
g61
(dp5109
g69
I4
ssg70
g5103
sg63
(lp5110
S'Copyright 2011'
p5111
asbasbasbag56
(g72
g58
NtRp5112
(dp5113
g61
(dp5114
sg70
g5064
sg63
(lp5115
g56
(g77
g58
NtRp5116
(dp5117
g61
(dp5118
g81
g82
ssg70
g5112
sg63
(lp5119
S'description'
p5120
asbag56
(g77
g58
NtRp5121
(dp5122
g61
(dp5123
g88
g89
ssg70
g5112
sg63
(lp5124
S':'
asbag56
(g77
g58
NtRp5125
(dp5126
g61
(dp5127
sg70
g5112
sg63
(lp5128
g56
(g57
g58
NtRp5129
(dp5130
g61
(dp5131
g69
I4
ssg70
g5125
sg63
(lp5132
S'a cool new app'
p5133
asbasbasbag56
(g72
g58
NtRp5134
(dp5135
g61
(dp5136
sg70
g5064
sg63
(lp5137
g56
(g77
g58
NtRp5138
(dp5139
g61
(dp5140
g81
g82
ssg70
g5134
sg63
(lp5141
S'generator'
p5142
asbag56
(g77
g58
NtRp5143
(dp5144
g61
(dp5145
g88
g89
ssg70
g5134
sg63
(lp5146
S':'
asbag56
(g77
g58
NtRp5147
(dp5148
g61
(dp5149
sg70
g5134
sg63
(lp5150
g56
(g57
g58
NtRp5151
(dp5152
g61
(dp5153
g69
I4
ssg70
g5147
sg63
(lp5154
S'Web2py Web Framework'
p5155
asbasbasbag56
(g72
g58
NtRp5156
(dp5157
g61
(dp5158
sg70
g5064
sg63
(lp5159
g56
(g77
g58
NtRp5160
(dp5161
g61
(dp5162
g81
g82
ssg70
g5156
sg63
(lp5163
S'keywords'
p5164
asbag56
(g77
g58
NtRp5165
(dp5166
g61
(dp5167
g88
g89
ssg70
g5156
sg63
(lp5168
S':'
asbag56
(g77
g58
NtRp5169
(dp5170
g61
(dp5171
sg70
g5156
sg63
(lp5172
g56
(g57
g58
NtRp5173
(dp5174
g61
(dp5175
g69
I4
ssg70
g5169
sg63
(lp5176
S'web2py, python, framework'
p5177
asbasbasbasbasbasbasbag56
(g72
g58
NtRp5178
(dp5179
g61
(dp5180
sg70
g3867
sg63
(lp5181
g56
(g77
g58
NtRp5182
(dp5183
g61
(dp5184
g81
g82
ssg70
g5178
sg63
(lp5185
S'postprocessing'
p5186
asbag56
(g77
g58
NtRp5187
(dp5188
g61
(dp5189
g88
g89
ssg70
g5178
sg63
(lp5190
S':'
asbag56
(g77
g58
NtRp5191
(dp5192
g61
(dp5193
sg70
g5178
sg63
(lp5194
g56
(g57
g58
NtRp5195
(dp5196
g61
(dp5197
g69
I5
ssg70
g5191
sg63
(lp5198
g56
(g65
g58
NtRp5199
(dp5200
g61
(dp5201
g69
I4
ssg70
Nsg63
(lp5202
sbasbasbasbag56
(g72
g58
NtRp5203
(dp5204
g61
(dp5205
sg70
g3867
sg63
(lp5206
g56
(g77
g58
NtRp5207
(dp5208
g61
(dp5209
g81
g82
ssg70
g5203
sg63
(lp5210
S'session_file'
p5211
asbag56
(g77
g58
NtRp5212
(dp5213
g61
(dp5214
g88
g89
ssg70
g5203
sg63
(lp5215
S':'
asbag56
(g77
g58
NtRp5216
(dp5217
g61
(dp5218
sg70
g5203
sg63
(lp5219
g56
(g57
g58
NtRp5220
(dp5221
g61
(dp5222
g69
I5
ssg70
g5216
sg63
(lp5223
S"<open file '/home/arpita/courses/sem3/ssad/web2py/applications/project/sessions/127.0.0.1-685fbf0f-7e19-4757-b51e-738a125b352f', mode 'rb+' at 0x9234860>"
p5224
asbasbasbag56
(g72
g58
NtRp5225
(dp5226
g61
(dp5227
sg70
g3867
sg63
(lp5228
g56
(g77
g58
NtRp5229
(dp5230
g61
(dp5231
g81
g82
ssg70
g5225
sg63
(lp5232
S'session_filename'
p5233
asbag56
(g77
g58
NtRp5234
(dp5235
g61
(dp5236
g88
g89
ssg70
g5225
sg63
(lp5237
S':'
asbag56
(g77
g58
NtRp5238
(dp5239
g61
(dp5240
sg70
g5225
sg63
(lp5241
g56
(g57
g58
NtRp5242
(dp5243
g61
(dp5244
g69
I5
ssg70
g5238
sg63
(lp5245
S'/home/arpita/courses/sem3/ssad/web2py/applications/project/sessions/127.0.0.1-685fbf0f-7e19-4757-b51e-738a125b352f'
p5246
asbasbasbag56
(g72
g58
NtRp5247
(dp5248
g61
(dp5249
sg70
g3867
sg63
(lp5250
g56
(g77
g58
NtRp5251
(dp5252
g61
(dp5253
g81
g82
ssg70
g5247
sg63
(lp5254
S'session_id'
p5255
asbag56
(g77
g58
NtRp5256
(dp5257
g61
(dp5258
g88
g89
ssg70
g5247
sg63
(lp5259
S':'
asbag56
(g77
g58
NtRp5260
(dp5261
g61
(dp5262
sg70
g5247
sg63
(lp5263
g56
(g57
g58
NtRp5264
(dp5265
g61
(dp5266
g69
I5
ssg70
g5260
sg63
(lp5267
S'127.0.0.1-685fbf0f-7e19-4757-b51e-738a125b352f'
p5268
asbasbasbag56
(g72
g58
NtRp5269
(dp5270
g61
(dp5271
sg70
g3867
sg63
(lp5272
g56
(g77
g58
NtRp5273
(dp5274
g61
(dp5275
g81
g82
ssg70
g5269
sg63
(lp5276
S'session_id_name'
p5277
asbag56
(g77
g58
NtRp5278
(dp5279
g61
(dp5280
g88
g89
ssg70
g5269
sg63
(lp5281
S':'
asbag56
(g77
g58
NtRp5282
(dp5283
g61
(dp5284
sg70
g5269
sg63
(lp5285
g56
(g57
g58
NtRp5286
(dp5287
g61
(dp5288
g69
I5
ssg70
g5282
sg63
(lp5289
g3924
asbasbasbag56
(g72
g58
NtRp5290
(dp5291
g61
(dp5292
sg70
g3867
sg63
(lp5293
g56
(g77
g58
NtRp5294
(dp5295
g61
(dp5296
g81
g82
ssg70
g5290
sg63
(lp5297
S'session_locked'
p5298
asbag56
(g77
g58
NtRp5299
(dp5300
g61
(dp5301
g88
g89
ssg70
g5290
sg63
(lp5302
S':'
asbag56
(g77
g58
NtRp5303
(dp5304
g61
(dp5305
sg70
g5290
sg63
(lp5306
g56
(g57
g58
NtRp5307
(dp5308
g61
(dp5309
g69
I5
ssg70
g5303
sg63
(lp5310
g2047
asbasbasbag56
(g72
g58
NtRp5311
(dp5312
g61
(dp5313
sg70
g3867
sg63
(lp5314
g56
(g77
g58
NtRp5315
(dp5316
g61
(dp5317
g81
g82
ssg70
g5311
sg63
(lp5318
S'session_new'
p5319
asbag56
(g77
g58
NtRp5320
(dp5321
g61
(dp5322
g88
g89
ssg70
g5311
sg63
(lp5323
S':'
asbag56
(g77
g58
NtRp5324
(dp5325
g61
(dp5326
sg70
g5311
sg63
(lp5327
g56
(g57
g58
NtRp5328
(dp5329
g61
(dp5330
g69
I5
ssg70
g5324
sg63
(lp5331
g99
asbasbasbag56
(g72
g58
NtRp5332
(dp5333
g61
(dp5334
sg70
g3867
sg63
(lp5335
g56
(g77
g58
NtRp5336
(dp5337
g61
(dp5338
g81
g82
ssg70
g5332
sg63
(lp5339
S'status'
p5340
asbag56
(g77
g58
NtRp5341
(dp5342
g61
(dp5343
g88
g89
ssg70
g5332
sg63
(lp5344
S':'
asbag56
(g77
g58
NtRp5345
(dp5346
g61
(dp5347
sg70
g5332
sg63
(lp5348
g56
(g57
g58
NtRp5349
(dp5350
g61
(dp5351
g69
I5
ssg70
g5345
sg63
(lp5352
S'200'
p5353
asbasbasbag56
(g72
g58
NtRp5354
(dp5355
g61
(dp5356
sg70
g3867
sg63
(lp5357
g56
(g77
g58
NtRp5358
(dp5359
g61
(dp5360
g81
g82
ssg70
g5354
sg63
(lp5361
S'subtitle'
p5362
asbag56
(g77
g58
NtRp5363
(dp5364
g61
(dp5365
g88
g89
ssg70
g5354
sg63
(lp5366
S':'
asbag56
(g77
g58
NtRp5367
(dp5368
g61
(dp5369
sg70
g5354
sg63
(lp5370
g56
(g57
g58
NtRp5371
(dp5372
g61
(dp5373
g69
I5
ssg70
g5367
sg63
(lp5374
g4423
(S's\r\x00\x00\x00customize me!'
tRp5375
asbasbasbag56
(g72
g58
NtRp5376
(dp5377
g61
(dp5378
sg70
g3867
sg63
(lp5379
g56
(g77
g58
NtRp5380
(dp5381
g61
(dp5382
g81
g82
ssg70
g5376
sg63
(lp5383
S'title'
p5384
asbag56
(g77
g58
NtRp5385
(dp5386
g61
(dp5387
g88
g89
ssg70
g5376
sg63
(lp5388
S':'
asbag56
(g77
g58
NtRp5389
(dp5390
g61
(dp5391
sg70
g5376
sg63
(lp5392
g56
(g57
g58
NtRp5393
(dp5394
g61
(dp5395
g69
I5
ssg70
g5389
sg63
(lp5396
S'Project'
p5397
asbasbasbag56
(g72
g58
NtRp5398
(dp5399
g61
(dp5400
sg70
g3867
sg63
(lp5401
g56
(g77
g58
NtRp5402
(dp5403
g61
(dp5404
g81
g82
ssg70
g5398
sg63
(lp5405
g2711
asbag56
(g77
g58
NtRp5406
(dp5407
g61
(dp5408
g88
g89
ssg70
g5398
sg63
(lp5409
S':'
asbag56
(g77
g58
NtRp5410
(dp5411
g61
(dp5412
sg70
g5398
sg63
(lp5413
g56
(g57
g58
NtRp5414
(dp5415
g61
(dp5416
g69
I5
ssg70
g5410
sg63
(lp5417
g2724
asbasbasbag56
(g72
g58
NtRp5418
(dp5419
g61
(dp5420
sg70
g3867
sg63
(lp5421
g56
(g77
g58
NtRp5422
(dp5423
g61
(dp5424
g81
g82
ssg70
g5418
sg63
(lp5425
S'view'
p5426
asbag56
(g77
g58
NtRp5427
(dp5428
g61
(dp5429
g88
g89
ssg70
g5418
sg63
(lp5430
S':'
asbag56
(g77
g58
NtRp5431
(dp5432
g61
(dp5433
sg70
g5418
sg63
(lp5434
g56
(g57
g58
NtRp5435
(dp5436
g61
(dp5437
g69
I5
ssg70
g5431
sg63
(lp5438
S'default/kruskal.html'
p5439
asbasbasbasbasbsS'locals'
p5440
(dp5441
S'a'
S'1'
sS'i'
S'0'
sS'b'
S'2'
sS'li'
p5442
S"<Row {'update_record': <function <lambda> at 0x9... <function <lambda> at 0x9551dbc>, 'Emp2_id': 2}>"
p5443
sS'lis'
p5444
S'<gluon.dal.Rows object>'
p5445
sssS'traceback'
p5446
S'Traceback (most recent call last):\n  File "/home/arpita/courses/sem3/ssad/web2py/gluon/restricted.py", line 205, in restricted\n    exec ccode in environment\n  File "/home/arpita/courses/sem3/ssad/web2py/applications/project/controllers/default.py", line 100, in <module>\n  File "/home/arpita/courses/sem3/ssad/web2py/gluon/globals.py", line 173, in <lambda>\n    self._caller = lambda f: f()\n  File "/home/arpita/courses/sem3/ssad/web2py/applications/project/controllers/default.py", line 97, in kruskal\n    c[a][b]=1\nKeyError: 1\n'
p5447
s.