(dp1
S'output'
p2
S"<type 'exceptions.KeyError'> 8"
p3
sS'layer'
p4
S'/home/arpita/courses/sem3/ssad/web2py/applications/project/controllers/default.py'
p5
sS'code'
p6
S'# -*- coding: utf-8 -*-\n# this file is released under public domain and you can use without limitations\n\n#########################################################################\n## This is a samples controller\n## - index is the default action of any application\n## - user is required for authentication and authorization\n## - download is for downloading files uploaded in the db (does streaming)\n## - call exposes all registered services (none by default)\n#########################################################################\n@auth.requires_membership(\'Administrator\')\ndef index():\n    emp=db().select(db.Employee.ALL, orderby=db.Employee.Importance_val)\n    \n    """\n    example action using the internationalization operator T and flash\n    rendered by views/default/index.html or views/generic.html\n    """\n    form=crud.create(db.Employee)\n    response.flash = "Employee Details"\n    return dict(form=form,emp=emp)\n\ndef user():\n    """\n    exposes:\n    http://..../[app]/default/user/login\n    http://..../[app]/default/user/logout\n    http://..../[app]/default/user/register\n    http://..../[app]/default/user/profile\n    http://..../[app]/default/user/retrieve_password\n    http://..../[app]/default/user/change_password\n    use @auth.requires_login()\n        @auth.requires_membership(\'group name\')\n        @auth.requires_permission(\'read\',\'table name\',record_id)\n    to decorate functions that need access control\n    """\n    return dict(form=auth())\n\n\n\n\n\n@auth.requires_signature()\ndef data():\n    """\n    http://..../[app]/default/data/tables\n    http://..../[app]/default/data/create/[table]\n    http://..../[app]/default/data/read/[table]/[id]\n    http://..../[app]/default/data/update/[table]/[id]\n    http://..../[app]/default/data/delete/[table]/[id]\n    http://..../[app]/default/data/select/[table]\n    http://..../[app]/default/data/search/[table]\n    but URLs must be signed, i.e. linked with\n      A(\'table\',_href=URL(\'data/tables\',user_signature=True))\n    or with the signed load operator\n      LOAD(\'default\',\'data.load\',args=\'tables\',ajax=True,user_signature=True)\n    """\n    return dict(form=crud())\n\ndef graph():\n    empl=db.Employee(request.args(0))\n    return dict(empl=empl)  \n \n\n\ndef relate():\n   response.flash= "Define Relation"\n   form=crud.create(db.Relation)\n   return dict(form=form)\n\n\nc=[]\nrep=[]\nvis=[]\ned=[]\np={}\nq={}\ndef kruskal():\n    \n    lis = db().select(db.Relation.ALL)\n    emp=db().select(db.Employee.ALL, orderby=db.Employee.Name)\n    counts=len(emp)\n    for i in xrange(counts+1):\n       c.append([])\n       vis.append([])\n       rep.append(i)\n       ed.append([])\n       for j in xrange(counts+1):\n          c[i].append(0)\n          vis[i].append(0)\n          ed[i].append(0)\n    for li in lis:\n       a=li.Emp1_id\n       b=li.Emp2_id\n       c[a][b]=1\n       \n    cou=0   \n    while cou !=counts:\n        min=100\n        for i in xrange(counts+1):\n            for j in xrange(counts+1):\n                if c[i][j]!=0 and vis[i][j]==0:\n                    if rep[i]!=rep[j]:\n                               vis[i][j]=1\n                               ed[i][j]=1\n                               count1=0\n                               count2=0\n                               for k in xrange(counts+1):\n                                        if rep[k]==rep[i]:\n                                            count1=count1+1\n                                        if rep[k]==rep[j]:\n                                            count2=count2+1\n                               if count1<count2:\n                                           for k in xrange(counts+1):\n                                                if rep[k]==rep[i] and k!=i:\n                                                    rep[k]=rep[j]\n                                           rep[i]=rep[j]\n                               else:\n                                        for k in xrange(counts+1):\n                                                   if rep[k]==rep[j] and k!=j:\n                                                        rep[k]=rep[i]\n                                        rep[j]=rep[i]\n\n                    else:\n                        vis[i][j]=1\n        cou=0\n        for k in xrange(counts+1):\n            if rep[k]==rep[1]:\n                    cou=cou+1\n        k=0            \n        for i in xrange(counts+1):\n                for j in xrange(counts+1):\n                      if ed[i][j]==1:\n                           p[k]=i\n                           q[k]=j\n                           k=k+1 \n    file = open(\'applications/project/controllers/myfile.txt\',\'w\')\n   # for i in xrange(counts+1):\n    \n    #    file = open(\'applications/project/controllers/myfile.txt\',\'a\')\n    for j in xrange(k+1):\n             file = open(\'applications/project/controllers/myfile.txt\',\'a\')\n             if p[j]==1:\n                file.write(\'hello\')\n                #file.write(\'children=q[j]\')\n                file.close()                                             \n    return dict(p=p,q=q)\n\nresponse._vars=response._caller(kruskal)\n'
p7
sS'snapshot'
p8
(dp9
S'exception'
p10
(dp11
S'__hash__'
p12
S"<method-wrapper '__hash__' of exceptions.KeyError object>"
p13
sS'__setattr__'
p14
S"<method-wrapper '__setattr__' of exceptions.KeyError object>"
p15
sS'__reduce_ex__'
p16
S'<built-in method __reduce_ex__ of exceptions.KeyError object>'
p17
sS'__getslice__'
p18
S"<method-wrapper '__getslice__' of exceptions.KeyError object>"
p19
sS'__getitem__'
p20
S"<method-wrapper '__getitem__' of exceptions.KeyError object>"
p21
sS'__setstate__'
p22
S'<built-in method __setstate__ of exceptions.KeyError object>'
p23
sS'__reduce__'
p24
S'<built-in method __reduce__ of exceptions.KeyError object>'
p25
sS'__str__'
p26
S"<method-wrapper '__str__' of exceptions.KeyError object>"
p27
sS'__format__'
p28
S'<built-in method __format__ of exceptions.KeyError object>'
p29
sS'__getattribute__'
p30
S"<method-wrapper '__getattribute__' of exceptions.KeyError object>"
p31
sS'__class__'
p32
S"<type 'exceptions.KeyError'>"
p33
sS'__unicode__'
p34
S'<built-in method __unicode__ of exceptions.KeyError object>'
p35
sS'__delattr__'
p36
S"<method-wrapper '__delattr__' of exceptions.KeyError object>"
p37
sS'__subclasshook__'
p38
S'<built-in method __subclasshook__ of type object>'
p39
sS'__repr__'
p40
S"<method-wrapper '__repr__' of exceptions.KeyError object>"
p41
sS'args'
p42
S'(8,)'
p43
sS'__dict__'
p44
S'{}'
p45
sS'__sizeof__'
p46
S'<built-in method __sizeof__ of exceptions.KeyError object>'
p47
sS'__doc__'
p48
S"'Mapping key not found.'"
p49
sS'__init__'
p50
S"<method-wrapper '__init__' of exceptions.KeyError object>"
p51
sS'__new__'
p52
S'<built-in method __new__ of type object>'
p53
ssS'evalue'
p54
S'8'
sS'request'
p55
ccopy_reg
_reconstructor
p56
(cgluon.html
BEAUTIFY
p57
c__builtin__
object
p58
NtRp59
(dp60
S'attributes'
p61
(dp62
sS'components'
p63
(lp64
g56
(cgluon.html
TABLE
p65
g58
NtRp66
(dp67
g61
(dp68
S'level'
p69
I5
ssS'parent'
p70
Nsg63
(lp71
g56
(cgluon.html
TR
p72
g58
NtRp73
(dp74
g61
(dp75
sg70
g66
sg63
(lp76
g56
(cgluon.html
TD
p77
g58
NtRp78
(dp79
g61
(dp80
S'_style'
p81
S'font-weight:bold;vertical-align:top'
p82
ssg70
g73
sg63
(lp83
S'ajax'
p84
asbag56
(g77
g58
NtRp85
(dp86
g61
(dp87
S'_valign'
p88
S'top'
p89
ssg70
g73
sg63
(lp90
S':'
asbag56
(g77
g58
NtRp91
(dp92
g61
(dp93
sg70
g73
sg63
(lp94
g56
(g57
g58
NtRp95
(dp96
g61
(dp97
g69
I5
ssg70
g91
sg63
(lp98
S'False'
p99
asbasbasbag56
(g72
g58
NtRp100
(dp101
g61
(dp102
sg70
g66
sg63
(lp103
g56
(g77
g58
NtRp104
(dp105
g61
(dp106
g81
g82
ssg70
g100
sg63
(lp107
S'application'
p108
asbag56
(g77
g58
NtRp109
(dp110
g61
(dp111
g88
g89
ssg70
g100
sg63
(lp112
S':'
asbag56
(g77
g58
NtRp113
(dp114
g61
(dp115
sg70
g100
sg63
(lp116
g56
(g57
g58
NtRp117
(dp118
g61
(dp119
g69
I5
ssg70
g113
sg63
(lp120
S'project'
p121
asbasbasbag56
(g72
g58
NtRp122
(dp123
g61
(dp124
sg70
g66
sg63
(lp125
g56
(g77
g58
NtRp126
(dp127
g61
(dp128
g81
g82
ssg70
g122
sg63
(lp129
g42
asbag56
(g77
g58
NtRp130
(dp131
g61
(dp132
g88
g89
ssg70
g122
sg63
(lp133
S':'
asbag56
(g77
g58
NtRp134
(dp135
g61
(dp136
sg70
g122
sg63
(lp137
g56
(g57
g58
NtRp138
(dp139
g61
(dp140
g69
I5
ssg70
g134
sg63
(lp141
g56
(g65
g58
NtRp142
(dp143
g61
(dp144
g69
I4
ssg70
Nsg63
(lp145
sbasbasbasbag56
(g72
g58
NtRp146
(dp147
g61
(dp148
sg70
g66
sg63
(lp149
g56
(g77
g58
NtRp150
(dp151
g61
(dp152
g81
g82
ssg70
g146
sg63
(lp153
S'body'
p154
asbag56
(g77
g58
NtRp155
(dp156
g61
(dp157
g88
g89
ssg70
g146
sg63
(lp158
S':'
asbag56
(g77
g58
NtRp159
(dp160
g61
(dp161
sg70
g146
sg63
(lp162
g56
(g57
g58
NtRp163
(dp164
g61
(dp165
g69
I5
ssg70
g159
sg63
(lp166
S'<cStringIO.StringO object at 0x9de6240>'
p167
asbasbasbag56
(g72
g58
NtRp168
(dp169
g61
(dp170
sg70
g66
sg63
(lp171
g56
(g77
g58
NtRp172
(dp173
g61
(dp174
g81
g82
ssg70
g168
sg63
(lp175
S'client'
p176
asbag56
(g77
g58
NtRp177
(dp178
g61
(dp179
g88
g89
ssg70
g168
sg63
(lp180
S':'
asbag56
(g77
g58
NtRp181
(dp182
g61
(dp183
sg70
g168
sg63
(lp184
g56
(g57
g58
NtRp185
(dp186
g61
(dp187
g69
I5
ssg70
g181
sg63
(lp188
S'127.0.0.1'
p189
asbasbasbag56
(g72
g58
NtRp190
(dp191
g61
(dp192
sg70
g66
sg63
(lp193
g56
(g77
g58
NtRp194
(dp195
g61
(dp196
g81
g82
ssg70
g190
sg63
(lp197
S'controller'
p198
asbag56
(g77
g58
NtRp199
(dp200
g61
(dp201
g88
g89
ssg70
g190
sg63
(lp202
S':'
asbag56
(g77
g58
NtRp203
(dp204
g61
(dp205
sg70
g190
sg63
(lp206
g56
(g57
g58
NtRp207
(dp208
g61
(dp209
g69
I5
ssg70
g203
sg63
(lp210
S'default'
p211
asbasbasbag56
(g72
g58
NtRp212
(dp213
g61
(dp214
sg70
g66
sg63
(lp215
g56
(g77
g58
NtRp216
(dp217
g61
(dp218
g81
g82
ssg70
g212
sg63
(lp219
S'cookies'
p220
asbag56
(g77
g58
NtRp221
(dp222
g61
(dp223
g88
g89
ssg70
g212
sg63
(lp224
S':'
asbag56
(g77
g58
NtRp225
(dp226
g61
(dp227
sg70
g212
sg63
(lp228
g56
(g57
g58
NtRp229
(dp230
g61
(dp231
g69
I5
ssg70
g225
sg63
(lp232
g56
(g65
g58
NtRp233
(dp234
g61
(dp235
g69
I4
ssg70
Nsg63
(lp236
g56
(g72
g58
NtRp237
(dp238
g61
(dp239
sg70
g233
sg63
(lp240
g56
(g77
g58
NtRp241
(dp242
g61
(dp243
g81
g82
ssg70
g237
sg63
(lp244
S'session_id_admin'
p245
asbag56
(g77
g58
NtRp246
(dp247
g61
(dp248
g88
g89
ssg70
g237
sg63
(lp249
S':'
asbag56
(g77
g58
NtRp250
(dp251
g61
(dp252
sg70
g237
sg63
(lp253
g56
(g57
g58
NtRp254
(dp255
g61
(dp256
g69
I4
ssg70
g250
sg63
(lp257
g56
(g65
g58
NtRp258
(dp259
g61
(dp260
g69
I3
ssg70
Nsg63
(lp261
g56
(g72
g58
NtRp262
(dp263
g61
(dp264
sg70
g258
sg63
(lp265
g56
(g77
g58
NtRp266
(dp267
g61
(dp268
g81
g82
ssg70
g262
sg63
(lp269
S'comment'
p270
asbag56
(g77
g58
NtRp271
(dp272
g61
(dp273
g88
g89
ssg70
g262
sg63
(lp274
S':'
asbag56
(g77
g58
NtRp275
(dp276
g61
(dp277
sg70
g262
sg63
(lp278
g56
(g57
g58
NtRp279
(dp280
g61
(dp281
g69
I3
ssg70
g275
sg63
(lp282
S''
asbasbasbag56
(g72
g58
NtRp283
(dp284
g61
(dp285
sg70
g258
sg63
(lp286
g56
(g77
g58
NtRp287
(dp288
g61
(dp289
g81
g82
ssg70
g283
sg63
(lp290
S'domain'
p291
asbag56
(g77
g58
NtRp292
(dp293
g61
(dp294
g88
g89
ssg70
g283
sg63
(lp295
S':'
asbag56
(g77
g58
NtRp296
(dp297
g61
(dp298
sg70
g283
sg63
(lp299
g56
(g57
g58
NtRp300
(dp301
g61
(dp302
g69
I3
ssg70
g296
sg63
(lp303
S''
asbasbasbag56
(g72
g58
NtRp304
(dp305
g61
(dp306
sg70
g258
sg63
(lp307
g56
(g77
g58
NtRp308
(dp309
g61
(dp310
g81
g82
ssg70
g304
sg63
(lp311
S'expires'
p312
asbag56
(g77
g58
NtRp313
(dp314
g61
(dp315
g88
g89
ssg70
g304
sg63
(lp316
S':'
asbag56
(g77
g58
NtRp317
(dp318
g61
(dp319
sg70
g304
sg63
(lp320
g56
(g57
g58
NtRp321
(dp322
g61
(dp323
g69
I3
ssg70
g317
sg63
(lp324
S''
asbasbasbag56
(g72
g58
NtRp325
(dp326
g61
(dp327
sg70
g258
sg63
(lp328
g56
(g77
g58
NtRp329
(dp330
g61
(dp331
g81
g82
ssg70
g325
sg63
(lp332
S'httponly'
p333
asbag56
(g77
g58
NtRp334
(dp335
g61
(dp336
g88
g89
ssg70
g325
sg63
(lp337
S':'
asbag56
(g77
g58
NtRp338
(dp339
g61
(dp340
sg70
g325
sg63
(lp341
g56
(g57
g58
NtRp342
(dp343
g61
(dp344
g69
I3
ssg70
g338
sg63
(lp345
S''
asbasbasbag56
(g72
g58
NtRp346
(dp347
g61
(dp348
sg70
g258
sg63
(lp349
g56
(g77
g58
NtRp350
(dp351
g61
(dp352
g81
g82
ssg70
g346
sg63
(lp353
S'max-age'
p354
asbag56
(g77
g58
NtRp355
(dp356
g61
(dp357
g88
g89
ssg70
g346
sg63
(lp358
S':'
asbag56
(g77
g58
NtRp359
(dp360
g61
(dp361
sg70
g346
sg63
(lp362
g56
(g57
g58
NtRp363
(dp364
g61
(dp365
g69
I3
ssg70
g359
sg63
(lp366
S''
asbasbasbag56
(g72
g58
NtRp367
(dp368
g61
(dp369
sg70
g258
sg63
(lp370
g56
(g77
g58
NtRp371
(dp372
g61
(dp373
g81
g82
ssg70
g367
sg63
(lp374
S'path'
p375
asbag56
(g77
g58
NtRp376
(dp377
g61
(dp378
g88
g89
ssg70
g367
sg63
(lp379
S':'
asbag56
(g77
g58
NtRp380
(dp381
g61
(dp382
sg70
g367
sg63
(lp383
g56
(g57
g58
NtRp384
(dp385
g61
(dp386
g69
I3
ssg70
g380
sg63
(lp387
S''
asbasbasbag56
(g72
g58
NtRp388
(dp389
g61
(dp390
sg70
g258
sg63
(lp391
g56
(g77
g58
NtRp392
(dp393
g61
(dp394
g81
g82
ssg70
g388
sg63
(lp395
S'secure'
p396
asbag56
(g77
g58
NtRp397
(dp398
g61
(dp399
g88
g89
ssg70
g388
sg63
(lp400
S':'
asbag56
(g77
g58
NtRp401
(dp402
g61
(dp403
sg70
g388
sg63
(lp404
g56
(g57
g58
NtRp405
(dp406
g61
(dp407
g69
I3
ssg70
g401
sg63
(lp408
S''
asbasbasbag56
(g72
g58
NtRp409
(dp410
g61
(dp411
sg70
g258
sg63
(lp412
g56
(g77
g58
NtRp413
(dp414
g61
(dp415
g81
g82
ssg70
g409
sg63
(lp416
S'version'
p417
asbag56
(g77
g58
NtRp418
(dp419
g61
(dp420
g88
g89
ssg70
g409
sg63
(lp421
S':'
asbag56
(g77
g58
NtRp422
(dp423
g61
(dp424
sg70
g409
sg63
(lp425
g56
(g57
g58
NtRp426
(dp427
g61
(dp428
g69
I3
ssg70
g422
sg63
(lp429
S''
asbasbasbasbasbasbasbag56
(g72
g58
NtRp430
(dp431
g61
(dp432
sg70
g233
sg63
(lp433
g56
(g77
g58
NtRp434
(dp435
g61
(dp436
g81
g82
ssg70
g430
sg63
(lp437
S'session_id_project'
p438
asbag56
(g77
g58
NtRp439
(dp440
g61
(dp441
g88
g89
ssg70
g430
sg63
(lp442
S':'
asbag56
(g77
g58
NtRp443
(dp444
g61
(dp445
sg70
g430
sg63
(lp446
g56
(g57
g58
NtRp447
(dp448
g61
(dp449
g69
I4
ssg70
g443
sg63
(lp450
g56
(g65
g58
NtRp451
(dp452
g61
(dp453
g69
I3
ssg70
Nsg63
(lp454
g56
(g72
g58
NtRp455
(dp456
g61
(dp457
sg70
g451
sg63
(lp458
g56
(g77
g58
NtRp459
(dp460
g61
(dp461
g81
g82
ssg70
g455
sg63
(lp462
g270
asbag56
(g77
g58
NtRp463
(dp464
g61
(dp465
g88
g89
ssg70
g455
sg63
(lp466
S':'
asbag56
(g77
g58
NtRp467
(dp468
g61
(dp469
sg70
g455
sg63
(lp470
g56
(g57
g58
NtRp471
(dp472
g61
(dp473
g69
I3
ssg70
g467
sg63
(lp474
S''
asbasbasbag56
(g72
g58
NtRp475
(dp476
g61
(dp477
sg70
g451
sg63
(lp478
g56
(g77
g58
NtRp479
(dp480
g61
(dp481
g81
g82
ssg70
g475
sg63
(lp482
g291
asbag56
(g77
g58
NtRp483
(dp484
g61
(dp485
g88
g89
ssg70
g475
sg63
(lp486
S':'
asbag56
(g77
g58
NtRp487
(dp488
g61
(dp489
sg70
g475
sg63
(lp490
g56
(g57
g58
NtRp491
(dp492
g61
(dp493
g69
I3
ssg70
g487
sg63
(lp494
S''
asbasbasbag56
(g72
g58
NtRp495
(dp496
g61
(dp497
sg70
g451
sg63
(lp498
g56
(g77
g58
NtRp499
(dp500
g61
(dp501
g81
g82
ssg70
g495
sg63
(lp502
g312
asbag56
(g77
g58
NtRp503
(dp504
g61
(dp505
g88
g89
ssg70
g495
sg63
(lp506
S':'
asbag56
(g77
g58
NtRp507
(dp508
g61
(dp509
sg70
g495
sg63
(lp510
g56
(g57
g58
NtRp511
(dp512
g61
(dp513
g69
I3
ssg70
g507
sg63
(lp514
S''
asbasbasbag56
(g72
g58
NtRp515
(dp516
g61
(dp517
sg70
g451
sg63
(lp518
g56
(g77
g58
NtRp519
(dp520
g61
(dp521
g81
g82
ssg70
g515
sg63
(lp522
g333
asbag56
(g77
g58
NtRp523
(dp524
g61
(dp525
g88
g89
ssg70
g515
sg63
(lp526
S':'
asbag56
(g77
g58
NtRp527
(dp528
g61
(dp529
sg70
g515
sg63
(lp530
g56
(g57
g58
NtRp531
(dp532
g61
(dp533
g69
I3
ssg70
g527
sg63
(lp534
S''
asbasbasbag56
(g72
g58
NtRp535
(dp536
g61
(dp537
sg70
g451
sg63
(lp538
g56
(g77
g58
NtRp539
(dp540
g61
(dp541
g81
g82
ssg70
g535
sg63
(lp542
g354
asbag56
(g77
g58
NtRp543
(dp544
g61
(dp545
g88
g89
ssg70
g535
sg63
(lp546
S':'
asbag56
(g77
g58
NtRp547
(dp548
g61
(dp549
sg70
g535
sg63
(lp550
g56
(g57
g58
NtRp551
(dp552
g61
(dp553
g69
I3
ssg70
g547
sg63
(lp554
S''
asbasbasbag56
(g72
g58
NtRp555
(dp556
g61
(dp557
sg70
g451
sg63
(lp558
g56
(g77
g58
NtRp559
(dp560
g61
(dp561
g81
g82
ssg70
g555
sg63
(lp562
g375
asbag56
(g77
g58
NtRp563
(dp564
g61
(dp565
g88
g89
ssg70
g555
sg63
(lp566
S':'
asbag56
(g77
g58
NtRp567
(dp568
g61
(dp569
sg70
g555
sg63
(lp570
g56
(g57
g58
NtRp571
(dp572
g61
(dp573
g69
I3
ssg70
g567
sg63
(lp574
S''
asbasbasbag56
(g72
g58
NtRp575
(dp576
g61
(dp577
sg70
g451
sg63
(lp578
g56
(g77
g58
NtRp579
(dp580
g61
(dp581
g81
g82
ssg70
g575
sg63
(lp582
g396
asbag56
(g77
g58
NtRp583
(dp584
g61
(dp585
g88
g89
ssg70
g575
sg63
(lp586
S':'
asbag56
(g77
g58
NtRp587
(dp588
g61
(dp589
sg70
g575
sg63
(lp590
g56
(g57
g58
NtRp591
(dp592
g61
(dp593
g69
I3
ssg70
g587
sg63
(lp594
S''
asbasbasbag56
(g72
g58
NtRp595
(dp596
g61
(dp597
sg70
g451
sg63
(lp598
g56
(g77
g58
NtRp599
(dp600
g61
(dp601
g81
g82
ssg70
g595
sg63
(lp602
g417
asbag56
(g77
g58
NtRp603
(dp604
g61
(dp605
g88
g89
ssg70
g595
sg63
(lp606
S':'
asbag56
(g77
g58
NtRp607
(dp608
g61
(dp609
sg70
g595
sg63
(lp610
g56
(g57
g58
NtRp611
(dp612
g61
(dp613
g69
I3
ssg70
g607
sg63
(lp614
S''
asbasbasbasbasbasbasbag56
(g72
g58
NtRp615
(dp616
g61
(dp617
sg70
g233
sg63
(lp618
g56
(g77
g58
NtRp619
(dp620
g61
(dp621
g81
g82
ssg70
g615
sg63
(lp622
S'session_id_welcome'
p623
asbag56
(g77
g58
NtRp624
(dp625
g61
(dp626
g88
g89
ssg70
g615
sg63
(lp627
S':'
asbag56
(g77
g58
NtRp628
(dp629
g61
(dp630
sg70
g615
sg63
(lp631
g56
(g57
g58
NtRp632
(dp633
g61
(dp634
g69
I4
ssg70
g628
sg63
(lp635
g56
(g65
g58
NtRp636
(dp637
g61
(dp638
g69
I3
ssg70
Nsg63
(lp639
g56
(g72
g58
NtRp640
(dp641
g61
(dp642
sg70
g636
sg63
(lp643
g56
(g77
g58
NtRp644
(dp645
g61
(dp646
g81
g82
ssg70
g640
sg63
(lp647
g270
asbag56
(g77
g58
NtRp648
(dp649
g61
(dp650
g88
g89
ssg70
g640
sg63
(lp651
S':'
asbag56
(g77
g58
NtRp652
(dp653
g61
(dp654
sg70
g640
sg63
(lp655
g56
(g57
g58
NtRp656
(dp657
g61
(dp658
g69
I3
ssg70
g652
sg63
(lp659
S''
asbasbasbag56
(g72
g58
NtRp660
(dp661
g61
(dp662
sg70
g636
sg63
(lp663
g56
(g77
g58
NtRp664
(dp665
g61
(dp666
g81
g82
ssg70
g660
sg63
(lp667
g291
asbag56
(g77
g58
NtRp668
(dp669
g61
(dp670
g88
g89
ssg70
g660
sg63
(lp671
S':'
asbag56
(g77
g58
NtRp672
(dp673
g61
(dp674
sg70
g660
sg63
(lp675
g56
(g57
g58
NtRp676
(dp677
g61
(dp678
g69
I3
ssg70
g672
sg63
(lp679
S''
asbasbasbag56
(g72
g58
NtRp680
(dp681
g61
(dp682
sg70
g636
sg63
(lp683
g56
(g77
g58
NtRp684
(dp685
g61
(dp686
g81
g82
ssg70
g680
sg63
(lp687
g312
asbag56
(g77
g58
NtRp688
(dp689
g61
(dp690
g88
g89
ssg70
g680
sg63
(lp691
S':'
asbag56
(g77
g58
NtRp692
(dp693
g61
(dp694
sg70
g680
sg63
(lp695
g56
(g57
g58
NtRp696
(dp697
g61
(dp698
g69
I3
ssg70
g692
sg63
(lp699
S''
asbasbasbag56
(g72
g58
NtRp700
(dp701
g61
(dp702
sg70
g636
sg63
(lp703
g56
(g77
g58
NtRp704
(dp705
g61
(dp706
g81
g82
ssg70
g700
sg63
(lp707
g333
asbag56
(g77
g58
NtRp708
(dp709
g61
(dp710
g88
g89
ssg70
g700
sg63
(lp711
S':'
asbag56
(g77
g58
NtRp712
(dp713
g61
(dp714
sg70
g700
sg63
(lp715
g56
(g57
g58
NtRp716
(dp717
g61
(dp718
g69
I3
ssg70
g712
sg63
(lp719
S''
asbasbasbag56
(g72
g58
NtRp720
(dp721
g61
(dp722
sg70
g636
sg63
(lp723
g56
(g77
g58
NtRp724
(dp725
g61
(dp726
g81
g82
ssg70
g720
sg63
(lp727
g354
asbag56
(g77
g58
NtRp728
(dp729
g61
(dp730
g88
g89
ssg70
g720
sg63
(lp731
S':'
asbag56
(g77
g58
NtRp732
(dp733
g61
(dp734
sg70
g720
sg63
(lp735
g56
(g57
g58
NtRp736
(dp737
g61
(dp738
g69
I3
ssg70
g732
sg63
(lp739
S''
asbasbasbag56
(g72
g58
NtRp740
(dp741
g61
(dp742
sg70
g636
sg63
(lp743
g56
(g77
g58
NtRp744
(dp745
g61
(dp746
g81
g82
ssg70
g740
sg63
(lp747
g375
asbag56
(g77
g58
NtRp748
(dp749
g61
(dp750
g88
g89
ssg70
g740
sg63
(lp751
S':'
asbag56
(g77
g58
NtRp752
(dp753
g61
(dp754
sg70
g740
sg63
(lp755
g56
(g57
g58
NtRp756
(dp757
g61
(dp758
g69
I3
ssg70
g752
sg63
(lp759
S''
asbasbasbag56
(g72
g58
NtRp760
(dp761
g61
(dp762
sg70
g636
sg63
(lp763
g56
(g77
g58
NtRp764
(dp765
g61
(dp766
g81
g82
ssg70
g760
sg63
(lp767
g396
asbag56
(g77
g58
NtRp768
(dp769
g61
(dp770
g88
g89
ssg70
g760
sg63
(lp771
S':'
asbag56
(g77
g58
NtRp772
(dp773
g61
(dp774
sg70
g760
sg63
(lp775
g56
(g57
g58
NtRp776
(dp777
g61
(dp778
g69
I3
ssg70
g772
sg63
(lp779
S''
asbasbasbag56
(g72
g58
NtRp780
(dp781
g61
(dp782
sg70
g636
sg63
(lp783
g56
(g77
g58
NtRp784
(dp785
g61
(dp786
g81
g82
ssg70
g780
sg63
(lp787
g417
asbag56
(g77
g58
NtRp788
(dp789
g61
(dp790
g88
g89
ssg70
g780
sg63
(lp791
S':'
asbag56
(g77
g58
NtRp792
(dp793
g61
(dp794
sg70
g780
sg63
(lp795
g56
(g57
g58
NtRp796
(dp797
g61
(dp798
g69
I3
ssg70
g792
sg63
(lp799
S''
asbasbasbasbasbasbasbasbasbasbasbag56
(g72
g58
NtRp800
(dp801
g61
(dp802
sg70
g66
sg63
(lp803
g56
(g77
g58
NtRp804
(dp805
g61
(dp806
g81
g82
ssg70
g800
sg63
(lp807
S'env'
p808
asbag56
(g77
g58
NtRp809
(dp810
g61
(dp811
g88
g89
ssg70
g800
sg63
(lp812
S':'
asbag56
(g77
g58
NtRp813
(dp814
g61
(dp815
sg70
g800
sg63
(lp816
g56
(g57
g58
NtRp817
(dp818
g61
(dp819
g69
I5
ssg70
g813
sg63
(lp820
g56
(g65
g58
NtRp821
(dp822
g61
(dp823
g69
I4
ssg70
Nsg63
(lp824
g56
(g72
g58
NtRp825
(dp826
g61
(dp827
sg70
g821
sg63
(lp828
g56
(g77
g58
NtRp829
(dp830
g61
(dp831
g81
g82
ssg70
g825
sg63
(lp832
S'app_folders'
p833
asbag56
(g77
g58
NtRp834
(dp835
g61
(dp836
g88
g89
ssg70
g825
sg63
(lp837
S':'
asbag56
(g77
g58
NtRp838
(dp839
g61
(dp840
sg70
g825
sg63
(lp841
g56
(g57
g58
NtRp842
(dp843
g61
(dp844
g69
I4
ssg70
g838
sg63
(lp845
S"set(['/home/arpita/courses/sem3/ssad/web2py/applications/admin/', '/home/arpita/courses/sem3/ssad/web2py/applications/project/', '/home/arpita/courses/sem3/ssad/web2py/applications/welcome/'])"
p846
asbasbasbag56
(g72
g58
NtRp847
(dp848
g61
(dp849
sg70
g821
sg63
(lp850
g56
(g77
g58
NtRp851
(dp852
g61
(dp853
g81
g82
ssg70
g847
sg63
(lp854
S'applications_parent'
p855
asbag56
(g77
g58
NtRp856
(dp857
g61
(dp858
g88
g89
ssg70
g847
sg63
(lp859
S':'
asbag56
(g77
g58
NtRp860
(dp861
g61
(dp862
sg70
g847
sg63
(lp863
g56
(g57
g58
NtRp864
(dp865
g61
(dp866
g69
I4
ssg70
g860
sg63
(lp867
S'/home/arpita/courses/sem3/ssad/web2py'
p868
asbasbasbag56
(g72
g58
NtRp869
(dp870
g61
(dp871
sg70
g821
sg63
(lp872
g56
(g77
g58
NtRp873
(dp874
g61
(dp875
g81
g82
ssg70
g869
sg63
(lp876
S'cmd_args'
p877
asbag56
(g77
g58
NtRp878
(dp879
g61
(dp880
g88
g89
ssg70
g869
sg63
(lp881
S':'
asbag56
(g77
g58
NtRp882
(dp883
g61
(dp884
sg70
g869
sg63
(lp885
g56
(g57
g58
NtRp886
(dp887
g61
(dp888
g69
I4
ssg70
g882
sg63
(lp889
g56
(g65
g58
NtRp890
(dp891
g61
(dp892
g69
I3
ssg70
Nsg63
(lp893
sbasbasbasbag56
(g72
g58
NtRp894
(dp895
g61
(dp896
sg70
g821
sg63
(lp897
g56
(g77
g58
NtRp898
(dp899
g61
(dp900
g81
g82
ssg70
g894
sg63
(lp901
S'cmd_options'
p902
asbag56
(g77
g58
NtRp903
(dp904
g61
(dp905
g88
g89
ssg70
g894
sg63
(lp906
S':'
asbag56
(g77
g58
NtRp907
(dp908
g61
(dp909
sg70
g894
sg63
(lp910
g56
(g57
g58
NtRp911
(dp912
g61
(dp913
g69
I4
ssg70
g907
sg63
(lp914
S"<Values at 0x928e3cc: {'verbose': False, 'ip': '127.0.0.1', 'shutdown_timeout': 5, 'taskbar': False, 'nocron': False, 'pid_filename': 'httpserver.pid', 'maxthreads': None, 'softcron': False, 'server_name': 'arpita-HP-630-Notebook-PC', 'bpython': False, 'nogui': False, 'port': 8000, 'extcron': False, 'debuglevel': 30, 'test': None, 'folder': '/home/arpita/courses/sem3/ssad/web2py', 'config': '', 'import_models': False, 'winservice': '', 'shell': None, 'run': '', 'log_filename': 'httpserver.log', 'args': [''], 'socket_timeout': 5, 'ssl_ca_certificate': None, 'scheduler': None, 'profiler_filename': None, 'ssl_private_key': '', 'password': 'arpita', 'request_queue_size': 5, 'ssl_certificate': '', 'cronjob': False, 'numthreads': None, 'quiet': False, 'interfaces': None, 'minthreads': None, 'timeout': 10, 'plain': False, 'nobanner': False}>"
p915
asbasbasbag56
(g72
g58
NtRp916
(dp917
g61
(dp918
sg70
g821
sg63
(lp919
g56
(g77
g58
NtRp920
(dp921
g61
(dp922
g81
g82
ssg70
g916
sg63
(lp923
S'db_sessions'
p924
asbag56
(g77
g58
NtRp925
(dp926
g61
(dp927
g88
g89
ssg70
g916
sg63
(lp928
S':'
asbag56
(g77
g58
NtRp929
(dp930
g61
(dp931
sg70
g916
sg63
(lp932
g56
(g57
g58
NtRp933
(dp934
g61
(dp935
g69
I4
ssg70
g929
sg63
(lp936
S'set([])'
p937
asbasbasbag56
(g72
g58
NtRp938
(dp939
g61
(dp940
sg70
g821
sg63
(lp941
g56
(g77
g58
NtRp942
(dp943
g61
(dp944
g81
g82
ssg70
g938
sg63
(lp945
S'debugging'
p946
asbag56
(g77
g58
NtRp947
(dp948
g61
(dp949
g88
g89
ssg70
g938
sg63
(lp950
S':'
asbag56
(g77
g58
NtRp951
(dp952
g61
(dp953
sg70
g938
sg63
(lp954
g56
(g57
g58
NtRp955
(dp956
g61
(dp957
g69
I4
ssg70
g951
sg63
(lp958
g99
asbasbasbag56
(g72
g58
NtRp959
(dp960
g61
(dp961
sg70
g821
sg63
(lp962
g56
(g77
g58
NtRp963
(dp964
g61
(dp965
g81
g82
ssg70
g959
sg63
(lp966
S'gluon_parent'
p967
asbag56
(g77
g58
NtRp968
(dp969
g61
(dp970
g88
g89
ssg70
g959
sg63
(lp971
S':'
asbag56
(g77
g58
NtRp972
(dp973
g61
(dp974
sg70
g959
sg63
(lp975
g56
(g57
g58
NtRp976
(dp977
g61
(dp978
g69
I4
ssg70
g972
sg63
(lp979
S'/home/arpita/courses/sem3/ssad/web2py'
p980
asbasbasbag56
(g72
g58
NtRp981
(dp982
g61
(dp983
sg70
g821
sg63
(lp984
g56
(g77
g58
NtRp985
(dp986
g61
(dp987
g81
g82
ssg70
g981
sg63
(lp988
S'http_accept'
p989
asbag56
(g77
g58
NtRp990
(dp991
g61
(dp992
g88
g89
ssg70
g981
sg63
(lp993
S':'
asbag56
(g77
g58
NtRp994
(dp995
g61
(dp996
sg70
g981
sg63
(lp997
g56
(g57
g58
NtRp998
(dp999
g61
(dp1000
g69
I4
ssg70
g994
sg63
(lp1001
S'text/html,application/xhtml+xml,application/xml;q=0.9,*/*;q=0.8'
p1002
asbasbasbag56
(g72
g58
NtRp1003
(dp1004
g61
(dp1005
sg70
g821
sg63
(lp1006
g56
(g77
g58
NtRp1007
(dp1008
g61
(dp1009
g81
g82
ssg70
g1003
sg63
(lp1010
S'http_accept_charset'
p1011
asbag56
(g77
g58
NtRp1012
(dp1013
g61
(dp1014
g88
g89
ssg70
g1003
sg63
(lp1015
S':'
asbag56
(g77
g58
NtRp1016
(dp1017
g61
(dp1018
sg70
g1003
sg63
(lp1019
g56
(g57
g58
NtRp1020
(dp1021
g61
(dp1022
g69
I4
ssg70
g1016
sg63
(lp1023
S'ISO-8859-1,utf-8;q=0.7,*;q=0.7'
p1024
asbasbasbag56
(g72
g58
NtRp1025
(dp1026
g61
(dp1027
sg70
g821
sg63
(lp1028
g56
(g77
g58
NtRp1029
(dp1030
g61
(dp1031
g81
g82
ssg70
g1025
sg63
(lp1032
S'http_accept_encoding'
p1033
asbag56
(g77
g58
NtRp1034
(dp1035
g61
(dp1036
g88
g89
ssg70
g1025
sg63
(lp1037
S':'
asbag56
(g77
g58
NtRp1038
(dp1039
g61
(dp1040
sg70
g1025
sg63
(lp1041
g56
(g57
g58
NtRp1042
(dp1043
g61
(dp1044
g69
I4
ssg70
g1038
sg63
(lp1045
S'gzip, deflate'
p1046
asbasbasbag56
(g72
g58
NtRp1047
(dp1048
g61
(dp1049
sg70
g821
sg63
(lp1050
g56
(g77
g58
NtRp1051
(dp1052
g61
(dp1053
g81
g82
ssg70
g1047
sg63
(lp1054
S'http_accept_language'
p1055
asbag56
(g77
g58
NtRp1056
(dp1057
g61
(dp1058
g88
g89
ssg70
g1047
sg63
(lp1059
S':'
asbag56
(g77
g58
NtRp1060
(dp1061
g61
(dp1062
sg70
g1047
sg63
(lp1063
g56
(g57
g58
NtRp1064
(dp1065
g61
(dp1066
g69
I4
ssg70
g1060
sg63
(lp1067
S'en-us,en;q=0.5'
p1068
asbasbasbag56
(g72
g58
NtRp1069
(dp1070
g61
(dp1071
sg70
g821
sg63
(lp1072
g56
(g77
g58
NtRp1073
(dp1074
g61
(dp1075
g81
g82
ssg70
g1069
sg63
(lp1076
S'http_connection'
p1077
asbag56
(g77
g58
NtRp1078
(dp1079
g61
(dp1080
g88
g89
ssg70
g1069
sg63
(lp1081
S':'
asbag56
(g77
g58
NtRp1082
(dp1083
g61
(dp1084
sg70
g1069
sg63
(lp1085
g56
(g57
g58
NtRp1086
(dp1087
g61
(dp1088
g69
I4
ssg70
g1082
sg63
(lp1089
S'keep-alive'
p1090
asbasbasbag56
(g72
g58
NtRp1091
(dp1092
g61
(dp1093
sg70
g821
sg63
(lp1094
g56
(g77
g58
NtRp1095
(dp1096
g61
(dp1097
g81
g82
ssg70
g1091
sg63
(lp1098
S'http_cookie'
p1099
asbag56
(g77
g58
NtRp1100
(dp1101
g61
(dp1102
g88
g89
ssg70
g1091
sg63
(lp1103
S':'
asbag56
(g77
g58
NtRp1104
(dp1105
g61
(dp1106
sg70
g1091
sg63
(lp1107
g56
(g57
g58
NtRp1108
(dp1109
g61
(dp1110
g69
I4
ssg70
g1104
sg63
(lp1111
S'session_id_welcome=127.0.0.1-678b1a4f-bdb2-46cd-abad-b52c0674e327; session_id_admin=127.0.0.1-898a117f-1979-482c-9a45-67a3f4c49569; session_id_project=127.0.0.1-b6115b3d-9b4c-4cde-b209-d74130608881'
p1112
asbasbasbag56
(g72
g58
NtRp1113
(dp1114
g61
(dp1115
sg70
g821
sg63
(lp1116
g56
(g77
g58
NtRp1117
(dp1118
g61
(dp1119
g81
g82
ssg70
g1113
sg63
(lp1120
S'http_host'
p1121
asbag56
(g77
g58
NtRp1122
(dp1123
g61
(dp1124
g88
g89
ssg70
g1113
sg63
(lp1125
S':'
asbag56
(g77
g58
NtRp1126
(dp1127
g61
(dp1128
sg70
g1113
sg63
(lp1129
g56
(g57
g58
NtRp1130
(dp1131
g61
(dp1132
g69
I4
ssg70
g1126
sg63
(lp1133
S'127.0.0.1:8000'
p1134
asbasbasbag56
(g72
g58
NtRp1135
(dp1136
g61
(dp1137
sg70
g821
sg63
(lp1138
g56
(g77
g58
NtRp1139
(dp1140
g61
(dp1141
g81
g82
ssg70
g1135
sg63
(lp1142
S'http_referer'
p1143
asbag56
(g77
g58
NtRp1144
(dp1145
g61
(dp1146
g88
g89
ssg70
g1135
sg63
(lp1147
S':'
asbag56
(g77
g58
NtRp1148
(dp1149
g61
(dp1150
sg70
g1135
sg63
(lp1151
g56
(g57
g58
NtRp1152
(dp1153
g61
(dp1154
g69
I4
ssg70
g1148
sg63
(lp1155
S'http://127.0.0.1:8000/project/default/relate'
p1156
asbasbasbag56
(g72
g58
NtRp1157
(dp1158
g61
(dp1159
sg70
g821
sg63
(lp1160
g56
(g77
g58
NtRp1161
(dp1162
g61
(dp1163
g81
g82
ssg70
g1157
sg63
(lp1164
S'http_user_agent'
p1165
asbag56
(g77
g58
NtRp1166
(dp1167
g61
(dp1168
g88
g89
ssg70
g1157
sg63
(lp1169
S':'
asbag56
(g77
g58
NtRp1170
(dp1171
g61
(dp1172
sg70
g1157
sg63
(lp1173
g56
(g57
g58
NtRp1174
(dp1175
g61
(dp1176
g69
I4
ssg70
g1170
sg63
(lp1177
S'Mozilla/5.0 (X11; Linux i686; rv:7.0.1) Gecko/20100101 Firefox/7.0.1'
p1178
asbasbasbag56
(g72
g58
NtRp1179
(dp1180
g61
(dp1181
sg70
g821
sg63
(lp1182
g56
(g77
g58
NtRp1183
(dp1184
g61
(dp1185
g81
g82
ssg70
g1179
sg63
(lp1186
S'is_jython'
p1187
asbag56
(g77
g58
NtRp1188
(dp1189
g61
(dp1190
g88
g89
ssg70
g1179
sg63
(lp1191
S':'
asbag56
(g77
g58
NtRp1192
(dp1193
g61
(dp1194
sg70
g1179
sg63
(lp1195
g56
(g57
g58
NtRp1196
(dp1197
g61
(dp1198
g69
I4
ssg70
g1192
sg63
(lp1199
g99
asbasbasbag56
(g72
g58
NtRp1200
(dp1201
g61
(dp1202
sg70
g821
sg63
(lp1203
g56
(g77
g58
NtRp1204
(dp1205
g61
(dp1206
g81
g82
ssg70
g1200
sg63
(lp1207
S'is_pypy'
p1208
asbag56
(g77
g58
NtRp1209
(dp1210
g61
(dp1211
g88
g89
ssg70
g1200
sg63
(lp1212
S':'
asbag56
(g77
g58
NtRp1213
(dp1214
g61
(dp1215
sg70
g1200
sg63
(lp1216
g56
(g57
g58
NtRp1217
(dp1218
g61
(dp1219
g69
I4
ssg70
g1213
sg63
(lp1220
g99
asbasbasbag56
(g72
g58
NtRp1221
(dp1222
g61
(dp1223
sg70
g821
sg63
(lp1224
g56
(g77
g58
NtRp1225
(dp1226
g61
(dp1227
g81
g82
ssg70
g1221
sg63
(lp1228
S'path_info'
p1229
asbag56
(g77
g58
NtRp1230
(dp1231
g61
(dp1232
g88
g89
ssg70
g1221
sg63
(lp1233
S':'
asbag56
(g77
g58
NtRp1234
(dp1235
g61
(dp1236
sg70
g1221
sg63
(lp1237
g56
(g57
g58
NtRp1238
(dp1239
g61
(dp1240
g69
I4
ssg70
g1234
sg63
(lp1241
S'/project/default/kruskal'
p1242
asbasbasbag56
(g72
g58
NtRp1243
(dp1244
g61
(dp1245
sg70
g821
sg63
(lp1246
g56
(g77
g58
NtRp1247
(dp1248
g61
(dp1249
g81
g82
ssg70
g1243
sg63
(lp1250
S'query_string'
p1251
asbag56
(g77
g58
NtRp1252
(dp1253
g61
(dp1254
g88
g89
ssg70
g1243
sg63
(lp1255
S':'
asbag56
(g77
g58
NtRp1256
(dp1257
g61
(dp1258
sg70
g1243
sg63
(lp1259
g56
(g57
g58
NtRp1260
(dp1261
g61
(dp1262
g69
I4
ssg70
g1256
sg63
(lp1263
S''
asbasbasbag56
(g72
g58
NtRp1264
(dp1265
g61
(dp1266
sg70
g821
sg63
(lp1267
g56
(g77
g58
NtRp1268
(dp1269
g61
(dp1270
g81
g82
ssg70
g1264
sg63
(lp1271
S'remote_addr'
p1272
asbag56
(g77
g58
NtRp1273
(dp1274
g61
(dp1275
g88
g89
ssg70
g1264
sg63
(lp1276
S':'
asbag56
(g77
g58
NtRp1277
(dp1278
g61
(dp1279
sg70
g1264
sg63
(lp1280
g56
(g57
g58
NtRp1281
(dp1282
g61
(dp1283
g69
I4
ssg70
g1277
sg63
(lp1284
g189
asbasbasbag56
(g72
g58
NtRp1285
(dp1286
g61
(dp1287
sg70
g821
sg63
(lp1288
g56
(g77
g58
NtRp1289
(dp1290
g61
(dp1291
g81
g82
ssg70
g1285
sg63
(lp1292
S'remote_port'
p1293
asbag56
(g77
g58
NtRp1294
(dp1295
g61
(dp1296
g88
g89
ssg70
g1285
sg63
(lp1297
S':'
asbag56
(g77
g58
NtRp1298
(dp1299
g61
(dp1300
sg70
g1285
sg63
(lp1301
g56
(g57
g58
NtRp1302
(dp1303
g61
(dp1304
g69
I4
ssg70
g1298
sg63
(lp1305
S'48097'
p1306
asbasbasbag56
(g72
g58
NtRp1307
(dp1308
g61
(dp1309
sg70
g821
sg63
(lp1310
g56
(g77
g58
NtRp1311
(dp1312
g61
(dp1313
g81
g82
ssg70
g1307
sg63
(lp1314
S'request_method'
p1315
asbag56
(g77
g58
NtRp1316
(dp1317
g61
(dp1318
g88
g89
ssg70
g1307
sg63
(lp1319
S':'
asbag56
(g77
g58
NtRp1320
(dp1321
g61
(dp1322
sg70
g1307
sg63
(lp1323
g56
(g57
g58
NtRp1324
(dp1325
g61
(dp1326
g69
I4
ssg70
g1320
sg63
(lp1327
S'GET'
p1328
asbasbasbag56
(g72
g58
NtRp1329
(dp1330
g61
(dp1331
sg70
g821
sg63
(lp1332
g56
(g77
g58
NtRp1333
(dp1334
g61
(dp1335
g81
g82
ssg70
g1329
sg63
(lp1336
S'script_name'
p1337
asbag56
(g77
g58
NtRp1338
(dp1339
g61
(dp1340
g88
g89
ssg70
g1329
sg63
(lp1341
S':'
asbag56
(g77
g58
NtRp1342
(dp1343
g61
(dp1344
sg70
g1329
sg63
(lp1345
g56
(g57
g58
NtRp1346
(dp1347
g61
(dp1348
g69
I4
ssg70
g1342
sg63
(lp1349
S''
asbasbasbag56
(g72
g58
NtRp1350
(dp1351
g61
(dp1352
sg70
g821
sg63
(lp1353
g56
(g77
g58
NtRp1354
(dp1355
g61
(dp1356
g81
g82
ssg70
g1350
sg63
(lp1357
S'server_name'
p1358
asbag56
(g77
g58
NtRp1359
(dp1360
g61
(dp1361
g88
g89
ssg70
g1350
sg63
(lp1362
S':'
asbag56
(g77
g58
NtRp1363
(dp1364
g61
(dp1365
sg70
g1350
sg63
(lp1366
g56
(g57
g58
NtRp1367
(dp1368
g61
(dp1369
g69
I4
ssg70
g1363
sg63
(lp1370
S'arpita-HP-630-Notebook-PC'
p1371
asbasbasbag56
(g72
g58
NtRp1372
(dp1373
g61
(dp1374
sg70
g821
sg63
(lp1375
g56
(g77
g58
NtRp1376
(dp1377
g61
(dp1378
g81
g82
ssg70
g1372
sg63
(lp1379
S'server_port'
p1380
asbag56
(g77
g58
NtRp1381
(dp1382
g61
(dp1383
g88
g89
ssg70
g1372
sg63
(lp1384
S':'
asbag56
(g77
g58
NtRp1385
(dp1386
g61
(dp1387
sg70
g1372
sg63
(lp1388
g56
(g57
g58
NtRp1389
(dp1390
g61
(dp1391
g69
I4
ssg70
g1385
sg63
(lp1392
S'8000'
p1393
asbasbasbag56
(g72
g58
NtRp1394
(dp1395
g61
(dp1396
sg70
g821
sg63
(lp1397
g56
(g77
g58
NtRp1398
(dp1399
g61
(dp1400
g81
g82
ssg70
g1394
sg63
(lp1401
S'server_protocol'
p1402
asbag56
(g77
g58
NtRp1403
(dp1404
g61
(dp1405
g88
g89
ssg70
g1394
sg63
(lp1406
S':'
asbag56
(g77
g58
NtRp1407
(dp1408
g61
(dp1409
sg70
g1394
sg63
(lp1410
g56
(g57
g58
NtRp1411
(dp1412
g61
(dp1413
g69
I4
ssg70
g1407
sg63
(lp1414
S'HTTP/1.1'
p1415
asbasbasbag56
(g72
g58
NtRp1416
(dp1417
g61
(dp1418
sg70
g821
sg63
(lp1419
g56
(g77
g58
NtRp1420
(dp1421
g61
(dp1422
g81
g82
ssg70
g1416
sg63
(lp1423
S'server_software'
p1424
asbag56
(g77
g58
NtRp1425
(dp1426
g61
(dp1427
g88
g89
ssg70
g1416
sg63
(lp1428
S':'
asbag56
(g77
g58
NtRp1429
(dp1430
g61
(dp1431
sg70
g1416
sg63
(lp1432
g56
(g57
g58
NtRp1433
(dp1434
g61
(dp1435
g69
I4
ssg70
g1429
sg63
(lp1436
S'Rocket 1.2.4'
p1437
asbasbasbag56
(g72
g58
NtRp1438
(dp1439
g61
(dp1440
sg70
g821
sg63
(lp1441
g56
(g77
g58
NtRp1442
(dp1443
g61
(dp1444
g81
g82
ssg70
g1438
sg63
(lp1445
S'web2py_crontype'
p1446
asbag56
(g77
g58
NtRp1447
(dp1448
g61
(dp1449
g88
g89
ssg70
g1438
sg63
(lp1450
S':'
asbag56
(g77
g58
NtRp1451
(dp1452
g61
(dp1453
sg70
g1438
sg63
(lp1454
g56
(g57
g58
NtRp1455
(dp1456
g61
(dp1457
g69
I4
ssg70
g1451
sg63
(lp1458
S'hard'
p1459
asbasbasbag56
(g72
g58
NtRp1460
(dp1461
g61
(dp1462
sg70
g821
sg63
(lp1463
g56
(g77
g58
NtRp1464
(dp1465
g61
(dp1466
g81
g82
ssg70
g1460
sg63
(lp1467
S'web2py_path'
p1468
asbag56
(g77
g58
NtRp1469
(dp1470
g61
(dp1471
g88
g89
ssg70
g1460
sg63
(lp1472
S':'
asbag56
(g77
g58
NtRp1473
(dp1474
g61
(dp1475
sg70
g1460
sg63
(lp1476
g56
(g57
g58
NtRp1477
(dp1478
g61
(dp1479
g69
I4
ssg70
g1473
sg63
(lp1480
g868
asbasbasbag56
(g72
g58
NtRp1481
(dp1482
g61
(dp1483
sg70
g821
sg63
(lp1484
g56
(g77
g58
NtRp1485
(dp1486
g61
(dp1487
g81
g82
ssg70
g1481
sg63
(lp1488
S'web2py_version'
p1489
asbag56
(g77
g58
NtRp1490
(dp1491
g61
(dp1492
g88
g89
ssg70
g1481
sg63
(lp1493
S':'
asbag56
(g77
g58
NtRp1494
(dp1495
g61
(dp1496
sg70
g1481
sg63
(lp1497
g56
(g57
g58
NtRp1498
(dp1499
g61
(dp1500
g69
I4
ssg70
g1494
sg63
(lp1501
g56
(g65
g58
NtRp1502
(dp1503
g61
(dp1504
g69
I3
ssg70
Nsg63
(lp1505
g56
(g72
g58
NtRp1506
(dp1507
g61
(dp1508
sg70
g1502
sg63
(lp1509
g56
(g77
g58
NtRp1510
(dp1511
g61
(dp1512
sg70
g1506
sg63
(lp1513
g56
(g57
g58
NtRp1514
(dp1515
g61
(dp1516
g69
I3
ssg70
g1510
sg63
(lp1517
S'1'
asbasbasbag56
(g72
g58
NtRp1518
(dp1519
g61
(dp1520
sg70
g1502
sg63
(lp1521
g56
(g77
g58
NtRp1522
(dp1523
g61
(dp1524
sg70
g1518
sg63
(lp1525
g56
(g57
g58
NtRp1526
(dp1527
g61
(dp1528
g69
I3
ssg70
g1522
sg63
(lp1529
S'99'
p1530
asbasbasbag56
(g72
g58
NtRp1531
(dp1532
g61
(dp1533
sg70
g1502
sg63
(lp1534
g56
(g77
g58
NtRp1535
(dp1536
g61
(dp1537
sg70
g1531
sg63
(lp1538
g56
(g57
g58
NtRp1539
(dp1540
g61
(dp1541
g69
I3
ssg70
g1535
sg63
(lp1542
S'7'
asbasbasbag56
(g72
g58
NtRp1543
(dp1544
g61
(dp1545
sg70
g1502
sg63
(lp1546
g56
(g77
g58
NtRp1547
(dp1548
g61
(dp1549
sg70
g1543
sg63
(lp1550
g56
(g57
g58
NtRp1551
(dp1552
g61
(dp1553
g69
I3
ssg70
g1547
sg63
(lp1554
S'datetime.datetime(2012, 3, 4, 22, 12, 8)'
p1555
asbasbasbag56
(g72
g58
NtRp1556
(dp1557
g61
(dp1558
sg70
g1502
sg63
(lp1559
g56
(g77
g58
NtRp1560
(dp1561
g61
(dp1562
sg70
g1556
sg63
(lp1563
g56
(g57
g58
NtRp1564
(dp1565
g61
(dp1566
g69
I3
ssg70
g1560
sg63
(lp1567
S'stable'
p1568
asbasbasbasbasbasbasbag56
(g72
g58
NtRp1569
(dp1570
g61
(dp1571
sg70
g821
sg63
(lp1572
g56
(g77
g58
NtRp1573
(dp1574
g61
(dp1575
g81
g82
ssg70
g1569
sg63
(lp1576
S'wsgi_errors'
p1577
asbag56
(g77
g58
NtRp1578
(dp1579
g61
(dp1580
g88
g89
ssg70
g1569
sg63
(lp1581
S':'
asbag56
(g77
g58
NtRp1582
(dp1583
g61
(dp1584
sg70
g1569
sg63
(lp1585
g56
(g57
g58
NtRp1586
(dp1587
g61
(dp1588
g69
I4
ssg70
g1582
sg63
(lp1589
S"<open file '<stderr>', mode 'w' at 0xb74190d0>"
p1590
asbasbasbag56
(g72
g58
NtRp1591
(dp1592
g61
(dp1593
sg70
g821
sg63
(lp1594
g56
(g77
g58
NtRp1595
(dp1596
g61
(dp1597
g81
g82
ssg70
g1591
sg63
(lp1598
S'wsgi_file_wrapper'
p1599
asbag56
(g77
g58
NtRp1600
(dp1601
g61
(dp1602
g88
g89
ssg70
g1591
sg63
(lp1603
S':'
asbag56
(g77
g58
NtRp1604
(dp1605
g61
(dp1606
sg70
g1591
sg63
(lp1607
g56
(g57
g58
NtRp1608
(dp1609
g61
(dp1610
g69
I4
ssg70
g1604
sg63
(lp1611
S'<class wsgiref.util.FileWrapper at 0x9231f5c>'
p1612
asbasbasbag56
(g72
g58
NtRp1613
(dp1614
g61
(dp1615
sg70
g821
sg63
(lp1616
g56
(g77
g58
NtRp1617
(dp1618
g61
(dp1619
g81
g82
ssg70
g1613
sg63
(lp1620
S'wsgi_input'
p1621
asbag56
(g77
g58
NtRp1622
(dp1623
g61
(dp1624
g88
g89
ssg70
g1613
sg63
(lp1625
S':'
asbag56
(g77
g58
NtRp1626
(dp1627
g61
(dp1628
sg70
g1613
sg63
(lp1629
g56
(g57
g58
NtRp1630
(dp1631
g61
(dp1632
g69
I4
ssg70
g1626
sg63
(lp1633
S'<socket._fileobject object at 0x9b6a0ec>'
p1634
asbasbasbag56
(g72
g58
NtRp1635
(dp1636
g61
(dp1637
sg70
g821
sg63
(lp1638
g56
(g77
g58
NtRp1639
(dp1640
g61
(dp1641
g81
g82
ssg70
g1635
sg63
(lp1642
S'wsgi_multiprocess'
p1643
asbag56
(g77
g58
NtRp1644
(dp1645
g61
(dp1646
g88
g89
ssg70
g1635
sg63
(lp1647
S':'
asbag56
(g77
g58
NtRp1648
(dp1649
g61
(dp1650
sg70
g1635
sg63
(lp1651
g56
(g57
g58
NtRp1652
(dp1653
g61
(dp1654
g69
I4
ssg70
g1648
sg63
(lp1655
g99
asbasbasbag56
(g72
g58
NtRp1656
(dp1657
g61
(dp1658
sg70
g821
sg63
(lp1659
g56
(g77
g58
NtRp1660
(dp1661
g61
(dp1662
g81
g82
ssg70
g1656
sg63
(lp1663
S'wsgi_multithread'
p1664
asbag56
(g77
g58
NtRp1665
(dp1666
g61
(dp1667
g88
g89
ssg70
g1656
sg63
(lp1668
S':'
asbag56
(g77
g58
NtRp1669
(dp1670
g61
(dp1671
sg70
g1656
sg63
(lp1672
g56
(g57
g58
NtRp1673
(dp1674
g61
(dp1675
g69
I4
ssg70
g1669
sg63
(lp1676
S'True'
p1677
asbasbasbag56
(g72
g58
NtRp1678
(dp1679
g61
(dp1680
sg70
g821
sg63
(lp1681
g56
(g77
g58
NtRp1682
(dp1683
g61
(dp1684
g81
g82
ssg70
g1678
sg63
(lp1685
S'wsgi_run_once'
p1686
asbag56
(g77
g58
NtRp1687
(dp1688
g61
(dp1689
g88
g89
ssg70
g1678
sg63
(lp1690
S':'
asbag56
(g77
g58
NtRp1691
(dp1692
g61
(dp1693
sg70
g1678
sg63
(lp1694
g56
(g57
g58
NtRp1695
(dp1696
g61
(dp1697
g69
I4
ssg70
g1691
sg63
(lp1698
g99
asbasbasbag56
(g72
g58
NtRp1699
(dp1700
g61
(dp1701
sg70
g821
sg63
(lp1702
g56
(g77
g58
NtRp1703
(dp1704
g61
(dp1705
g81
g82
ssg70
g1699
sg63
(lp1706
S'wsgi_url_scheme'
p1707
asbag56
(g77
g58
NtRp1708
(dp1709
g61
(dp1710
g88
g89
ssg70
g1699
sg63
(lp1711
S':'
asbag56
(g77
g58
NtRp1712
(dp1713
g61
(dp1714
sg70
g1699
sg63
(lp1715
g56
(g57
g58
NtRp1716
(dp1717
g61
(dp1718
g69
I4
ssg70
g1712
sg63
(lp1719
S'http'
p1720
asbasbasbag56
(g72
g58
NtRp1721
(dp1722
g61
(dp1723
sg70
g821
sg63
(lp1724
g56
(g77
g58
NtRp1725
(dp1726
g61
(dp1727
g81
g82
ssg70
g1721
sg63
(lp1728
S'wsgi_version'
p1729
asbag56
(g77
g58
NtRp1730
(dp1731
g61
(dp1732
g88
g89
ssg70
g1721
sg63
(lp1733
S':'
asbag56
(g77
g58
NtRp1734
(dp1735
g61
(dp1736
sg70
g1721
sg63
(lp1737
g56
(g57
g58
NtRp1738
(dp1739
g61
(dp1740
g69
I4
ssg70
g1734
sg63
(lp1741
g56
(g65
g58
NtRp1742
(dp1743
g61
(dp1744
g69
I3
ssg70
Nsg63
(lp1745
g56
(g72
g58
NtRp1746
(dp1747
g61
(dp1748
sg70
g1742
sg63
(lp1749
g56
(g77
g58
NtRp1750
(dp1751
g61
(dp1752
sg70
g1746
sg63
(lp1753
g56
(g57
g58
NtRp1754
(dp1755
g61
(dp1756
g69
I3
ssg70
g1750
sg63
(lp1757
S'1'
asbasbasbag56
(g72
g58
NtRp1758
(dp1759
g61
(dp1760
sg70
g1742
sg63
(lp1761
g56
(g77
g58
NtRp1762
(dp1763
g61
(dp1764
sg70
g1758
sg63
(lp1765
g56
(g57
g58
NtRp1766
(dp1767
g61
(dp1768
g69
I3
ssg70
g1762
sg63
(lp1769
S'0'
asbasbasbasbasbasbasbasbasbasbasbag56
(g72
g58
NtRp1770
(dp1771
g61
(dp1772
sg70
g66
sg63
(lp1773
g56
(g77
g58
NtRp1774
(dp1775
g61
(dp1776
g81
g82
ssg70
g1770
sg63
(lp1777
S'extension'
p1778
asbag56
(g77
g58
NtRp1779
(dp1780
g61
(dp1781
g88
g89
ssg70
g1770
sg63
(lp1782
S':'
asbag56
(g77
g58
NtRp1783
(dp1784
g61
(dp1785
sg70
g1770
sg63
(lp1786
g56
(g57
g58
NtRp1787
(dp1788
g61
(dp1789
g69
I5
ssg70
g1783
sg63
(lp1790
S'html'
p1791
asbasbasbag56
(g72
g58
NtRp1792
(dp1793
g61
(dp1794
sg70
g66
sg63
(lp1795
g56
(g77
g58
NtRp1796
(dp1797
g61
(dp1798
g81
g82
ssg70
g1792
sg63
(lp1799
S'folder'
p1800
asbag56
(g77
g58
NtRp1801
(dp1802
g61
(dp1803
g88
g89
ssg70
g1792
sg63
(lp1804
S':'
asbag56
(g77
g58
NtRp1805
(dp1806
g61
(dp1807
sg70
g1792
sg63
(lp1808
g56
(g57
g58
NtRp1809
(dp1810
g61
(dp1811
g69
I5
ssg70
g1805
sg63
(lp1812
S'/home/arpita/courses/sem3/ssad/web2py/applications/project/'
p1813
asbasbasbag56
(g72
g58
NtRp1814
(dp1815
g61
(dp1816
sg70
g66
sg63
(lp1817
g56
(g77
g58
NtRp1818
(dp1819
g61
(dp1820
g81
g82
ssg70
g1814
sg63
(lp1821
S'function'
p1822
asbag56
(g77
g58
NtRp1823
(dp1824
g61
(dp1825
g88
g89
ssg70
g1814
sg63
(lp1826
S':'
asbag56
(g77
g58
NtRp1827
(dp1828
g61
(dp1829
sg70
g1814
sg63
(lp1830
g56
(g57
g58
NtRp1831
(dp1832
g61
(dp1833
g69
I5
ssg70
g1827
sg63
(lp1834
S'kruskal'
p1835
asbasbasbag56
(g72
g58
NtRp1836
(dp1837
g61
(dp1838
sg70
g66
sg63
(lp1839
g56
(g77
g58
NtRp1840
(dp1841
g61
(dp1842
g81
g82
ssg70
g1836
sg63
(lp1843
S'get_vars'
p1844
asbag56
(g77
g58
NtRp1845
(dp1846
g61
(dp1847
g88
g89
ssg70
g1836
sg63
(lp1848
S':'
asbag56
(g77
g58
NtRp1849
(dp1850
g61
(dp1851
sg70
g1836
sg63
(lp1852
g56
(g57
g58
NtRp1853
(dp1854
g61
(dp1855
g69
I5
ssg70
g1849
sg63
(lp1856
g56
(g65
g58
NtRp1857
(dp1858
g61
(dp1859
g69
I4
ssg70
Nsg63
(lp1860
sbasbasbasbag56
(g72
g58
NtRp1861
(dp1862
g61
(dp1863
sg70
g66
sg63
(lp1864
g56
(g77
g58
NtRp1865
(dp1866
g61
(dp1867
g81
g82
ssg70
g1861
sg63
(lp1868
S'global_settings'
p1869
asbag56
(g77
g58
NtRp1870
(dp1871
g61
(dp1872
g88
g89
ssg70
g1861
sg63
(lp1873
S':'
asbag56
(g77
g58
NtRp1874
(dp1875
g61
(dp1876
sg70
g1861
sg63
(lp1877
g56
(g57
g58
NtRp1878
(dp1879
g61
(dp1880
g69
I5
ssg70
g1874
sg63
(lp1881
g56
(g65
g58
NtRp1882
(dp1883
g61
(dp1884
g69
I4
ssg70
Nsg63
(lp1885
g56
(g72
g58
NtRp1886
(dp1887
g61
(dp1888
sg70
g1882
sg63
(lp1889
g56
(g77
g58
NtRp1890
(dp1891
g61
(dp1892
g81
g82
ssg70
g1886
sg63
(lp1893
g833
asbag56
(g77
g58
NtRp1894
(dp1895
g61
(dp1896
g88
g89
ssg70
g1886
sg63
(lp1897
S':'
asbag56
(g77
g58
NtRp1898
(dp1899
g61
(dp1900
sg70
g1886
sg63
(lp1901
g56
(g57
g58
NtRp1902
(dp1903
g61
(dp1904
g69
I4
ssg70
g1898
sg63
(lp1905
S"set(['/home/arpita/courses/sem3/ssad/web2py/applications/admin/', '/home/arpita/courses/sem3/ssad/web2py/applications/project/', '/home/arpita/courses/sem3/ssad/web2py/applications/welcome/'])"
p1906
asbasbasbag56
(g72
g58
NtRp1907
(dp1908
g61
(dp1909
sg70
g1882
sg63
(lp1910
g56
(g77
g58
NtRp1911
(dp1912
g61
(dp1913
g81
g82
ssg70
g1907
sg63
(lp1914
g855
asbag56
(g77
g58
NtRp1915
(dp1916
g61
(dp1917
g88
g89
ssg70
g1907
sg63
(lp1918
S':'
asbag56
(g77
g58
NtRp1919
(dp1920
g61
(dp1921
sg70
g1907
sg63
(lp1922
g56
(g57
g58
NtRp1923
(dp1924
g61
(dp1925
g69
I4
ssg70
g1919
sg63
(lp1926
g868
asbasbasbag56
(g72
g58
NtRp1927
(dp1928
g61
(dp1929
sg70
g1882
sg63
(lp1930
g56
(g77
g58
NtRp1931
(dp1932
g61
(dp1933
g81
g82
ssg70
g1927
sg63
(lp1934
g877
asbag56
(g77
g58
NtRp1935
(dp1936
g61
(dp1937
g88
g89
ssg70
g1927
sg63
(lp1938
S':'
asbag56
(g77
g58
NtRp1939
(dp1940
g61
(dp1941
sg70
g1927
sg63
(lp1942
g56
(g57
g58
NtRp1943
(dp1944
g61
(dp1945
g69
I4
ssg70
g1939
sg63
(lp1946
g56
(g65
g58
NtRp1947
(dp1948
g61
(dp1949
g69
I3
ssg70
Nsg63
(lp1950
sbasbasbasbag56
(g72
g58
NtRp1951
(dp1952
g61
(dp1953
sg70
g1882
sg63
(lp1954
g56
(g77
g58
NtRp1955
(dp1956
g61
(dp1957
g81
g82
ssg70
g1951
sg63
(lp1958
g902
asbag56
(g77
g58
NtRp1959
(dp1960
g61
(dp1961
g88
g89
ssg70
g1951
sg63
(lp1962
S':'
asbag56
(g77
g58
NtRp1963
(dp1964
g61
(dp1965
sg70
g1951
sg63
(lp1966
g56
(g57
g58
NtRp1967
(dp1968
g61
(dp1969
g69
I4
ssg70
g1963
sg63
(lp1970
S"<Values at 0x928e3cc: {'verbose': False, 'ip': '127.0.0.1', 'shutdown_timeout': 5, 'taskbar': False, 'nocron': False, 'pid_filename': 'httpserver.pid', 'maxthreads': None, 'softcron': False, 'server_name': 'arpita-HP-630-Notebook-PC', 'bpython': False, 'nogui': False, 'port': 8000, 'extcron': False, 'debuglevel': 30, 'test': None, 'folder': '/home/arpita/courses/sem3/ssad/web2py', 'config': '', 'import_models': False, 'winservice': '', 'shell': None, 'run': '', 'log_filename': 'httpserver.log', 'args': [''], 'socket_timeout': 5, 'ssl_ca_certificate': None, 'scheduler': None, 'profiler_filename': None, 'ssl_private_key': '', 'password': 'arpita', 'request_queue_size': 5, 'ssl_certificate': '', 'cronjob': False, 'numthreads': None, 'quiet': False, 'interfaces': None, 'minthreads': None, 'timeout': 10, 'plain': False, 'nobanner': False}>"
p1971
asbasbasbag56
(g72
g58
NtRp1972
(dp1973
g61
(dp1974
sg70
g1882
sg63
(lp1975
g56
(g77
g58
NtRp1976
(dp1977
g61
(dp1978
g81
g82
ssg70
g1972
sg63
(lp1979
g924
asbag56
(g77
g58
NtRp1980
(dp1981
g61
(dp1982
g88
g89
ssg70
g1972
sg63
(lp1983
S':'
asbag56
(g77
g58
NtRp1984
(dp1985
g61
(dp1986
sg70
g1972
sg63
(lp1987
g56
(g57
g58
NtRp1988
(dp1989
g61
(dp1990
g69
I4
ssg70
g1984
sg63
(lp1991
S'set([])'
p1992
asbasbasbag56
(g72
g58
NtRp1993
(dp1994
g61
(dp1995
sg70
g1882
sg63
(lp1996
g56
(g77
g58
NtRp1997
(dp1998
g61
(dp1999
g81
g82
ssg70
g1993
sg63
(lp2000
g946
asbag56
(g77
g58
NtRp2001
(dp2002
g61
(dp2003
g88
g89
ssg70
g1993
sg63
(lp2004
S':'
asbag56
(g77
g58
NtRp2005
(dp2006
g61
(dp2007
sg70
g1993
sg63
(lp2008
g56
(g57
g58
NtRp2009
(dp2010
g61
(dp2011
g69
I4
ssg70
g2005
sg63
(lp2012
g99
asbasbasbag56
(g72
g58
NtRp2013
(dp2014
g61
(dp2015
sg70
g1882
sg63
(lp2016
g56
(g77
g58
NtRp2017
(dp2018
g61
(dp2019
g81
g82
ssg70
g2013
sg63
(lp2020
g967
asbag56
(g77
g58
NtRp2021
(dp2022
g61
(dp2023
g88
g89
ssg70
g2013
sg63
(lp2024
S':'
asbag56
(g77
g58
NtRp2025
(dp2026
g61
(dp2027
sg70
g2013
sg63
(lp2028
g56
(g57
g58
NtRp2029
(dp2030
g61
(dp2031
g69
I4
ssg70
g2025
sg63
(lp2032
g980
asbasbasbag56
(g72
g58
NtRp2033
(dp2034
g61
(dp2035
sg70
g1882
sg63
(lp2036
g56
(g77
g58
NtRp2037
(dp2038
g61
(dp2039
g81
g82
ssg70
g2033
sg63
(lp2040
g1187
asbag56
(g77
g58
NtRp2041
(dp2042
g61
(dp2043
g88
g89
ssg70
g2033
sg63
(lp2044
S':'
asbag56
(g77
g58
NtRp2045
(dp2046
g61
(dp2047
sg70
g2033
sg63
(lp2048
g56
(g57
g58
NtRp2049
(dp2050
g61
(dp2051
g69
I4
ssg70
g2045
sg63
(lp2052
g99
asbasbasbag56
(g72
g58
NtRp2053
(dp2054
g61
(dp2055
sg70
g1882
sg63
(lp2056
g56
(g77
g58
NtRp2057
(dp2058
g61
(dp2059
g81
g82
ssg70
g2053
sg63
(lp2060
g1208
asbag56
(g77
g58
NtRp2061
(dp2062
g61
(dp2063
g88
g89
ssg70
g2053
sg63
(lp2064
S':'
asbag56
(g77
g58
NtRp2065
(dp2066
g61
(dp2067
sg70
g2053
sg63
(lp2068
g56
(g57
g58
NtRp2069
(dp2070
g61
(dp2071
g69
I4
ssg70
g2065
sg63
(lp2072
g99
asbasbasbag56
(g72
g58
NtRp2073
(dp2074
g61
(dp2075
sg70
g1882
sg63
(lp2076
g56
(g77
g58
NtRp2077
(dp2078
g61
(dp2079
g81
g82
ssg70
g2073
sg63
(lp2080
g1446
asbag56
(g77
g58
NtRp2081
(dp2082
g61
(dp2083
g88
g89
ssg70
g2073
sg63
(lp2084
S':'
asbag56
(g77
g58
NtRp2085
(dp2086
g61
(dp2087
sg70
g2073
sg63
(lp2088
g56
(g57
g58
NtRp2089
(dp2090
g61
(dp2091
g69
I4
ssg70
g2085
sg63
(lp2092
g1459
asbasbasbag56
(g72
g58
NtRp2093
(dp2094
g61
(dp2095
sg70
g1882
sg63
(lp2096
g56
(g77
g58
NtRp2097
(dp2098
g61
(dp2099
g81
g82
ssg70
g2093
sg63
(lp2100
g1489
asbag56
(g77
g58
NtRp2101
(dp2102
g61
(dp2103
g88
g89
ssg70
g2093
sg63
(lp2104
S':'
asbag56
(g77
g58
NtRp2105
(dp2106
g61
(dp2107
sg70
g2093
sg63
(lp2108
g56
(g57
g58
NtRp2109
(dp2110
g61
(dp2111
g69
I4
ssg70
g2105
sg63
(lp2112
g56
(g65
g58
NtRp2113
(dp2114
g61
(dp2115
g69
I3
ssg70
Nsg63
(lp2116
g56
(g72
g58
NtRp2117
(dp2118
g61
(dp2119
sg70
g2113
sg63
(lp2120
g56
(g77
g58
NtRp2121
(dp2122
g61
(dp2123
sg70
g2117
sg63
(lp2124
g56
(g57
g58
NtRp2125
(dp2126
g61
(dp2127
g69
I3
ssg70
g2121
sg63
(lp2128
S'1'
asbasbasbag56
(g72
g58
NtRp2129
(dp2130
g61
(dp2131
sg70
g2113
sg63
(lp2132
g56
(g77
g58
NtRp2133
(dp2134
g61
(dp2135
sg70
g2129
sg63
(lp2136
g56
(g57
g58
NtRp2137
(dp2138
g61
(dp2139
g69
I3
ssg70
g2133
sg63
(lp2140
S'99'
p2141
asbasbasbag56
(g72
g58
NtRp2142
(dp2143
g61
(dp2144
sg70
g2113
sg63
(lp2145
g56
(g77
g58
NtRp2146
(dp2147
g61
(dp2148
sg70
g2142
sg63
(lp2149
g56
(g57
g58
NtRp2150
(dp2151
g61
(dp2152
g69
I3
ssg70
g2146
sg63
(lp2153
S'7'
asbasbasbag56
(g72
g58
NtRp2154
(dp2155
g61
(dp2156
sg70
g2113
sg63
(lp2157
g56
(g77
g58
NtRp2158
(dp2159
g61
(dp2160
sg70
g2154
sg63
(lp2161
g56
(g57
g58
NtRp2162
(dp2163
g61
(dp2164
g69
I3
ssg70
g2158
sg63
(lp2165
S'datetime.datetime(2012, 3, 4, 22, 12, 8)'
p2166
asbasbasbag56
(g72
g58
NtRp2167
(dp2168
g61
(dp2169
sg70
g2113
sg63
(lp2170
g56
(g77
g58
NtRp2171
(dp2172
g61
(dp2173
sg70
g2167
sg63
(lp2174
g56
(g57
g58
NtRp2175
(dp2176
g61
(dp2177
g69
I3
ssg70
g2171
sg63
(lp2178
g1568
asbasbasbasbasbasbasbasbasbasbasbag56
(g72
g58
NtRp2179
(dp2180
g61
(dp2181
sg70
g66
sg63
(lp2182
g56
(g77
g58
NtRp2183
(dp2184
g61
(dp2185
g81
g82
ssg70
g2179
sg63
(lp2186
S'is_https'
p2187
asbag56
(g77
g58
NtRp2188
(dp2189
g61
(dp2190
g88
g89
ssg70
g2179
sg63
(lp2191
S':'
asbag56
(g77
g58
NtRp2192
(dp2193
g61
(dp2194
sg70
g2179
sg63
(lp2195
g56
(g57
g58
NtRp2196
(dp2197
g61
(dp2198
g69
I5
ssg70
g2192
sg63
(lp2199
g99
asbasbasbag56
(g72
g58
NtRp2200
(dp2201
g61
(dp2202
sg70
g66
sg63
(lp2203
g56
(g77
g58
NtRp2204
(dp2205
g61
(dp2206
g81
g82
ssg70
g2200
sg63
(lp2207
S'is_local'
p2208
asbag56
(g77
g58
NtRp2209
(dp2210
g61
(dp2211
g88
g89
ssg70
g2200
sg63
(lp2212
S':'
asbag56
(g77
g58
NtRp2213
(dp2214
g61
(dp2215
sg70
g2200
sg63
(lp2216
g56
(g57
g58
NtRp2217
(dp2218
g61
(dp2219
g69
I5
ssg70
g2213
sg63
(lp2220
g1677
asbasbasbag56
(g72
g58
NtRp2221
(dp2222
g61
(dp2223
sg70
g66
sg63
(lp2224
g56
(g77
g58
NtRp2225
(dp2226
g61
(dp2227
g81
g82
ssg70
g2221
sg63
(lp2228
S'is_restful'
p2229
asbag56
(g77
g58
NtRp2230
(dp2231
g61
(dp2232
g88
g89
ssg70
g2221
sg63
(lp2233
S':'
asbag56
(g77
g58
NtRp2234
(dp2235
g61
(dp2236
sg70
g2221
sg63
(lp2237
g56
(g57
g58
NtRp2238
(dp2239
g61
(dp2240
g69
I5
ssg70
g2234
sg63
(lp2241
g99
asbasbasbag56
(g72
g58
NtRp2242
(dp2243
g61
(dp2244
sg70
g66
sg63
(lp2245
g56
(g77
g58
NtRp2246
(dp2247
g61
(dp2248
g81
g82
ssg70
g2242
sg63
(lp2249
S'now'
p2250
asbag56
(g77
g58
NtRp2251
(dp2252
g61
(dp2253
g88
g89
ssg70
g2242
sg63
(lp2254
S':'
asbag56
(g77
g58
NtRp2255
(dp2256
g61
(dp2257
sg70
g2242
sg63
(lp2258
g56
(g57
g58
NtRp2259
(dp2260
g61
(dp2261
g69
I5
ssg70
g2255
sg63
(lp2262
S'datetime.datetime(2012, 11, 6, 6, 17, 39, 268059)'
p2263
asbasbasbag56
(g72
g58
NtRp2264
(dp2265
g61
(dp2266
sg70
g66
sg63
(lp2267
g56
(g77
g58
NtRp2268
(dp2269
g61
(dp2270
g81
g82
ssg70
g2264
sg63
(lp2271
S'post_vars'
p2272
asbag56
(g77
g58
NtRp2273
(dp2274
g61
(dp2275
g88
g89
ssg70
g2264
sg63
(lp2276
S':'
asbag56
(g77
g58
NtRp2277
(dp2278
g61
(dp2279
sg70
g2264
sg63
(lp2280
g56
(g57
g58
NtRp2281
(dp2282
g61
(dp2283
g69
I5
ssg70
g2277
sg63
(lp2284
g56
(g65
g58
NtRp2285
(dp2286
g61
(dp2287
g69
I4
ssg70
Nsg63
(lp2288
sbasbasbasbag56
(g72
g58
NtRp2289
(dp2290
g61
(dp2291
sg70
g66
sg63
(lp2292
g56
(g77
g58
NtRp2293
(dp2294
g61
(dp2295
g81
g82
ssg70
g2289
sg63
(lp2296
S'url'
p2297
asbag56
(g77
g58
NtRp2298
(dp2299
g61
(dp2300
g88
g89
ssg70
g2289
sg63
(lp2301
S':'
asbag56
(g77
g58
NtRp2302
(dp2303
g61
(dp2304
sg70
g2289
sg63
(lp2305
g56
(g57
g58
NtRp2306
(dp2307
g61
(dp2308
g69
I5
ssg70
g2302
sg63
(lp2309
S'/project/default/kruskal'
p2310
asbasbasbag56
(g72
g58
NtRp2311
(dp2312
g61
(dp2313
sg70
g66
sg63
(lp2314
g56
(g77
g58
NtRp2315
(dp2316
g61
(dp2317
g81
g82
ssg70
g2311
sg63
(lp2318
S'utcnow'
p2319
asbag56
(g77
g58
NtRp2320
(dp2321
g61
(dp2322
g88
g89
ssg70
g2311
sg63
(lp2323
S':'
asbag56
(g77
g58
NtRp2324
(dp2325
g61
(dp2326
sg70
g2311
sg63
(lp2327
g56
(g57
g58
NtRp2328
(dp2329
g61
(dp2330
g69
I5
ssg70
g2324
sg63
(lp2331
S'datetime.datetime(2012, 11, 6, 0, 47, 39, 268082)'
p2332
asbasbasbag56
(g72
g58
NtRp2333
(dp2334
g61
(dp2335
sg70
g66
sg63
(lp2336
g56
(g77
g58
NtRp2337
(dp2338
g61
(dp2339
g81
g82
ssg70
g2333
sg63
(lp2340
S'uuid'
p2341
asbag56
(g77
g58
NtRp2342
(dp2343
g61
(dp2344
g88
g89
ssg70
g2333
sg63
(lp2345
S':'
asbag56
(g77
g58
NtRp2346
(dp2347
g61
(dp2348
sg70
g2333
sg63
(lp2349
g56
(g57
g58
NtRp2350
(dp2351
g61
(dp2352
g69
I5
ssg70
g2346
sg63
(lp2353
S'project/127.0.0.1.2012-11-06.06-17-39.a4742083-2d7a-449e-afe8-e68deb3e18d4'
p2354
asbasbasbag56
(g72
g58
NtRp2355
(dp2356
g61
(dp2357
sg70
g66
sg63
(lp2358
g56
(g77
g58
NtRp2359
(dp2360
g61
(dp2361
g81
g82
ssg70
g2355
sg63
(lp2362
S'vars'
p2363
asbag56
(g77
g58
NtRp2364
(dp2365
g61
(dp2366
g88
g89
ssg70
g2355
sg63
(lp2367
S':'
asbag56
(g77
g58
NtRp2368
(dp2369
g61
(dp2370
sg70
g2355
sg63
(lp2371
g56
(g57
g58
NtRp2372
(dp2373
g61
(dp2374
g69
I5
ssg70
g2368
sg63
(lp2375
g56
(g65
g58
NtRp2376
(dp2377
g61
(dp2378
g69
I4
ssg70
Nsg63
(lp2379
sbasbasbasbag56
(g72
g58
NtRp2380
(dp2381
g61
(dp2382
sg70
g66
sg63
(lp2383
g56
(g77
g58
NtRp2384
(dp2385
g61
(dp2386
g81
g82
ssg70
g2380
sg63
(lp2387
S'wsgi'
p2388
asbag56
(g77
g58
NtRp2389
(dp2390
g61
(dp2391
g88
g89
ssg70
g2380
sg63
(lp2392
S':'
asbag56
(g77
g58
NtRp2393
(dp2394
g61
(dp2395
sg70
g2380
sg63
(lp2396
g56
(g57
g58
NtRp2397
(dp2398
g61
(dp2399
g69
I5
ssg70
g2393
sg63
(lp2400
g56
(g65
g58
NtRp2401
(dp2402
g61
(dp2403
g69
I4
ssg70
Nsg63
(lp2404
g56
(g72
g58
NtRp2405
(dp2406
g61
(dp2407
sg70
g2401
sg63
(lp2408
g56
(g77
g58
NtRp2409
(dp2410
g61
(dp2411
g81
g82
ssg70
g2405
sg63
(lp2412
S'environ'
p2413
asbag56
(g77
g58
NtRp2414
(dp2415
g61
(dp2416
g88
g89
ssg70
g2405
sg63
(lp2417
S':'
asbag56
(g77
g58
NtRp2418
(dp2419
g61
(dp2420
sg70
g2405
sg63
(lp2421
g56
(g57
g58
NtRp2422
(dp2423
g61
(dp2424
g69
I4
ssg70
g2418
sg63
(lp2425
g56
(g65
g58
NtRp2426
(dp2427
g61
(dp2428
g69
I3
ssg70
Nsg63
(lp2429
g56
(g72
g58
NtRp2430
(dp2431
g61
(dp2432
sg70
g2426
sg63
(lp2433
g56
(g77
g58
NtRp2434
(dp2435
g61
(dp2436
g81
g82
ssg70
g2430
sg63
(lp2437
S'HTTP_ACCEPT'
p2438
asbag56
(g77
g58
NtRp2439
(dp2440
g61
(dp2441
g88
g89
ssg70
g2430
sg63
(lp2442
S':'
asbag56
(g77
g58
NtRp2443
(dp2444
g61
(dp2445
sg70
g2430
sg63
(lp2446
g56
(g57
g58
NtRp2447
(dp2448
g61
(dp2449
g69
I3
ssg70
g2443
sg63
(lp2450
g1002
asbasbasbag56
(g72
g58
NtRp2451
(dp2452
g61
(dp2453
sg70
g2426
sg63
(lp2454
g56
(g77
g58
NtRp2455
(dp2456
g61
(dp2457
g81
g82
ssg70
g2451
sg63
(lp2458
S'HTTP_ACCEPT_CHARSET'
p2459
asbag56
(g77
g58
NtRp2460
(dp2461
g61
(dp2462
g88
g89
ssg70
g2451
sg63
(lp2463
S':'
asbag56
(g77
g58
NtRp2464
(dp2465
g61
(dp2466
sg70
g2451
sg63
(lp2467
g56
(g57
g58
NtRp2468
(dp2469
g61
(dp2470
g69
I3
ssg70
g2464
sg63
(lp2471
g1024
asbasbasbag56
(g72
g58
NtRp2472
(dp2473
g61
(dp2474
sg70
g2426
sg63
(lp2475
g56
(g77
g58
NtRp2476
(dp2477
g61
(dp2478
g81
g82
ssg70
g2472
sg63
(lp2479
S'HTTP_ACCEPT_ENCODING'
p2480
asbag56
(g77
g58
NtRp2481
(dp2482
g61
(dp2483
g88
g89
ssg70
g2472
sg63
(lp2484
S':'
asbag56
(g77
g58
NtRp2485
(dp2486
g61
(dp2487
sg70
g2472
sg63
(lp2488
g56
(g57
g58
NtRp2489
(dp2490
g61
(dp2491
g69
I3
ssg70
g2485
sg63
(lp2492
g1046
asbasbasbag56
(g72
g58
NtRp2493
(dp2494
g61
(dp2495
sg70
g2426
sg63
(lp2496
g56
(g77
g58
NtRp2497
(dp2498
g61
(dp2499
g81
g82
ssg70
g2493
sg63
(lp2500
S'HTTP_ACCEPT_LANGUAGE'
p2501
asbag56
(g77
g58
NtRp2502
(dp2503
g61
(dp2504
g88
g89
ssg70
g2493
sg63
(lp2505
S':'
asbag56
(g77
g58
NtRp2506
(dp2507
g61
(dp2508
sg70
g2493
sg63
(lp2509
g56
(g57
g58
NtRp2510
(dp2511
g61
(dp2512
g69
I3
ssg70
g2506
sg63
(lp2513
g1068
asbasbasbag56
(g72
g58
NtRp2514
(dp2515
g61
(dp2516
sg70
g2426
sg63
(lp2517
g56
(g77
g58
NtRp2518
(dp2519
g61
(dp2520
g81
g82
ssg70
g2514
sg63
(lp2521
S'HTTP_CONNECTION'
p2522
asbag56
(g77
g58
NtRp2523
(dp2524
g61
(dp2525
g88
g89
ssg70
g2514
sg63
(lp2526
S':'
asbag56
(g77
g58
NtRp2527
(dp2528
g61
(dp2529
sg70
g2514
sg63
(lp2530
g56
(g57
g58
NtRp2531
(dp2532
g61
(dp2533
g69
I3
ssg70
g2527
sg63
(lp2534
g1090
asbasbasbag56
(g72
g58
NtRp2535
(dp2536
g61
(dp2537
sg70
g2426
sg63
(lp2538
g56
(g77
g58
NtRp2539
(dp2540
g61
(dp2541
g81
g82
ssg70
g2535
sg63
(lp2542
S'HTTP_COOKIE'
p2543
asbag56
(g77
g58
NtRp2544
(dp2545
g61
(dp2546
g88
g89
ssg70
g2535
sg63
(lp2547
S':'
asbag56
(g77
g58
NtRp2548
(dp2549
g61
(dp2550
sg70
g2535
sg63
(lp2551
g56
(g57
g58
NtRp2552
(dp2553
g61
(dp2554
g69
I3
ssg70
g2548
sg63
(lp2555
g1112
asbasbasbag56
(g72
g58
NtRp2556
(dp2557
g61
(dp2558
sg70
g2426
sg63
(lp2559
g56
(g77
g58
NtRp2560
(dp2561
g61
(dp2562
g81
g82
ssg70
g2556
sg63
(lp2563
S'HTTP_HOST'
p2564
asbag56
(g77
g58
NtRp2565
(dp2566
g61
(dp2567
g88
g89
ssg70
g2556
sg63
(lp2568
S':'
asbag56
(g77
g58
NtRp2569
(dp2570
g61
(dp2571
sg70
g2556
sg63
(lp2572
g56
(g57
g58
NtRp2573
(dp2574
g61
(dp2575
g69
I3
ssg70
g2569
sg63
(lp2576
g1134
asbasbasbag56
(g72
g58
NtRp2577
(dp2578
g61
(dp2579
sg70
g2426
sg63
(lp2580
g56
(g77
g58
NtRp2581
(dp2582
g61
(dp2583
g81
g82
ssg70
g2577
sg63
(lp2584
S'HTTP_REFERER'
p2585
asbag56
(g77
g58
NtRp2586
(dp2587
g61
(dp2588
g88
g89
ssg70
g2577
sg63
(lp2589
S':'
asbag56
(g77
g58
NtRp2590
(dp2591
g61
(dp2592
sg70
g2577
sg63
(lp2593
g56
(g57
g58
NtRp2594
(dp2595
g61
(dp2596
g69
I3
ssg70
g2590
sg63
(lp2597
g1156
asbasbasbag56
(g72
g58
NtRp2598
(dp2599
g61
(dp2600
sg70
g2426
sg63
(lp2601
g56
(g77
g58
NtRp2602
(dp2603
g61
(dp2604
g81
g82
ssg70
g2598
sg63
(lp2605
S'HTTP_USER_AGENT'
p2606
asbag56
(g77
g58
NtRp2607
(dp2608
g61
(dp2609
g88
g89
ssg70
g2598
sg63
(lp2610
S':'
asbag56
(g77
g58
NtRp2611
(dp2612
g61
(dp2613
sg70
g2598
sg63
(lp2614
g56
(g57
g58
NtRp2615
(dp2616
g61
(dp2617
g69
I3
ssg70
g2611
sg63
(lp2618
g1178
asbasbasbag56
(g72
g58
NtRp2619
(dp2620
g61
(dp2621
sg70
g2426
sg63
(lp2622
g56
(g77
g58
NtRp2623
(dp2624
g61
(dp2625
g81
g82
ssg70
g2619
sg63
(lp2626
S'PATH_INFO'
p2627
asbag56
(g77
g58
NtRp2628
(dp2629
g61
(dp2630
g88
g89
ssg70
g2619
sg63
(lp2631
S':'
asbag56
(g77
g58
NtRp2632
(dp2633
g61
(dp2634
sg70
g2619
sg63
(lp2635
g56
(g57
g58
NtRp2636
(dp2637
g61
(dp2638
g69
I3
ssg70
g2632
sg63
(lp2639
g1242
asbasbasbag56
(g72
g58
NtRp2640
(dp2641
g61
(dp2642
sg70
g2426
sg63
(lp2643
g56
(g77
g58
NtRp2644
(dp2645
g61
(dp2646
g81
g82
ssg70
g2640
sg63
(lp2647
S'QUERY_STRING'
p2648
asbag56
(g77
g58
NtRp2649
(dp2650
g61
(dp2651
g88
g89
ssg70
g2640
sg63
(lp2652
S':'
asbag56
(g77
g58
NtRp2653
(dp2654
g61
(dp2655
sg70
g2640
sg63
(lp2656
g56
(g57
g58
NtRp2657
(dp2658
g61
(dp2659
g69
I3
ssg70
g2653
sg63
(lp2660
S''
asbasbasbag56
(g72
g58
NtRp2661
(dp2662
g61
(dp2663
sg70
g2426
sg63
(lp2664
g56
(g77
g58
NtRp2665
(dp2666
g61
(dp2667
g81
g82
ssg70
g2661
sg63
(lp2668
S'REMOTE_ADDR'
p2669
asbag56
(g77
g58
NtRp2670
(dp2671
g61
(dp2672
g88
g89
ssg70
g2661
sg63
(lp2673
S':'
asbag56
(g77
g58
NtRp2674
(dp2675
g61
(dp2676
sg70
g2661
sg63
(lp2677
g56
(g57
g58
NtRp2678
(dp2679
g61
(dp2680
g69
I3
ssg70
g2674
sg63
(lp2681
g189
asbasbasbag56
(g72
g58
NtRp2682
(dp2683
g61
(dp2684
sg70
g2426
sg63
(lp2685
g56
(g77
g58
NtRp2686
(dp2687
g61
(dp2688
g81
g82
ssg70
g2682
sg63
(lp2689
S'REMOTE_PORT'
p2690
asbag56
(g77
g58
NtRp2691
(dp2692
g61
(dp2693
g88
g89
ssg70
g2682
sg63
(lp2694
S':'
asbag56
(g77
g58
NtRp2695
(dp2696
g61
(dp2697
sg70
g2682
sg63
(lp2698
g56
(g57
g58
NtRp2699
(dp2700
g61
(dp2701
g69
I3
ssg70
g2695
sg63
(lp2702
g1306
asbasbasbag56
(g72
g58
NtRp2703
(dp2704
g61
(dp2705
sg70
g2426
sg63
(lp2706
g56
(g77
g58
NtRp2707
(dp2708
g61
(dp2709
g81
g82
ssg70
g2703
sg63
(lp2710
S'REQUEST_METHOD'
p2711
asbag56
(g77
g58
NtRp2712
(dp2713
g61
(dp2714
g88
g89
ssg70
g2703
sg63
(lp2715
S':'
asbag56
(g77
g58
NtRp2716
(dp2717
g61
(dp2718
sg70
g2703
sg63
(lp2719
g56
(g57
g58
NtRp2720
(dp2721
g61
(dp2722
g69
I3
ssg70
g2716
sg63
(lp2723
g1328
asbasbasbag56
(g72
g58
NtRp2724
(dp2725
g61
(dp2726
sg70
g2426
sg63
(lp2727
g56
(g77
g58
NtRp2728
(dp2729
g61
(dp2730
g81
g82
ssg70
g2724
sg63
(lp2731
S'SCRIPT_NAME'
p2732
asbag56
(g77
g58
NtRp2733
(dp2734
g61
(dp2735
g88
g89
ssg70
g2724
sg63
(lp2736
S':'
asbag56
(g77
g58
NtRp2737
(dp2738
g61
(dp2739
sg70
g2724
sg63
(lp2740
g56
(g57
g58
NtRp2741
(dp2742
g61
(dp2743
g69
I3
ssg70
g2737
sg63
(lp2744
S''
asbasbasbag56
(g72
g58
NtRp2745
(dp2746
g61
(dp2747
sg70
g2426
sg63
(lp2748
g56
(g77
g58
NtRp2749
(dp2750
g61
(dp2751
g81
g82
ssg70
g2745
sg63
(lp2752
S'SERVER_NAME'
p2753
asbag56
(g77
g58
NtRp2754
(dp2755
g61
(dp2756
g88
g89
ssg70
g2745
sg63
(lp2757
S':'
asbag56
(g77
g58
NtRp2758
(dp2759
g61
(dp2760
sg70
g2745
sg63
(lp2761
g56
(g57
g58
NtRp2762
(dp2763
g61
(dp2764
g69
I3
ssg70
g2758
sg63
(lp2765
g1371
asbasbasbag56
(g72
g58
NtRp2766
(dp2767
g61
(dp2768
sg70
g2426
sg63
(lp2769
g56
(g77
g58
NtRp2770
(dp2771
g61
(dp2772
g81
g82
ssg70
g2766
sg63
(lp2773
S'SERVER_PORT'
p2774
asbag56
(g77
g58
NtRp2775
(dp2776
g61
(dp2777
g88
g89
ssg70
g2766
sg63
(lp2778
S':'
asbag56
(g77
g58
NtRp2779
(dp2780
g61
(dp2781
sg70
g2766
sg63
(lp2782
g56
(g57
g58
NtRp2783
(dp2784
g61
(dp2785
g69
I3
ssg70
g2779
sg63
(lp2786
g1393
asbasbasbag56
(g72
g58
NtRp2787
(dp2788
g61
(dp2789
sg70
g2426
sg63
(lp2790
g56
(g77
g58
NtRp2791
(dp2792
g61
(dp2793
g81
g82
ssg70
g2787
sg63
(lp2794
S'SERVER_PROTOCOL'
p2795
asbag56
(g77
g58
NtRp2796
(dp2797
g61
(dp2798
g88
g89
ssg70
g2787
sg63
(lp2799
S':'
asbag56
(g77
g58
NtRp2800
(dp2801
g61
(dp2802
sg70
g2787
sg63
(lp2803
g56
(g57
g58
NtRp2804
(dp2805
g61
(dp2806
g69
I3
ssg70
g2800
sg63
(lp2807
g1415
asbasbasbag56
(g72
g58
NtRp2808
(dp2809
g61
(dp2810
sg70
g2426
sg63
(lp2811
g56
(g77
g58
NtRp2812
(dp2813
g61
(dp2814
g81
g82
ssg70
g2808
sg63
(lp2815
S'SERVER_SOFTWARE'
p2816
asbag56
(g77
g58
NtRp2817
(dp2818
g61
(dp2819
g88
g89
ssg70
g2808
sg63
(lp2820
S':'
asbag56
(g77
g58
NtRp2821
(dp2822
g61
(dp2823
sg70
g2808
sg63
(lp2824
g56
(g57
g58
NtRp2825
(dp2826
g61
(dp2827
g69
I3
ssg70
g2821
sg63
(lp2828
g1437
asbasbasbag56
(g72
g58
NtRp2829
(dp2830
g61
(dp2831
sg70
g2426
sg63
(lp2832
g56
(g77
g58
NtRp2833
(dp2834
g61
(dp2835
g81
g82
ssg70
g2829
sg63
(lp2836
S'wsgi.errors'
p2837
asbag56
(g77
g58
NtRp2838
(dp2839
g61
(dp2840
g88
g89
ssg70
g2829
sg63
(lp2841
S':'
asbag56
(g77
g58
NtRp2842
(dp2843
g61
(dp2844
sg70
g2829
sg63
(lp2845
g56
(g57
g58
NtRp2846
(dp2847
g61
(dp2848
g69
I3
ssg70
g2842
sg63
(lp2849
S"<open file '<stderr>', mode 'w' at 0xb74190d0>"
p2850
asbasbasbag56
(g72
g58
NtRp2851
(dp2852
g61
(dp2853
sg70
g2426
sg63
(lp2854
g56
(g77
g58
NtRp2855
(dp2856
g61
(dp2857
g81
g82
ssg70
g2851
sg63
(lp2858
S'wsgi.file_wrapper'
p2859
asbag56
(g77
g58
NtRp2860
(dp2861
g61
(dp2862
g88
g89
ssg70
g2851
sg63
(lp2863
S':'
asbag56
(g77
g58
NtRp2864
(dp2865
g61
(dp2866
sg70
g2851
sg63
(lp2867
g56
(g57
g58
NtRp2868
(dp2869
g61
(dp2870
g69
I3
ssg70
g2864
sg63
(lp2871
S'<class wsgiref.util.FileWrapper at 0x9231f5c>'
p2872
asbasbasbag56
(g72
g58
NtRp2873
(dp2874
g61
(dp2875
sg70
g2426
sg63
(lp2876
g56
(g77
g58
NtRp2877
(dp2878
g61
(dp2879
g81
g82
ssg70
g2873
sg63
(lp2880
S'wsgi.input'
p2881
asbag56
(g77
g58
NtRp2882
(dp2883
g61
(dp2884
g88
g89
ssg70
g2873
sg63
(lp2885
S':'
asbag56
(g77
g58
NtRp2886
(dp2887
g61
(dp2888
sg70
g2873
sg63
(lp2889
g56
(g57
g58
NtRp2890
(dp2891
g61
(dp2892
g69
I3
ssg70
g2886
sg63
(lp2893
S'<cStringIO.StringO object at 0x9de6240>'
p2894
asbasbasbag56
(g72
g58
NtRp2895
(dp2896
g61
(dp2897
sg70
g2426
sg63
(lp2898
g56
(g77
g58
NtRp2899
(dp2900
g61
(dp2901
g81
g82
ssg70
g2895
sg63
(lp2902
S'wsgi.multiprocess'
p2903
asbag56
(g77
g58
NtRp2904
(dp2905
g61
(dp2906
g88
g89
ssg70
g2895
sg63
(lp2907
S':'
asbag56
(g77
g58
NtRp2908
(dp2909
g61
(dp2910
sg70
g2895
sg63
(lp2911
g56
(g57
g58
NtRp2912
(dp2913
g61
(dp2914
g69
I3
ssg70
g2908
sg63
(lp2915
g99
asbasbasbag56
(g72
g58
NtRp2916
(dp2917
g61
(dp2918
sg70
g2426
sg63
(lp2919
g56
(g77
g58
NtRp2920
(dp2921
g61
(dp2922
g81
g82
ssg70
g2916
sg63
(lp2923
S'wsgi.multithread'
p2924
asbag56
(g77
g58
NtRp2925
(dp2926
g61
(dp2927
g88
g89
ssg70
g2916
sg63
(lp2928
S':'
asbag56
(g77
g58
NtRp2929
(dp2930
g61
(dp2931
sg70
g2916
sg63
(lp2932
g56
(g57
g58
NtRp2933
(dp2934
g61
(dp2935
g69
I3
ssg70
g2929
sg63
(lp2936
g1677
asbasbasbag56
(g72
g58
NtRp2937
(dp2938
g61
(dp2939
sg70
g2426
sg63
(lp2940
g56
(g77
g58
NtRp2941
(dp2942
g61
(dp2943
g81
g82
ssg70
g2937
sg63
(lp2944
S'wsgi.run_once'
p2945
asbag56
(g77
g58
NtRp2946
(dp2947
g61
(dp2948
g88
g89
ssg70
g2937
sg63
(lp2949
S':'
asbag56
(g77
g58
NtRp2950
(dp2951
g61
(dp2952
sg70
g2937
sg63
(lp2953
g56
(g57
g58
NtRp2954
(dp2955
g61
(dp2956
g69
I3
ssg70
g2950
sg63
(lp2957
g99
asbasbasbag56
(g72
g58
NtRp2958
(dp2959
g61
(dp2960
sg70
g2426
sg63
(lp2961
g56
(g77
g58
NtRp2962
(dp2963
g61
(dp2964
g81
g82
ssg70
g2958
sg63
(lp2965
S'wsgi.url_scheme'
p2966
asbag56
(g77
g58
NtRp2967
(dp2968
g61
(dp2969
g88
g89
ssg70
g2958
sg63
(lp2970
S':'
asbag56
(g77
g58
NtRp2971
(dp2972
g61
(dp2973
sg70
g2958
sg63
(lp2974
g56
(g57
g58
NtRp2975
(dp2976
g61
(dp2977
g69
I3
ssg70
g2971
sg63
(lp2978
g1720
asbasbasbag56
(g72
g58
NtRp2979
(dp2980
g61
(dp2981
sg70
g2426
sg63
(lp2982
g56
(g77
g58
NtRp2983
(dp2984
g61
(dp2985
g81
g82
ssg70
g2979
sg63
(lp2986
S'wsgi.version'
p2987
asbag56
(g77
g58
NtRp2988
(dp2989
g61
(dp2990
g88
g89
ssg70
g2979
sg63
(lp2991
S':'
asbag56
(g77
g58
NtRp2992
(dp2993
g61
(dp2994
sg70
g2979
sg63
(lp2995
g56
(g57
g58
NtRp2996
(dp2997
g61
(dp2998
g69
I3
ssg70
g2992
sg63
(lp2999
S'1'
asbasbasbasbasbasbasbasbasbasbasbasbasbsS'frames'
p3000
(lp3001
(dp3002
S'file'
p3003
S'/home/arpita/courses/sem3/ssad/web2py/gluon/restricted.py'
p3004
sS'dump'
p3005
(dp3006
S'environment'
p3007
S"{'A': <class 'gluon.html.A'>, 'Auth': <class 'gluon.tools.Auth'>, 'B': <class 'gluon.html.B'>, 'BEAUTIFY': <class 'gluon.html.BEAUTIFY'>, 'BODY': <class 'gluon.html.BODY'>, 'BR': <class 'gluon.html.BR'>, 'BUTTON': <class 'gluon.html.BUTTON'>, 'CAT': <class 'gluon.html.CAT'>, 'CENTER': <class 'gluon.html.CENTER'>, 'CLEANUP': <class 'gluon.validators.CLEANUP'>, ...}"
p3008
sS'ccode'
p3009
S'<code object <module> at 0x98b79b0, file "/home/...cations/project/controllers/default.py", line 11>'
p3010
ssS'lnum'
p3011
I205
sS'lines'
p3012
(dp3013
I200
S'    try:'
p3014
sI201
S'        if type(code) == types.CodeType:'
p3015
sI202
S'            ccode = code'
p3016
sI203
S'        else:'
p3017
sI204
S'            ccode = compile2(code,layer)'
p3018
sI205
S'        exec ccode in environment'
p3019
sI206
S'    except HTTP:'
p3020
sI207
S'        raise'
p3021
sI208
S'    except RestrictedError:'
p3022
sI209
S'        # do not encapsulate (obfuscate) the original RestrictedError'
p3023
ssS'call'
p3024
S"(code='# -*- coding: utf-8 -*-\\n# this file is released ...p,q=q)\\n\\nresponse._vars=response._caller(kruskal)\\n', environment={'A': <class 'gluon.html.A'>, 'Auth': <class 'gluon.tools.Auth'>, 'B': <class 'gluon.html.B'>, 'BEAUTIFY': <class 'gluon.html.BEAUTIFY'>, 'BODY': <class 'gluon.html.BODY'>, 'BR': <class 'gluon.html.BR'>, 'BUTTON': <class 'gluon.html.BUTTON'>, 'CAT': <class 'gluon.html.CAT'>, 'CENTER': <class 'gluon.html.CENTER'>, 'CLEANUP': <class 'gluon.validators.CLEANUP'>, ...}, layer='/home/arpita/courses/sem3/ssad/web2py/applications/project/controllers/default.py')"
p3025
sS'func'
p3026
S'restricted'
p3027
sa(dp3028
g3003
S'/home/arpita/courses/sem3/ssad/web2py/applications/project/controllers/default.py'
p3029
sg3005
(dp3030
sg3011
I149
sg3012
(dp3031
I138
S'   # for i in xrange(counts+1):'
p3032
sI139
S''
sI140
S"    #    file = open('applications/project/controllers/myfile.txt','a')"
p3033
sI141
S'    for j in xrange(k+1):'
p3034
sI142
S"             file = open('applications/project/controllers/myfile.txt','a')"
p3035
sI143
S'             if p[j]==1:'
p3036
sI144
S"                file.write('hello')"
p3037
sI145
S"                #file.write('children=q[j]')"
p3038
sI146
S'                file.close()'
p3039
sI147
S'    return dict(p=p,q=q)'
p3040
ssg3024
S'()'
p3041
sg3026
S'<module>'
p3042
sa(dp3043
g3003
S'/home/arpita/courses/sem3/ssad/web2py/gluon/globals.py'
p3044
sg3005
(dp3045
S'self'
p3046
S'undefined'
p3047
sS'f'
S'<function kruskal>'
p3048
ssg3011
I173
sg3012
(dp3049
I168
S'        self.menu = []             # used by the default view layout'
p3050
sI169
S'        self.files = []            # used by web2py_ajax.html'
p3051
sI170
S'        self.generic_patterns = [] # patterns to allow generic views'
p3052
sI171
S"        self.delimiters = ('{{','}}')"
p3053
sI172
S'        self._vars = None'
p3054
sI173
S'        self._caller = lambda f: f()'
p3055
sI174
S'        self._view_environment = None'
p3056
sI175
S'        self._custom_commit = None'
p3057
sI176
S'        self._custom_rollback = None'
p3058
sI177
S''
ssg3024
S'(f=<function kruskal>)'
p3059
sg3026
S'<lambda>'
p3060
sa(dp3061
g3003
S'/home/arpita/courses/sem3/ssad/web2py/applications/project/controllers/default.py'
p3062
sg3005
(dp3063
S'j'
S'8'
sS'global p'
p3064
S'{0: 1, 1: 1, 2: 1, 3: 1, 4: 2, 5: 4, 6: 5, 7: 7}'
p3065
ssg3011
I143
sg3012
(dp3066
I138
S'   # for i in xrange(counts+1):'
p3067
sI139
S''
sI140
S"    #    file = open('applications/project/controllers/myfile.txt','a')"
p3068
sI141
S'    for j in xrange(k+1):'
p3069
sI142
S"             file = open('applications/project/controllers/myfile.txt','a')"
p3070
sI143
S'             if p[j]==1:'
p3071
sI144
S"                file.write('hello')"
p3072
sI145
S"                #file.write('children=q[j]')"
p3073
sI146
S'                file.close()'
p3074
sI147
S'    return dict(p=p,q=q)'
p3075
ssg3024
S'()'
p3076
sg3026
S'kruskal'
p3077
sasS'pyver'
p3078
S'Python 2.7.2+: /usr/bin/python'
p3079
sS'session'
p3080
g56
(g57
g58
NtRp3081
(dp3082
g61
(dp3083
sg63
(lp3084
g56
(g65
g58
NtRp3085
(dp3086
g61
(dp3087
g69
I5
ssg70
Nsg63
(lp3088
g56
(g72
g58
NtRp3089
(dp3090
g61
(dp3091
sg70
g3085
sg63
(lp3092
g56
(g77
g58
NtRp3093
(dp3094
g61
(dp3095
g81
g82
ssg70
g3089
sg63
(lp3096
S'auth'
p3097
asbag56
(g77
g58
NtRp3098
(dp3099
g61
(dp3100
g88
g89
ssg70
g3089
sg63
(lp3101
S':'
asbag56
(g77
g58
NtRp3102
(dp3103
g61
(dp3104
sg70
g3089
sg63
(lp3105
g56
(g57
g58
NtRp3106
(dp3107
g61
(dp3108
g69
I5
ssg70
g3102
sg63
(lp3109
g56
(g65
g58
NtRp3110
(dp3111
g61
(dp3112
g69
I4
ssg70
Nsg63
(lp3113
g56
(g72
g58
NtRp3114
(dp3115
g61
(dp3116
sg70
g3110
sg63
(lp3117
g56
(g77
g58
NtRp3118
(dp3119
g61
(dp3120
g81
g82
ssg70
g3114
sg63
(lp3121
S'expiration'
p3122
asbag56
(g77
g58
NtRp3123
(dp3124
g61
(dp3125
g88
g89
ssg70
g3114
sg63
(lp3126
S':'
asbag56
(g77
g58
NtRp3127
(dp3128
g61
(dp3129
sg70
g3114
sg63
(lp3130
g56
(g57
g58
NtRp3131
(dp3132
g61
(dp3133
g69
I4
ssg70
g3127
sg63
(lp3134
S'3600'
p3135
asbasbasbag56
(g72
g58
NtRp3136
(dp3137
g61
(dp3138
sg70
g3110
sg63
(lp3139
g56
(g77
g58
NtRp3140
(dp3141
g61
(dp3142
g81
g82
ssg70
g3136
sg63
(lp3143
S'hmac_key'
p3144
asbag56
(g77
g58
NtRp3145
(dp3146
g61
(dp3147
g88
g89
ssg70
g3136
sg63
(lp3148
S':'
asbag56
(g77
g58
NtRp3149
(dp3150
g61
(dp3151
sg70
g3136
sg63
(lp3152
g56
(g57
g58
NtRp3153
(dp3154
g61
(dp3155
g69
I4
ssg70
g3149
sg63
(lp3156
S'ee259152-1826-4e17-9658-bb6e34efdeea'
p3157
asbasbasbag56
(g72
g58
NtRp3158
(dp3159
g61
(dp3160
sg70
g3110
sg63
(lp3161
g56
(g77
g58
NtRp3162
(dp3163
g61
(dp3164
g81
g82
ssg70
g3158
sg63
(lp3165
S'last_visit'
p3166
asbag56
(g77
g58
NtRp3167
(dp3168
g61
(dp3169
g88
g89
ssg70
g3158
sg63
(lp3170
S':'
asbag56
(g77
g58
NtRp3171
(dp3172
g61
(dp3173
sg70
g3158
sg63
(lp3174
g56
(g57
g58
NtRp3175
(dp3176
g61
(dp3177
g69
I4
ssg70
g3171
sg63
(lp3178
S'datetime.datetime(2012, 11, 6, 6, 16, 45, 955272)'
p3179
asbasbasbag56
(g72
g58
NtRp3180
(dp3181
g61
(dp3182
sg70
g3110
sg63
(lp3183
g56
(g77
g58
NtRp3184
(dp3185
g61
(dp3186
g81
g82
ssg70
g3180
sg63
(lp3187
S'remember'
p3188
asbag56
(g77
g58
NtRp3189
(dp3190
g61
(dp3191
g88
g89
ssg70
g3180
sg63
(lp3192
S':'
asbag56
(g77
g58
NtRp3193
(dp3194
g61
(dp3195
sg70
g3180
sg63
(lp3196
g56
(g57
g58
NtRp3197
(dp3198
g61
(dp3199
g69
I4
ssg70
g3193
sg63
(lp3200
g99
asbasbasbag56
(g72
g58
NtRp3201
(dp3202
g61
(dp3203
sg70
g3110
sg63
(lp3204
g56
(g77
g58
NtRp3205
(dp3206
g61
(dp3207
g81
g82
ssg70
g3201
sg63
(lp3208
S'user'
p3209
asbag56
(g77
g58
NtRp3210
(dp3211
g61
(dp3212
g88
g89
ssg70
g3201
sg63
(lp3213
S':'
asbag56
(g77
g58
NtRp3214
(dp3215
g61
(dp3216
sg70
g3201
sg63
(lp3217
g56
(g57
g58
NtRp3218
(dp3219
g61
(dp3220
g69
I4
ssg70
g3214
sg63
(lp3221
g56
(g65
g58
NtRp3222
(dp3223
g61
(dp3224
g69
I3
ssg70
Nsg63
(lp3225
g56
(g72
g58
NtRp3226
(dp3227
g61
(dp3228
sg70
g3222
sg63
(lp3229
g56
(g77
g58
NtRp3230
(dp3231
g61
(dp3232
g81
g82
ssg70
g3226
sg63
(lp3233
S'email'
p3234
asbag56
(g77
g58
NtRp3235
(dp3236
g61
(dp3237
g88
g89
ssg70
g3226
sg63
(lp3238
S':'
asbag56
(g77
g58
NtRp3239
(dp3240
g61
(dp3241
sg70
g3226
sg63
(lp3242
g56
(g57
g58
NtRp3243
(dp3244
g61
(dp3245
g69
I3
ssg70
g3239
sg63
(lp3246
S'rammurthy@faculty.iiit.ac.in'
p3247
asbasbasbag56
(g72
g58
NtRp3248
(dp3249
g61
(dp3250
sg70
g3222
sg63
(lp3251
g56
(g77
g58
NtRp3252
(dp3253
g61
(dp3254
g81
g82
ssg70
g3248
sg63
(lp3255
S'first_name'
p3256
asbag56
(g77
g58
NtRp3257
(dp3258
g61
(dp3259
g88
g89
ssg70
g3248
sg63
(lp3260
S':'
asbag56
(g77
g58
NtRp3261
(dp3262
g61
(dp3263
sg70
g3248
sg63
(lp3264
g56
(g57
g58
NtRp3265
(dp3266
g61
(dp3267
g69
I3
ssg70
g3261
sg63
(lp3268
S'rammurthy'
p3269
asbasbasbag56
(g72
g58
NtRp3270
(dp3271
g61
(dp3272
sg70
g3222
sg63
(lp3273
g56
(g77
g58
NtRp3274
(dp3275
g61
(dp3276
g81
g82
ssg70
g3270
sg63
(lp3277
S'id'
p3278
asbag56
(g77
g58
NtRp3279
(dp3280
g61
(dp3281
g88
g89
ssg70
g3270
sg63
(lp3282
S':'
asbag56
(g77
g58
NtRp3283
(dp3284
g61
(dp3285
sg70
g3270
sg63
(lp3286
g56
(g57
g58
NtRp3287
(dp3288
g61
(dp3289
g69
I3
ssg70
g3283
sg63
(lp3290
S'1'
asbasbasbag56
(g72
g58
NtRp3291
(dp3292
g61
(dp3293
sg70
g3222
sg63
(lp3294
g56
(g77
g58
NtRp3295
(dp3296
g61
(dp3297
g81
g82
ssg70
g3291
sg63
(lp3298
S'last_name'
p3299
asbag56
(g77
g58
NtRp3300
(dp3301
g61
(dp3302
g88
g89
ssg70
g3291
sg63
(lp3303
S':'
asbag56
(g77
g58
NtRp3304
(dp3305
g61
(dp3306
sg70
g3291
sg63
(lp3307
g56
(g57
g58
NtRp3308
(dp3309
g61
(dp3310
g69
I3
ssg70
g3304
sg63
(lp3311
S'sir'
p3312
asbasbasbag56
(g72
g58
NtRp3313
(dp3314
g61
(dp3315
sg70
g3222
sg63
(lp3316
g56
(g77
g58
NtRp3317
(dp3318
g61
(dp3319
g81
g82
ssg70
g3313
sg63
(lp3320
S'password'
p3321
asbag56
(g77
g58
NtRp3322
(dp3323
g61
(dp3324
g88
g89
ssg70
g3313
sg63
(lp3325
S':'
asbag56
(g77
g58
NtRp3326
(dp3327
g61
(dp3328
sg70
g3313
sg63
(lp3329
g56
(g57
g58
NtRp3330
(dp3331
g61
(dp3332
g69
I3
ssg70
g3326
sg63
(lp3333
S'9da56e6636f0f89c2a2b7b54a400c423'
p3334
asbasbasbag56
(g72
g58
NtRp3335
(dp3336
g61
(dp3337
sg70
g3222
sg63
(lp3338
g56
(g77
g58
NtRp3339
(dp3340
g61
(dp3341
g81
g82
ssg70
g3335
sg63
(lp3342
S'registration_id'
p3343
asbag56
(g77
g58
NtRp3344
(dp3345
g61
(dp3346
g88
g89
ssg70
g3335
sg63
(lp3347
S':'
asbag56
(g77
g58
NtRp3348
(dp3349
g61
(dp3350
sg70
g3335
sg63
(lp3351
g56
(g57
g58
NtRp3352
(dp3353
g61
(dp3354
g69
I3
ssg70
g3348
sg63
(lp3355
S''
asbasbasbag56
(g72
g58
NtRp3356
(dp3357
g61
(dp3358
sg70
g3222
sg63
(lp3359
g56
(g77
g58
NtRp3360
(dp3361
g61
(dp3362
g81
g82
ssg70
g3356
sg63
(lp3363
S'registration_key'
p3364
asbag56
(g77
g58
NtRp3365
(dp3366
g61
(dp3367
g88
g89
ssg70
g3356
sg63
(lp3368
S':'
asbag56
(g77
g58
NtRp3369
(dp3370
g61
(dp3371
sg70
g3356
sg63
(lp3372
g56
(g57
g58
NtRp3373
(dp3374
g61
(dp3375
g69
I3
ssg70
g3369
sg63
(lp3376
S''
asbasbasbag56
(g72
g58
NtRp3377
(dp3378
g61
(dp3379
sg70
g3222
sg63
(lp3380
g56
(g77
g58
NtRp3381
(dp3382
g61
(dp3383
g81
g82
ssg70
g3377
sg63
(lp3384
S'reset_password_key'
p3385
asbag56
(g77
g58
NtRp3386
(dp3387
g61
(dp3388
g88
g89
ssg70
g3377
sg63
(lp3389
S':'
asbag56
(g77
g58
NtRp3390
(dp3391
g61
(dp3392
sg70
g3377
sg63
(lp3393
g56
(g57
g58
NtRp3394
(dp3395
g61
(dp3396
g69
I3
ssg70
g3390
sg63
(lp3397
S''
asbasbasbasbasbasbasbag56
(g72
g58
NtRp3398
(dp3399
g61
(dp3400
sg70
g3110
sg63
(lp3401
g56
(g77
g58
NtRp3402
(dp3403
g61
(dp3404
g81
g82
ssg70
g3398
sg63
(lp3405
S'user_groups'
p3406
asbag56
(g77
g58
NtRp3407
(dp3408
g61
(dp3409
g88
g89
ssg70
g3398
sg63
(lp3410
S':'
asbag56
(g77
g58
NtRp3411
(dp3412
g61
(dp3413
sg70
g3398
sg63
(lp3414
g56
(g57
g58
NtRp3415
(dp3416
g61
(dp3417
g69
I4
ssg70
g3411
sg63
(lp3418
g56
(g65
g58
NtRp3419
(dp3420
g61
(dp3421
g69
I3
ssg70
Nsg63
(lp3422
g56
(g72
g58
NtRp3423
(dp3424
g61
(dp3425
sg70
g3419
sg63
(lp3426
g56
(g77
g58
NtRp3427
(dp3428
g61
(dp3429
g81
g82
ssg70
g3423
sg63
(lp3430
S'1'
asbag56
(g77
g58
NtRp3431
(dp3432
g61
(dp3433
g88
g89
ssg70
g3423
sg63
(lp3434
S':'
asbag56
(g77
g58
NtRp3435
(dp3436
g61
(dp3437
sg70
g3423
sg63
(lp3438
g56
(g57
g58
NtRp3439
(dp3440
g61
(dp3441
g69
I3
ssg70
g3435
sg63
(lp3442
S'user_1'
p3443
asbasbasbag56
(g72
g58
NtRp3444
(dp3445
g61
(dp3446
sg70
g3419
sg63
(lp3447
g56
(g77
g58
NtRp3448
(dp3449
g61
(dp3450
g81
g82
ssg70
g3444
sg63
(lp3451
S'2'
asbag56
(g77
g58
NtRp3452
(dp3453
g61
(dp3454
g88
g89
ssg70
g3444
sg63
(lp3455
S':'
asbag56
(g77
g58
NtRp3456
(dp3457
g61
(dp3458
sg70
g3444
sg63
(lp3459
g56
(g57
g58
NtRp3460
(dp3461
g61
(dp3462
g69
I3
ssg70
g3456
sg63
(lp3463
S'Administrator'
p3464
asbasbasbasbasbasbasbasbasbasbasbasbasbsS'etype'
p3465
S"<type 'exceptions.KeyError'>"
p3466
sS'date'
p3467
S'Tue Nov  6 06:17:39 2012'
p3468
sS'response'
p3469
g56
(g57
g58
NtRp3470
(dp3471
g61
(dp3472
sg63
(lp3473
g56
(g65
g58
NtRp3474
(dp3475
g61
(dp3476
g69
I5
ssg70
Nsg63
(lp3477
g56
(g72
g58
NtRp3478
(dp3479
g61
(dp3480
sg70
g3474
sg63
(lp3481
g56
(g77
g58
NtRp3482
(dp3483
g61
(dp3484
g81
g82
ssg70
g3478
sg63
(lp3485
g154
asbag56
(g77
g58
NtRp3486
(dp3487
g61
(dp3488
g88
g89
ssg70
g3478
sg63
(lp3489
S':'
asbag56
(g77
g58
NtRp3490
(dp3491
g61
(dp3492
sg70
g3478
sg63
(lp3493
g56
(g57
g58
NtRp3494
(dp3495
g61
(dp3496
g69
I5
ssg70
g3490
sg63
(lp3497
S'<cStringIO.StringO object at 0x9d5b240>'
p3498
asbasbasbag56
(g72
g58
NtRp3499
(dp3500
g61
(dp3501
sg70
g3474
sg63
(lp3502
g56
(g77
g58
NtRp3503
(dp3504
g61
(dp3505
g81
g82
ssg70
g3499
sg63
(lp3506
g220
asbag56
(g77
g58
NtRp3507
(dp3508
g61
(dp3509
g88
g89
ssg70
g3499
sg63
(lp3510
S':'
asbag56
(g77
g58
NtRp3511
(dp3512
g61
(dp3513
sg70
g3499
sg63
(lp3514
g56
(g57
g58
NtRp3515
(dp3516
g61
(dp3517
g69
I5
ssg70
g3511
sg63
(lp3518
g56
(g65
g58
NtRp3519
(dp3520
g61
(dp3521
g69
I4
ssg70
Nsg63
(lp3522
g56
(g72
g58
NtRp3523
(dp3524
g61
(dp3525
sg70
g3519
sg63
(lp3526
g56
(g77
g58
NtRp3527
(dp3528
g61
(dp3529
g81
g82
ssg70
g3523
sg63
(lp3530
S'session_id_project'
p3531
asbag56
(g77
g58
NtRp3532
(dp3533
g61
(dp3534
g88
g89
ssg70
g3523
sg63
(lp3535
S':'
asbag56
(g77
g58
NtRp3536
(dp3537
g61
(dp3538
sg70
g3523
sg63
(lp3539
g56
(g57
g58
NtRp3540
(dp3541
g61
(dp3542
g69
I4
ssg70
g3536
sg63
(lp3543
g56
(g65
g58
NtRp3544
(dp3545
g61
(dp3546
g69
I3
ssg70
Nsg63
(lp3547
g56
(g72
g58
NtRp3548
(dp3549
g61
(dp3550
sg70
g3544
sg63
(lp3551
g56
(g77
g58
NtRp3552
(dp3553
g61
(dp3554
g81
g82
ssg70
g3548
sg63
(lp3555
g270
asbag56
(g77
g58
NtRp3556
(dp3557
g61
(dp3558
g88
g89
ssg70
g3548
sg63
(lp3559
S':'
asbag56
(g77
g58
NtRp3560
(dp3561
g61
(dp3562
sg70
g3548
sg63
(lp3563
g56
(g57
g58
NtRp3564
(dp3565
g61
(dp3566
g69
I3
ssg70
g3560
sg63
(lp3567
S''
asbasbasbag56
(g72
g58
NtRp3568
(dp3569
g61
(dp3570
sg70
g3544
sg63
(lp3571
g56
(g77
g58
NtRp3572
(dp3573
g61
(dp3574
g81
g82
ssg70
g3568
sg63
(lp3575
g291
asbag56
(g77
g58
NtRp3576
(dp3577
g61
(dp3578
g88
g89
ssg70
g3568
sg63
(lp3579
S':'
asbag56
(g77
g58
NtRp3580
(dp3581
g61
(dp3582
sg70
g3568
sg63
(lp3583
g56
(g57
g58
NtRp3584
(dp3585
g61
(dp3586
g69
I3
ssg70
g3580
sg63
(lp3587
S''
asbasbasbag56
(g72
g58
NtRp3588
(dp3589
g61
(dp3590
sg70
g3544
sg63
(lp3591
g56
(g77
g58
NtRp3592
(dp3593
g61
(dp3594
g81
g82
ssg70
g3588
sg63
(lp3595
g312
asbag56
(g77
g58
NtRp3596
(dp3597
g61
(dp3598
g88
g89
ssg70
g3588
sg63
(lp3599
S':'
asbag56
(g77
g58
NtRp3600
(dp3601
g61
(dp3602
sg70
g3588
sg63
(lp3603
g56
(g57
g58
NtRp3604
(dp3605
g61
(dp3606
g69
I3
ssg70
g3600
sg63
(lp3607
S''
asbasbasbag56
(g72
g58
NtRp3608
(dp3609
g61
(dp3610
sg70
g3544
sg63
(lp3611
g56
(g77
g58
NtRp3612
(dp3613
g61
(dp3614
g81
g82
ssg70
g3608
sg63
(lp3615
g333
asbag56
(g77
g58
NtRp3616
(dp3617
g61
(dp3618
g88
g89
ssg70
g3608
sg63
(lp3619
S':'
asbag56
(g77
g58
NtRp3620
(dp3621
g61
(dp3622
sg70
g3608
sg63
(lp3623
g56
(g57
g58
NtRp3624
(dp3625
g61
(dp3626
g69
I3
ssg70
g3620
sg63
(lp3627
S''
asbasbasbag56
(g72
g58
NtRp3628
(dp3629
g61
(dp3630
sg70
g3544
sg63
(lp3631
g56
(g77
g58
NtRp3632
(dp3633
g61
(dp3634
g81
g82
ssg70
g3628
sg63
(lp3635
g354
asbag56
(g77
g58
NtRp3636
(dp3637
g61
(dp3638
g88
g89
ssg70
g3628
sg63
(lp3639
S':'
asbag56
(g77
g58
NtRp3640
(dp3641
g61
(dp3642
sg70
g3628
sg63
(lp3643
g56
(g57
g58
NtRp3644
(dp3645
g61
(dp3646
g69
I3
ssg70
g3640
sg63
(lp3647
S''
asbasbasbag56
(g72
g58
NtRp3648
(dp3649
g61
(dp3650
sg70
g3544
sg63
(lp3651
g56
(g77
g58
NtRp3652
(dp3653
g61
(dp3654
g81
g82
ssg70
g3648
sg63
(lp3655
g375
asbag56
(g77
g58
NtRp3656
(dp3657
g61
(dp3658
g88
g89
ssg70
g3648
sg63
(lp3659
S':'
asbag56
(g77
g58
NtRp3660
(dp3661
g61
(dp3662
sg70
g3648
sg63
(lp3663
g56
(g57
g58
NtRp3664
(dp3665
g61
(dp3666
g69
I3
ssg70
g3660
sg63
(lp3667
S'/'
asbasbasbag56
(g72
g58
NtRp3668
(dp3669
g61
(dp3670
sg70
g3544
sg63
(lp3671
g56
(g77
g58
NtRp3672
(dp3673
g61
(dp3674
g81
g82
ssg70
g3668
sg63
(lp3675
g396
asbag56
(g77
g58
NtRp3676
(dp3677
g61
(dp3678
g88
g89
ssg70
g3668
sg63
(lp3679
S':'
asbag56
(g77
g58
NtRp3680
(dp3681
g61
(dp3682
sg70
g3668
sg63
(lp3683
g56
(g57
g58
NtRp3684
(dp3685
g61
(dp3686
g69
I3
ssg70
g3680
sg63
(lp3687
S''
asbasbasbag56
(g72
g58
NtRp3688
(dp3689
g61
(dp3690
sg70
g3544
sg63
(lp3691
g56
(g77
g58
NtRp3692
(dp3693
g61
(dp3694
g81
g82
ssg70
g3688
sg63
(lp3695
g417
asbag56
(g77
g58
NtRp3696
(dp3697
g61
(dp3698
g88
g89
ssg70
g3688
sg63
(lp3699
S':'
asbag56
(g77
g58
NtRp3700
(dp3701
g61
(dp3702
sg70
g3688
sg63
(lp3703
g56
(g57
g58
NtRp3704
(dp3705
g61
(dp3706
g69
I3
ssg70
g3700
sg63
(lp3707
S''
asbasbasbasbasbasbasbasbasbasbasbag56
(g72
g58
NtRp3708
(dp3709
g61
(dp3710
sg70
g3474
sg63
(lp3711
g56
(g77
g58
NtRp3712
(dp3713
g61
(dp3714
g81
g82
ssg70
g3708
sg63
(lp3715
S'delimiters'
p3716
asbag56
(g77
g58
NtRp3717
(dp3718
g61
(dp3719
g88
g89
ssg70
g3708
sg63
(lp3720
S':'
asbag56
(g77
g58
NtRp3721
(dp3722
g61
(dp3723
sg70
g3708
sg63
(lp3724
g56
(g57
g58
NtRp3725
(dp3726
g61
(dp3727
g69
I5
ssg70
g3721
sg63
(lp3728
g56
(g65
g58
NtRp3729
(dp3730
g61
(dp3731
g69
I4
ssg70
Nsg63
(lp3732
g56
(g72
g58
NtRp3733
(dp3734
g61
(dp3735
sg70
g3729
sg63
(lp3736
g56
(g77
g58
NtRp3737
(dp3738
g61
(dp3739
sg70
g3733
sg63
(lp3740
g56
(g57
g58
NtRp3741
(dp3742
g61
(dp3743
g69
I4
ssg70
g3737
sg63
(lp3744
S'{{'
p3745
asbasbasbag56
(g72
g58
NtRp3746
(dp3747
g61
(dp3748
sg70
g3729
sg63
(lp3749
g56
(g77
g58
NtRp3750
(dp3751
g61
(dp3752
sg70
g3746
sg63
(lp3753
g56
(g57
g58
NtRp3754
(dp3755
g61
(dp3756
g69
I4
ssg70
g3750
sg63
(lp3757
S'}}'
p3758
asbasbasbasbasbasbasbag56
(g72
g58
NtRp3759
(dp3760
g61
(dp3761
sg70
g3474
sg63
(lp3762
g56
(g77
g58
NtRp3763
(dp3764
g61
(dp3765
g81
g82
ssg70
g3759
sg63
(lp3766
S'files'
p3767
asbag56
(g77
g58
NtRp3768
(dp3769
g61
(dp3770
g88
g89
ssg70
g3759
sg63
(lp3771
S':'
asbag56
(g77
g58
NtRp3772
(dp3773
g61
(dp3774
sg70
g3759
sg63
(lp3775
g56
(g57
g58
NtRp3776
(dp3777
g61
(dp3778
g69
I5
ssg70
g3772
sg63
(lp3779
g56
(g65
g58
NtRp3780
(dp3781
g61
(dp3782
g69
I4
ssg70
Nsg63
(lp3783
sbasbasbasbag56
(g72
g58
NtRp3784
(dp3785
g61
(dp3786
sg70
g3474
sg63
(lp3787
g56
(g77
g58
NtRp3788
(dp3789
g61
(dp3790
g81
g82
ssg70
g3784
sg63
(lp3791
S'flash'
p3792
asbag56
(g77
g58
NtRp3793
(dp3794
g61
(dp3795
g88
g89
ssg70
g3784
sg63
(lp3796
S':'
asbag56
(g77
g58
NtRp3797
(dp3798
g61
(dp3799
sg70
g3784
sg63
(lp3800
g56
(g57
g58
NtRp3801
(dp3802
g61
(dp3803
g69
I5
ssg70
g3797
sg63
(lp3804
S''
asbasbasbag56
(g72
g58
NtRp3805
(dp3806
g61
(dp3807
sg70
g3474
sg63
(lp3808
g56
(g77
g58
NtRp3809
(dp3810
g61
(dp3811
g81
g82
ssg70
g3805
sg63
(lp3812
S'generic_patterns'
p3813
asbag56
(g77
g58
NtRp3814
(dp3815
g61
(dp3816
g88
g89
ssg70
g3805
sg63
(lp3817
S':'
asbag56
(g77
g58
NtRp3818
(dp3819
g61
(dp3820
sg70
g3805
sg63
(lp3821
g56
(g57
g58
NtRp3822
(dp3823
g61
(dp3824
g69
I5
ssg70
g3818
sg63
(lp3825
g56
(g65
g58
NtRp3826
(dp3827
g61
(dp3828
g69
I4
ssg70
Nsg63
(lp3829
g56
(g72
g58
NtRp3830
(dp3831
g61
(dp3832
sg70
g3826
sg63
(lp3833
g56
(g77
g58
NtRp3834
(dp3835
g61
(dp3836
sg70
g3830
sg63
(lp3837
g56
(g57
g58
NtRp3838
(dp3839
g61
(dp3840
g69
I4
ssg70
g3834
sg63
(lp3841
S'*'
asbasbasbasbasbasbasbag56
(g72
g58
NtRp3842
(dp3843
g61
(dp3844
sg70
g3474
sg63
(lp3845
g56
(g77
g58
NtRp3846
(dp3847
g61
(dp3848
g81
g82
ssg70
g3842
sg63
(lp3849
S'headers'
p3850
asbag56
(g77
g58
NtRp3851
(dp3852
g61
(dp3853
g88
g89
ssg70
g3842
sg63
(lp3854
S':'
asbag56
(g77
g58
NtRp3855
(dp3856
g61
(dp3857
sg70
g3842
sg63
(lp3858
g56
(g57
g58
NtRp3859
(dp3860
g61
(dp3861
g69
I5
ssg70
g3855
sg63
(lp3862
g56
(g65
g58
NtRp3863
(dp3864
g61
(dp3865
g69
I4
ssg70
Nsg63
(lp3866
g56
(g72
g58
NtRp3867
(dp3868
g61
(dp3869
sg70
g3863
sg63
(lp3870
g56
(g77
g58
NtRp3871
(dp3872
g61
(dp3873
g81
g82
ssg70
g3867
sg63
(lp3874
S'Cache-Control'
p3875
asbag56
(g77
g58
NtRp3876
(dp3877
g61
(dp3878
g88
g89
ssg70
g3867
sg63
(lp3879
S':'
asbag56
(g77
g58
NtRp3880
(dp3881
g61
(dp3882
sg70
g3867
sg63
(lp3883
g56
(g57
g58
NtRp3884
(dp3885
g61
(dp3886
g69
I4
ssg70
g3880
sg63
(lp3887
S'no-store, no-cache, must-revalidate, post-check=0, pre-check=0'
p3888
asbasbasbag56
(g72
g58
NtRp3889
(dp3890
g61
(dp3891
sg70
g3863
sg63
(lp3892
g56
(g77
g58
NtRp3893
(dp3894
g61
(dp3895
g81
g82
ssg70
g3889
sg63
(lp3896
S'Content-Type'
p3897
asbag56
(g77
g58
NtRp3898
(dp3899
g61
(dp3900
g88
g89
ssg70
g3889
sg63
(lp3901
S':'
asbag56
(g77
g58
NtRp3902
(dp3903
g61
(dp3904
sg70
g3889
sg63
(lp3905
g56
(g57
g58
NtRp3906
(dp3907
g61
(dp3908
g69
I4
ssg70
g3902
sg63
(lp3909
S'text/html; charset=utf-8'
p3910
asbasbasbag56
(g72
g58
NtRp3911
(dp3912
g61
(dp3913
sg70
g3863
sg63
(lp3914
g56
(g77
g58
NtRp3915
(dp3916
g61
(dp3917
g81
g82
ssg70
g3911
sg63
(lp3918
S'Expires'
p3919
asbag56
(g77
g58
NtRp3920
(dp3921
g61
(dp3922
g88
g89
ssg70
g3911
sg63
(lp3923
S':'
asbag56
(g77
g58
NtRp3924
(dp3925
g61
(dp3926
sg70
g3911
sg63
(lp3927
g56
(g57
g58
NtRp3928
(dp3929
g61
(dp3930
g69
I4
ssg70
g3924
sg63
(lp3931
S'Tue, 06 Nov 2012 00:47:39 GMT'
p3932
asbasbasbag56
(g72
g58
NtRp3933
(dp3934
g61
(dp3935
sg70
g3863
sg63
(lp3936
g56
(g77
g58
NtRp3937
(dp3938
g61
(dp3939
g81
g82
ssg70
g3933
sg63
(lp3940
S'Pragma'
p3941
asbag56
(g77
g58
NtRp3942
(dp3943
g61
(dp3944
g88
g89
ssg70
g3933
sg63
(lp3945
S':'
asbag56
(g77
g58
NtRp3946
(dp3947
g61
(dp3948
sg70
g3933
sg63
(lp3949
g56
(g57
g58
NtRp3950
(dp3951
g61
(dp3952
g69
I4
ssg70
g3946
sg63
(lp3953
S'no-cache'
p3954
asbasbasbag56
(g72
g58
NtRp3955
(dp3956
g61
(dp3957
sg70
g3863
sg63
(lp3958
g56
(g77
g58
NtRp3959
(dp3960
g61
(dp3961
g81
g82
ssg70
g3955
sg63
(lp3962
S'X-Powered-By'
p3963
asbag56
(g77
g58
NtRp3964
(dp3965
g61
(dp3966
g88
g89
ssg70
g3955
sg63
(lp3967
S':'
asbag56
(g77
g58
NtRp3968
(dp3969
g61
(dp3970
sg70
g3955
sg63
(lp3971
g56
(g57
g58
NtRp3972
(dp3973
g61
(dp3974
g69
I4
ssg70
g3968
sg63
(lp3975
S'web2py'
p3976
asbasbasbasbasbasbasbag56
(g72
g58
NtRp3977
(dp3978
g61
(dp3979
sg70
g3474
sg63
(lp3980
g56
(g77
g58
NtRp3981
(dp3982
g61
(dp3983
g81
g82
ssg70
g3977
sg63
(lp3984
S'menu'
p3985
asbag56
(g77
g58
NtRp3986
(dp3987
g61
(dp3988
g88
g89
ssg70
g3977
sg63
(lp3989
S':'
asbag56
(g77
g58
NtRp3990
(dp3991
g61
(dp3992
sg70
g3977
sg63
(lp3993
g56
(g57
g58
NtRp3994
(dp3995
g61
(dp3996
g69
I5
ssg70
g3990
sg63
(lp3997
g56
(g65
g58
NtRp3998
(dp3999
g61
(dp4000
g69
I4
ssg70
Nsg63
(lp4001
g56
(g72
g58
NtRp4002
(dp4003
g61
(dp4004
sg70
g3998
sg63
(lp4005
g56
(g77
g58
NtRp4006
(dp4007
g61
(dp4008
sg70
g4002
sg63
(lp4009
g56
(g57
g58
NtRp4010
(dp4011
g61
(dp4012
g69
I4
ssg70
g4006
sg63
(lp4013
g56
(g65
g58
NtRp4014
(dp4015
g61
(dp4016
g69
I3
ssg70
Nsg63
(lp4017
g56
(g72
g58
NtRp4018
(dp4019
g61
(dp4020
sg70
g4014
sg63
(lp4021
g56
(g77
g58
NtRp4022
(dp4023
g61
(dp4024
sg70
g4018
sg63
(lp4025
g56
(g57
g58
NtRp4026
(dp4027
g61
(dp4028
g69
I3
ssg70
g4022
sg63
(lp4029
cgluon.languages
lazyT_unpickle
p4030
(S't\x04\x00\x00\x00Home'
tRp4031
asbasbasbag56
(g72
g58
NtRp4032
(dp4033
g61
(dp4034
sg70
g4014
sg63
(lp4035
g56
(g77
g58
NtRp4036
(dp4037
g61
(dp4038
sg70
g4032
sg63
(lp4039
g56
(g57
g58
NtRp4040
(dp4041
g61
(dp4042
g69
I3
ssg70
g4036
sg63
(lp4043
g99
asbasbasbag56
(g72
g58
NtRp4044
(dp4045
g61
(dp4046
sg70
g4014
sg63
(lp4047
g56
(g77
g58
NtRp4048
(dp4049
g61
(dp4050
sg70
g4044
sg63
(lp4051
g56
(g57
g58
NtRp4052
(dp4053
g61
(dp4054
g69
I3
ssg70
g4048
sg63
(lp4055
S'/project/default/index'
p4056
asbasbasbag56
(g72
g58
NtRp4057
(dp4058
g61
(dp4059
sg70
g4014
sg63
(lp4060
g56
(g77
g58
NtRp4061
(dp4062
g61
(dp4063
sg70
g4057
sg63
(lp4064
g56
(g57
g58
NtRp4065
(dp4066
g61
(dp4067
g69
I3
ssg70
g4061
sg63
(lp4068
g56
(g65
g58
NtRp4069
(dp4070
g61
(dp4071
g69
I2
ssg70
Nsg63
(lp4072
sbasbasbasbasbasbasbasbag56
(g72
g58
NtRp4073
(dp4074
g61
(dp4075
sg70
g3998
sg63
(lp4076
g56
(g77
g58
NtRp4077
(dp4078
g61
(dp4079
sg70
g4073
sg63
(lp4080
g56
(g57
g58
NtRp4081
(dp4082
g61
(dp4083
g69
I4
ssg70
g4077
sg63
(lp4084
g56
(g65
g58
NtRp4085
(dp4086
g61
(dp4087
g69
I3
ssg70
Nsg63
(lp4088
g56
(g72
g58
NtRp4089
(dp4090
g61
(dp4091
sg70
g4085
sg63
(lp4092
g56
(g77
g58
NtRp4093
(dp4094
g61
(dp4095
sg70
g4089
sg63
(lp4096
g56
(g57
g58
NtRp4097
(dp4098
g61
(dp4099
g69
I3
ssg70
g4093
sg63
(lp4100
g56
(cgluon.html
SPAN
p4101
g58
NtRp4102
(dp4103
g61
(dp4104
g81
S'color:yellow'
p4105
ssg70
Nsg63
(lp4106
g3976
asbasbasbasbag56
(g72
g58
NtRp4107
(dp4108
g61
(dp4109
sg70
g4085
sg63
(lp4110
g56
(g77
g58
NtRp4111
(dp4112
g61
(dp4113
sg70
g4107
sg63
(lp4114
g56
(g57
g58
NtRp4115
(dp4116
g61
(dp4117
g69
I3
ssg70
g4111
sg63
(lp4118
g99
asbasbasbag56
(g72
g58
NtRp4119
(dp4120
g61
(dp4121
sg70
g4085
sg63
(lp4122
g56
(g77
g58
NtRp4123
(dp4124
g61
(dp4125
sg70
g4119
sg63
(lp4126
g56
(g57
g58
NtRp4127
(dp4128
g61
(dp4129
g69
I3
ssg70
g4123
sg63
(lp4130
S'None'
p4131
asbasbasbag56
(g72
g58
NtRp4132
(dp4133
g61
(dp4134
sg70
g4085
sg63
(lp4135
g56
(g77
g58
NtRp4136
(dp4137
g61
(dp4138
sg70
g4132
sg63
(lp4139
g56
(g57
g58
NtRp4140
(dp4141
g61
(dp4142
g69
I3
ssg70
g4136
sg63
(lp4143
g56
(g65
g58
NtRp4144
(dp4145
g61
(dp4146
g69
I2
ssg70
Nsg63
(lp4147
g56
(g72
g58
NtRp4148
(dp4149
g61
(dp4150
sg70
g4144
sg63
(lp4151
g56
(g77
g58
NtRp4152
(dp4153
g61
(dp4154
sg70
g4148
sg63
(lp4155
g56
(g57
g58
NtRp4156
(dp4157
g61
(dp4158
g69
I2
ssg70
g4152
sg63
(lp4159
g56
(g65
g58
NtRp4160
(dp4161
g61
(dp4162
g69
I1
ssg70
Nsg63
(lp4163
g56
(g72
g58
NtRp4164
(dp4165
g61
(dp4166
sg70
g4160
sg63
(lp4167
g56
(g77
g58
NtRp4168
(dp4169
g61
(dp4170
sg70
g4164
sg63
(lp4171
g56
(g57
g58
NtRp4172
(dp4173
g61
(dp4174
g69
I1
ssg70
g4168
sg63
(lp4175
g4030
(S's\x08\x00\x00\x00My Sites'
tRp4176
asbasbasbag56
(g72
g58
NtRp4177
(dp4178
g61
(dp4179
sg70
g4160
sg63
(lp4180
g56
(g77
g58
NtRp4181
(dp4182
g61
(dp4183
sg70
g4177
sg63
(lp4184
g56
(g57
g58
NtRp4185
(dp4186
g61
(dp4187
g69
I1
ssg70
g4181
sg63
(lp4188
I00
asbasbasbag56
(g72
g58
NtRp4189
(dp4190
g61
(dp4191
sg70
g4160
sg63
(lp4192
g56
(g77
g58
NtRp4193
(dp4194
g61
(dp4195
sg70
g4189
sg63
(lp4196
g56
(g57
g58
NtRp4197
(dp4198
g61
(dp4199
g69
I1
ssg70
g4193
sg63
(lp4200
S'/admin/default/site'
p4201
asbasbasbasbasbasbasbag56
(g72
g58
NtRp4202
(dp4203
g61
(dp4204
sg70
g4144
sg63
(lp4205
g56
(g77
g58
NtRp4206
(dp4207
g61
(dp4208
sg70
g4202
sg63
(lp4209
g56
(g57
g58
NtRp4210
(dp4211
g61
(dp4212
g69
I2
ssg70
g4206
sg63
(lp4213
g56
(g65
g58
NtRp4214
(dp4215
g61
(dp4216
g69
I1
ssg70
Nsg63
(lp4217
g56
(g72
g58
NtRp4218
(dp4219
g61
(dp4220
sg70
g4214
sg63
(lp4221
g56
(g77
g58
NtRp4222
(dp4223
g61
(dp4224
sg70
g4218
sg63
(lp4225
g56
(g57
g58
NtRp4226
(dp4227
g61
(dp4228
g69
I1
ssg70
g4222
sg63
(lp4229
g4030
(S's\x08\x00\x00\x00This App'
tRp4230
asbasbasbag56
(g72
g58
NtRp4231
(dp4232
g61
(dp4233
sg70
g4214
sg63
(lp4234
g56
(g77
g58
NtRp4235
(dp4236
g61
(dp4237
sg70
g4231
sg63
(lp4238
g56
(g57
g58
NtRp4239
(dp4240
g61
(dp4241
g69
I1
ssg70
g4235
sg63
(lp4242
I00
asbasbasbag56
(g72
g58
NtRp4243
(dp4244
g61
(dp4245
sg70
g4214
sg63
(lp4246
g56
(g77
g58
NtRp4247
(dp4248
g61
(dp4249
sg70
g4243
sg63
(lp4250
g56
(g57
g58
NtRp4251
(dp4252
g61
(dp4253
g69
I1
ssg70
g4247
sg63
(lp4254
S'/admin/default/design/project'
p4255
asbasbasbag56
(g72
g58
NtRp4256
(dp4257
g61
(dp4258
sg70
g4214
sg63
(lp4259
g56
(g77
g58
NtRp4260
(dp4261
g61
(dp4262
sg70
g4256
sg63
(lp4263
g56
(g57
g58
NtRp4264
(dp4265
g61
(dp4266
g69
I1
ssg70
g4260
sg63
(lp4267
(lp4268
(g4030
(S't\n\x00\x00\x00Controller'
tRp4269
I00
S'/admin/default/edit/project/controllers/default.py'
tp4270
a(g4030
(S't\x04\x00\x00\x00View'
tRp4271
I00
S'/admin/default/edit/project/views/default/kruskal.html'
tp4272
a(g4030
(S't\x06\x00\x00\x00Layout'
tRp4273
I00
S'/admin/default/edit/project/views/layout.html'
tp4274
a(g4030
(S't\n\x00\x00\x00Stylesheet'
tRp4275
I00
S'/admin/default/edit/project/static/css/web2py.css'
tp4276
a(g4030
(S's\x08\x00\x00\x00DB Model'
tRp4277
I00
S'/admin/default/edit/project/models/db.py'
tp4278
a(g4030
(S's\n\x00\x00\x00Menu Model'
tRp4279
I00
S'/admin/default/edit/project/models/menu.py'
tp4280
a(g4030
(S't\x08\x00\x00\x00Database'
tRp4281
I00
S'/project/appadmin/index'
tp4282
a(g4030
(S't\x06\x00\x00\x00Errors'
tRp4283
I00
S'/admin/default/errors/project'
tp4284
a(g4030
(S't\x05\x00\x00\x00About'
tRp4285
I00
S'/admin/default/about/project'
tp4286
aasbasbasbasbasbasbasbag56
(g72
g58
NtRp4287
(dp4288
g61
(dp4289
sg70
g4144
sg63
(lp4290
g56
(g77
g58
NtRp4291
(dp4292
g61
(dp4293
sg70
g4287
sg63
(lp4294
g56
(g57
g58
NtRp4295
(dp4296
g61
(dp4297
g69
I2
ssg70
g4291
sg63
(lp4298
g56
(g65
g58
NtRp4299
(dp4300
g61
(dp4301
g69
I1
ssg70
Nsg63
(lp4302
g56
(g72
g58
NtRp4303
(dp4304
g61
(dp4305
sg70
g4299
sg63
(lp4306
g56
(g77
g58
NtRp4307
(dp4308
g61
(dp4309
sg70
g4303
sg63
(lp4310
g56
(g57
g58
NtRp4311
(dp4312
g61
(dp4313
g69
I1
ssg70
g4307
sg63
(lp4314
S'web2py.com'
p4315
asbasbasbag56
(g72
g58
NtRp4316
(dp4317
g61
(dp4318
sg70
g4299
sg63
(lp4319
g56
(g77
g58
NtRp4320
(dp4321
g61
(dp4322
sg70
g4316
sg63
(lp4323
g56
(g57
g58
NtRp4324
(dp4325
g61
(dp4326
g69
I1
ssg70
g4320
sg63
(lp4327
I00
asbasbasbag56
(g72
g58
NtRp4328
(dp4329
g61
(dp4330
sg70
g4299
sg63
(lp4331
g56
(g77
g58
NtRp4332
(dp4333
g61
(dp4334
sg70
g4328
sg63
(lp4335
g56
(g57
g58
NtRp4336
(dp4337
g61
(dp4338
g69
I1
ssg70
g4332
sg63
(lp4339
S'http://www.web2py.com'
p4340
asbasbasbag56
(g72
g58
NtRp4341
(dp4342
g61
(dp4343
sg70
g4299
sg63
(lp4344
g56
(g77
g58
NtRp4345
(dp4346
g61
(dp4347
sg70
g4341
sg63
(lp4348
g56
(g57
g58
NtRp4349
(dp4350
g61
(dp4351
g69
I1
ssg70
g4345
sg63
(lp4352
(lp4353
(g4030
(S't\x08\x00\x00\x00Download'
tRp4354
I00
S'http://www.web2py.com/examples/default/download'
p4355
tp4356
a(g4030
(S't\x07\x00\x00\x00Support'
tRp4357
I00
S'http://www.web2py.com/examples/default/support'
p4358
tp4359
a(g4030
(S't\x04\x00\x00\x00Demo'
tRp4360
I00
S'http://web2py.com/demo_admin'
p4361
tp4362
a(g4030
(S's\x0e\x00\x00\x00Quick Examples'
tRp4363
I00
S'http://web2py.com/examples/default/examples'
p4364
tp4365
a(g4030
(S't\x03\x00\x00\x00FAQ'
tRp4366
I00
S'http://web2py.com/AlterEgo'
p4367
tp4368
a(g4030
(S't\x06\x00\x00\x00Videos'
tRp4369
I00
S'http://www.web2py.com/examples/default/videos/'
p4370
tp4371
a(g4030
(S's\x11\x00\x00\x00Free Applications'
tRp4372
I00
S'http://web2py.com/appliances'
p4373
tp4374
a(g4030
(S't\x07\x00\x00\x00Plugins'
tRp4375
I00
S'http://web2py.com/plugins'
p4376
tp4377
a(g4030
(S't\x07\x00\x00\x00Layouts'
tRp4378
I00
S'http://web2py.com/layouts'
p4379
tp4380
a(g4030
(S't\x07\x00\x00\x00Recipes'
tRp4381
I00
S'http://web2pyslices.com/'
p4382
tp4383
a(g4030
(S't\x08\x00\x00\x00Semantic'
tRp4384
I00
S'http://web2py.com/semantic'
p4385
tp4386
aasbasbasbasbasbasbasbag56
(g72
g58
NtRp4387
(dp4388
g61
(dp4389
sg70
g4144
sg63
(lp4390
g56
(g77
g58
NtRp4391
(dp4392
g61
(dp4393
sg70
g4387
sg63
(lp4394
g56
(g57
g58
NtRp4395
(dp4396
g61
(dp4397
g69
I2
ssg70
g4391
sg63
(lp4398
g56
(g65
g58
NtRp4399
(dp4400
g61
(dp4401
g69
I1
ssg70
Nsg63
(lp4402
g56
(g72
g58
NtRp4403
(dp4404
g61
(dp4405
sg70
g4399
sg63
(lp4406
g56
(g77
g58
NtRp4407
(dp4408
g61
(dp4409
sg70
g4403
sg63
(lp4410
g56
(g57
g58
NtRp4411
(dp4412
g61
(dp4413
g69
I1
ssg70
g4407
sg63
(lp4414
g4030
(S't\r\x00\x00\x00Documentation'
tRp4415
asbasbasbag56
(g72
g58
NtRp4416
(dp4417
g61
(dp4418
sg70
g4399
sg63
(lp4419
g56
(g77
g58
NtRp4420
(dp4421
g61
(dp4422
sg70
g4416
sg63
(lp4423
g56
(g57
g58
NtRp4424
(dp4425
g61
(dp4426
g69
I1
ssg70
g4420
sg63
(lp4427
I00
asbasbasbag56
(g72
g58
NtRp4428
(dp4429
g61
(dp4430
sg70
g4399
sg63
(lp4431
g56
(g77
g58
NtRp4432
(dp4433
g61
(dp4434
sg70
g4428
sg63
(lp4435
g56
(g57
g58
NtRp4436
(dp4437
g61
(dp4438
g69
I1
ssg70
g4432
sg63
(lp4439
S'http://www.web2py.com/book'
p4440
asbasbasbag56
(g72
g58
NtRp4441
(dp4442
g61
(dp4443
sg70
g4399
sg63
(lp4444
g56
(g77
g58
NtRp4445
(dp4446
g61
(dp4447
sg70
g4441
sg63
(lp4448
g56
(g57
g58
NtRp4449
(dp4450
g61
(dp4451
g69
I1
ssg70
g4445
sg63
(lp4452
(lp4453
(g4030
(S't\x07\x00\x00\x00Preface'
tRp4454
I00
S'http://www.web2py.com/book/default/chapter/00'
p4455
tp4456
a(g4030
(S't\x0c\x00\x00\x00Introduction'
tRp4457
I00
S'http://www.web2py.com/book/default/chapter/01'
p4458
tp4459
a(g4030
(S't\x06\x00\x00\x00Python'
tRp4460
I00
S'http://www.web2py.com/book/default/chapter/02'
p4461
tp4462
a(g4030
(S't\x08\x00\x00\x00Overview'
tRp4463
I00
S'http://www.web2py.com/book/default/chapter/03'
p4464
tp4465
a(g4030
(S's\x08\x00\x00\x00The Core'
tRp4466
I00
S'http://www.web2py.com/book/default/chapter/04'
p4467
tp4468
a(g4030
(S's\t\x00\x00\x00The Views'
tRp4469
I00
S'http://www.web2py.com/book/default/chapter/05'
p4470
tp4471
a(g4030
(S't\x08\x00\x00\x00Database'
tRp4472
I00
S'http://www.web2py.com/book/default/chapter/06'
p4473
tp4474
a(g4030
(S's\x14\x00\x00\x00Forms and Validators'
tRp4475
I00
S'http://www.web2py.com/book/default/chapter/07'
p4476
tp4477
a(g4030
(S's\r\x00\x00\x00Email and SMS'
tRp4478
I00
S'http://www.web2py.com/book/default/chapter/08'
p4479
tp4480
a(g4030
(S's\x0e\x00\x00\x00Access Control'
tRp4481
I00
S'http://www.web2py.com/book/default/chapter/09'
p4482
tp4483
a(g4030
(S't\x08\x00\x00\x00Services'
tRp4484
I00
S'http://www.web2py.com/book/default/chapter/10'
p4485
tp4486
a(g4030
(S's\x0c\x00\x00\x00Ajax Recipes'
tRp4487
I00
S'http://www.web2py.com/book/default/chapter/11'
p4488
tp4489
a(g4030
(S's\x16\x00\x00\x00Components and Plugins'
tRp4490
I00
S'http://www.web2py.com/book/default/chapter/12'
p4491
tp4492
a(g4030
(S's\x12\x00\x00\x00Deployment Recipes'
tRp4493
I00
S'http://www.web2py.com/book/default/chapter/13'
p4494
tp4495
a(g4030
(S's\r\x00\x00\x00Other Recipes'
tRp4496
I00
S'http://www.web2py.com/book/default/chapter/14'
p4497
tp4498
a(g4030
(S's\r\x00\x00\x00Buy this book'
tRp4499
I00
S'http://stores.lulu.com/web2py'
p4500
tp4501
aasbasbasbasbasbasbasbag56
(g72
g58
NtRp4502
(dp4503
g61
(dp4504
sg70
g4144
sg63
(lp4505
g56
(g77
g58
NtRp4506
(dp4507
g61
(dp4508
sg70
g4502
sg63
(lp4509
g56
(g57
g58
NtRp4510
(dp4511
g61
(dp4512
g69
I2
ssg70
g4506
sg63
(lp4513
g56
(g65
g58
NtRp4514
(dp4515
g61
(dp4516
g69
I1
ssg70
Nsg63
(lp4517
g56
(g72
g58
NtRp4518
(dp4519
g61
(dp4520
sg70
g4514
sg63
(lp4521
g56
(g77
g58
NtRp4522
(dp4523
g61
(dp4524
sg70
g4518
sg63
(lp4525
g56
(g57
g58
NtRp4526
(dp4527
g61
(dp4528
g69
I1
ssg70
g4522
sg63
(lp4529
g4030
(S't\t\x00\x00\x00Community'
tRp4530
asbasbasbag56
(g72
g58
NtRp4531
(dp4532
g61
(dp4533
sg70
g4514
sg63
(lp4534
g56
(g77
g58
NtRp4535
(dp4536
g61
(dp4537
sg70
g4531
sg63
(lp4538
g56
(g57
g58
NtRp4539
(dp4540
g61
(dp4541
g69
I1
ssg70
g4535
sg63
(lp4542
I00
asbasbasbag56
(g72
g58
NtRp4543
(dp4544
g61
(dp4545
sg70
g4514
sg63
(lp4546
g56
(g77
g58
NtRp4547
(dp4548
g61
(dp4549
sg70
g4543
sg63
(lp4550
g56
(g57
g58
NtRp4551
(dp4552
g61
(dp4553
g69
I1
ssg70
g4547
sg63
(lp4554
Nasbasbasbag56
(g72
g58
NtRp4555
(dp4556
g61
(dp4557
sg70
g4514
sg63
(lp4558
g56
(g77
g58
NtRp4559
(dp4560
g61
(dp4561
sg70
g4555
sg63
(lp4562
g56
(g57
g58
NtRp4563
(dp4564
g61
(dp4565
g69
I1
ssg70
g4559
sg63
(lp4566
(lp4567
(g4030
(S't\x06\x00\x00\x00Groups'
tRp4568
I00
S'http://www.web2py.com/examples/default/usergroups'
p4569
tp4570
a(g4030
(S't\x07\x00\x00\x00Twitter'
tRp4571
I00
S'http://twitter.com/web2py'
p4572
tp4573
a(g4030
(S's\t\x00\x00\x00Live Chat'
tRp4574
I00
S'http://webchat.freenode.net/?channels=web2py'
p4575
tp4576
aasbasbasbasbasbasbasbag56
(g72
g58
NtRp4577
(dp4578
g61
(dp4579
sg70
g4144
sg63
(lp4580
g56
(g77
g58
NtRp4581
(dp4582
g61
(dp4583
sg70
g4577
sg63
(lp4584
g56
(g57
g58
NtRp4585
(dp4586
g61
(dp4587
g69
I2
ssg70
g4581
sg63
(lp4588
g56
(g65
g58
NtRp4589
(dp4590
g61
(dp4591
g69
I1
ssg70
Nsg63
(lp4592
g56
(g72
g58
NtRp4593
(dp4594
g61
(dp4595
sg70
g4589
sg63
(lp4596
g56
(g77
g58
NtRp4597
(dp4598
g61
(dp4599
sg70
g4593
sg63
(lp4600
g56
(g57
g58
NtRp4601
(dp4602
g61
(dp4603
g69
I1
ssg70
g4597
sg63
(lp4604
g4030
(S't\x07\x00\x00\x00Plugins'
tRp4605
asbasbasbag56
(g72
g58
NtRp4606
(dp4607
g61
(dp4608
sg70
g4589
sg63
(lp4609
g56
(g77
g58
NtRp4610
(dp4611
g61
(dp4612
sg70
g4606
sg63
(lp4613
g56
(g57
g58
NtRp4614
(dp4615
g61
(dp4616
g69
I1
ssg70
g4610
sg63
(lp4617
I00
asbasbasbag56
(g72
g58
NtRp4618
(dp4619
g61
(dp4620
sg70
g4589
sg63
(lp4621
g56
(g77
g58
NtRp4622
(dp4623
g61
(dp4624
sg70
g4618
sg63
(lp4625
g56
(g57
g58
NtRp4626
(dp4627
g61
(dp4628
g69
I1
ssg70
g4622
sg63
(lp4629
Nasbasbasbag56
(g72
g58
NtRp4630
(dp4631
g61
(dp4632
sg70
g4589
sg63
(lp4633
g56
(g77
g58
NtRp4634
(dp4635
g61
(dp4636
sg70
g4630
sg63
(lp4637
g56
(g57
g58
NtRp4638
(dp4639
g61
(dp4640
g69
I1
ssg70
g4634
sg63
(lp4641
(lp4642
(S'plugin_wiki'
p4643
I00
S'http://web2py.com/examples/default/download'
p4644
tp4645
a(g4030
(S's\r\x00\x00\x00Other Plugins'
tRp4646
I00
g4376
tp4647
a(g4030
(S's\x0e\x00\x00\x00Layout Plugins'
tRp4648
I00
g4379
tp4649
aasbasbasbasbasbasbasbasbasbasbasbasbasbasbasbasbasbasbasbag56
(g72
g58
NtRp4650
(dp4651
g61
(dp4652
sg70
g3474
sg63
(lp4653
g56
(g77
g58
NtRp4654
(dp4655
g61
(dp4656
g81
g82
ssg70
g4650
sg63
(lp4657
S'meta'
p4658
asbag56
(g77
g58
NtRp4659
(dp4660
g61
(dp4661
g88
g89
ssg70
g4650
sg63
(lp4662
S':'
asbag56
(g77
g58
NtRp4663
(dp4664
g61
(dp4665
sg70
g4650
sg63
(lp4666
g56
(g57
g58
NtRp4667
(dp4668
g61
(dp4669
g69
I5
ssg70
g4663
sg63
(lp4670
g56
(g65
g58
NtRp4671
(dp4672
g61
(dp4673
g69
I4
ssg70
Nsg63
(lp4674
g56
(g72
g58
NtRp4675
(dp4676
g61
(dp4677
sg70
g4671
sg63
(lp4678
g56
(g77
g58
NtRp4679
(dp4680
g61
(dp4681
g81
g82
ssg70
g4675
sg63
(lp4682
S'author'
p4683
asbag56
(g77
g58
NtRp4684
(dp4685
g61
(dp4686
g88
g89
ssg70
g4675
sg63
(lp4687
S':'
asbag56
(g77
g58
NtRp4688
(dp4689
g61
(dp4690
sg70
g4675
sg63
(lp4691
g56
(g57
g58
NtRp4692
(dp4693
g61
(dp4694
g69
I4
ssg70
g4688
sg63
(lp4695
S'Your Name <you@example.com>'
p4696
asbasbasbag56
(g72
g58
NtRp4697
(dp4698
g61
(dp4699
sg70
g4671
sg63
(lp4700
g56
(g77
g58
NtRp4701
(dp4702
g61
(dp4703
g81
g82
ssg70
g4697
sg63
(lp4704
S'copyright'
p4705
asbag56
(g77
g58
NtRp4706
(dp4707
g61
(dp4708
g88
g89
ssg70
g4697
sg63
(lp4709
S':'
asbag56
(g77
g58
NtRp4710
(dp4711
g61
(dp4712
sg70
g4697
sg63
(lp4713
g56
(g57
g58
NtRp4714
(dp4715
g61
(dp4716
g69
I4
ssg70
g4710
sg63
(lp4717
S'Copyright 2011'
p4718
asbasbasbag56
(g72
g58
NtRp4719
(dp4720
g61
(dp4721
sg70
g4671
sg63
(lp4722
g56
(g77
g58
NtRp4723
(dp4724
g61
(dp4725
g81
g82
ssg70
g4719
sg63
(lp4726
S'description'
p4727
asbag56
(g77
g58
NtRp4728
(dp4729
g61
(dp4730
g88
g89
ssg70
g4719
sg63
(lp4731
S':'
asbag56
(g77
g58
NtRp4732
(dp4733
g61
(dp4734
sg70
g4719
sg63
(lp4735
g56
(g57
g58
NtRp4736
(dp4737
g61
(dp4738
g69
I4
ssg70
g4732
sg63
(lp4739
S'a cool new app'
p4740
asbasbasbag56
(g72
g58
NtRp4741
(dp4742
g61
(dp4743
sg70
g4671
sg63
(lp4744
g56
(g77
g58
NtRp4745
(dp4746
g61
(dp4747
g81
g82
ssg70
g4741
sg63
(lp4748
S'generator'
p4749
asbag56
(g77
g58
NtRp4750
(dp4751
g61
(dp4752
g88
g89
ssg70
g4741
sg63
(lp4753
S':'
asbag56
(g77
g58
NtRp4754
(dp4755
g61
(dp4756
sg70
g4741
sg63
(lp4757
g56
(g57
g58
NtRp4758
(dp4759
g61
(dp4760
g69
I4
ssg70
g4754
sg63
(lp4761
S'Web2py Web Framework'
p4762
asbasbasbag56
(g72
g58
NtRp4763
(dp4764
g61
(dp4765
sg70
g4671
sg63
(lp4766
g56
(g77
g58
NtRp4767
(dp4768
g61
(dp4769
g81
g82
ssg70
g4763
sg63
(lp4770
S'keywords'
p4771
asbag56
(g77
g58
NtRp4772
(dp4773
g61
(dp4774
g88
g89
ssg70
g4763
sg63
(lp4775
S':'
asbag56
(g77
g58
NtRp4776
(dp4777
g61
(dp4778
sg70
g4763
sg63
(lp4779
g56
(g57
g58
NtRp4780
(dp4781
g61
(dp4782
g69
I4
ssg70
g4776
sg63
(lp4783
S'web2py, python, framework'
p4784
asbasbasbasbasbasbasbag56
(g72
g58
NtRp4785
(dp4786
g61
(dp4787
sg70
g3474
sg63
(lp4788
g56
(g77
g58
NtRp4789
(dp4790
g61
(dp4791
g81
g82
ssg70
g4785
sg63
(lp4792
S'postprocessing'
p4793
asbag56
(g77
g58
NtRp4794
(dp4795
g61
(dp4796
g88
g89
ssg70
g4785
sg63
(lp4797
S':'
asbag56
(g77
g58
NtRp4798
(dp4799
g61
(dp4800
sg70
g4785
sg63
(lp4801
g56
(g57
g58
NtRp4802
(dp4803
g61
(dp4804
g69
I5
ssg70
g4798
sg63
(lp4805
g56
(g65
g58
NtRp4806
(dp4807
g61
(dp4808
g69
I4
ssg70
Nsg63
(lp4809
sbasbasbasbag56
(g72
g58
NtRp4810
(dp4811
g61
(dp4812
sg70
g3474
sg63
(lp4813
g56
(g77
g58
NtRp4814
(dp4815
g61
(dp4816
g81
g82
ssg70
g4810
sg63
(lp4817
S'session_file'
p4818
asbag56
(g77
g58
NtRp4819
(dp4820
g61
(dp4821
g88
g89
ssg70
g4810
sg63
(lp4822
S':'
asbag56
(g77
g58
NtRp4823
(dp4824
g61
(dp4825
sg70
g4810
sg63
(lp4826
g56
(g57
g58
NtRp4827
(dp4828
g61
(dp4829
g69
I5
ssg70
g4823
sg63
(lp4830
S"<open file '/home/arpita/courses/sem3/ssad/web2py/applications/project/sessions/127.0.0.1-b6115b3d-9b4c-4cde-b209-d74130608881', mode 'rb+' at 0x96e5230>"
p4831
asbasbasbag56
(g72
g58
NtRp4832
(dp4833
g61
(dp4834
sg70
g3474
sg63
(lp4835
g56
(g77
g58
NtRp4836
(dp4837
g61
(dp4838
g81
g82
ssg70
g4832
sg63
(lp4839
S'session_filename'
p4840
asbag56
(g77
g58
NtRp4841
(dp4842
g61
(dp4843
g88
g89
ssg70
g4832
sg63
(lp4844
S':'
asbag56
(g77
g58
NtRp4845
(dp4846
g61
(dp4847
sg70
g4832
sg63
(lp4848
g56
(g57
g58
NtRp4849
(dp4850
g61
(dp4851
g69
I5
ssg70
g4845
sg63
(lp4852
S'/home/arpita/courses/sem3/ssad/web2py/applications/project/sessions/127.0.0.1-b6115b3d-9b4c-4cde-b209-d74130608881'
p4853
asbasbasbag56
(g72
g58
NtRp4854
(dp4855
g61
(dp4856
sg70
g3474
sg63
(lp4857
g56
(g77
g58
NtRp4858
(dp4859
g61
(dp4860
g81
g82
ssg70
g4854
sg63
(lp4861
S'session_id'
p4862
asbag56
(g77
g58
NtRp4863
(dp4864
g61
(dp4865
g88
g89
ssg70
g4854
sg63
(lp4866
S':'
asbag56
(g77
g58
NtRp4867
(dp4868
g61
(dp4869
sg70
g4854
sg63
(lp4870
g56
(g57
g58
NtRp4871
(dp4872
g61
(dp4873
g69
I5
ssg70
g4867
sg63
(lp4874
S'127.0.0.1-b6115b3d-9b4c-4cde-b209-d74130608881'
p4875
asbasbasbag56
(g72
g58
NtRp4876
(dp4877
g61
(dp4878
sg70
g3474
sg63
(lp4879
g56
(g77
g58
NtRp4880
(dp4881
g61
(dp4882
g81
g82
ssg70
g4876
sg63
(lp4883
S'session_id_name'
p4884
asbag56
(g77
g58
NtRp4885
(dp4886
g61
(dp4887
g88
g89
ssg70
g4876
sg63
(lp4888
S':'
asbag56
(g77
g58
NtRp4889
(dp4890
g61
(dp4891
sg70
g4876
sg63
(lp4892
g56
(g57
g58
NtRp4893
(dp4894
g61
(dp4895
g69
I5
ssg70
g4889
sg63
(lp4896
g3531
asbasbasbag56
(g72
g58
NtRp4897
(dp4898
g61
(dp4899
sg70
g3474
sg63
(lp4900
g56
(g77
g58
NtRp4901
(dp4902
g61
(dp4903
g81
g82
ssg70
g4897
sg63
(lp4904
S'session_locked'
p4905
asbag56
(g77
g58
NtRp4906
(dp4907
g61
(dp4908
g88
g89
ssg70
g4897
sg63
(lp4909
S':'
asbag56
(g77
g58
NtRp4910
(dp4911
g61
(dp4912
sg70
g4897
sg63
(lp4913
g56
(g57
g58
NtRp4914
(dp4915
g61
(dp4916
g69
I5
ssg70
g4910
sg63
(lp4917
g1677
asbasbasbag56
(g72
g58
NtRp4918
(dp4919
g61
(dp4920
sg70
g3474
sg63
(lp4921
g56
(g77
g58
NtRp4922
(dp4923
g61
(dp4924
g81
g82
ssg70
g4918
sg63
(lp4925
S'session_new'
p4926
asbag56
(g77
g58
NtRp4927
(dp4928
g61
(dp4929
g88
g89
ssg70
g4918
sg63
(lp4930
S':'
asbag56
(g77
g58
NtRp4931
(dp4932
g61
(dp4933
sg70
g4918
sg63
(lp4934
g56
(g57
g58
NtRp4935
(dp4936
g61
(dp4937
g69
I5
ssg70
g4931
sg63
(lp4938
g99
asbasbasbag56
(g72
g58
NtRp4939
(dp4940
g61
(dp4941
sg70
g3474
sg63
(lp4942
g56
(g77
g58
NtRp4943
(dp4944
g61
(dp4945
g81
g82
ssg70
g4939
sg63
(lp4946
S'status'
p4947
asbag56
(g77
g58
NtRp4948
(dp4949
g61
(dp4950
g88
g89
ssg70
g4939
sg63
(lp4951
S':'
asbag56
(g77
g58
NtRp4952
(dp4953
g61
(dp4954
sg70
g4939
sg63
(lp4955
g56
(g57
g58
NtRp4956
(dp4957
g61
(dp4958
g69
I5
ssg70
g4952
sg63
(lp4959
S'200'
p4960
asbasbasbag56
(g72
g58
NtRp4961
(dp4962
g61
(dp4963
sg70
g3474
sg63
(lp4964
g56
(g77
g58
NtRp4965
(dp4966
g61
(dp4967
g81
g82
ssg70
g4961
sg63
(lp4968
S'subtitle'
p4969
asbag56
(g77
g58
NtRp4970
(dp4971
g61
(dp4972
g88
g89
ssg70
g4961
sg63
(lp4973
S':'
asbag56
(g77
g58
NtRp4974
(dp4975
g61
(dp4976
sg70
g4961
sg63
(lp4977
g56
(g57
g58
NtRp4978
(dp4979
g61
(dp4980
g69
I5
ssg70
g4974
sg63
(lp4981
g4030
(S's\r\x00\x00\x00customize me!'
tRp4982
asbasbasbag56
(g72
g58
NtRp4983
(dp4984
g61
(dp4985
sg70
g3474
sg63
(lp4986
g56
(g77
g58
NtRp4987
(dp4988
g61
(dp4989
g81
g82
ssg70
g4983
sg63
(lp4990
S'title'
p4991
asbag56
(g77
g58
NtRp4992
(dp4993
g61
(dp4994
g88
g89
ssg70
g4983
sg63
(lp4995
S':'
asbag56
(g77
g58
NtRp4996
(dp4997
g61
(dp4998
sg70
g4983
sg63
(lp4999
g56
(g57
g58
NtRp5000
(dp5001
g61
(dp5002
g69
I5
ssg70
g4996
sg63
(lp5003
S'Project'
p5004
asbasbasbag56
(g72
g58
NtRp5005
(dp5006
g61
(dp5007
sg70
g3474
sg63
(lp5008
g56
(g77
g58
NtRp5009
(dp5010
g61
(dp5011
g81
g82
ssg70
g5005
sg63
(lp5012
g2341
asbag56
(g77
g58
NtRp5013
(dp5014
g61
(dp5015
g88
g89
ssg70
g5005
sg63
(lp5016
S':'
asbag56
(g77
g58
NtRp5017
(dp5018
g61
(dp5019
sg70
g5005
sg63
(lp5020
g56
(g57
g58
NtRp5021
(dp5022
g61
(dp5023
g69
I5
ssg70
g5017
sg63
(lp5024
g2354
asbasbasbag56
(g72
g58
NtRp5025
(dp5026
g61
(dp5027
sg70
g3474
sg63
(lp5028
g56
(g77
g58
NtRp5029
(dp5030
g61
(dp5031
g81
g82
ssg70
g5025
sg63
(lp5032
S'view'
p5033
asbag56
(g77
g58
NtRp5034
(dp5035
g61
(dp5036
g88
g89
ssg70
g5025
sg63
(lp5037
S':'
asbag56
(g77
g58
NtRp5038
(dp5039
g61
(dp5040
sg70
g5025
sg63
(lp5041
g56
(g57
g58
NtRp5042
(dp5043
g61
(dp5044
g69
I5
ssg70
g5038
sg63
(lp5045
S'default/kruskal.html'
p5046
asbasbasbasbasbsS'locals'
p5047
(dp5048
S'a'
S'7'
sS'b'
S'5'
sS'cou'
p5049
S'9'
sS'min'
p5050
S'100'
p5051
sS'i'
S'9'
sS'k'
S'8'
sS'j'
S'8'
sS'li'
p5052
S"<Row {'update_record': <function <lambda> at 0x9... <function <lambda> at 0x9444aac>, 'Emp2_id': 5}>"
p5053
sS'emp'
p5054
S'<gluon.dal.Rows object>'
p5055
sg3003
S"<open file 'applications/project/controllers/myfile.txt', mode 'a'>"
p5056
sS'lis'
p5057
S'<gluon.dal.Rows object>'
p5058
sS'count1'
p5059
S'1'
sS'counts'
p5060
S'9'
sS'count2'
p5061
S'8'
sssS'traceback'
p5062
S'Traceback (most recent call last):\n  File "/home/arpita/courses/sem3/ssad/web2py/gluon/restricted.py", line 205, in restricted\n    exec ccode in environment\n  File "/home/arpita/courses/sem3/ssad/web2py/applications/project/controllers/default.py", line 149, in <module>\n  File "/home/arpita/courses/sem3/ssad/web2py/gluon/globals.py", line 173, in <lambda>\n    self._caller = lambda f: f()\n  File "/home/arpita/courses/sem3/ssad/web2py/applications/project/controllers/default.py", line 143, in kruskal\n    if p[j]==1:\nKeyError: 8\n'
p5063
s.