(dp1
S'output'
p2
S"<type 'exceptions.SyntaxError'> keyword can't be an expression (default/kruskal.html, line 36)"
p3
sS'layer'
p4
S'D:\\web2py\\applications\\pro\\views\\default/kruskal.html'
p5
sS'code'
p6
S'response.write(\'<!DOCTYPE html PUBLIC "-//W3C//DTD XHTML 1.0 Strict//EN" "http://www.w3.org/TR/xhtml1/DTD/xhtml1-strict.dtd">\\n<!-- Template Design by TheWebhub.com | http://www.thewebhub.com | Released for free under a Creative Commons Attribution-Share Alike 3.0 Philippines -->\\n<html xmlns="http://www.w3.org/1999/xhtml">\\n <head>\\n  <title>\\n   \', escape=False)\nresponse.write(response.title or request.application)\nresponse.write(\'\\n  </title>\\n  \', escape=False)\nresponse.files.append(URL(request.application,\'static\',\'plugin_layouts/layouts/CorporateOffice/style.css\'))\nresponse.write(\'\\n  \', escape=False)\nresponse.files.append(URL(\'static\',\'plugin_layouts/superfish.js\'))\nresponse.write(\'\\n  \', escape=False)\nresponse.write(\'<script type="text/javascript"><!--\\n    // These variables are used by the web2py_ajax_init function in web2py_ajax.js (which is loaded below).\\n    var w2p_ajax_confirm_message = "\', escape=False)\nresponse.write(T(\'Are you sure you want to delete this object?\'))\nresponse.write(\'";\\n    var w2p_ajax_date_format = "\', escape=False)\nresponse.write(T(\'%Y-%m-%d\'))\nresponse.write(\'";\\n    var w2p_ajax_datetime_format = "\', escape=False)\nresponse.write(T(\'%Y-%m-%d %H:%M:%S\'))\nresponse.write(\'";\\n    //--></script>\\n\', escape=False)\nresponse.files.insert(0,URL(\'static\',\'js/jquery.js\'))\nresponse.files.insert(1,URL(\'static\',\'css/calendar.css\'))\nresponse.files.insert(2,URL(\'static\',\'js/calendar.js\'))\nresponse.files.insert(3,URL(\'static\',\'js/web2py.js\'))\nresponse.include_meta()\nresponse.include_files()\nresponse.write(\'\\n\', escape=False)\nresponse.write(\'\\n  <style>\\nul.web2py-menu-vertical { width: 150px; position: relative; top:1em; left:1em;  z-index:30; border:0; margin:0; padding: 0; list-style: none; text-decoration: none;}\\nul.web2py-menu-vertical li { margin:0; padding:0; border:0; width: 150px; background: black; text-align:left;}\\nul.web2py-menu-vertical li a { margin:0; padding: 1px 3px 1px 3px; border:0; width: 144px; color: white; font-size:12px;}\\ndiv.flash { position: fixed; float: right; padding: 10px; top: 10px; right: 30px; opacity: 0.75; margin: 10px 10px 10px 10px; text-align: center; clear: both; color: #fff; font-size: 11pt; text-align: center; vertical-align: middle; cursor: pointer; background: black; border: 2px solid #fff; -moz-border-radius: 5px; -webkit-border-radius: 5px; z-index: 2; }\\ndiv.error { background-color: red; color: white; padding: 3px; }\\n.auth_navbar { text-align:right; z-index:20; position: absolute; top: 2px; right:30px; border:0; padding:0 }\\n  </style>\\n </head>\\n <body>\\n  <!-- start header -->\\n  \', escape=False)\ntry:\n    response.write(auth.navbar(action=URL(\'default\',\'user\')))\nexcept:pass\nresponse.write(\'\\n\\n  <div id="wrapper">\\n  <div id="header"> \\n    <h1>\\n    Hierarchy Generator\\n    </h1>\\n  <!--  <h2>\\n     \', escape=False)\nresponse.write(response.subtitle or \'=response.subtitle\')\nresponse.write(\'\\n    </h2> -->\\n   </div>\\n  <!-- <div id="menu">\\n    \', escape=False)\nresponse.write(MENU(response.menu,_class=\'web2py-menu\'))\nresponse.write(\'\\n    <script>\\n      jQuery(document).ready(function(){jQuery(\\\'ul.web2py-menu\\\').superfish({delay:400});});\\n    </script>\\n   </div> -->\\n   <div id="content">\\n    <div class="flash">\', escape=False)\nresponse.write(response.flash or \'\')\nresponse.write(\'</div>\\n    \', escape=False)\nresponse.write(\'\\r\\n<h1>Graph Relation now</h1>\\r\\n\', escape=False)\nresponse.write(BEAUTIFY(response._vars))\nresponse.write(\'\\r\\n\', escape=False)\nresponse.write(response.kruskal = [(T(\'Index\'), False, \'http://www.google.com\')])\nresponse.write(\'\\r\\n\', escape=False)\nresponse.write(\'\\n   </div> \\n <!--  <div id="footer">\\n    <p class="copyright">\\n     Copyright &copy; 2006 Sitename.com. Template Designed by\\n     <a href="http://www.thewebhub.com/">\\n      TheWebHub.com\\n     </a>\\n     &nbsp;&nbsp;&nbsp;Free Icons by\\n     <a href="http://famfamfam.com/">\\n      FAMFAMFAM\\n     </a>\\n    </p>\\n    <p class="links">\\n     <a href="http://validator.w3.org/check/referer" class="xhtml">\\n      Valid XHTML\\n     </a>\\n     &nbsp;&nbsp;&nbsp;\\n     <a href="http://jigsaw.w3.org/css-validator/check/referer" class="css">\\n      Valid CSS\\n     </a>\\n    </p>\\n   </div>\\n  </div> -->\\n </body>\\n</html>\\n\', escape=False)'
p7
sS'snapshot'
p8
(dp9
S'exception'
p10
(dp11
S'__getslice__'
p12
S"<method-wrapper '__getslice__' of exceptions.SyntaxError object at 0x0783FCF0>"
p13
sS'text'
p14
S"''"
p15
sS'__str__'
p16
S"<method-wrapper '__str__' of exceptions.SyntaxError object at 0x0783FCF0>"
p17
sS'__reduce__'
p18
S'<built-in method __reduce__ of exceptions.SyntaxError object at 0x0783FCF0>'
p19
sS'__dict__'
p20
S'{}'
p21
sS'__init__'
p22
S"<method-wrapper '__init__' of exceptions.SyntaxError object at 0x0783FCF0>"
p23
sS'__setattr__'
p24
S"<method-wrapper '__setattr__' of exceptions.SyntaxError object at 0x0783FCF0>"
p25
sS'__reduce_ex__'
p26
S'<built-in method __reduce_ex__ of exceptions.SyntaxError object at 0x0783FCF0>'
p27
sS'__new__'
p28
S'<built-in method __new__ of type object at 0x1E1CDBD0>'
p29
sS'__class__'
p30
S"<type 'exceptions.SyntaxError'>"
p31
sS'filename'
p32
S"r'D:\\web2py\\applications\\pro\\views\\default/kruskal.html'"
p33
sS'lineno'
p34
S'36'
p35
sS'msg'
p36
S'"keyword can\'t be an expression"'
p37
sS'__doc__'
p38
S"'Invalid syntax.'"
p39
sS'__getitem__'
p40
S"<method-wrapper '__getitem__' of exceptions.SyntaxError object at 0x0783FCF0>"
p41
sS'__setstate__'
p42
S'<built-in method __setstate__ of exceptions.SyntaxError object at 0x0783FCF0>'
p43
sS'__getattribute__'
p44
S"<method-wrapper '__getattribute__' of exceptions.SyntaxError object at 0x0783FCF0>"
p45
sS'print_file_and_line'
p46
S'None'
p47
sS'args'
p48
S'("keyword can\'t be an expression", (r\'D:\\web2py\\applications\\pro\\views\\default/kruskal.html\', 36, None, \'\'))'
p49
sS'offset'
p50
S'None'
p51
sS'__delattr__'
p52
S"<method-wrapper '__delattr__' of exceptions.SyntaxError object at 0x0783FCF0>"
p53
sS'__repr__'
p54
S"<method-wrapper '__repr__' of exceptions.SyntaxError object at 0x0783FCF0>"
p55
sS'__hash__'
p56
S"<method-wrapper '__hash__' of exceptions.SyntaxError object at 0x0783FCF0>"
p57
ssS'evalue'
p58
S"keyword can't be an expression (default/kruskal.html, line 36)"
p59
sS'request'
p60
ccopy_reg
_reconstructor
p61
(cgluon.html
BEAUTIFY
p62
c__builtin__
object
p63
NtRp64
(dp65
S'attributes'
p66
(dp67
sS'components'
p68
(lp69
g61
(cgluon.html
TABLE
p70
g63
NtRp71
(dp72
g66
(dp73
S'level'
p74
I5
ssS'parent'
p75
Nsg68
(lp76
g61
(cgluon.html
TR
p77
g63
NtRp78
(dp79
g66
(dp80
sg75
g71
sg68
(lp81
g61
(cgluon.html
TD
p82
g63
NtRp83
(dp84
g66
(dp85
S'_style'
p86
S'font-weight:bold;vertical-align:top'
p87
ssg75
g78
sg68
(lp88
S'ajax'
p89
asbag61
(g82
g63
NtRp90
(dp91
g66
(dp92
S'_valign'
p93
S'top'
p94
ssg75
g78
sg68
(lp95
S':'
asbag61
(g82
g63
NtRp96
(dp97
g66
(dp98
sg75
g78
sg68
(lp99
g61
(g62
g63
NtRp100
(dp101
g66
(dp102
g74
I5
ssg75
g96
sg68
(lp103
S'False'
p104
asbasbasbag61
(g77
g63
NtRp105
(dp106
g66
(dp107
sg75
g71
sg68
(lp108
g61
(g82
g63
NtRp109
(dp110
g66
(dp111
g86
g87
ssg75
g105
sg68
(lp112
S'application'
p113
asbag61
(g82
g63
NtRp114
(dp115
g66
(dp116
g93
g94
ssg75
g105
sg68
(lp117
S':'
asbag61
(g82
g63
NtRp118
(dp119
g66
(dp120
sg75
g105
sg68
(lp121
g61
(g62
g63
NtRp122
(dp123
g66
(dp124
g74
I5
ssg75
g118
sg68
(lp125
S'pro'
p126
asbasbasbag61
(g77
g63
NtRp127
(dp128
g66
(dp129
sg75
g71
sg68
(lp130
g61
(g82
g63
NtRp131
(dp132
g66
(dp133
g86
g87
ssg75
g127
sg68
(lp134
g48
asbag61
(g82
g63
NtRp135
(dp136
g66
(dp137
g93
g94
ssg75
g127
sg68
(lp138
S':'
asbag61
(g82
g63
NtRp139
(dp140
g66
(dp141
sg75
g127
sg68
(lp142
g61
(g62
g63
NtRp143
(dp144
g66
(dp145
g74
I5
ssg75
g139
sg68
(lp146
g61
(g70
g63
NtRp147
(dp148
g66
(dp149
g74
I4
ssg75
Nsg68
(lp150
sbasbasbasbag61
(g77
g63
NtRp151
(dp152
g66
(dp153
sg75
g71
sg68
(lp154
g61
(g82
g63
NtRp155
(dp156
g66
(dp157
g86
g87
ssg75
g151
sg68
(lp158
S'body'
p159
asbag61
(g82
g63
NtRp160
(dp161
g66
(dp162
g93
g94
ssg75
g151
sg68
(lp163
S':'
asbag61
(g82
g63
NtRp164
(dp165
g66
(dp166
sg75
g151
sg68
(lp167
g61
(g62
g63
NtRp168
(dp169
g66
(dp170
g74
I5
ssg75
g164
sg68
(lp171
S'<cStringIO.StringO object at 0x076D8EC0>'
p172
asbasbasbag61
(g77
g63
NtRp173
(dp174
g66
(dp175
sg75
g71
sg68
(lp176
g61
(g82
g63
NtRp177
(dp178
g66
(dp179
g86
g87
ssg75
g173
sg68
(lp180
S'client'
p181
asbag61
(g82
g63
NtRp182
(dp183
g66
(dp184
g93
g94
ssg75
g173
sg68
(lp185
S':'
asbag61
(g82
g63
NtRp186
(dp187
g66
(dp188
sg75
g173
sg68
(lp189
g61
(g62
g63
NtRp190
(dp191
g66
(dp192
g74
I5
ssg75
g186
sg68
(lp193
S'127.0.0.1'
p194
asbasbasbag61
(g77
g63
NtRp195
(dp196
g66
(dp197
sg75
g71
sg68
(lp198
g61
(g82
g63
NtRp199
(dp200
g66
(dp201
g86
g87
ssg75
g195
sg68
(lp202
S'controller'
p203
asbag61
(g82
g63
NtRp204
(dp205
g66
(dp206
g93
g94
ssg75
g195
sg68
(lp207
S':'
asbag61
(g82
g63
NtRp208
(dp209
g66
(dp210
sg75
g195
sg68
(lp211
g61
(g62
g63
NtRp212
(dp213
g66
(dp214
g74
I5
ssg75
g208
sg68
(lp215
S'default'
p216
asbasbasbag61
(g77
g63
NtRp217
(dp218
g66
(dp219
sg75
g71
sg68
(lp220
g61
(g82
g63
NtRp221
(dp222
g66
(dp223
g86
g87
ssg75
g217
sg68
(lp224
S'cookies'
p225
asbag61
(g82
g63
NtRp226
(dp227
g66
(dp228
g93
g94
ssg75
g217
sg68
(lp229
S':'
asbag61
(g82
g63
NtRp230
(dp231
g66
(dp232
sg75
g217
sg68
(lp233
g61
(g62
g63
NtRp234
(dp235
g66
(dp236
g74
I5
ssg75
g230
sg68
(lp237
g61
(g70
g63
NtRp238
(dp239
g66
(dp240
g74
I4
ssg75
Nsg68
(lp241
g61
(g77
g63
NtRp242
(dp243
g66
(dp244
sg75
g238
sg68
(lp245
g61
(g82
g63
NtRp246
(dp247
g66
(dp248
g86
g87
ssg75
g242
sg68
(lp249
S'session_id_admin'
p250
asbag61
(g82
g63
NtRp251
(dp252
g66
(dp253
g93
g94
ssg75
g242
sg68
(lp254
S':'
asbag61
(g82
g63
NtRp255
(dp256
g66
(dp257
sg75
g242
sg68
(lp258
g61
(g62
g63
NtRp259
(dp260
g66
(dp261
g74
I4
ssg75
g255
sg68
(lp262
g61
(g70
g63
NtRp263
(dp264
g66
(dp265
g74
I3
ssg75
Nsg68
(lp266
g61
(g77
g63
NtRp267
(dp268
g66
(dp269
sg75
g263
sg68
(lp270
g61
(g82
g63
NtRp271
(dp272
g66
(dp273
g86
g87
ssg75
g267
sg68
(lp274
S'comment'
p275
asbag61
(g82
g63
NtRp276
(dp277
g66
(dp278
g93
g94
ssg75
g267
sg68
(lp279
S':'
asbag61
(g82
g63
NtRp280
(dp281
g66
(dp282
sg75
g267
sg68
(lp283
g61
(g62
g63
NtRp284
(dp285
g66
(dp286
g74
I3
ssg75
g280
sg68
(lp287
S''
asbasbasbag61
(g77
g63
NtRp288
(dp289
g66
(dp290
sg75
g263
sg68
(lp291
g61
(g82
g63
NtRp292
(dp293
g66
(dp294
g86
g87
ssg75
g288
sg68
(lp295
S'domain'
p296
asbag61
(g82
g63
NtRp297
(dp298
g66
(dp299
g93
g94
ssg75
g288
sg68
(lp300
S':'
asbag61
(g82
g63
NtRp301
(dp302
g66
(dp303
sg75
g288
sg68
(lp304
g61
(g62
g63
NtRp305
(dp306
g66
(dp307
g74
I3
ssg75
g301
sg68
(lp308
S''
asbasbasbag61
(g77
g63
NtRp309
(dp310
g66
(dp311
sg75
g263
sg68
(lp312
g61
(g82
g63
NtRp313
(dp314
g66
(dp315
g86
g87
ssg75
g309
sg68
(lp316
S'expires'
p317
asbag61
(g82
g63
NtRp318
(dp319
g66
(dp320
g93
g94
ssg75
g309
sg68
(lp321
S':'
asbag61
(g82
g63
NtRp322
(dp323
g66
(dp324
sg75
g309
sg68
(lp325
g61
(g62
g63
NtRp326
(dp327
g66
(dp328
g74
I3
ssg75
g322
sg68
(lp329
S''
asbasbasbag61
(g77
g63
NtRp330
(dp331
g66
(dp332
sg75
g263
sg68
(lp333
g61
(g82
g63
NtRp334
(dp335
g66
(dp336
g86
g87
ssg75
g330
sg68
(lp337
S'max-age'
p338
asbag61
(g82
g63
NtRp339
(dp340
g66
(dp341
g93
g94
ssg75
g330
sg68
(lp342
S':'
asbag61
(g82
g63
NtRp343
(dp344
g66
(dp345
sg75
g330
sg68
(lp346
g61
(g62
g63
NtRp347
(dp348
g66
(dp349
g74
I3
ssg75
g343
sg68
(lp350
S''
asbasbasbag61
(g77
g63
NtRp351
(dp352
g66
(dp353
sg75
g263
sg68
(lp354
g61
(g82
g63
NtRp355
(dp356
g66
(dp357
g86
g87
ssg75
g351
sg68
(lp358
S'path'
p359
asbag61
(g82
g63
NtRp360
(dp361
g66
(dp362
g93
g94
ssg75
g351
sg68
(lp363
S':'
asbag61
(g82
g63
NtRp364
(dp365
g66
(dp366
sg75
g351
sg68
(lp367
g61
(g62
g63
NtRp368
(dp369
g66
(dp370
g74
I3
ssg75
g364
sg68
(lp371
S''
asbasbasbag61
(g77
g63
NtRp372
(dp373
g66
(dp374
sg75
g263
sg68
(lp375
g61
(g82
g63
NtRp376
(dp377
g66
(dp378
g86
g87
ssg75
g372
sg68
(lp379
S'secure'
p380
asbag61
(g82
g63
NtRp381
(dp382
g66
(dp383
g93
g94
ssg75
g372
sg68
(lp384
S':'
asbag61
(g82
g63
NtRp385
(dp386
g66
(dp387
sg75
g372
sg68
(lp388
g61
(g62
g63
NtRp389
(dp390
g66
(dp391
g74
I3
ssg75
g385
sg68
(lp392
S''
asbasbasbag61
(g77
g63
NtRp393
(dp394
g66
(dp395
sg75
g263
sg68
(lp396
g61
(g82
g63
NtRp397
(dp398
g66
(dp399
g86
g87
ssg75
g393
sg68
(lp400
S'version'
p401
asbag61
(g82
g63
NtRp402
(dp403
g66
(dp404
g93
g94
ssg75
g393
sg68
(lp405
S':'
asbag61
(g82
g63
NtRp406
(dp407
g66
(dp408
sg75
g393
sg68
(lp409
g61
(g62
g63
NtRp410
(dp411
g66
(dp412
g74
I3
ssg75
g406
sg68
(lp413
S''
asbasbasbasbasbasbasbag61
(g77
g63
NtRp414
(dp415
g66
(dp416
sg75
g238
sg68
(lp417
g61
(g82
g63
NtRp418
(dp419
g66
(dp420
g86
g87
ssg75
g414
sg68
(lp421
S'session_id_pro'
p422
asbag61
(g82
g63
NtRp423
(dp424
g66
(dp425
g93
g94
ssg75
g414
sg68
(lp426
S':'
asbag61
(g82
g63
NtRp427
(dp428
g66
(dp429
sg75
g414
sg68
(lp430
g61
(g62
g63
NtRp431
(dp432
g66
(dp433
g74
I4
ssg75
g427
sg68
(lp434
g61
(g70
g63
NtRp435
(dp436
g66
(dp437
g74
I3
ssg75
Nsg68
(lp438
g61
(g77
g63
NtRp439
(dp440
g66
(dp441
sg75
g435
sg68
(lp442
g61
(g82
g63
NtRp443
(dp444
g66
(dp445
g86
g87
ssg75
g439
sg68
(lp446
g275
asbag61
(g82
g63
NtRp447
(dp448
g66
(dp449
g93
g94
ssg75
g439
sg68
(lp450
S':'
asbag61
(g82
g63
NtRp451
(dp452
g66
(dp453
sg75
g439
sg68
(lp454
g61
(g62
g63
NtRp455
(dp456
g66
(dp457
g74
I3
ssg75
g451
sg68
(lp458
S''
asbasbasbag61
(g77
g63
NtRp459
(dp460
g66
(dp461
sg75
g435
sg68
(lp462
g61
(g82
g63
NtRp463
(dp464
g66
(dp465
g86
g87
ssg75
g459
sg68
(lp466
g296
asbag61
(g82
g63
NtRp467
(dp468
g66
(dp469
g93
g94
ssg75
g459
sg68
(lp470
S':'
asbag61
(g82
g63
NtRp471
(dp472
g66
(dp473
sg75
g459
sg68
(lp474
g61
(g62
g63
NtRp475
(dp476
g66
(dp477
g74
I3
ssg75
g471
sg68
(lp478
S''
asbasbasbag61
(g77
g63
NtRp479
(dp480
g66
(dp481
sg75
g435
sg68
(lp482
g61
(g82
g63
NtRp483
(dp484
g66
(dp485
g86
g87
ssg75
g479
sg68
(lp486
g317
asbag61
(g82
g63
NtRp487
(dp488
g66
(dp489
g93
g94
ssg75
g479
sg68
(lp490
S':'
asbag61
(g82
g63
NtRp491
(dp492
g66
(dp493
sg75
g479
sg68
(lp494
g61
(g62
g63
NtRp495
(dp496
g66
(dp497
g74
I3
ssg75
g491
sg68
(lp498
S''
asbasbasbag61
(g77
g63
NtRp499
(dp500
g66
(dp501
sg75
g435
sg68
(lp502
g61
(g82
g63
NtRp503
(dp504
g66
(dp505
g86
g87
ssg75
g499
sg68
(lp506
g338
asbag61
(g82
g63
NtRp507
(dp508
g66
(dp509
g93
g94
ssg75
g499
sg68
(lp510
S':'
asbag61
(g82
g63
NtRp511
(dp512
g66
(dp513
sg75
g499
sg68
(lp514
g61
(g62
g63
NtRp515
(dp516
g66
(dp517
g74
I3
ssg75
g511
sg68
(lp518
S''
asbasbasbag61
(g77
g63
NtRp519
(dp520
g66
(dp521
sg75
g435
sg68
(lp522
g61
(g82
g63
NtRp523
(dp524
g66
(dp525
g86
g87
ssg75
g519
sg68
(lp526
g359
asbag61
(g82
g63
NtRp527
(dp528
g66
(dp529
g93
g94
ssg75
g519
sg68
(lp530
S':'
asbag61
(g82
g63
NtRp531
(dp532
g66
(dp533
sg75
g519
sg68
(lp534
g61
(g62
g63
NtRp535
(dp536
g66
(dp537
g74
I3
ssg75
g531
sg68
(lp538
S''
asbasbasbag61
(g77
g63
NtRp539
(dp540
g66
(dp541
sg75
g435
sg68
(lp542
g61
(g82
g63
NtRp543
(dp544
g66
(dp545
g86
g87
ssg75
g539
sg68
(lp546
g380
asbag61
(g82
g63
NtRp547
(dp548
g66
(dp549
g93
g94
ssg75
g539
sg68
(lp550
S':'
asbag61
(g82
g63
NtRp551
(dp552
g66
(dp553
sg75
g539
sg68
(lp554
g61
(g62
g63
NtRp555
(dp556
g66
(dp557
g74
I3
ssg75
g551
sg68
(lp558
S''
asbasbasbag61
(g77
g63
NtRp559
(dp560
g66
(dp561
sg75
g435
sg68
(lp562
g61
(g82
g63
NtRp563
(dp564
g66
(dp565
g86
g87
ssg75
g559
sg68
(lp566
g401
asbag61
(g82
g63
NtRp567
(dp568
g66
(dp569
g93
g94
ssg75
g559
sg68
(lp570
S':'
asbag61
(g82
g63
NtRp571
(dp572
g66
(dp573
sg75
g559
sg68
(lp574
g61
(g62
g63
NtRp575
(dp576
g66
(dp577
g74
I3
ssg75
g571
sg68
(lp578
S''
asbasbasbasbasbasbasbag61
(g77
g63
NtRp579
(dp580
g66
(dp581
sg75
g238
sg68
(lp582
g61
(g82
g63
NtRp583
(dp584
g66
(dp585
g86
g87
ssg75
g579
sg68
(lp586
S'session_id_ssad_project'
p587
asbag61
(g82
g63
NtRp588
(dp589
g66
(dp590
g93
g94
ssg75
g579
sg68
(lp591
S':'
asbag61
(g82
g63
NtRp592
(dp593
g66
(dp594
sg75
g579
sg68
(lp595
g61
(g62
g63
NtRp596
(dp597
g66
(dp598
g74
I4
ssg75
g592
sg68
(lp599
g61
(g70
g63
NtRp600
(dp601
g66
(dp602
g74
I3
ssg75
Nsg68
(lp603
g61
(g77
g63
NtRp604
(dp605
g66
(dp606
sg75
g600
sg68
(lp607
g61
(g82
g63
NtRp608
(dp609
g66
(dp610
g86
g87
ssg75
g604
sg68
(lp611
g275
asbag61
(g82
g63
NtRp612
(dp613
g66
(dp614
g93
g94
ssg75
g604
sg68
(lp615
S':'
asbag61
(g82
g63
NtRp616
(dp617
g66
(dp618
sg75
g604
sg68
(lp619
g61
(g62
g63
NtRp620
(dp621
g66
(dp622
g74
I3
ssg75
g616
sg68
(lp623
S''
asbasbasbag61
(g77
g63
NtRp624
(dp625
g66
(dp626
sg75
g600
sg68
(lp627
g61
(g82
g63
NtRp628
(dp629
g66
(dp630
g86
g87
ssg75
g624
sg68
(lp631
g296
asbag61
(g82
g63
NtRp632
(dp633
g66
(dp634
g93
g94
ssg75
g624
sg68
(lp635
S':'
asbag61
(g82
g63
NtRp636
(dp637
g66
(dp638
sg75
g624
sg68
(lp639
g61
(g62
g63
NtRp640
(dp641
g66
(dp642
g74
I3
ssg75
g636
sg68
(lp643
S''
asbasbasbag61
(g77
g63
NtRp644
(dp645
g66
(dp646
sg75
g600
sg68
(lp647
g61
(g82
g63
NtRp648
(dp649
g66
(dp650
g86
g87
ssg75
g644
sg68
(lp651
g317
asbag61
(g82
g63
NtRp652
(dp653
g66
(dp654
g93
g94
ssg75
g644
sg68
(lp655
S':'
asbag61
(g82
g63
NtRp656
(dp657
g66
(dp658
sg75
g644
sg68
(lp659
g61
(g62
g63
NtRp660
(dp661
g66
(dp662
g74
I3
ssg75
g656
sg68
(lp663
S''
asbasbasbag61
(g77
g63
NtRp664
(dp665
g66
(dp666
sg75
g600
sg68
(lp667
g61
(g82
g63
NtRp668
(dp669
g66
(dp670
g86
g87
ssg75
g664
sg68
(lp671
g338
asbag61
(g82
g63
NtRp672
(dp673
g66
(dp674
g93
g94
ssg75
g664
sg68
(lp675
S':'
asbag61
(g82
g63
NtRp676
(dp677
g66
(dp678
sg75
g664
sg68
(lp679
g61
(g62
g63
NtRp680
(dp681
g66
(dp682
g74
I3
ssg75
g676
sg68
(lp683
S''
asbasbasbag61
(g77
g63
NtRp684
(dp685
g66
(dp686
sg75
g600
sg68
(lp687
g61
(g82
g63
NtRp688
(dp689
g66
(dp690
g86
g87
ssg75
g684
sg68
(lp691
g359
asbag61
(g82
g63
NtRp692
(dp693
g66
(dp694
g93
g94
ssg75
g684
sg68
(lp695
S':'
asbag61
(g82
g63
NtRp696
(dp697
g66
(dp698
sg75
g684
sg68
(lp699
g61
(g62
g63
NtRp700
(dp701
g66
(dp702
g74
I3
ssg75
g696
sg68
(lp703
S''
asbasbasbag61
(g77
g63
NtRp704
(dp705
g66
(dp706
sg75
g600
sg68
(lp707
g61
(g82
g63
NtRp708
(dp709
g66
(dp710
g86
g87
ssg75
g704
sg68
(lp711
g380
asbag61
(g82
g63
NtRp712
(dp713
g66
(dp714
g93
g94
ssg75
g704
sg68
(lp715
S':'
asbag61
(g82
g63
NtRp716
(dp717
g66
(dp718
sg75
g704
sg68
(lp719
g61
(g62
g63
NtRp720
(dp721
g66
(dp722
g74
I3
ssg75
g716
sg68
(lp723
S''
asbasbasbag61
(g77
g63
NtRp724
(dp725
g66
(dp726
sg75
g600
sg68
(lp727
g61
(g82
g63
NtRp728
(dp729
g66
(dp730
g86
g87
ssg75
g724
sg68
(lp731
g401
asbag61
(g82
g63
NtRp732
(dp733
g66
(dp734
g93
g94
ssg75
g724
sg68
(lp735
S':'
asbag61
(g82
g63
NtRp736
(dp737
g66
(dp738
sg75
g724
sg68
(lp739
g61
(g62
g63
NtRp740
(dp741
g66
(dp742
g74
I3
ssg75
g736
sg68
(lp743
S''
asbasbasbasbasbasbasbag61
(g77
g63
NtRp744
(dp745
g66
(dp746
sg75
g238
sg68
(lp747
g61
(g82
g63
NtRp748
(dp749
g66
(dp750
g86
g87
ssg75
g744
sg68
(lp751
S'session_id_welcome'
p752
asbag61
(g82
g63
NtRp753
(dp754
g66
(dp755
g93
g94
ssg75
g744
sg68
(lp756
S':'
asbag61
(g82
g63
NtRp757
(dp758
g66
(dp759
sg75
g744
sg68
(lp760
g61
(g62
g63
NtRp761
(dp762
g66
(dp763
g74
I4
ssg75
g757
sg68
(lp764
g61
(g70
g63
NtRp765
(dp766
g66
(dp767
g74
I3
ssg75
Nsg68
(lp768
g61
(g77
g63
NtRp769
(dp770
g66
(dp771
sg75
g765
sg68
(lp772
g61
(g82
g63
NtRp773
(dp774
g66
(dp775
g86
g87
ssg75
g769
sg68
(lp776
g275
asbag61
(g82
g63
NtRp777
(dp778
g66
(dp779
g93
g94
ssg75
g769
sg68
(lp780
S':'
asbag61
(g82
g63
NtRp781
(dp782
g66
(dp783
sg75
g769
sg68
(lp784
g61
(g62
g63
NtRp785
(dp786
g66
(dp787
g74
I3
ssg75
g781
sg68
(lp788
S''
asbasbasbag61
(g77
g63
NtRp789
(dp790
g66
(dp791
sg75
g765
sg68
(lp792
g61
(g82
g63
NtRp793
(dp794
g66
(dp795
g86
g87
ssg75
g789
sg68
(lp796
g296
asbag61
(g82
g63
NtRp797
(dp798
g66
(dp799
g93
g94
ssg75
g789
sg68
(lp800
S':'
asbag61
(g82
g63
NtRp801
(dp802
g66
(dp803
sg75
g789
sg68
(lp804
g61
(g62
g63
NtRp805
(dp806
g66
(dp807
g74
I3
ssg75
g801
sg68
(lp808
S''
asbasbasbag61
(g77
g63
NtRp809
(dp810
g66
(dp811
sg75
g765
sg68
(lp812
g61
(g82
g63
NtRp813
(dp814
g66
(dp815
g86
g87
ssg75
g809
sg68
(lp816
g317
asbag61
(g82
g63
NtRp817
(dp818
g66
(dp819
g93
g94
ssg75
g809
sg68
(lp820
S':'
asbag61
(g82
g63
NtRp821
(dp822
g66
(dp823
sg75
g809
sg68
(lp824
g61
(g62
g63
NtRp825
(dp826
g66
(dp827
g74
I3
ssg75
g821
sg68
(lp828
S''
asbasbasbag61
(g77
g63
NtRp829
(dp830
g66
(dp831
sg75
g765
sg68
(lp832
g61
(g82
g63
NtRp833
(dp834
g66
(dp835
g86
g87
ssg75
g829
sg68
(lp836
g338
asbag61
(g82
g63
NtRp837
(dp838
g66
(dp839
g93
g94
ssg75
g829
sg68
(lp840
S':'
asbag61
(g82
g63
NtRp841
(dp842
g66
(dp843
sg75
g829
sg68
(lp844
g61
(g62
g63
NtRp845
(dp846
g66
(dp847
g74
I3
ssg75
g841
sg68
(lp848
S''
asbasbasbag61
(g77
g63
NtRp849
(dp850
g66
(dp851
sg75
g765
sg68
(lp852
g61
(g82
g63
NtRp853
(dp854
g66
(dp855
g86
g87
ssg75
g849
sg68
(lp856
g359
asbag61
(g82
g63
NtRp857
(dp858
g66
(dp859
g93
g94
ssg75
g849
sg68
(lp860
S':'
asbag61
(g82
g63
NtRp861
(dp862
g66
(dp863
sg75
g849
sg68
(lp864
g61
(g62
g63
NtRp865
(dp866
g66
(dp867
g74
I3
ssg75
g861
sg68
(lp868
S''
asbasbasbag61
(g77
g63
NtRp869
(dp870
g66
(dp871
sg75
g765
sg68
(lp872
g61
(g82
g63
NtRp873
(dp874
g66
(dp875
g86
g87
ssg75
g869
sg68
(lp876
g380
asbag61
(g82
g63
NtRp877
(dp878
g66
(dp879
g93
g94
ssg75
g869
sg68
(lp880
S':'
asbag61
(g82
g63
NtRp881
(dp882
g66
(dp883
sg75
g869
sg68
(lp884
g61
(g62
g63
NtRp885
(dp886
g66
(dp887
g74
I3
ssg75
g881
sg68
(lp888
S''
asbasbasbag61
(g77
g63
NtRp889
(dp890
g66
(dp891
sg75
g765
sg68
(lp892
g61
(g82
g63
NtRp893
(dp894
g66
(dp895
g86
g87
ssg75
g889
sg68
(lp896
g401
asbag61
(g82
g63
NtRp897
(dp898
g66
(dp899
g93
g94
ssg75
g889
sg68
(lp900
S':'
asbag61
(g82
g63
NtRp901
(dp902
g66
(dp903
sg75
g889
sg68
(lp904
g61
(g62
g63
NtRp905
(dp906
g66
(dp907
g74
I3
ssg75
g901
sg68
(lp908
S''
asbasbasbasbasbasbasbasbasbasbasbag61
(g77
g63
NtRp909
(dp910
g66
(dp911
sg75
g71
sg68
(lp912
g61
(g82
g63
NtRp913
(dp914
g66
(dp915
g86
g87
ssg75
g909
sg68
(lp916
S'env'
p917
asbag61
(g82
g63
NtRp918
(dp919
g66
(dp920
g93
g94
ssg75
g909
sg68
(lp921
S':'
asbag61
(g82
g63
NtRp922
(dp923
g66
(dp924
sg75
g909
sg68
(lp925
g61
(g62
g63
NtRp926
(dp927
g66
(dp928
g74
I5
ssg75
g922
sg68
(lp929
g61
(g70
g63
NtRp930
(dp931
g66
(dp932
g74
I4
ssg75
Nsg68
(lp933
g61
(g77
g63
NtRp934
(dp935
g66
(dp936
sg75
g930
sg68
(lp937
g61
(g82
g63
NtRp938
(dp939
g66
(dp940
g86
g87
ssg75
g934
sg68
(lp941
S'app_folders'
p942
asbag61
(g82
g63
NtRp943
(dp944
g66
(dp945
g93
g94
ssg75
g934
sg68
(lp946
S':'
asbag61
(g82
g63
NtRp947
(dp948
g66
(dp949
sg75
g934
sg68
(lp950
g61
(g62
g63
NtRp951
(dp952
g66
(dp953
g74
I4
ssg75
g947
sg68
(lp954
S"set(['D:\\\\web2py\\\\applications\\\\pro\\\\', 'D:\\\\web2py\\\\applications\\\\admin\\\\', 'D:\\\\web2py\\\\applications\\\\welcome\\\\'])"
p955
asbasbasbag61
(g77
g63
NtRp956
(dp957
g66
(dp958
sg75
g930
sg68
(lp959
g61
(g82
g63
NtRp960
(dp961
g66
(dp962
g86
g87
ssg75
g956
sg68
(lp963
S'applications_parent'
p964
asbag61
(g82
g63
NtRp965
(dp966
g66
(dp967
g93
g94
ssg75
g956
sg68
(lp968
S':'
asbag61
(g82
g63
NtRp969
(dp970
g66
(dp971
sg75
g956
sg68
(lp972
g61
(g62
g63
NtRp973
(dp974
g66
(dp975
g74
I4
ssg75
g969
sg68
(lp976
S'D:\\web2py'
p977
asbasbasbag61
(g77
g63
NtRp978
(dp979
g66
(dp980
sg75
g930
sg68
(lp981
g61
(g82
g63
NtRp982
(dp983
g66
(dp984
g86
g87
ssg75
g978
sg68
(lp985
S'cmd_args'
p986
asbag61
(g82
g63
NtRp987
(dp988
g66
(dp989
g93
g94
ssg75
g978
sg68
(lp990
S':'
asbag61
(g82
g63
NtRp991
(dp992
g66
(dp993
sg75
g978
sg68
(lp994
g61
(g62
g63
NtRp995
(dp996
g66
(dp997
g74
I4
ssg75
g991
sg68
(lp998
g61
(g70
g63
NtRp999
(dp1000
g66
(dp1001
g74
I3
ssg75
Nsg68
(lp1002
sbasbasbasbag61
(g77
g63
NtRp1003
(dp1004
g66
(dp1005
sg75
g930
sg68
(lp1006
g61
(g82
g63
NtRp1007
(dp1008
g66
(dp1009
g86
g87
ssg75
g1003
sg68
(lp1010
S'cmd_options'
p1011
asbag61
(g82
g63
NtRp1012
(dp1013
g66
(dp1014
g93
g94
ssg75
g1003
sg68
(lp1015
S':'
asbag61
(g82
g63
NtRp1016
(dp1017
g66
(dp1018
sg75
g1003
sg68
(lp1019
g61
(g62
g63
NtRp1020
(dp1021
g66
(dp1022
g74
I4
ssg75
g1016
sg68
(lp1023
S"<Values at 0x30d3fa8: {'verbose': False, 'ip': '127.0.0.1', 'shutdown_timeout': 5, 'taskbar': False, 'nocron': False, 'pid_filename': 'httpserver.pid', 'maxthreads': None, 'softcron': False, 'server_name': 'user-PC', 'bpython': False, 'nogui': False, 'port': 8000, 'extcron': False, 'debuglevel': 30, 'test': None, 'folder': 'D:\\\\web2py', 'config': '', 'import_models': False, 'winservice': '', 'shell': None, 'run': '', 'log_filename': 'httpserver.log', 'args': [''], 'socket_timeout': 5, 'ssl_ca_certificate': None, 'scheduler': None, 'profiler_filename': None, 'ssl_private_key': '', 'password': '<ask>', 'request_queue_size': 5, 'ssl_certificate': '', 'cronjob': False, 'numthreads': None, 'quiet': False, 'interfaces': None, 'minthreads': None, 'timeout': 10, 'plain': False, 'nobanner': False}>"
p1024
asbasbasbag61
(g77
g63
NtRp1025
(dp1026
g66
(dp1027
sg75
g930
sg68
(lp1028
g61
(g82
g63
NtRp1029
(dp1030
g66
(dp1031
g86
g87
ssg75
g1025
sg68
(lp1032
S'db_sessions'
p1033
asbag61
(g82
g63
NtRp1034
(dp1035
g66
(dp1036
g93
g94
ssg75
g1025
sg68
(lp1037
S':'
asbag61
(g82
g63
NtRp1038
(dp1039
g66
(dp1040
sg75
g1025
sg68
(lp1041
g61
(g62
g63
NtRp1042
(dp1043
g66
(dp1044
g74
I4
ssg75
g1038
sg68
(lp1045
S'set([])'
p1046
asbasbasbag61
(g77
g63
NtRp1047
(dp1048
g66
(dp1049
sg75
g930
sg68
(lp1050
g61
(g82
g63
NtRp1051
(dp1052
g66
(dp1053
g86
g87
ssg75
g1047
sg68
(lp1054
S'debugging'
p1055
asbag61
(g82
g63
NtRp1056
(dp1057
g66
(dp1058
g93
g94
ssg75
g1047
sg68
(lp1059
S':'
asbag61
(g82
g63
NtRp1060
(dp1061
g66
(dp1062
sg75
g1047
sg68
(lp1063
g61
(g62
g63
NtRp1064
(dp1065
g66
(dp1066
g74
I4
ssg75
g1060
sg68
(lp1067
g104
asbasbasbag61
(g77
g63
NtRp1068
(dp1069
g66
(dp1070
sg75
g930
sg68
(lp1071
g61
(g82
g63
NtRp1072
(dp1073
g66
(dp1074
g86
g87
ssg75
g1068
sg68
(lp1075
S'gluon_parent'
p1076
asbag61
(g82
g63
NtRp1077
(dp1078
g66
(dp1079
g93
g94
ssg75
g1068
sg68
(lp1080
S':'
asbag61
(g82
g63
NtRp1081
(dp1082
g66
(dp1083
sg75
g1068
sg68
(lp1084
g61
(g62
g63
NtRp1085
(dp1086
g66
(dp1087
g74
I4
ssg75
g1081
sg68
(lp1088
S'D:\\web2py'
p1089
asbasbasbag61
(g77
g63
NtRp1090
(dp1091
g66
(dp1092
sg75
g930
sg68
(lp1093
g61
(g82
g63
NtRp1094
(dp1095
g66
(dp1096
g86
g87
ssg75
g1090
sg68
(lp1097
S'http_accept'
p1098
asbag61
(g82
g63
NtRp1099
(dp1100
g66
(dp1101
g93
g94
ssg75
g1090
sg68
(lp1102
S':'
asbag61
(g82
g63
NtRp1103
(dp1104
g66
(dp1105
sg75
g1090
sg68
(lp1106
g61
(g62
g63
NtRp1107
(dp1108
g66
(dp1109
g74
I4
ssg75
g1103
sg68
(lp1110
S'text/html,application/xhtml+xml,application/xml;q=0.9,*/*;q=0.8'
p1111
asbasbasbag61
(g77
g63
NtRp1112
(dp1113
g66
(dp1114
sg75
g930
sg68
(lp1115
g61
(g82
g63
NtRp1116
(dp1117
g66
(dp1118
g86
g87
ssg75
g1112
sg68
(lp1119
S'http_accept_encoding'
p1120
asbag61
(g82
g63
NtRp1121
(dp1122
g66
(dp1123
g93
g94
ssg75
g1112
sg68
(lp1124
S':'
asbag61
(g82
g63
NtRp1125
(dp1126
g66
(dp1127
sg75
g1112
sg68
(lp1128
g61
(g62
g63
NtRp1129
(dp1130
g66
(dp1131
g74
I4
ssg75
g1125
sg68
(lp1132
S'gzip, deflate'
p1133
asbasbasbag61
(g77
g63
NtRp1134
(dp1135
g66
(dp1136
sg75
g930
sg68
(lp1137
g61
(g82
g63
NtRp1138
(dp1139
g66
(dp1140
g86
g87
ssg75
g1134
sg68
(lp1141
S'http_accept_language'
p1142
asbag61
(g82
g63
NtRp1143
(dp1144
g66
(dp1145
g93
g94
ssg75
g1134
sg68
(lp1146
S':'
asbag61
(g82
g63
NtRp1147
(dp1148
g66
(dp1149
sg75
g1134
sg68
(lp1150
g61
(g62
g63
NtRp1151
(dp1152
g66
(dp1153
g74
I4
ssg75
g1147
sg68
(lp1154
S'en-us,en;q=0.5'
p1155
asbasbasbag61
(g77
g63
NtRp1156
(dp1157
g66
(dp1158
sg75
g930
sg68
(lp1159
g61
(g82
g63
NtRp1160
(dp1161
g66
(dp1162
g86
g87
ssg75
g1156
sg68
(lp1163
S'http_cache_control'
p1164
asbag61
(g82
g63
NtRp1165
(dp1166
g66
(dp1167
g93
g94
ssg75
g1156
sg68
(lp1168
S':'
asbag61
(g82
g63
NtRp1169
(dp1170
g66
(dp1171
sg75
g1156
sg68
(lp1172
g61
(g62
g63
NtRp1173
(dp1174
g66
(dp1175
g74
I4
ssg75
g1169
sg68
(lp1176
S'max-age=0'
p1177
asbasbasbag61
(g77
g63
NtRp1178
(dp1179
g66
(dp1180
sg75
g930
sg68
(lp1181
g61
(g82
g63
NtRp1182
(dp1183
g66
(dp1184
g86
g87
ssg75
g1178
sg68
(lp1185
S'http_connection'
p1186
asbag61
(g82
g63
NtRp1187
(dp1188
g66
(dp1189
g93
g94
ssg75
g1178
sg68
(lp1190
S':'
asbag61
(g82
g63
NtRp1191
(dp1192
g66
(dp1193
sg75
g1178
sg68
(lp1194
g61
(g62
g63
NtRp1195
(dp1196
g66
(dp1197
g74
I4
ssg75
g1191
sg68
(lp1198
S'keep-alive'
p1199
asbasbasbag61
(g77
g63
NtRp1200
(dp1201
g66
(dp1202
sg75
g930
sg68
(lp1203
g61
(g82
g63
NtRp1204
(dp1205
g66
(dp1206
g86
g87
ssg75
g1200
sg68
(lp1207
S'http_cookie'
p1208
asbag61
(g82
g63
NtRp1209
(dp1210
g66
(dp1211
g93
g94
ssg75
g1200
sg68
(lp1212
S':'
asbag61
(g82
g63
NtRp1213
(dp1214
g66
(dp1215
sg75
g1200
sg68
(lp1216
g61
(g62
g63
NtRp1217
(dp1218
g66
(dp1219
g74
I4
ssg75
g1213
sg68
(lp1220
S'session_id_ssad_project=127.0.0.1-7925c1a6-3250-4da6-9a5e-dad9088b6c6b; session_id_welcome=127.0.0.1-0f7afdeb-39bf-45df-bdee-82bd2f99cf0b; session_id_admin=127.0.0.1-e09d56a6-6dc9-42b2-92fe-1c96eb5d52a2; session_id_pro=127.0.0.1-fc976245-ef6c-457f-bccb-5f0f31b16c20'
p1221
asbasbasbag61
(g77
g63
NtRp1222
(dp1223
g66
(dp1224
sg75
g930
sg68
(lp1225
g61
(g82
g63
NtRp1226
(dp1227
g66
(dp1228
g86
g87
ssg75
g1222
sg68
(lp1229
S'http_dnt'
p1230
asbag61
(g82
g63
NtRp1231
(dp1232
g66
(dp1233
g93
g94
ssg75
g1222
sg68
(lp1234
S':'
asbag61
(g82
g63
NtRp1235
(dp1236
g66
(dp1237
sg75
g1222
sg68
(lp1238
g61
(g62
g63
NtRp1239
(dp1240
g66
(dp1241
g74
I4
ssg75
g1235
sg68
(lp1242
S'1'
asbasbasbag61
(g77
g63
NtRp1243
(dp1244
g66
(dp1245
sg75
g930
sg68
(lp1246
g61
(g82
g63
NtRp1247
(dp1248
g66
(dp1249
g86
g87
ssg75
g1243
sg68
(lp1250
S'http_host'
p1251
asbag61
(g82
g63
NtRp1252
(dp1253
g66
(dp1254
g93
g94
ssg75
g1243
sg68
(lp1255
S':'
asbag61
(g82
g63
NtRp1256
(dp1257
g66
(dp1258
sg75
g1243
sg68
(lp1259
g61
(g62
g63
NtRp1260
(dp1261
g66
(dp1262
g74
I4
ssg75
g1256
sg68
(lp1263
S'127.0.0.1:8000'
p1264
asbasbasbag61
(g77
g63
NtRp1265
(dp1266
g66
(dp1267
sg75
g930
sg68
(lp1268
g61
(g82
g63
NtRp1269
(dp1270
g66
(dp1271
g86
g87
ssg75
g1265
sg68
(lp1272
S'http_referer'
p1273
asbag61
(g82
g63
NtRp1274
(dp1275
g66
(dp1276
g93
g94
ssg75
g1265
sg68
(lp1277
S':'
asbag61
(g82
g63
NtRp1278
(dp1279
g66
(dp1280
sg75
g1265
sg68
(lp1281
g61
(g62
g63
NtRp1282
(dp1283
g66
(dp1284
g74
I4
ssg75
g1278
sg68
(lp1285
S'http://127.0.0.1:8000/pro/default/relate'
p1286
asbasbasbag61
(g77
g63
NtRp1287
(dp1288
g66
(dp1289
sg75
g930
sg68
(lp1290
g61
(g82
g63
NtRp1291
(dp1292
g66
(dp1293
g86
g87
ssg75
g1287
sg68
(lp1294
S'http_user_agent'
p1295
asbag61
(g82
g63
NtRp1296
(dp1297
g66
(dp1298
g93
g94
ssg75
g1287
sg68
(lp1299
S':'
asbag61
(g82
g63
NtRp1300
(dp1301
g66
(dp1302
sg75
g1287
sg68
(lp1303
g61
(g62
g63
NtRp1304
(dp1305
g66
(dp1306
g74
I4
ssg75
g1300
sg68
(lp1307
S'Mozilla/5.0 (Windows NT 6.1; WOW64; rv:11.0) Gecko/20100101 Firefox/11.0'
p1308
asbasbasbag61
(g77
g63
NtRp1309
(dp1310
g66
(dp1311
sg75
g930
sg68
(lp1312
g61
(g82
g63
NtRp1313
(dp1314
g66
(dp1315
g86
g87
ssg75
g1309
sg68
(lp1316
S'is_jython'
p1317
asbag61
(g82
g63
NtRp1318
(dp1319
g66
(dp1320
g93
g94
ssg75
g1309
sg68
(lp1321
S':'
asbag61
(g82
g63
NtRp1322
(dp1323
g66
(dp1324
sg75
g1309
sg68
(lp1325
g61
(g62
g63
NtRp1326
(dp1327
g66
(dp1328
g74
I4
ssg75
g1322
sg68
(lp1329
g104
asbasbasbag61
(g77
g63
NtRp1330
(dp1331
g66
(dp1332
sg75
g930
sg68
(lp1333
g61
(g82
g63
NtRp1334
(dp1335
g66
(dp1336
g86
g87
ssg75
g1330
sg68
(lp1337
S'is_pypy'
p1338
asbag61
(g82
g63
NtRp1339
(dp1340
g66
(dp1341
g93
g94
ssg75
g1330
sg68
(lp1342
S':'
asbag61
(g82
g63
NtRp1343
(dp1344
g66
(dp1345
sg75
g1330
sg68
(lp1346
g61
(g62
g63
NtRp1347
(dp1348
g66
(dp1349
g74
I4
ssg75
g1343
sg68
(lp1350
g104
asbasbasbag61
(g77
g63
NtRp1351
(dp1352
g66
(dp1353
sg75
g930
sg68
(lp1354
g61
(g82
g63
NtRp1355
(dp1356
g66
(dp1357
g86
g87
ssg75
g1351
sg68
(lp1358
S'path_info'
p1359
asbag61
(g82
g63
NtRp1360
(dp1361
g66
(dp1362
g93
g94
ssg75
g1351
sg68
(lp1363
S':'
asbag61
(g82
g63
NtRp1364
(dp1365
g66
(dp1366
sg75
g1351
sg68
(lp1367
g61
(g62
g63
NtRp1368
(dp1369
g66
(dp1370
g74
I4
ssg75
g1364
sg68
(lp1371
S'/pro/default/kruskal'
p1372
asbasbasbag61
(g77
g63
NtRp1373
(dp1374
g66
(dp1375
sg75
g930
sg68
(lp1376
g61
(g82
g63
NtRp1377
(dp1378
g66
(dp1379
g86
g87
ssg75
g1373
sg68
(lp1380
S'query_string'
p1381
asbag61
(g82
g63
NtRp1382
(dp1383
g66
(dp1384
g93
g94
ssg75
g1373
sg68
(lp1385
S':'
asbag61
(g82
g63
NtRp1386
(dp1387
g66
(dp1388
sg75
g1373
sg68
(lp1389
g61
(g62
g63
NtRp1390
(dp1391
g66
(dp1392
g74
I4
ssg75
g1386
sg68
(lp1393
S''
asbasbasbag61
(g77
g63
NtRp1394
(dp1395
g66
(dp1396
sg75
g930
sg68
(lp1397
g61
(g82
g63
NtRp1398
(dp1399
g66
(dp1400
g86
g87
ssg75
g1394
sg68
(lp1401
S'remote_addr'
p1402
asbag61
(g82
g63
NtRp1403
(dp1404
g66
(dp1405
g93
g94
ssg75
g1394
sg68
(lp1406
S':'
asbag61
(g82
g63
NtRp1407
(dp1408
g66
(dp1409
sg75
g1394
sg68
(lp1410
g61
(g62
g63
NtRp1411
(dp1412
g66
(dp1413
g74
I4
ssg75
g1407
sg68
(lp1414
g194
asbasbasbag61
(g77
g63
NtRp1415
(dp1416
g66
(dp1417
sg75
g930
sg68
(lp1418
g61
(g82
g63
NtRp1419
(dp1420
g66
(dp1421
g86
g87
ssg75
g1415
sg68
(lp1422
S'remote_port'
p1423
asbag61
(g82
g63
NtRp1424
(dp1425
g66
(dp1426
g93
g94
ssg75
g1415
sg68
(lp1427
S':'
asbag61
(g82
g63
NtRp1428
(dp1429
g66
(dp1430
sg75
g1415
sg68
(lp1431
g61
(g62
g63
NtRp1432
(dp1433
g66
(dp1434
g74
I4
ssg75
g1428
sg68
(lp1435
S'55150'
p1436
asbasbasbag61
(g77
g63
NtRp1437
(dp1438
g66
(dp1439
sg75
g930
sg68
(lp1440
g61
(g82
g63
NtRp1441
(dp1442
g66
(dp1443
g86
g87
ssg75
g1437
sg68
(lp1444
S'request_method'
p1445
asbag61
(g82
g63
NtRp1446
(dp1447
g66
(dp1448
g93
g94
ssg75
g1437
sg68
(lp1449
S':'
asbag61
(g82
g63
NtRp1450
(dp1451
g66
(dp1452
sg75
g1437
sg68
(lp1453
g61
(g62
g63
NtRp1454
(dp1455
g66
(dp1456
g74
I4
ssg75
g1450
sg68
(lp1457
S'GET'
p1458
asbasbasbag61
(g77
g63
NtRp1459
(dp1460
g66
(dp1461
sg75
g930
sg68
(lp1462
g61
(g82
g63
NtRp1463
(dp1464
g66
(dp1465
g86
g87
ssg75
g1459
sg68
(lp1466
S'script_name'
p1467
asbag61
(g82
g63
NtRp1468
(dp1469
g66
(dp1470
g93
g94
ssg75
g1459
sg68
(lp1471
S':'
asbag61
(g82
g63
NtRp1472
(dp1473
g66
(dp1474
sg75
g1459
sg68
(lp1475
g61
(g62
g63
NtRp1476
(dp1477
g66
(dp1478
g74
I4
ssg75
g1472
sg68
(lp1479
S''
asbasbasbag61
(g77
g63
NtRp1480
(dp1481
g66
(dp1482
sg75
g930
sg68
(lp1483
g61
(g82
g63
NtRp1484
(dp1485
g66
(dp1486
g86
g87
ssg75
g1480
sg68
(lp1487
S'server_name'
p1488
asbag61
(g82
g63
NtRp1489
(dp1490
g66
(dp1491
g93
g94
ssg75
g1480
sg68
(lp1492
S':'
asbag61
(g82
g63
NtRp1493
(dp1494
g66
(dp1495
sg75
g1480
sg68
(lp1496
g61
(g62
g63
NtRp1497
(dp1498
g66
(dp1499
g74
I4
ssg75
g1493
sg68
(lp1500
S'user-PC'
p1501
asbasbasbag61
(g77
g63
NtRp1502
(dp1503
g66
(dp1504
sg75
g930
sg68
(lp1505
g61
(g82
g63
NtRp1506
(dp1507
g66
(dp1508
g86
g87
ssg75
g1502
sg68
(lp1509
S'server_port'
p1510
asbag61
(g82
g63
NtRp1511
(dp1512
g66
(dp1513
g93
g94
ssg75
g1502
sg68
(lp1514
S':'
asbag61
(g82
g63
NtRp1515
(dp1516
g66
(dp1517
sg75
g1502
sg68
(lp1518
g61
(g62
g63
NtRp1519
(dp1520
g66
(dp1521
g74
I4
ssg75
g1515
sg68
(lp1522
S'8000'
p1523
asbasbasbag61
(g77
g63
NtRp1524
(dp1525
g66
(dp1526
sg75
g930
sg68
(lp1527
g61
(g82
g63
NtRp1528
(dp1529
g66
(dp1530
g86
g87
ssg75
g1524
sg68
(lp1531
S'server_protocol'
p1532
asbag61
(g82
g63
NtRp1533
(dp1534
g66
(dp1535
g93
g94
ssg75
g1524
sg68
(lp1536
S':'
asbag61
(g82
g63
NtRp1537
(dp1538
g66
(dp1539
sg75
g1524
sg68
(lp1540
g61
(g62
g63
NtRp1541
(dp1542
g66
(dp1543
g74
I4
ssg75
g1537
sg68
(lp1544
S'HTTP/1.1'
p1545
asbasbasbag61
(g77
g63
NtRp1546
(dp1547
g66
(dp1548
sg75
g930
sg68
(lp1549
g61
(g82
g63
NtRp1550
(dp1551
g66
(dp1552
g86
g87
ssg75
g1546
sg68
(lp1553
S'server_software'
p1554
asbag61
(g82
g63
NtRp1555
(dp1556
g66
(dp1557
g93
g94
ssg75
g1546
sg68
(lp1558
S':'
asbag61
(g82
g63
NtRp1559
(dp1560
g66
(dp1561
sg75
g1546
sg68
(lp1562
g61
(g62
g63
NtRp1563
(dp1564
g66
(dp1565
g74
I4
ssg75
g1559
sg68
(lp1566
S'Rocket 1.2.4'
p1567
asbasbasbag61
(g77
g63
NtRp1568
(dp1569
g66
(dp1570
sg75
g930
sg68
(lp1571
g61
(g82
g63
NtRp1572
(dp1573
g66
(dp1574
g86
g87
ssg75
g1568
sg68
(lp1575
S'web2py_crontype'
p1576
asbag61
(g82
g63
NtRp1577
(dp1578
g66
(dp1579
g93
g94
ssg75
g1568
sg68
(lp1580
S':'
asbag61
(g82
g63
NtRp1581
(dp1582
g66
(dp1583
sg75
g1568
sg68
(lp1584
g61
(g62
g63
NtRp1585
(dp1586
g66
(dp1587
g74
I4
ssg75
g1581
sg68
(lp1588
S'hard'
p1589
asbasbasbag61
(g77
g63
NtRp1590
(dp1591
g66
(dp1592
sg75
g930
sg68
(lp1593
g61
(g82
g63
NtRp1594
(dp1595
g66
(dp1596
g86
g87
ssg75
g1590
sg68
(lp1597
S'web2py_path'
p1598
asbag61
(g82
g63
NtRp1599
(dp1600
g66
(dp1601
g93
g94
ssg75
g1590
sg68
(lp1602
S':'
asbag61
(g82
g63
NtRp1603
(dp1604
g66
(dp1605
sg75
g1590
sg68
(lp1606
g61
(g62
g63
NtRp1607
(dp1608
g66
(dp1609
g74
I4
ssg75
g1603
sg68
(lp1610
g977
asbasbasbag61
(g77
g63
NtRp1611
(dp1612
g66
(dp1613
sg75
g930
sg68
(lp1614
g61
(g82
g63
NtRp1615
(dp1616
g66
(dp1617
g86
g87
ssg75
g1611
sg68
(lp1618
S'web2py_version'
p1619
asbag61
(g82
g63
NtRp1620
(dp1621
g66
(dp1622
g93
g94
ssg75
g1611
sg68
(lp1623
S':'
asbag61
(g82
g63
NtRp1624
(dp1625
g66
(dp1626
sg75
g1611
sg68
(lp1627
g61
(g62
g63
NtRp1628
(dp1629
g66
(dp1630
g74
I4
ssg75
g1624
sg68
(lp1631
g61
(g70
g63
NtRp1632
(dp1633
g66
(dp1634
g74
I3
ssg75
Nsg68
(lp1635
g61
(g77
g63
NtRp1636
(dp1637
g66
(dp1638
sg75
g1632
sg68
(lp1639
g61
(g82
g63
NtRp1640
(dp1641
g66
(dp1642
sg75
g1636
sg68
(lp1643
g61
(g62
g63
NtRp1644
(dp1645
g66
(dp1646
g74
I3
ssg75
g1640
sg68
(lp1647
S'1'
asbasbasbag61
(g77
g63
NtRp1648
(dp1649
g66
(dp1650
sg75
g1632
sg68
(lp1651
g61
(g82
g63
NtRp1652
(dp1653
g66
(dp1654
sg75
g1648
sg68
(lp1655
g61
(g62
g63
NtRp1656
(dp1657
g66
(dp1658
g74
I3
ssg75
g1652
sg68
(lp1659
S'99'
p1660
asbasbasbag61
(g77
g63
NtRp1661
(dp1662
g66
(dp1663
sg75
g1632
sg68
(lp1664
g61
(g82
g63
NtRp1665
(dp1666
g66
(dp1667
sg75
g1661
sg68
(lp1668
g61
(g62
g63
NtRp1669
(dp1670
g66
(dp1671
g74
I3
ssg75
g1665
sg68
(lp1672
S'7'
asbasbasbag61
(g77
g63
NtRp1673
(dp1674
g66
(dp1675
sg75
g1632
sg68
(lp1676
g61
(g82
g63
NtRp1677
(dp1678
g66
(dp1679
sg75
g1673
sg68
(lp1680
g61
(g62
g63
NtRp1681
(dp1682
g66
(dp1683
g74
I3
ssg75
g1677
sg68
(lp1684
S'datetime.datetime(2012, 3, 4, 22, 12, 8)'
p1685
asbasbasbag61
(g77
g63
NtRp1686
(dp1687
g66
(dp1688
sg75
g1632
sg68
(lp1689
g61
(g82
g63
NtRp1690
(dp1691
g66
(dp1692
sg75
g1686
sg68
(lp1693
g61
(g62
g63
NtRp1694
(dp1695
g66
(dp1696
g74
I3
ssg75
g1690
sg68
(lp1697
S'stable'
p1698
asbasbasbasbasbasbasbag61
(g77
g63
NtRp1699
(dp1700
g66
(dp1701
sg75
g930
sg68
(lp1702
g61
(g82
g63
NtRp1703
(dp1704
g66
(dp1705
g86
g87
ssg75
g1699
sg68
(lp1706
S'wsgi_errors'
p1707
asbag61
(g82
g63
NtRp1708
(dp1709
g66
(dp1710
g93
g94
ssg75
g1699
sg68
(lp1711
S':'
asbag61
(g82
g63
NtRp1712
(dp1713
g66
(dp1714
sg75
g1699
sg68
(lp1715
g61
(g62
g63
NtRp1716
(dp1717
g66
(dp1718
g74
I4
ssg75
g1712
sg68
(lp1719
S"<open file '<stderr>', mode 'w' at 0x01FC00B0>"
p1720
asbasbasbag61
(g77
g63
NtRp1721
(dp1722
g66
(dp1723
sg75
g930
sg68
(lp1724
g61
(g82
g63
NtRp1725
(dp1726
g66
(dp1727
g86
g87
ssg75
g1721
sg68
(lp1728
S'wsgi_file_wrapper'
p1729
asbag61
(g82
g63
NtRp1730
(dp1731
g66
(dp1732
g93
g94
ssg75
g1721
sg68
(lp1733
S':'
asbag61
(g82
g63
NtRp1734
(dp1735
g66
(dp1736
sg75
g1721
sg68
(lp1737
g61
(g62
g63
NtRp1738
(dp1739
g66
(dp1740
g74
I4
ssg75
g1734
sg68
(lp1741
S'<class wsgiref.util.FileWrapper at 0x02E72E40>'
p1742
asbasbasbag61
(g77
g63
NtRp1743
(dp1744
g66
(dp1745
sg75
g930
sg68
(lp1746
g61
(g82
g63
NtRp1747
(dp1748
g66
(dp1749
g86
g87
ssg75
g1743
sg68
(lp1750
S'wsgi_input'
p1751
asbag61
(g82
g63
NtRp1752
(dp1753
g66
(dp1754
g93
g94
ssg75
g1743
sg68
(lp1755
S':'
asbag61
(g82
g63
NtRp1756
(dp1757
g66
(dp1758
sg75
g1743
sg68
(lp1759
g61
(g62
g63
NtRp1760
(dp1761
g66
(dp1762
g74
I4
ssg75
g1756
sg68
(lp1763
S'<socket._fileobject object at 0x076CC5B0>'
p1764
asbasbasbag61
(g77
g63
NtRp1765
(dp1766
g66
(dp1767
sg75
g930
sg68
(lp1768
g61
(g82
g63
NtRp1769
(dp1770
g66
(dp1771
g86
g87
ssg75
g1765
sg68
(lp1772
S'wsgi_multiprocess'
p1773
asbag61
(g82
g63
NtRp1774
(dp1775
g66
(dp1776
g93
g94
ssg75
g1765
sg68
(lp1777
S':'
asbag61
(g82
g63
NtRp1778
(dp1779
g66
(dp1780
sg75
g1765
sg68
(lp1781
g61
(g62
g63
NtRp1782
(dp1783
g66
(dp1784
g74
I4
ssg75
g1778
sg68
(lp1785
g104
asbasbasbag61
(g77
g63
NtRp1786
(dp1787
g66
(dp1788
sg75
g930
sg68
(lp1789
g61
(g82
g63
NtRp1790
(dp1791
g66
(dp1792
g86
g87
ssg75
g1786
sg68
(lp1793
S'wsgi_multithread'
p1794
asbag61
(g82
g63
NtRp1795
(dp1796
g66
(dp1797
g93
g94
ssg75
g1786
sg68
(lp1798
S':'
asbag61
(g82
g63
NtRp1799
(dp1800
g66
(dp1801
sg75
g1786
sg68
(lp1802
g61
(g62
g63
NtRp1803
(dp1804
g66
(dp1805
g74
I4
ssg75
g1799
sg68
(lp1806
S'True'
p1807
asbasbasbag61
(g77
g63
NtRp1808
(dp1809
g66
(dp1810
sg75
g930
sg68
(lp1811
g61
(g82
g63
NtRp1812
(dp1813
g66
(dp1814
g86
g87
ssg75
g1808
sg68
(lp1815
S'wsgi_run_once'
p1816
asbag61
(g82
g63
NtRp1817
(dp1818
g66
(dp1819
g93
g94
ssg75
g1808
sg68
(lp1820
S':'
asbag61
(g82
g63
NtRp1821
(dp1822
g66
(dp1823
sg75
g1808
sg68
(lp1824
g61
(g62
g63
NtRp1825
(dp1826
g66
(dp1827
g74
I4
ssg75
g1821
sg68
(lp1828
g104
asbasbasbag61
(g77
g63
NtRp1829
(dp1830
g66
(dp1831
sg75
g930
sg68
(lp1832
g61
(g82
g63
NtRp1833
(dp1834
g66
(dp1835
g86
g87
ssg75
g1829
sg68
(lp1836
S'wsgi_url_scheme'
p1837
asbag61
(g82
g63
NtRp1838
(dp1839
g66
(dp1840
g93
g94
ssg75
g1829
sg68
(lp1841
S':'
asbag61
(g82
g63
NtRp1842
(dp1843
g66
(dp1844
sg75
g1829
sg68
(lp1845
g61
(g62
g63
NtRp1846
(dp1847
g66
(dp1848
g74
I4
ssg75
g1842
sg68
(lp1849
S'http'
p1850
asbasbasbag61
(g77
g63
NtRp1851
(dp1852
g66
(dp1853
sg75
g930
sg68
(lp1854
g61
(g82
g63
NtRp1855
(dp1856
g66
(dp1857
g86
g87
ssg75
g1851
sg68
(lp1858
S'wsgi_version'
p1859
asbag61
(g82
g63
NtRp1860
(dp1861
g66
(dp1862
g93
g94
ssg75
g1851
sg68
(lp1863
S':'
asbag61
(g82
g63
NtRp1864
(dp1865
g66
(dp1866
sg75
g1851
sg68
(lp1867
g61
(g62
g63
NtRp1868
(dp1869
g66
(dp1870
g74
I4
ssg75
g1864
sg68
(lp1871
g61
(g70
g63
NtRp1872
(dp1873
g66
(dp1874
g74
I3
ssg75
Nsg68
(lp1875
g61
(g77
g63
NtRp1876
(dp1877
g66
(dp1878
sg75
g1872
sg68
(lp1879
g61
(g82
g63
NtRp1880
(dp1881
g66
(dp1882
sg75
g1876
sg68
(lp1883
g61
(g62
g63
NtRp1884
(dp1885
g66
(dp1886
g74
I3
ssg75
g1880
sg68
(lp1887
S'1'
asbasbasbag61
(g77
g63
NtRp1888
(dp1889
g66
(dp1890
sg75
g1872
sg68
(lp1891
g61
(g82
g63
NtRp1892
(dp1893
g66
(dp1894
sg75
g1888
sg68
(lp1895
g61
(g62
g63
NtRp1896
(dp1897
g66
(dp1898
g74
I3
ssg75
g1892
sg68
(lp1899
S'0'
asbasbasbasbasbasbasbasbasbasbasbag61
(g77
g63
NtRp1900
(dp1901
g66
(dp1902
sg75
g71
sg68
(lp1903
g61
(g82
g63
NtRp1904
(dp1905
g66
(dp1906
g86
g87
ssg75
g1900
sg68
(lp1907
S'extension'
p1908
asbag61
(g82
g63
NtRp1909
(dp1910
g66
(dp1911
g93
g94
ssg75
g1900
sg68
(lp1912
S':'
asbag61
(g82
g63
NtRp1913
(dp1914
g66
(dp1915
sg75
g1900
sg68
(lp1916
g61
(g62
g63
NtRp1917
(dp1918
g66
(dp1919
g74
I5
ssg75
g1913
sg68
(lp1920
S'html'
p1921
asbasbasbag61
(g77
g63
NtRp1922
(dp1923
g66
(dp1924
sg75
g71
sg68
(lp1925
g61
(g82
g63
NtRp1926
(dp1927
g66
(dp1928
g86
g87
ssg75
g1922
sg68
(lp1929
S'folder'
p1930
asbag61
(g82
g63
NtRp1931
(dp1932
g66
(dp1933
g93
g94
ssg75
g1922
sg68
(lp1934
S':'
asbag61
(g82
g63
NtRp1935
(dp1936
g66
(dp1937
sg75
g1922
sg68
(lp1938
g61
(g62
g63
NtRp1939
(dp1940
g66
(dp1941
g74
I5
ssg75
g1935
sg68
(lp1942
S'D:\\web2py\\applications\\pro\\'
p1943
asbasbasbag61
(g77
g63
NtRp1944
(dp1945
g66
(dp1946
sg75
g71
sg68
(lp1947
g61
(g82
g63
NtRp1948
(dp1949
g66
(dp1950
g86
g87
ssg75
g1944
sg68
(lp1951
S'function'
p1952
asbag61
(g82
g63
NtRp1953
(dp1954
g66
(dp1955
g93
g94
ssg75
g1944
sg68
(lp1956
S':'
asbag61
(g82
g63
NtRp1957
(dp1958
g66
(dp1959
sg75
g1944
sg68
(lp1960
g61
(g62
g63
NtRp1961
(dp1962
g66
(dp1963
g74
I5
ssg75
g1957
sg68
(lp1964
S'kruskal'
p1965
asbasbasbag61
(g77
g63
NtRp1966
(dp1967
g66
(dp1968
sg75
g71
sg68
(lp1969
g61
(g82
g63
NtRp1970
(dp1971
g66
(dp1972
g86
g87
ssg75
g1966
sg68
(lp1973
S'get_vars'
p1974
asbag61
(g82
g63
NtRp1975
(dp1976
g66
(dp1977
g93
g94
ssg75
g1966
sg68
(lp1978
S':'
asbag61
(g82
g63
NtRp1979
(dp1980
g66
(dp1981
sg75
g1966
sg68
(lp1982
g61
(g62
g63
NtRp1983
(dp1984
g66
(dp1985
g74
I5
ssg75
g1979
sg68
(lp1986
g61
(g70
g63
NtRp1987
(dp1988
g66
(dp1989
g74
I4
ssg75
Nsg68
(lp1990
sbasbasbasbag61
(g77
g63
NtRp1991
(dp1992
g66
(dp1993
sg75
g71
sg68
(lp1994
g61
(g82
g63
NtRp1995
(dp1996
g66
(dp1997
g86
g87
ssg75
g1991
sg68
(lp1998
S'global_settings'
p1999
asbag61
(g82
g63
NtRp2000
(dp2001
g66
(dp2002
g93
g94
ssg75
g1991
sg68
(lp2003
S':'
asbag61
(g82
g63
NtRp2004
(dp2005
g66
(dp2006
sg75
g1991
sg68
(lp2007
g61
(g62
g63
NtRp2008
(dp2009
g66
(dp2010
g74
I5
ssg75
g2004
sg68
(lp2011
g61
(g70
g63
NtRp2012
(dp2013
g66
(dp2014
g74
I4
ssg75
Nsg68
(lp2015
g61
(g77
g63
NtRp2016
(dp2017
g66
(dp2018
sg75
g2012
sg68
(lp2019
g61
(g82
g63
NtRp2020
(dp2021
g66
(dp2022
g86
g87
ssg75
g2016
sg68
(lp2023
g942
asbag61
(g82
g63
NtRp2024
(dp2025
g66
(dp2026
g93
g94
ssg75
g2016
sg68
(lp2027
S':'
asbag61
(g82
g63
NtRp2028
(dp2029
g66
(dp2030
sg75
g2016
sg68
(lp2031
g61
(g62
g63
NtRp2032
(dp2033
g66
(dp2034
g74
I4
ssg75
g2028
sg68
(lp2035
S"set(['D:\\\\web2py\\\\applications\\\\pro\\\\', 'D:\\\\web2py\\\\applications\\\\admin\\\\', 'D:\\\\web2py\\\\applications\\\\welcome\\\\'])"
p2036
asbasbasbag61
(g77
g63
NtRp2037
(dp2038
g66
(dp2039
sg75
g2012
sg68
(lp2040
g61
(g82
g63
NtRp2041
(dp2042
g66
(dp2043
g86
g87
ssg75
g2037
sg68
(lp2044
g964
asbag61
(g82
g63
NtRp2045
(dp2046
g66
(dp2047
g93
g94
ssg75
g2037
sg68
(lp2048
S':'
asbag61
(g82
g63
NtRp2049
(dp2050
g66
(dp2051
sg75
g2037
sg68
(lp2052
g61
(g62
g63
NtRp2053
(dp2054
g66
(dp2055
g74
I4
ssg75
g2049
sg68
(lp2056
g977
asbasbasbag61
(g77
g63
NtRp2057
(dp2058
g66
(dp2059
sg75
g2012
sg68
(lp2060
g61
(g82
g63
NtRp2061
(dp2062
g66
(dp2063
g86
g87
ssg75
g2057
sg68
(lp2064
g986
asbag61
(g82
g63
NtRp2065
(dp2066
g66
(dp2067
g93
g94
ssg75
g2057
sg68
(lp2068
S':'
asbag61
(g82
g63
NtRp2069
(dp2070
g66
(dp2071
sg75
g2057
sg68
(lp2072
g61
(g62
g63
NtRp2073
(dp2074
g66
(dp2075
g74
I4
ssg75
g2069
sg68
(lp2076
g61
(g70
g63
NtRp2077
(dp2078
g66
(dp2079
g74
I3
ssg75
Nsg68
(lp2080
sbasbasbasbag61
(g77
g63
NtRp2081
(dp2082
g66
(dp2083
sg75
g2012
sg68
(lp2084
g61
(g82
g63
NtRp2085
(dp2086
g66
(dp2087
g86
g87
ssg75
g2081
sg68
(lp2088
g1011
asbag61
(g82
g63
NtRp2089
(dp2090
g66
(dp2091
g93
g94
ssg75
g2081
sg68
(lp2092
S':'
asbag61
(g82
g63
NtRp2093
(dp2094
g66
(dp2095
sg75
g2081
sg68
(lp2096
g61
(g62
g63
NtRp2097
(dp2098
g66
(dp2099
g74
I4
ssg75
g2093
sg68
(lp2100
S"<Values at 0x30d3fa8: {'verbose': False, 'ip': '127.0.0.1', 'shutdown_timeout': 5, 'taskbar': False, 'nocron': False, 'pid_filename': 'httpserver.pid', 'maxthreads': None, 'softcron': False, 'server_name': 'user-PC', 'bpython': False, 'nogui': False, 'port': 8000, 'extcron': False, 'debuglevel': 30, 'test': None, 'folder': 'D:\\\\web2py', 'config': '', 'import_models': False, 'winservice': '', 'shell': None, 'run': '', 'log_filename': 'httpserver.log', 'args': [''], 'socket_timeout': 5, 'ssl_ca_certificate': None, 'scheduler': None, 'profiler_filename': None, 'ssl_private_key': '', 'password': '<ask>', 'request_queue_size': 5, 'ssl_certificate': '', 'cronjob': False, 'numthreads': None, 'quiet': False, 'interfaces': None, 'minthreads': None, 'timeout': 10, 'plain': False, 'nobanner': False}>"
p2101
asbasbasbag61
(g77
g63
NtRp2102
(dp2103
g66
(dp2104
sg75
g2012
sg68
(lp2105
g61
(g82
g63
NtRp2106
(dp2107
g66
(dp2108
g86
g87
ssg75
g2102
sg68
(lp2109
g1033
asbag61
(g82
g63
NtRp2110
(dp2111
g66
(dp2112
g93
g94
ssg75
g2102
sg68
(lp2113
S':'
asbag61
(g82
g63
NtRp2114
(dp2115
g66
(dp2116
sg75
g2102
sg68
(lp2117
g61
(g62
g63
NtRp2118
(dp2119
g66
(dp2120
g74
I4
ssg75
g2114
sg68
(lp2121
S'set([])'
p2122
asbasbasbag61
(g77
g63
NtRp2123
(dp2124
g66
(dp2125
sg75
g2012
sg68
(lp2126
g61
(g82
g63
NtRp2127
(dp2128
g66
(dp2129
g86
g87
ssg75
g2123
sg68
(lp2130
g1055
asbag61
(g82
g63
NtRp2131
(dp2132
g66
(dp2133
g93
g94
ssg75
g2123
sg68
(lp2134
S':'
asbag61
(g82
g63
NtRp2135
(dp2136
g66
(dp2137
sg75
g2123
sg68
(lp2138
g61
(g62
g63
NtRp2139
(dp2140
g66
(dp2141
g74
I4
ssg75
g2135
sg68
(lp2142
g104
asbasbasbag61
(g77
g63
NtRp2143
(dp2144
g66
(dp2145
sg75
g2012
sg68
(lp2146
g61
(g82
g63
NtRp2147
(dp2148
g66
(dp2149
g86
g87
ssg75
g2143
sg68
(lp2150
g1076
asbag61
(g82
g63
NtRp2151
(dp2152
g66
(dp2153
g93
g94
ssg75
g2143
sg68
(lp2154
S':'
asbag61
(g82
g63
NtRp2155
(dp2156
g66
(dp2157
sg75
g2143
sg68
(lp2158
g61
(g62
g63
NtRp2159
(dp2160
g66
(dp2161
g74
I4
ssg75
g2155
sg68
(lp2162
g1089
asbasbasbag61
(g77
g63
NtRp2163
(dp2164
g66
(dp2165
sg75
g2012
sg68
(lp2166
g61
(g82
g63
NtRp2167
(dp2168
g66
(dp2169
g86
g87
ssg75
g2163
sg68
(lp2170
g1317
asbag61
(g82
g63
NtRp2171
(dp2172
g66
(dp2173
g93
g94
ssg75
g2163
sg68
(lp2174
S':'
asbag61
(g82
g63
NtRp2175
(dp2176
g66
(dp2177
sg75
g2163
sg68
(lp2178
g61
(g62
g63
NtRp2179
(dp2180
g66
(dp2181
g74
I4
ssg75
g2175
sg68
(lp2182
g104
asbasbasbag61
(g77
g63
NtRp2183
(dp2184
g66
(dp2185
sg75
g2012
sg68
(lp2186
g61
(g82
g63
NtRp2187
(dp2188
g66
(dp2189
g86
g87
ssg75
g2183
sg68
(lp2190
g1338
asbag61
(g82
g63
NtRp2191
(dp2192
g66
(dp2193
g93
g94
ssg75
g2183
sg68
(lp2194
S':'
asbag61
(g82
g63
NtRp2195
(dp2196
g66
(dp2197
sg75
g2183
sg68
(lp2198
g61
(g62
g63
NtRp2199
(dp2200
g66
(dp2201
g74
I4
ssg75
g2195
sg68
(lp2202
g104
asbasbasbag61
(g77
g63
NtRp2203
(dp2204
g66
(dp2205
sg75
g2012
sg68
(lp2206
g61
(g82
g63
NtRp2207
(dp2208
g66
(dp2209
g86
g87
ssg75
g2203
sg68
(lp2210
g1576
asbag61
(g82
g63
NtRp2211
(dp2212
g66
(dp2213
g93
g94
ssg75
g2203
sg68
(lp2214
S':'
asbag61
(g82
g63
NtRp2215
(dp2216
g66
(dp2217
sg75
g2203
sg68
(lp2218
g61
(g62
g63
NtRp2219
(dp2220
g66
(dp2221
g74
I4
ssg75
g2215
sg68
(lp2222
g1589
asbasbasbag61
(g77
g63
NtRp2223
(dp2224
g66
(dp2225
sg75
g2012
sg68
(lp2226
g61
(g82
g63
NtRp2227
(dp2228
g66
(dp2229
g86
g87
ssg75
g2223
sg68
(lp2230
g1619
asbag61
(g82
g63
NtRp2231
(dp2232
g66
(dp2233
g93
g94
ssg75
g2223
sg68
(lp2234
S':'
asbag61
(g82
g63
NtRp2235
(dp2236
g66
(dp2237
sg75
g2223
sg68
(lp2238
g61
(g62
g63
NtRp2239
(dp2240
g66
(dp2241
g74
I4
ssg75
g2235
sg68
(lp2242
g61
(g70
g63
NtRp2243
(dp2244
g66
(dp2245
g74
I3
ssg75
Nsg68
(lp2246
g61
(g77
g63
NtRp2247
(dp2248
g66
(dp2249
sg75
g2243
sg68
(lp2250
g61
(g82
g63
NtRp2251
(dp2252
g66
(dp2253
sg75
g2247
sg68
(lp2254
g61
(g62
g63
NtRp2255
(dp2256
g66
(dp2257
g74
I3
ssg75
g2251
sg68
(lp2258
S'1'
asbasbasbag61
(g77
g63
NtRp2259
(dp2260
g66
(dp2261
sg75
g2243
sg68
(lp2262
g61
(g82
g63
NtRp2263
(dp2264
g66
(dp2265
sg75
g2259
sg68
(lp2266
g61
(g62
g63
NtRp2267
(dp2268
g66
(dp2269
g74
I3
ssg75
g2263
sg68
(lp2270
S'99'
p2271
asbasbasbag61
(g77
g63
NtRp2272
(dp2273
g66
(dp2274
sg75
g2243
sg68
(lp2275
g61
(g82
g63
NtRp2276
(dp2277
g66
(dp2278
sg75
g2272
sg68
(lp2279
g61
(g62
g63
NtRp2280
(dp2281
g66
(dp2282
g74
I3
ssg75
g2276
sg68
(lp2283
S'7'
asbasbasbag61
(g77
g63
NtRp2284
(dp2285
g66
(dp2286
sg75
g2243
sg68
(lp2287
g61
(g82
g63
NtRp2288
(dp2289
g66
(dp2290
sg75
g2284
sg68
(lp2291
g61
(g62
g63
NtRp2292
(dp2293
g66
(dp2294
g74
I3
ssg75
g2288
sg68
(lp2295
S'datetime.datetime(2012, 3, 4, 22, 12, 8)'
p2296
asbasbasbag61
(g77
g63
NtRp2297
(dp2298
g66
(dp2299
sg75
g2243
sg68
(lp2300
g61
(g82
g63
NtRp2301
(dp2302
g66
(dp2303
sg75
g2297
sg68
(lp2304
g61
(g62
g63
NtRp2305
(dp2306
g66
(dp2307
g74
I3
ssg75
g2301
sg68
(lp2308
g1698
asbasbasbasbasbasbasbasbasbasbasbag61
(g77
g63
NtRp2309
(dp2310
g66
(dp2311
sg75
g71
sg68
(lp2312
g61
(g82
g63
NtRp2313
(dp2314
g66
(dp2315
g86
g87
ssg75
g2309
sg68
(lp2316
S'is_https'
p2317
asbag61
(g82
g63
NtRp2318
(dp2319
g66
(dp2320
g93
g94
ssg75
g2309
sg68
(lp2321
S':'
asbag61
(g82
g63
NtRp2322
(dp2323
g66
(dp2324
sg75
g2309
sg68
(lp2325
g61
(g62
g63
NtRp2326
(dp2327
g66
(dp2328
g74
I5
ssg75
g2322
sg68
(lp2329
g104
asbasbasbag61
(g77
g63
NtRp2330
(dp2331
g66
(dp2332
sg75
g71
sg68
(lp2333
g61
(g82
g63
NtRp2334
(dp2335
g66
(dp2336
g86
g87
ssg75
g2330
sg68
(lp2337
S'is_local'
p2338
asbag61
(g82
g63
NtRp2339
(dp2340
g66
(dp2341
g93
g94
ssg75
g2330
sg68
(lp2342
S':'
asbag61
(g82
g63
NtRp2343
(dp2344
g66
(dp2345
sg75
g2330
sg68
(lp2346
g61
(g62
g63
NtRp2347
(dp2348
g66
(dp2349
g74
I5
ssg75
g2343
sg68
(lp2350
g1807
asbasbasbag61
(g77
g63
NtRp2351
(dp2352
g66
(dp2353
sg75
g71
sg68
(lp2354
g61
(g82
g63
NtRp2355
(dp2356
g66
(dp2357
g86
g87
ssg75
g2351
sg68
(lp2358
S'is_restful'
p2359
asbag61
(g82
g63
NtRp2360
(dp2361
g66
(dp2362
g93
g94
ssg75
g2351
sg68
(lp2363
S':'
asbag61
(g82
g63
NtRp2364
(dp2365
g66
(dp2366
sg75
g2351
sg68
(lp2367
g61
(g62
g63
NtRp2368
(dp2369
g66
(dp2370
g74
I5
ssg75
g2364
sg68
(lp2371
g104
asbasbasbag61
(g77
g63
NtRp2372
(dp2373
g66
(dp2374
sg75
g71
sg68
(lp2375
g61
(g82
g63
NtRp2376
(dp2377
g66
(dp2378
g86
g87
ssg75
g2372
sg68
(lp2379
S'now'
p2380
asbag61
(g82
g63
NtRp2381
(dp2382
g66
(dp2383
g93
g94
ssg75
g2372
sg68
(lp2384
S':'
asbag61
(g82
g63
NtRp2385
(dp2386
g66
(dp2387
sg75
g2372
sg68
(lp2388
g61
(g62
g63
NtRp2389
(dp2390
g66
(dp2391
g74
I5
ssg75
g2385
sg68
(lp2392
S'datetime.datetime(2012, 11, 13, 15, 52, 38, 734000)'
p2393
asbasbasbag61
(g77
g63
NtRp2394
(dp2395
g66
(dp2396
sg75
g71
sg68
(lp2397
g61
(g82
g63
NtRp2398
(dp2399
g66
(dp2400
g86
g87
ssg75
g2394
sg68
(lp2401
S'post_vars'
p2402
asbag61
(g82
g63
NtRp2403
(dp2404
g66
(dp2405
g93
g94
ssg75
g2394
sg68
(lp2406
S':'
asbag61
(g82
g63
NtRp2407
(dp2408
g66
(dp2409
sg75
g2394
sg68
(lp2410
g61
(g62
g63
NtRp2411
(dp2412
g66
(dp2413
g74
I5
ssg75
g2407
sg68
(lp2414
g61
(g70
g63
NtRp2415
(dp2416
g66
(dp2417
g74
I4
ssg75
Nsg68
(lp2418
sbasbasbasbag61
(g77
g63
NtRp2419
(dp2420
g66
(dp2421
sg75
g71
sg68
(lp2422
g61
(g82
g63
NtRp2423
(dp2424
g66
(dp2425
g86
g87
ssg75
g2419
sg68
(lp2426
S'url'
p2427
asbag61
(g82
g63
NtRp2428
(dp2429
g66
(dp2430
g93
g94
ssg75
g2419
sg68
(lp2431
S':'
asbag61
(g82
g63
NtRp2432
(dp2433
g66
(dp2434
sg75
g2419
sg68
(lp2435
g61
(g62
g63
NtRp2436
(dp2437
g66
(dp2438
g74
I5
ssg75
g2432
sg68
(lp2439
S'/pro/default/kruskal'
p2440
asbasbasbag61
(g77
g63
NtRp2441
(dp2442
g66
(dp2443
sg75
g71
sg68
(lp2444
g61
(g82
g63
NtRp2445
(dp2446
g66
(dp2447
g86
g87
ssg75
g2441
sg68
(lp2448
S'utcnow'
p2449
asbag61
(g82
g63
NtRp2450
(dp2451
g66
(dp2452
g93
g94
ssg75
g2441
sg68
(lp2453
S':'
asbag61
(g82
g63
NtRp2454
(dp2455
g66
(dp2456
sg75
g2441
sg68
(lp2457
g61
(g62
g63
NtRp2458
(dp2459
g66
(dp2460
g74
I5
ssg75
g2454
sg68
(lp2461
S'datetime.datetime(2012, 11, 13, 10, 22, 38, 734000)'
p2462
asbasbasbag61
(g77
g63
NtRp2463
(dp2464
g66
(dp2465
sg75
g71
sg68
(lp2466
g61
(g82
g63
NtRp2467
(dp2468
g66
(dp2469
g86
g87
ssg75
g2463
sg68
(lp2470
S'uuid'
p2471
asbag61
(g82
g63
NtRp2472
(dp2473
g66
(dp2474
g93
g94
ssg75
g2463
sg68
(lp2475
S':'
asbag61
(g82
g63
NtRp2476
(dp2477
g66
(dp2478
sg75
g2463
sg68
(lp2479
g61
(g62
g63
NtRp2480
(dp2481
g66
(dp2482
g74
I5
ssg75
g2476
sg68
(lp2483
S'pro/127.0.0.1.2012-11-13.15-52-38.387572b2-45f7-4273-9c61-508d146dbb8d'
p2484
asbasbasbag61
(g77
g63
NtRp2485
(dp2486
g66
(dp2487
sg75
g71
sg68
(lp2488
g61
(g82
g63
NtRp2489
(dp2490
g66
(dp2491
g86
g87
ssg75
g2485
sg68
(lp2492
S'vars'
p2493
asbag61
(g82
g63
NtRp2494
(dp2495
g66
(dp2496
g93
g94
ssg75
g2485
sg68
(lp2497
S':'
asbag61
(g82
g63
NtRp2498
(dp2499
g66
(dp2500
sg75
g2485
sg68
(lp2501
g61
(g62
g63
NtRp2502
(dp2503
g66
(dp2504
g74
I5
ssg75
g2498
sg68
(lp2505
g61
(g70
g63
NtRp2506
(dp2507
g66
(dp2508
g74
I4
ssg75
Nsg68
(lp2509
sbasbasbasbag61
(g77
g63
NtRp2510
(dp2511
g66
(dp2512
sg75
g71
sg68
(lp2513
g61
(g82
g63
NtRp2514
(dp2515
g66
(dp2516
g86
g87
ssg75
g2510
sg68
(lp2517
S'wsgi'
p2518
asbag61
(g82
g63
NtRp2519
(dp2520
g66
(dp2521
g93
g94
ssg75
g2510
sg68
(lp2522
S':'
asbag61
(g82
g63
NtRp2523
(dp2524
g66
(dp2525
sg75
g2510
sg68
(lp2526
g61
(g62
g63
NtRp2527
(dp2528
g66
(dp2529
g74
I5
ssg75
g2523
sg68
(lp2530
g61
(g70
g63
NtRp2531
(dp2532
g66
(dp2533
g74
I4
ssg75
Nsg68
(lp2534
g61
(g77
g63
NtRp2535
(dp2536
g66
(dp2537
sg75
g2531
sg68
(lp2538
g61
(g82
g63
NtRp2539
(dp2540
g66
(dp2541
g86
g87
ssg75
g2535
sg68
(lp2542
S'environ'
p2543
asbag61
(g82
g63
NtRp2544
(dp2545
g66
(dp2546
g93
g94
ssg75
g2535
sg68
(lp2547
S':'
asbag61
(g82
g63
NtRp2548
(dp2549
g66
(dp2550
sg75
g2535
sg68
(lp2551
g61
(g62
g63
NtRp2552
(dp2553
g66
(dp2554
g74
I4
ssg75
g2548
sg68
(lp2555
g61
(g70
g63
NtRp2556
(dp2557
g66
(dp2558
g74
I3
ssg75
Nsg68
(lp2559
g61
(g77
g63
NtRp2560
(dp2561
g66
(dp2562
sg75
g2556
sg68
(lp2563
g61
(g82
g63
NtRp2564
(dp2565
g66
(dp2566
g86
g87
ssg75
g2560
sg68
(lp2567
S'HTTP_ACCEPT'
p2568
asbag61
(g82
g63
NtRp2569
(dp2570
g66
(dp2571
g93
g94
ssg75
g2560
sg68
(lp2572
S':'
asbag61
(g82
g63
NtRp2573
(dp2574
g66
(dp2575
sg75
g2560
sg68
(lp2576
g61
(g62
g63
NtRp2577
(dp2578
g66
(dp2579
g74
I3
ssg75
g2573
sg68
(lp2580
g1111
asbasbasbag61
(g77
g63
NtRp2581
(dp2582
g66
(dp2583
sg75
g2556
sg68
(lp2584
g61
(g82
g63
NtRp2585
(dp2586
g66
(dp2587
g86
g87
ssg75
g2581
sg68
(lp2588
S'HTTP_ACCEPT_ENCODING'
p2589
asbag61
(g82
g63
NtRp2590
(dp2591
g66
(dp2592
g93
g94
ssg75
g2581
sg68
(lp2593
S':'
asbag61
(g82
g63
NtRp2594
(dp2595
g66
(dp2596
sg75
g2581
sg68
(lp2597
g61
(g62
g63
NtRp2598
(dp2599
g66
(dp2600
g74
I3
ssg75
g2594
sg68
(lp2601
g1133
asbasbasbag61
(g77
g63
NtRp2602
(dp2603
g66
(dp2604
sg75
g2556
sg68
(lp2605
g61
(g82
g63
NtRp2606
(dp2607
g66
(dp2608
g86
g87
ssg75
g2602
sg68
(lp2609
S'HTTP_ACCEPT_LANGUAGE'
p2610
asbag61
(g82
g63
NtRp2611
(dp2612
g66
(dp2613
g93
g94
ssg75
g2602
sg68
(lp2614
S':'
asbag61
(g82
g63
NtRp2615
(dp2616
g66
(dp2617
sg75
g2602
sg68
(lp2618
g61
(g62
g63
NtRp2619
(dp2620
g66
(dp2621
g74
I3
ssg75
g2615
sg68
(lp2622
g1155
asbasbasbag61
(g77
g63
NtRp2623
(dp2624
g66
(dp2625
sg75
g2556
sg68
(lp2626
g61
(g82
g63
NtRp2627
(dp2628
g66
(dp2629
g86
g87
ssg75
g2623
sg68
(lp2630
S'HTTP_CACHE_CONTROL'
p2631
asbag61
(g82
g63
NtRp2632
(dp2633
g66
(dp2634
g93
g94
ssg75
g2623
sg68
(lp2635
S':'
asbag61
(g82
g63
NtRp2636
(dp2637
g66
(dp2638
sg75
g2623
sg68
(lp2639
g61
(g62
g63
NtRp2640
(dp2641
g66
(dp2642
g74
I3
ssg75
g2636
sg68
(lp2643
g1177
asbasbasbag61
(g77
g63
NtRp2644
(dp2645
g66
(dp2646
sg75
g2556
sg68
(lp2647
g61
(g82
g63
NtRp2648
(dp2649
g66
(dp2650
g86
g87
ssg75
g2644
sg68
(lp2651
S'HTTP_CONNECTION'
p2652
asbag61
(g82
g63
NtRp2653
(dp2654
g66
(dp2655
g93
g94
ssg75
g2644
sg68
(lp2656
S':'
asbag61
(g82
g63
NtRp2657
(dp2658
g66
(dp2659
sg75
g2644
sg68
(lp2660
g61
(g62
g63
NtRp2661
(dp2662
g66
(dp2663
g74
I3
ssg75
g2657
sg68
(lp2664
g1199
asbasbasbag61
(g77
g63
NtRp2665
(dp2666
g66
(dp2667
sg75
g2556
sg68
(lp2668
g61
(g82
g63
NtRp2669
(dp2670
g66
(dp2671
g86
g87
ssg75
g2665
sg68
(lp2672
S'HTTP_COOKIE'
p2673
asbag61
(g82
g63
NtRp2674
(dp2675
g66
(dp2676
g93
g94
ssg75
g2665
sg68
(lp2677
S':'
asbag61
(g82
g63
NtRp2678
(dp2679
g66
(dp2680
sg75
g2665
sg68
(lp2681
g61
(g62
g63
NtRp2682
(dp2683
g66
(dp2684
g74
I3
ssg75
g2678
sg68
(lp2685
g1221
asbasbasbag61
(g77
g63
NtRp2686
(dp2687
g66
(dp2688
sg75
g2556
sg68
(lp2689
g61
(g82
g63
NtRp2690
(dp2691
g66
(dp2692
g86
g87
ssg75
g2686
sg68
(lp2693
S'HTTP_DNT'
p2694
asbag61
(g82
g63
NtRp2695
(dp2696
g66
(dp2697
g93
g94
ssg75
g2686
sg68
(lp2698
S':'
asbag61
(g82
g63
NtRp2699
(dp2700
g66
(dp2701
sg75
g2686
sg68
(lp2702
g61
(g62
g63
NtRp2703
(dp2704
g66
(dp2705
g74
I3
ssg75
g2699
sg68
(lp2706
S'1'
asbasbasbag61
(g77
g63
NtRp2707
(dp2708
g66
(dp2709
sg75
g2556
sg68
(lp2710
g61
(g82
g63
NtRp2711
(dp2712
g66
(dp2713
g86
g87
ssg75
g2707
sg68
(lp2714
S'HTTP_HOST'
p2715
asbag61
(g82
g63
NtRp2716
(dp2717
g66
(dp2718
g93
g94
ssg75
g2707
sg68
(lp2719
S':'
asbag61
(g82
g63
NtRp2720
(dp2721
g66
(dp2722
sg75
g2707
sg68
(lp2723
g61
(g62
g63
NtRp2724
(dp2725
g66
(dp2726
g74
I3
ssg75
g2720
sg68
(lp2727
g1264
asbasbasbag61
(g77
g63
NtRp2728
(dp2729
g66
(dp2730
sg75
g2556
sg68
(lp2731
g61
(g82
g63
NtRp2732
(dp2733
g66
(dp2734
g86
g87
ssg75
g2728
sg68
(lp2735
S'HTTP_REFERER'
p2736
asbag61
(g82
g63
NtRp2737
(dp2738
g66
(dp2739
g93
g94
ssg75
g2728
sg68
(lp2740
S':'
asbag61
(g82
g63
NtRp2741
(dp2742
g66
(dp2743
sg75
g2728
sg68
(lp2744
g61
(g62
g63
NtRp2745
(dp2746
g66
(dp2747
g74
I3
ssg75
g2741
sg68
(lp2748
g1286
asbasbasbag61
(g77
g63
NtRp2749
(dp2750
g66
(dp2751
sg75
g2556
sg68
(lp2752
g61
(g82
g63
NtRp2753
(dp2754
g66
(dp2755
g86
g87
ssg75
g2749
sg68
(lp2756
S'HTTP_USER_AGENT'
p2757
asbag61
(g82
g63
NtRp2758
(dp2759
g66
(dp2760
g93
g94
ssg75
g2749
sg68
(lp2761
S':'
asbag61
(g82
g63
NtRp2762
(dp2763
g66
(dp2764
sg75
g2749
sg68
(lp2765
g61
(g62
g63
NtRp2766
(dp2767
g66
(dp2768
g74
I3
ssg75
g2762
sg68
(lp2769
g1308
asbasbasbag61
(g77
g63
NtRp2770
(dp2771
g66
(dp2772
sg75
g2556
sg68
(lp2773
g61
(g82
g63
NtRp2774
(dp2775
g66
(dp2776
g86
g87
ssg75
g2770
sg68
(lp2777
S'PATH_INFO'
p2778
asbag61
(g82
g63
NtRp2779
(dp2780
g66
(dp2781
g93
g94
ssg75
g2770
sg68
(lp2782
S':'
asbag61
(g82
g63
NtRp2783
(dp2784
g66
(dp2785
sg75
g2770
sg68
(lp2786
g61
(g62
g63
NtRp2787
(dp2788
g66
(dp2789
g74
I3
ssg75
g2783
sg68
(lp2790
g1372
asbasbasbag61
(g77
g63
NtRp2791
(dp2792
g66
(dp2793
sg75
g2556
sg68
(lp2794
g61
(g82
g63
NtRp2795
(dp2796
g66
(dp2797
g86
g87
ssg75
g2791
sg68
(lp2798
S'QUERY_STRING'
p2799
asbag61
(g82
g63
NtRp2800
(dp2801
g66
(dp2802
g93
g94
ssg75
g2791
sg68
(lp2803
S':'
asbag61
(g82
g63
NtRp2804
(dp2805
g66
(dp2806
sg75
g2791
sg68
(lp2807
g61
(g62
g63
NtRp2808
(dp2809
g66
(dp2810
g74
I3
ssg75
g2804
sg68
(lp2811
S''
asbasbasbag61
(g77
g63
NtRp2812
(dp2813
g66
(dp2814
sg75
g2556
sg68
(lp2815
g61
(g82
g63
NtRp2816
(dp2817
g66
(dp2818
g86
g87
ssg75
g2812
sg68
(lp2819
S'REMOTE_ADDR'
p2820
asbag61
(g82
g63
NtRp2821
(dp2822
g66
(dp2823
g93
g94
ssg75
g2812
sg68
(lp2824
S':'
asbag61
(g82
g63
NtRp2825
(dp2826
g66
(dp2827
sg75
g2812
sg68
(lp2828
g61
(g62
g63
NtRp2829
(dp2830
g66
(dp2831
g74
I3
ssg75
g2825
sg68
(lp2832
g194
asbasbasbag61
(g77
g63
NtRp2833
(dp2834
g66
(dp2835
sg75
g2556
sg68
(lp2836
g61
(g82
g63
NtRp2837
(dp2838
g66
(dp2839
g86
g87
ssg75
g2833
sg68
(lp2840
S'REMOTE_PORT'
p2841
asbag61
(g82
g63
NtRp2842
(dp2843
g66
(dp2844
g93
g94
ssg75
g2833
sg68
(lp2845
S':'
asbag61
(g82
g63
NtRp2846
(dp2847
g66
(dp2848
sg75
g2833
sg68
(lp2849
g61
(g62
g63
NtRp2850
(dp2851
g66
(dp2852
g74
I3
ssg75
g2846
sg68
(lp2853
g1436
asbasbasbag61
(g77
g63
NtRp2854
(dp2855
g66
(dp2856
sg75
g2556
sg68
(lp2857
g61
(g82
g63
NtRp2858
(dp2859
g66
(dp2860
g86
g87
ssg75
g2854
sg68
(lp2861
S'REQUEST_METHOD'
p2862
asbag61
(g82
g63
NtRp2863
(dp2864
g66
(dp2865
g93
g94
ssg75
g2854
sg68
(lp2866
S':'
asbag61
(g82
g63
NtRp2867
(dp2868
g66
(dp2869
sg75
g2854
sg68
(lp2870
g61
(g62
g63
NtRp2871
(dp2872
g66
(dp2873
g74
I3
ssg75
g2867
sg68
(lp2874
g1458
asbasbasbag61
(g77
g63
NtRp2875
(dp2876
g66
(dp2877
sg75
g2556
sg68
(lp2878
g61
(g82
g63
NtRp2879
(dp2880
g66
(dp2881
g86
g87
ssg75
g2875
sg68
(lp2882
S'SCRIPT_NAME'
p2883
asbag61
(g82
g63
NtRp2884
(dp2885
g66
(dp2886
g93
g94
ssg75
g2875
sg68
(lp2887
S':'
asbag61
(g82
g63
NtRp2888
(dp2889
g66
(dp2890
sg75
g2875
sg68
(lp2891
g61
(g62
g63
NtRp2892
(dp2893
g66
(dp2894
g74
I3
ssg75
g2888
sg68
(lp2895
S''
asbasbasbag61
(g77
g63
NtRp2896
(dp2897
g66
(dp2898
sg75
g2556
sg68
(lp2899
g61
(g82
g63
NtRp2900
(dp2901
g66
(dp2902
g86
g87
ssg75
g2896
sg68
(lp2903
S'SERVER_NAME'
p2904
asbag61
(g82
g63
NtRp2905
(dp2906
g66
(dp2907
g93
g94
ssg75
g2896
sg68
(lp2908
S':'
asbag61
(g82
g63
NtRp2909
(dp2910
g66
(dp2911
sg75
g2896
sg68
(lp2912
g61
(g62
g63
NtRp2913
(dp2914
g66
(dp2915
g74
I3
ssg75
g2909
sg68
(lp2916
g1501
asbasbasbag61
(g77
g63
NtRp2917
(dp2918
g66
(dp2919
sg75
g2556
sg68
(lp2920
g61
(g82
g63
NtRp2921
(dp2922
g66
(dp2923
g86
g87
ssg75
g2917
sg68
(lp2924
S'SERVER_PORT'
p2925
asbag61
(g82
g63
NtRp2926
(dp2927
g66
(dp2928
g93
g94
ssg75
g2917
sg68
(lp2929
S':'
asbag61
(g82
g63
NtRp2930
(dp2931
g66
(dp2932
sg75
g2917
sg68
(lp2933
g61
(g62
g63
NtRp2934
(dp2935
g66
(dp2936
g74
I3
ssg75
g2930
sg68
(lp2937
g1523
asbasbasbag61
(g77
g63
NtRp2938
(dp2939
g66
(dp2940
sg75
g2556
sg68
(lp2941
g61
(g82
g63
NtRp2942
(dp2943
g66
(dp2944
g86
g87
ssg75
g2938
sg68
(lp2945
S'SERVER_PROTOCOL'
p2946
asbag61
(g82
g63
NtRp2947
(dp2948
g66
(dp2949
g93
g94
ssg75
g2938
sg68
(lp2950
S':'
asbag61
(g82
g63
NtRp2951
(dp2952
g66
(dp2953
sg75
g2938
sg68
(lp2954
g61
(g62
g63
NtRp2955
(dp2956
g66
(dp2957
g74
I3
ssg75
g2951
sg68
(lp2958
g1545
asbasbasbag61
(g77
g63
NtRp2959
(dp2960
g66
(dp2961
sg75
g2556
sg68
(lp2962
g61
(g82
g63
NtRp2963
(dp2964
g66
(dp2965
g86
g87
ssg75
g2959
sg68
(lp2966
S'SERVER_SOFTWARE'
p2967
asbag61
(g82
g63
NtRp2968
(dp2969
g66
(dp2970
g93
g94
ssg75
g2959
sg68
(lp2971
S':'
asbag61
(g82
g63
NtRp2972
(dp2973
g66
(dp2974
sg75
g2959
sg68
(lp2975
g61
(g62
g63
NtRp2976
(dp2977
g66
(dp2978
g74
I3
ssg75
g2972
sg68
(lp2979
g1567
asbasbasbag61
(g77
g63
NtRp2980
(dp2981
g66
(dp2982
sg75
g2556
sg68
(lp2983
g61
(g82
g63
NtRp2984
(dp2985
g66
(dp2986
g86
g87
ssg75
g2980
sg68
(lp2987
S'wsgi.errors'
p2988
asbag61
(g82
g63
NtRp2989
(dp2990
g66
(dp2991
g93
g94
ssg75
g2980
sg68
(lp2992
S':'
asbag61
(g82
g63
NtRp2993
(dp2994
g66
(dp2995
sg75
g2980
sg68
(lp2996
g61
(g62
g63
NtRp2997
(dp2998
g66
(dp2999
g74
I3
ssg75
g2993
sg68
(lp3000
S"<open file '<stderr>', mode 'w' at 0x01FC00B0>"
p3001
asbasbasbag61
(g77
g63
NtRp3002
(dp3003
g66
(dp3004
sg75
g2556
sg68
(lp3005
g61
(g82
g63
NtRp3006
(dp3007
g66
(dp3008
g86
g87
ssg75
g3002
sg68
(lp3009
S'wsgi.file_wrapper'
p3010
asbag61
(g82
g63
NtRp3011
(dp3012
g66
(dp3013
g93
g94
ssg75
g3002
sg68
(lp3014
S':'
asbag61
(g82
g63
NtRp3015
(dp3016
g66
(dp3017
sg75
g3002
sg68
(lp3018
g61
(g62
g63
NtRp3019
(dp3020
g66
(dp3021
g74
I3
ssg75
g3015
sg68
(lp3022
S'<class wsgiref.util.FileWrapper at 0x02E72E40>'
p3023
asbasbasbag61
(g77
g63
NtRp3024
(dp3025
g66
(dp3026
sg75
g2556
sg68
(lp3027
g61
(g82
g63
NtRp3028
(dp3029
g66
(dp3030
g86
g87
ssg75
g3024
sg68
(lp3031
S'wsgi.input'
p3032
asbag61
(g82
g63
NtRp3033
(dp3034
g66
(dp3035
g93
g94
ssg75
g3024
sg68
(lp3036
S':'
asbag61
(g82
g63
NtRp3037
(dp3038
g66
(dp3039
sg75
g3024
sg68
(lp3040
g61
(g62
g63
NtRp3041
(dp3042
g66
(dp3043
g74
I3
ssg75
g3037
sg68
(lp3044
S'<cStringIO.StringO object at 0x076D8EC0>'
p3045
asbasbasbag61
(g77
g63
NtRp3046
(dp3047
g66
(dp3048
sg75
g2556
sg68
(lp3049
g61
(g82
g63
NtRp3050
(dp3051
g66
(dp3052
g86
g87
ssg75
g3046
sg68
(lp3053
S'wsgi.multiprocess'
p3054
asbag61
(g82
g63
NtRp3055
(dp3056
g66
(dp3057
g93
g94
ssg75
g3046
sg68
(lp3058
S':'
asbag61
(g82
g63
NtRp3059
(dp3060
g66
(dp3061
sg75
g3046
sg68
(lp3062
g61
(g62
g63
NtRp3063
(dp3064
g66
(dp3065
g74
I3
ssg75
g3059
sg68
(lp3066
g104
asbasbasbag61
(g77
g63
NtRp3067
(dp3068
g66
(dp3069
sg75
g2556
sg68
(lp3070
g61
(g82
g63
NtRp3071
(dp3072
g66
(dp3073
g86
g87
ssg75
g3067
sg68
(lp3074
S'wsgi.multithread'
p3075
asbag61
(g82
g63
NtRp3076
(dp3077
g66
(dp3078
g93
g94
ssg75
g3067
sg68
(lp3079
S':'
asbag61
(g82
g63
NtRp3080
(dp3081
g66
(dp3082
sg75
g3067
sg68
(lp3083
g61
(g62
g63
NtRp3084
(dp3085
g66
(dp3086
g74
I3
ssg75
g3080
sg68
(lp3087
g1807
asbasbasbag61
(g77
g63
NtRp3088
(dp3089
g66
(dp3090
sg75
g2556
sg68
(lp3091
g61
(g82
g63
NtRp3092
(dp3093
g66
(dp3094
g86
g87
ssg75
g3088
sg68
(lp3095
S'wsgi.run_once'
p3096
asbag61
(g82
g63
NtRp3097
(dp3098
g66
(dp3099
g93
g94
ssg75
g3088
sg68
(lp3100
S':'
asbag61
(g82
g63
NtRp3101
(dp3102
g66
(dp3103
sg75
g3088
sg68
(lp3104
g61
(g62
g63
NtRp3105
(dp3106
g66
(dp3107
g74
I3
ssg75
g3101
sg68
(lp3108
g104
asbasbasbag61
(g77
g63
NtRp3109
(dp3110
g66
(dp3111
sg75
g2556
sg68
(lp3112
g61
(g82
g63
NtRp3113
(dp3114
g66
(dp3115
g86
g87
ssg75
g3109
sg68
(lp3116
S'wsgi.url_scheme'
p3117
asbag61
(g82
g63
NtRp3118
(dp3119
g66
(dp3120
g93
g94
ssg75
g3109
sg68
(lp3121
S':'
asbag61
(g82
g63
NtRp3122
(dp3123
g66
(dp3124
sg75
g3109
sg68
(lp3125
g61
(g62
g63
NtRp3126
(dp3127
g66
(dp3128
g74
I3
ssg75
g3122
sg68
(lp3129
g1850
asbasbasbag61
(g77
g63
NtRp3130
(dp3131
g66
(dp3132
sg75
g2556
sg68
(lp3133
g61
(g82
g63
NtRp3134
(dp3135
g66
(dp3136
g86
g87
ssg75
g3130
sg68
(lp3137
S'wsgi.version'
p3138
asbag61
(g82
g63
NtRp3139
(dp3140
g66
(dp3141
g93
g94
ssg75
g3130
sg68
(lp3142
S':'
asbag61
(g82
g63
NtRp3143
(dp3144
g66
(dp3145
sg75
g3130
sg68
(lp3146
g61
(g62
g63
NtRp3147
(dp3148
g66
(dp3149
g74
I3
ssg75
g3143
sg68
(lp3150
S'1'
asbasbasbasbasbasbasbasbasbasbasbasbasbsS'frames'
p3151
(lp3152
(dp3153
S'file'
p3154
S'D:\\web2py\\gluon\\restricted.py'
p3155
sS'dump'
p3156
(dp3157
sS'lnum'
p3158
I204
sS'lines'
p3159
(dp3160
sS'call'
p3161
S'(code=\'response.write(\\\'<!DOCTYPE html PUBLIC "-//W3C//D...  </div> -->\\\\n </body>\\\\n</html>\\\\n\\\', escape=False)\', environment={\'A\': <class \'gluon.html.A\'>, \'Auth\': <class \'gluon.tools.Auth\'>, \'B\': <class \'gluon.html.B\'>, \'BEAUTIFY\': <class \'gluon.html.BEAUTIFY\'>, \'BODY\': <class \'gluon.html.BODY\'>, \'BR\': <class \'gluon.html.BR\'>, \'BUTTON\': <class \'gluon.html.BUTTON\'>, \'CAT\': <class \'gluon.html.CAT\'>, \'CENTER\': <class \'gluon.html.CENTER\'>, \'CLEANUP\': <class \'gluon.validators.CLEANUP\'>, ...}, layer=r\'D:\\web2py\\applications\\pro\\views\\default/kruskal.html\')'
p3162
sS'func'
p3163
S'restricted'
p3164
sa(dp3165
g3154
S'D:\\web2py\\gluon\\restricted.py'
p3166
sg3156
(dp3167
sg3158
I189
sg3159
(dp3168
sg3161
S'(code=\'response.write(\\\'<!DOCTYPE html PUBLIC "-//W3C//D...  </div> -->\\\\n </body>\\\\n</html>\\\\n\\\', escape=False)\', layer=r\'D:\\web2py\\applications\\pro\\views\\default/kruskal.html\')'
p3169
sg3163
S'compile2'
p3170
sasS'pyver'
p3171
S'Python 2.5.4: D:\\web2py\\web2py.exe'
p3172
sS'session'
p3173
g61
(g62
g63
NtRp3174
(dp3175
g66
(dp3176
sg68
(lp3177
g61
(g70
g63
NtRp3178
(dp3179
g66
(dp3180
g74
I5
ssg75
Nsg68
(lp3181
g61
(g77
g63
NtRp3182
(dp3183
g66
(dp3184
sg75
g3178
sg68
(lp3185
g61
(g82
g63
NtRp3186
(dp3187
g66
(dp3188
g86
g87
ssg75
g3182
sg68
(lp3189
S'auth'
p3190
asbag61
(g82
g63
NtRp3191
(dp3192
g66
(dp3193
g93
g94
ssg75
g3182
sg68
(lp3194
S':'
asbag61
(g82
g63
NtRp3195
(dp3196
g66
(dp3197
sg75
g3182
sg68
(lp3198
g61
(g62
g63
NtRp3199
(dp3200
g66
(dp3201
g74
I5
ssg75
g3195
sg68
(lp3202
g61
(g70
g63
NtRp3203
(dp3204
g66
(dp3205
g74
I4
ssg75
Nsg68
(lp3206
g61
(g77
g63
NtRp3207
(dp3208
g66
(dp3209
sg75
g3203
sg68
(lp3210
g61
(g82
g63
NtRp3211
(dp3212
g66
(dp3213
g86
g87
ssg75
g3207
sg68
(lp3214
S'expiration'
p3215
asbag61
(g82
g63
NtRp3216
(dp3217
g66
(dp3218
g93
g94
ssg75
g3207
sg68
(lp3219
S':'
asbag61
(g82
g63
NtRp3220
(dp3221
g66
(dp3222
sg75
g3207
sg68
(lp3223
g61
(g62
g63
NtRp3224
(dp3225
g66
(dp3226
g74
I4
ssg75
g3220
sg68
(lp3227
S'3600'
p3228
asbasbasbag61
(g77
g63
NtRp3229
(dp3230
g66
(dp3231
sg75
g3203
sg68
(lp3232
g61
(g82
g63
NtRp3233
(dp3234
g66
(dp3235
g86
g87
ssg75
g3229
sg68
(lp3236
S'hmac_key'
p3237
asbag61
(g82
g63
NtRp3238
(dp3239
g66
(dp3240
g93
g94
ssg75
g3229
sg68
(lp3241
S':'
asbag61
(g82
g63
NtRp3242
(dp3243
g66
(dp3244
sg75
g3229
sg68
(lp3245
g61
(g62
g63
NtRp3246
(dp3247
g66
(dp3248
g74
I4
ssg75
g3242
sg68
(lp3249
S'3ede950a-93f3-4085-90fa-f0e9d1635989'
p3250
asbasbasbag61
(g77
g63
NtRp3251
(dp3252
g66
(dp3253
sg75
g3203
sg68
(lp3254
g61
(g82
g63
NtRp3255
(dp3256
g66
(dp3257
g86
g87
ssg75
g3251
sg68
(lp3258
S'last_visit'
p3259
asbag61
(g82
g63
NtRp3260
(dp3261
g66
(dp3262
g93
g94
ssg75
g3251
sg68
(lp3263
S':'
asbag61
(g82
g63
NtRp3264
(dp3265
g66
(dp3266
sg75
g3251
sg68
(lp3267
g61
(g62
g63
NtRp3268
(dp3269
g66
(dp3270
g74
I4
ssg75
g3264
sg68
(lp3271
S'datetime.datetime(2012, 11, 13, 15, 49, 12, 93000)'
p3272
asbasbasbag61
(g77
g63
NtRp3273
(dp3274
g66
(dp3275
sg75
g3203
sg68
(lp3276
g61
(g82
g63
NtRp3277
(dp3278
g66
(dp3279
g86
g87
ssg75
g3273
sg68
(lp3280
S'remember'
p3281
asbag61
(g82
g63
NtRp3282
(dp3283
g66
(dp3284
g93
g94
ssg75
g3273
sg68
(lp3285
S':'
asbag61
(g82
g63
NtRp3286
(dp3287
g66
(dp3288
sg75
g3273
sg68
(lp3289
g61
(g62
g63
NtRp3290
(dp3291
g66
(dp3292
g74
I4
ssg75
g3286
sg68
(lp3293
g104
asbasbasbag61
(g77
g63
NtRp3294
(dp3295
g66
(dp3296
sg75
g3203
sg68
(lp3297
g61
(g82
g63
NtRp3298
(dp3299
g66
(dp3300
g86
g87
ssg75
g3294
sg68
(lp3301
S'user'
p3302
asbag61
(g82
g63
NtRp3303
(dp3304
g66
(dp3305
g93
g94
ssg75
g3294
sg68
(lp3306
S':'
asbag61
(g82
g63
NtRp3307
(dp3308
g66
(dp3309
sg75
g3294
sg68
(lp3310
g61
(g62
g63
NtRp3311
(dp3312
g66
(dp3313
g74
I4
ssg75
g3307
sg68
(lp3314
g61
(g70
g63
NtRp3315
(dp3316
g66
(dp3317
g74
I3
ssg75
Nsg68
(lp3318
g61
(g77
g63
NtRp3319
(dp3320
g66
(dp3321
sg75
g3315
sg68
(lp3322
g61
(g82
g63
NtRp3323
(dp3324
g66
(dp3325
g86
g87
ssg75
g3319
sg68
(lp3326
S'email'
p3327
asbag61
(g82
g63
NtRp3328
(dp3329
g66
(dp3330
g93
g94
ssg75
g3319
sg68
(lp3331
S':'
asbag61
(g82
g63
NtRp3332
(dp3333
g66
(dp3334
sg75
g3319
sg68
(lp3335
g61
(g62
g63
NtRp3336
(dp3337
g66
(dp3338
g74
I3
ssg75
g3332
sg68
(lp3339
S'rammurthy@faculty.iiit.ac.in'
p3340
asbasbasbag61
(g77
g63
NtRp3341
(dp3342
g66
(dp3343
sg75
g3315
sg68
(lp3344
g61
(g82
g63
NtRp3345
(dp3346
g66
(dp3347
g86
g87
ssg75
g3341
sg68
(lp3348
S'first_name'
p3349
asbag61
(g82
g63
NtRp3350
(dp3351
g66
(dp3352
g93
g94
ssg75
g3341
sg68
(lp3353
S':'
asbag61
(g82
g63
NtRp3354
(dp3355
g66
(dp3356
sg75
g3341
sg68
(lp3357
g61
(g62
g63
NtRp3358
(dp3359
g66
(dp3360
g74
I3
ssg75
g3354
sg68
(lp3361
S'rammurthy'
p3362
asbasbasbag61
(g77
g63
NtRp3363
(dp3364
g66
(dp3365
sg75
g3315
sg68
(lp3366
g61
(g82
g63
NtRp3367
(dp3368
g66
(dp3369
g86
g87
ssg75
g3363
sg68
(lp3370
S'id'
p3371
asbag61
(g82
g63
NtRp3372
(dp3373
g66
(dp3374
g93
g94
ssg75
g3363
sg68
(lp3375
S':'
asbag61
(g82
g63
NtRp3376
(dp3377
g66
(dp3378
sg75
g3363
sg68
(lp3379
g61
(g62
g63
NtRp3380
(dp3381
g66
(dp3382
g74
I3
ssg75
g3376
sg68
(lp3383
S'1'
asbasbasbag61
(g77
g63
NtRp3384
(dp3385
g66
(dp3386
sg75
g3315
sg68
(lp3387
g61
(g82
g63
NtRp3388
(dp3389
g66
(dp3390
g86
g87
ssg75
g3384
sg68
(lp3391
S'last_name'
p3392
asbag61
(g82
g63
NtRp3393
(dp3394
g66
(dp3395
g93
g94
ssg75
g3384
sg68
(lp3396
S':'
asbag61
(g82
g63
NtRp3397
(dp3398
g66
(dp3399
sg75
g3384
sg68
(lp3400
g61
(g62
g63
NtRp3401
(dp3402
g66
(dp3403
g74
I3
ssg75
g3397
sg68
(lp3404
S'sir'
p3405
asbasbasbag61
(g77
g63
NtRp3406
(dp3407
g66
(dp3408
sg75
g3315
sg68
(lp3409
g61
(g82
g63
NtRp3410
(dp3411
g66
(dp3412
g86
g87
ssg75
g3406
sg68
(lp3413
S'password'
p3414
asbag61
(g82
g63
NtRp3415
(dp3416
g66
(dp3417
g93
g94
ssg75
g3406
sg68
(lp3418
S':'
asbag61
(g82
g63
NtRp3419
(dp3420
g66
(dp3421
sg75
g3406
sg68
(lp3422
g61
(g62
g63
NtRp3423
(dp3424
g66
(dp3425
g74
I3
ssg75
g3419
sg68
(lp3426
S'9da56e6636f0f89c2a2b7b54a400c423'
p3427
asbasbasbag61
(g77
g63
NtRp3428
(dp3429
g66
(dp3430
sg75
g3315
sg68
(lp3431
g61
(g82
g63
NtRp3432
(dp3433
g66
(dp3434
g86
g87
ssg75
g3428
sg68
(lp3435
S'registration_id'
p3436
asbag61
(g82
g63
NtRp3437
(dp3438
g66
(dp3439
g93
g94
ssg75
g3428
sg68
(lp3440
S':'
asbag61
(g82
g63
NtRp3441
(dp3442
g66
(dp3443
sg75
g3428
sg68
(lp3444
g61
(g62
g63
NtRp3445
(dp3446
g66
(dp3447
g74
I3
ssg75
g3441
sg68
(lp3448
S''
asbasbasbag61
(g77
g63
NtRp3449
(dp3450
g66
(dp3451
sg75
g3315
sg68
(lp3452
g61
(g82
g63
NtRp3453
(dp3454
g66
(dp3455
g86
g87
ssg75
g3449
sg68
(lp3456
S'registration_key'
p3457
asbag61
(g82
g63
NtRp3458
(dp3459
g66
(dp3460
g93
g94
ssg75
g3449
sg68
(lp3461
S':'
asbag61
(g82
g63
NtRp3462
(dp3463
g66
(dp3464
sg75
g3449
sg68
(lp3465
g61
(g62
g63
NtRp3466
(dp3467
g66
(dp3468
g74
I3
ssg75
g3462
sg68
(lp3469
S''
asbasbasbag61
(g77
g63
NtRp3470
(dp3471
g66
(dp3472
sg75
g3315
sg68
(lp3473
g61
(g82
g63
NtRp3474
(dp3475
g66
(dp3476
g86
g87
ssg75
g3470
sg68
(lp3477
S'reset_password_key'
p3478
asbag61
(g82
g63
NtRp3479
(dp3480
g66
(dp3481
g93
g94
ssg75
g3470
sg68
(lp3482
S':'
asbag61
(g82
g63
NtRp3483
(dp3484
g66
(dp3485
sg75
g3470
sg68
(lp3486
g61
(g62
g63
NtRp3487
(dp3488
g66
(dp3489
g74
I3
ssg75
g3483
sg68
(lp3490
S''
asbasbasbasbasbasbasbag61
(g77
g63
NtRp3491
(dp3492
g66
(dp3493
sg75
g3203
sg68
(lp3494
g61
(g82
g63
NtRp3495
(dp3496
g66
(dp3497
g86
g87
ssg75
g3491
sg68
(lp3498
S'user_groups'
p3499
asbag61
(g82
g63
NtRp3500
(dp3501
g66
(dp3502
g93
g94
ssg75
g3491
sg68
(lp3503
S':'
asbag61
(g82
g63
NtRp3504
(dp3505
g66
(dp3506
sg75
g3491
sg68
(lp3507
g61
(g62
g63
NtRp3508
(dp3509
g66
(dp3510
g74
I4
ssg75
g3504
sg68
(lp3511
g61
(g70
g63
NtRp3512
(dp3513
g66
(dp3514
g74
I3
ssg75
Nsg68
(lp3515
g61
(g77
g63
NtRp3516
(dp3517
g66
(dp3518
sg75
g3512
sg68
(lp3519
g61
(g82
g63
NtRp3520
(dp3521
g66
(dp3522
g86
g87
ssg75
g3516
sg68
(lp3523
S'1'
asbag61
(g82
g63
NtRp3524
(dp3525
g66
(dp3526
g93
g94
ssg75
g3516
sg68
(lp3527
S':'
asbag61
(g82
g63
NtRp3528
(dp3529
g66
(dp3530
sg75
g3516
sg68
(lp3531
g61
(g62
g63
NtRp3532
(dp3533
g66
(dp3534
g74
I3
ssg75
g3528
sg68
(lp3535
S'user_1'
p3536
asbasbasbag61
(g77
g63
NtRp3537
(dp3538
g66
(dp3539
sg75
g3512
sg68
(lp3540
g61
(g82
g63
NtRp3541
(dp3542
g66
(dp3543
g86
g87
ssg75
g3537
sg68
(lp3544
S'2'
asbag61
(g82
g63
NtRp3545
(dp3546
g66
(dp3547
g93
g94
ssg75
g3537
sg68
(lp3548
S':'
asbag61
(g82
g63
NtRp3549
(dp3550
g66
(dp3551
sg75
g3537
sg68
(lp3552
g61
(g62
g63
NtRp3553
(dp3554
g66
(dp3555
g74
I3
ssg75
g3549
sg68
(lp3556
S'Administrator'
p3557
asbasbasbasbasbasbasbasbasbasbasbag61
(g77
g63
NtRp3558
(dp3559
g66
(dp3560
sg75
g3178
sg68
(lp3561
g61
(g82
g63
NtRp3562
(dp3563
g66
(dp3564
g86
g87
ssg75
g3558
sg68
(lp3565
S'last_query'
p3566
asbag61
(g82
g63
NtRp3567
(dp3568
g66
(dp3569
g93
g94
ssg75
g3558
sg68
(lp3570
S':'
asbag61
(g82
g63
NtRp3571
(dp3572
g66
(dp3573
sg75
g3558
sg68
(lp3574
g61
(g62
g63
NtRp3575
(dp3576
g66
(dp3577
g74
I5
ssg75
g3571
sg68
(lp3578
S'db.Employee.id>0'
p3579
asbasbasbasbasbsS'etype'
p3580
S"<type 'exceptions.SyntaxError'>"
p3581
sS'date'
p3582
S'Tue Nov 13 15:52:38 2012'
p3583
sS'response'
p3584
g61
(g62
g63
NtRp3585
(dp3586
g66
(dp3587
sg68
(lp3588
g61
(g70
g63
NtRp3589
(dp3590
g66
(dp3591
g74
I5
ssg75
Nsg68
(lp3592
g61
(g77
g63
NtRp3593
(dp3594
g66
(dp3595
sg75
g3589
sg68
(lp3596
g61
(g82
g63
NtRp3597
(dp3598
g66
(dp3599
g86
g87
ssg75
g3593
sg68
(lp3600
g159
asbag61
(g82
g63
NtRp3601
(dp3602
g66
(dp3603
g93
g94
ssg75
g3593
sg68
(lp3604
S':'
asbag61
(g82
g63
NtRp3605
(dp3606
g66
(dp3607
sg75
g3593
sg68
(lp3608
g61
(g62
g63
NtRp3609
(dp3610
g66
(dp3611
g74
I5
ssg75
g3605
sg68
(lp3612
S'<cStringIO.StringO object at 0x076D8F00>'
p3613
asbasbasbag61
(g77
g63
NtRp3614
(dp3615
g66
(dp3616
sg75
g3589
sg68
(lp3617
g61
(g82
g63
NtRp3618
(dp3619
g66
(dp3620
g86
g87
ssg75
g3614
sg68
(lp3621
g225
asbag61
(g82
g63
NtRp3622
(dp3623
g66
(dp3624
g93
g94
ssg75
g3614
sg68
(lp3625
S':'
asbag61
(g82
g63
NtRp3626
(dp3627
g66
(dp3628
sg75
g3614
sg68
(lp3629
g61
(g62
g63
NtRp3630
(dp3631
g66
(dp3632
g74
I5
ssg75
g3626
sg68
(lp3633
g61
(g70
g63
NtRp3634
(dp3635
g66
(dp3636
g74
I4
ssg75
Nsg68
(lp3637
g61
(g77
g63
NtRp3638
(dp3639
g66
(dp3640
sg75
g3634
sg68
(lp3641
g61
(g82
g63
NtRp3642
(dp3643
g66
(dp3644
g86
g87
ssg75
g3638
sg68
(lp3645
S'session_id_pro'
p3646
asbag61
(g82
g63
NtRp3647
(dp3648
g66
(dp3649
g93
g94
ssg75
g3638
sg68
(lp3650
S':'
asbag61
(g82
g63
NtRp3651
(dp3652
g66
(dp3653
sg75
g3638
sg68
(lp3654
g61
(g62
g63
NtRp3655
(dp3656
g66
(dp3657
g74
I4
ssg75
g3651
sg68
(lp3658
g61
(g70
g63
NtRp3659
(dp3660
g66
(dp3661
g74
I3
ssg75
Nsg68
(lp3662
g61
(g77
g63
NtRp3663
(dp3664
g66
(dp3665
sg75
g3659
sg68
(lp3666
g61
(g82
g63
NtRp3667
(dp3668
g66
(dp3669
g86
g87
ssg75
g3663
sg68
(lp3670
g275
asbag61
(g82
g63
NtRp3671
(dp3672
g66
(dp3673
g93
g94
ssg75
g3663
sg68
(lp3674
S':'
asbag61
(g82
g63
NtRp3675
(dp3676
g66
(dp3677
sg75
g3663
sg68
(lp3678
g61
(g62
g63
NtRp3679
(dp3680
g66
(dp3681
g74
I3
ssg75
g3675
sg68
(lp3682
S''
asbasbasbag61
(g77
g63
NtRp3683
(dp3684
g66
(dp3685
sg75
g3659
sg68
(lp3686
g61
(g82
g63
NtRp3687
(dp3688
g66
(dp3689
g86
g87
ssg75
g3683
sg68
(lp3690
g296
asbag61
(g82
g63
NtRp3691
(dp3692
g66
(dp3693
g93
g94
ssg75
g3683
sg68
(lp3694
S':'
asbag61
(g82
g63
NtRp3695
(dp3696
g66
(dp3697
sg75
g3683
sg68
(lp3698
g61
(g62
g63
NtRp3699
(dp3700
g66
(dp3701
g74
I3
ssg75
g3695
sg68
(lp3702
S''
asbasbasbag61
(g77
g63
NtRp3703
(dp3704
g66
(dp3705
sg75
g3659
sg68
(lp3706
g61
(g82
g63
NtRp3707
(dp3708
g66
(dp3709
g86
g87
ssg75
g3703
sg68
(lp3710
g317
asbag61
(g82
g63
NtRp3711
(dp3712
g66
(dp3713
g93
g94
ssg75
g3703
sg68
(lp3714
S':'
asbag61
(g82
g63
NtRp3715
(dp3716
g66
(dp3717
sg75
g3703
sg68
(lp3718
g61
(g62
g63
NtRp3719
(dp3720
g66
(dp3721
g74
I3
ssg75
g3715
sg68
(lp3722
S''
asbasbasbag61
(g77
g63
NtRp3723
(dp3724
g66
(dp3725
sg75
g3659
sg68
(lp3726
g61
(g82
g63
NtRp3727
(dp3728
g66
(dp3729
g86
g87
ssg75
g3723
sg68
(lp3730
g338
asbag61
(g82
g63
NtRp3731
(dp3732
g66
(dp3733
g93
g94
ssg75
g3723
sg68
(lp3734
S':'
asbag61
(g82
g63
NtRp3735
(dp3736
g66
(dp3737
sg75
g3723
sg68
(lp3738
g61
(g62
g63
NtRp3739
(dp3740
g66
(dp3741
g74
I3
ssg75
g3735
sg68
(lp3742
S''
asbasbasbag61
(g77
g63
NtRp3743
(dp3744
g66
(dp3745
sg75
g3659
sg68
(lp3746
g61
(g82
g63
NtRp3747
(dp3748
g66
(dp3749
g86
g87
ssg75
g3743
sg68
(lp3750
g359
asbag61
(g82
g63
NtRp3751
(dp3752
g66
(dp3753
g93
g94
ssg75
g3743
sg68
(lp3754
S':'
asbag61
(g82
g63
NtRp3755
(dp3756
g66
(dp3757
sg75
g3743
sg68
(lp3758
g61
(g62
g63
NtRp3759
(dp3760
g66
(dp3761
g74
I3
ssg75
g3755
sg68
(lp3762
S'/'
asbasbasbag61
(g77
g63
NtRp3763
(dp3764
g66
(dp3765
sg75
g3659
sg68
(lp3766
g61
(g82
g63
NtRp3767
(dp3768
g66
(dp3769
g86
g87
ssg75
g3763
sg68
(lp3770
g380
asbag61
(g82
g63
NtRp3771
(dp3772
g66
(dp3773
g93
g94
ssg75
g3763
sg68
(lp3774
S':'
asbag61
(g82
g63
NtRp3775
(dp3776
g66
(dp3777
sg75
g3763
sg68
(lp3778
g61
(g62
g63
NtRp3779
(dp3780
g66
(dp3781
g74
I3
ssg75
g3775
sg68
(lp3782
S''
asbasbasbag61
(g77
g63
NtRp3783
(dp3784
g66
(dp3785
sg75
g3659
sg68
(lp3786
g61
(g82
g63
NtRp3787
(dp3788
g66
(dp3789
g86
g87
ssg75
g3783
sg68
(lp3790
g401
asbag61
(g82
g63
NtRp3791
(dp3792
g66
(dp3793
g93
g94
ssg75
g3783
sg68
(lp3794
S':'
asbag61
(g82
g63
NtRp3795
(dp3796
g66
(dp3797
sg75
g3783
sg68
(lp3798
g61
(g62
g63
NtRp3799
(dp3800
g66
(dp3801
g74
I3
ssg75
g3795
sg68
(lp3802
S''
asbasbasbasbasbasbasbasbasbasbasbag61
(g77
g63
NtRp3803
(dp3804
g66
(dp3805
sg75
g3589
sg68
(lp3806
g61
(g82
g63
NtRp3807
(dp3808
g66
(dp3809
g86
g87
ssg75
g3803
sg68
(lp3810
S'delimiters'
p3811
asbag61
(g82
g63
NtRp3812
(dp3813
g66
(dp3814
g93
g94
ssg75
g3803
sg68
(lp3815
S':'
asbag61
(g82
g63
NtRp3816
(dp3817
g66
(dp3818
sg75
g3803
sg68
(lp3819
g61
(g62
g63
NtRp3820
(dp3821
g66
(dp3822
g74
I5
ssg75
g3816
sg68
(lp3823
g61
(g70
g63
NtRp3824
(dp3825
g66
(dp3826
g74
I4
ssg75
Nsg68
(lp3827
g61
(g77
g63
NtRp3828
(dp3829
g66
(dp3830
sg75
g3824
sg68
(lp3831
g61
(g82
g63
NtRp3832
(dp3833
g66
(dp3834
sg75
g3828
sg68
(lp3835
g61
(g62
g63
NtRp3836
(dp3837
g66
(dp3838
g74
I4
ssg75
g3832
sg68
(lp3839
S'{{'
p3840
asbasbasbag61
(g77
g63
NtRp3841
(dp3842
g66
(dp3843
sg75
g3824
sg68
(lp3844
g61
(g82
g63
NtRp3845
(dp3846
g66
(dp3847
sg75
g3841
sg68
(lp3848
g61
(g62
g63
NtRp3849
(dp3850
g66
(dp3851
g74
I4
ssg75
g3845
sg68
(lp3852
S'}}'
p3853
asbasbasbasbasbasbasbag61
(g77
g63
NtRp3854
(dp3855
g66
(dp3856
sg75
g3589
sg68
(lp3857
g61
(g82
g63
NtRp3858
(dp3859
g66
(dp3860
g86
g87
ssg75
g3854
sg68
(lp3861
S'files'
p3862
asbag61
(g82
g63
NtRp3863
(dp3864
g66
(dp3865
g93
g94
ssg75
g3854
sg68
(lp3866
S':'
asbag61
(g82
g63
NtRp3867
(dp3868
g66
(dp3869
sg75
g3854
sg68
(lp3870
g61
(g62
g63
NtRp3871
(dp3872
g66
(dp3873
g74
I5
ssg75
g3867
sg68
(lp3874
g61
(g70
g63
NtRp3875
(dp3876
g66
(dp3877
g74
I4
ssg75
Nsg68
(lp3878
sbasbasbasbag61
(g77
g63
NtRp3879
(dp3880
g66
(dp3881
sg75
g3589
sg68
(lp3882
g61
(g82
g63
NtRp3883
(dp3884
g66
(dp3885
g86
g87
ssg75
g3879
sg68
(lp3886
S'flash'
p3887
asbag61
(g82
g63
NtRp3888
(dp3889
g66
(dp3890
g93
g94
ssg75
g3879
sg68
(lp3891
S':'
asbag61
(g82
g63
NtRp3892
(dp3893
g66
(dp3894
sg75
g3879
sg68
(lp3895
g61
(g62
g63
NtRp3896
(dp3897
g66
(dp3898
g74
I5
ssg75
g3892
sg68
(lp3899
S''
asbasbasbag61
(g77
g63
NtRp3900
(dp3901
g66
(dp3902
sg75
g3589
sg68
(lp3903
g61
(g82
g63
NtRp3904
(dp3905
g66
(dp3906
g86
g87
ssg75
g3900
sg68
(lp3907
S'generic_patterns'
p3908
asbag61
(g82
g63
NtRp3909
(dp3910
g66
(dp3911
g93
g94
ssg75
g3900
sg68
(lp3912
S':'
asbag61
(g82
g63
NtRp3913
(dp3914
g66
(dp3915
sg75
g3900
sg68
(lp3916
g61
(g62
g63
NtRp3917
(dp3918
g66
(dp3919
g74
I5
ssg75
g3913
sg68
(lp3920
g61
(g70
g63
NtRp3921
(dp3922
g66
(dp3923
g74
I4
ssg75
Nsg68
(lp3924
g61
(g77
g63
NtRp3925
(dp3926
g66
(dp3927
sg75
g3921
sg68
(lp3928
g61
(g82
g63
NtRp3929
(dp3930
g66
(dp3931
sg75
g3925
sg68
(lp3932
g61
(g62
g63
NtRp3933
(dp3934
g66
(dp3935
g74
I4
ssg75
g3929
sg68
(lp3936
S'*'
asbasbasbasbasbasbasbag61
(g77
g63
NtRp3937
(dp3938
g66
(dp3939
sg75
g3589
sg68
(lp3940
g61
(g82
g63
NtRp3941
(dp3942
g66
(dp3943
g86
g87
ssg75
g3937
sg68
(lp3944
S'headers'
p3945
asbag61
(g82
g63
NtRp3946
(dp3947
g66
(dp3948
g93
g94
ssg75
g3937
sg68
(lp3949
S':'
asbag61
(g82
g63
NtRp3950
(dp3951
g66
(dp3952
sg75
g3937
sg68
(lp3953
g61
(g62
g63
NtRp3954
(dp3955
g66
(dp3956
g74
I5
ssg75
g3950
sg68
(lp3957
g61
(g70
g63
NtRp3958
(dp3959
g66
(dp3960
g74
I4
ssg75
Nsg68
(lp3961
g61
(g77
g63
NtRp3962
(dp3963
g66
(dp3964
sg75
g3958
sg68
(lp3965
g61
(g82
g63
NtRp3966
(dp3967
g66
(dp3968
g86
g87
ssg75
g3962
sg68
(lp3969
S'Cache-Control'
p3970
asbag61
(g82
g63
NtRp3971
(dp3972
g66
(dp3973
g93
g94
ssg75
g3962
sg68
(lp3974
S':'
asbag61
(g82
g63
NtRp3975
(dp3976
g66
(dp3977
sg75
g3962
sg68
(lp3978
g61
(g62
g63
NtRp3979
(dp3980
g66
(dp3981
g74
I4
ssg75
g3975
sg68
(lp3982
S'no-store, no-cache, must-revalidate, post-check=0, pre-check=0'
p3983
asbasbasbag61
(g77
g63
NtRp3984
(dp3985
g66
(dp3986
sg75
g3958
sg68
(lp3987
g61
(g82
g63
NtRp3988
(dp3989
g66
(dp3990
g86
g87
ssg75
g3984
sg68
(lp3991
S'Content-Type'
p3992
asbag61
(g82
g63
NtRp3993
(dp3994
g66
(dp3995
g93
g94
ssg75
g3984
sg68
(lp3996
S':'
asbag61
(g82
g63
NtRp3997
(dp3998
g66
(dp3999
sg75
g3984
sg68
(lp4000
g61
(g62
g63
NtRp4001
(dp4002
g66
(dp4003
g74
I4
ssg75
g3997
sg68
(lp4004
S'text/html; charset=utf-8'
p4005
asbasbasbag61
(g77
g63
NtRp4006
(dp4007
g66
(dp4008
sg75
g3958
sg68
(lp4009
g61
(g82
g63
NtRp4010
(dp4011
g66
(dp4012
g86
g87
ssg75
g4006
sg68
(lp4013
S'Expires'
p4014
asbag61
(g82
g63
NtRp4015
(dp4016
g66
(dp4017
g93
g94
ssg75
g4006
sg68
(lp4018
S':'
asbag61
(g82
g63
NtRp4019
(dp4020
g66
(dp4021
sg75
g4006
sg68
(lp4022
g61
(g62
g63
NtRp4023
(dp4024
g66
(dp4025
g74
I4
ssg75
g4019
sg68
(lp4026
S'Tue, 13 Nov 2012 10:22:38 GMT'
p4027
asbasbasbag61
(g77
g63
NtRp4028
(dp4029
g66
(dp4030
sg75
g3958
sg68
(lp4031
g61
(g82
g63
NtRp4032
(dp4033
g66
(dp4034
g86
g87
ssg75
g4028
sg68
(lp4035
S'Pragma'
p4036
asbag61
(g82
g63
NtRp4037
(dp4038
g66
(dp4039
g93
g94
ssg75
g4028
sg68
(lp4040
S':'
asbag61
(g82
g63
NtRp4041
(dp4042
g66
(dp4043
sg75
g4028
sg68
(lp4044
g61
(g62
g63
NtRp4045
(dp4046
g66
(dp4047
g74
I4
ssg75
g4041
sg68
(lp4048
S'no-cache'
p4049
asbasbasbag61
(g77
g63
NtRp4050
(dp4051
g66
(dp4052
sg75
g3958
sg68
(lp4053
g61
(g82
g63
NtRp4054
(dp4055
g66
(dp4056
g86
g87
ssg75
g4050
sg68
(lp4057
S'X-Powered-By'
p4058
asbag61
(g82
g63
NtRp4059
(dp4060
g66
(dp4061
g93
g94
ssg75
g4050
sg68
(lp4062
S':'
asbag61
(g82
g63
NtRp4063
(dp4064
g66
(dp4065
sg75
g4050
sg68
(lp4066
g61
(g62
g63
NtRp4067
(dp4068
g66
(dp4069
g74
I4
ssg75
g4063
sg68
(lp4070
S'web2py'
p4071
asbasbasbasbasbasbasbag61
(g77
g63
NtRp4072
(dp4073
g66
(dp4074
sg75
g3589
sg68
(lp4075
g61
(g82
g63
NtRp4076
(dp4077
g66
(dp4078
g86
g87
ssg75
g4072
sg68
(lp4079
S'menu'
p4080
asbag61
(g82
g63
NtRp4081
(dp4082
g66
(dp4083
g93
g94
ssg75
g4072
sg68
(lp4084
S':'
asbag61
(g82
g63
NtRp4085
(dp4086
g66
(dp4087
sg75
g4072
sg68
(lp4088
g61
(g62
g63
NtRp4089
(dp4090
g66
(dp4091
g74
I5
ssg75
g4085
sg68
(lp4092
g61
(g70
g63
NtRp4093
(dp4094
g66
(dp4095
g74
I4
ssg75
Nsg68
(lp4096
g61
(g77
g63
NtRp4097
(dp4098
g66
(dp4099
sg75
g4093
sg68
(lp4100
g61
(g82
g63
NtRp4101
(dp4102
g66
(dp4103
sg75
g4097
sg68
(lp4104
g61
(g62
g63
NtRp4105
(dp4106
g66
(dp4107
g74
I4
ssg75
g4101
sg68
(lp4108
g61
(g70
g63
NtRp4109
(dp4110
g66
(dp4111
g74
I3
ssg75
Nsg68
(lp4112
g61
(g77
g63
NtRp4113
(dp4114
g66
(dp4115
sg75
g4109
sg68
(lp4116
g61
(g82
g63
NtRp4117
(dp4118
g66
(dp4119
sg75
g4113
sg68
(lp4120
g61
(g62
g63
NtRp4121
(dp4122
g66
(dp4123
g74
I3
ssg75
g4117
sg68
(lp4124
cgluon.languages
lazyT_unpickle
p4125
(S's\x04\x00\x00\x00Home'
tRp4126
asbasbasbag61
(g77
g63
NtRp4127
(dp4128
g66
(dp4129
sg75
g4109
sg68
(lp4130
g61
(g82
g63
NtRp4131
(dp4132
g66
(dp4133
sg75
g4127
sg68
(lp4134
g61
(g62
g63
NtRp4135
(dp4136
g66
(dp4137
g74
I3
ssg75
g4131
sg68
(lp4138
g104
asbasbasbag61
(g77
g63
NtRp4139
(dp4140
g66
(dp4141
sg75
g4109
sg68
(lp4142
g61
(g82
g63
NtRp4143
(dp4144
g66
(dp4145
sg75
g4139
sg68
(lp4146
g61
(g62
g63
NtRp4147
(dp4148
g66
(dp4149
g74
I3
ssg75
g4143
sg68
(lp4150
S'/pro/default/index'
p4151
asbasbasbag61
(g77
g63
NtRp4152
(dp4153
g66
(dp4154
sg75
g4109
sg68
(lp4155
g61
(g82
g63
NtRp4156
(dp4157
g66
(dp4158
sg75
g4152
sg68
(lp4159
g61
(g62
g63
NtRp4160
(dp4161
g66
(dp4162
g74
I3
ssg75
g4156
sg68
(lp4163
g61
(g70
g63
NtRp4164
(dp4165
g66
(dp4166
g74
I2
ssg75
Nsg68
(lp4167
sbasbasbasbasbasbasbasbag61
(g77
g63
NtRp4168
(dp4169
g66
(dp4170
sg75
g4093
sg68
(lp4171
g61
(g82
g63
NtRp4172
(dp4173
g66
(dp4174
sg75
g4168
sg68
(lp4175
g61
(g62
g63
NtRp4176
(dp4177
g66
(dp4178
g74
I4
ssg75
g4172
sg68
(lp4179
g61
(g70
g63
NtRp4180
(dp4181
g66
(dp4182
g74
I3
ssg75
Nsg68
(lp4183
g61
(g77
g63
NtRp4184
(dp4185
g66
(dp4186
sg75
g4180
sg68
(lp4187
g61
(g82
g63
NtRp4188
(dp4189
g66
(dp4190
sg75
g4184
sg68
(lp4191
g61
(g62
g63
NtRp4192
(dp4193
g66
(dp4194
g74
I3
ssg75
g4188
sg68
(lp4195
g61
(cgluon.html
SPAN
p4196
g63
NtRp4197
(dp4198
g66
(dp4199
g86
S'color:yellow'
p4200
ssg75
Nsg68
(lp4201
g4071
asbasbasbasbag61
(g77
g63
NtRp4202
(dp4203
g66
(dp4204
sg75
g4180
sg68
(lp4205
g61
(g82
g63
NtRp4206
(dp4207
g66
(dp4208
sg75
g4202
sg68
(lp4209
g61
(g62
g63
NtRp4210
(dp4211
g66
(dp4212
g74
I3
ssg75
g4206
sg68
(lp4213
g104
asbasbasbag61
(g77
g63
NtRp4214
(dp4215
g66
(dp4216
sg75
g4180
sg68
(lp4217
g61
(g82
g63
NtRp4218
(dp4219
g66
(dp4220
sg75
g4214
sg68
(lp4221
g61
(g62
g63
NtRp4222
(dp4223
g66
(dp4224
g74
I3
ssg75
g4218
sg68
(lp4225
S'None'
p4226
asbasbasbag61
(g77
g63
NtRp4227
(dp4228
g66
(dp4229
sg75
g4180
sg68
(lp4230
g61
(g82
g63
NtRp4231
(dp4232
g66
(dp4233
sg75
g4227
sg68
(lp4234
g61
(g62
g63
NtRp4235
(dp4236
g66
(dp4237
g74
I3
ssg75
g4231
sg68
(lp4238
g61
(g70
g63
NtRp4239
(dp4240
g66
(dp4241
g74
I2
ssg75
Nsg68
(lp4242
g61
(g77
g63
NtRp4243
(dp4244
g66
(dp4245
sg75
g4239
sg68
(lp4246
g61
(g82
g63
NtRp4247
(dp4248
g66
(dp4249
sg75
g4243
sg68
(lp4250
g61
(g62
g63
NtRp4251
(dp4252
g66
(dp4253
g74
I2
ssg75
g4247
sg68
(lp4254
g61
(g70
g63
NtRp4255
(dp4256
g66
(dp4257
g74
I1
ssg75
Nsg68
(lp4258
g61
(g77
g63
NtRp4259
(dp4260
g66
(dp4261
sg75
g4255
sg68
(lp4262
g61
(g82
g63
NtRp4263
(dp4264
g66
(dp4265
sg75
g4259
sg68
(lp4266
g61
(g62
g63
NtRp4267
(dp4268
g66
(dp4269
g74
I1
ssg75
g4263
sg68
(lp4270
g4125
(S's\x08\x00\x00\x00My Sites'
tRp4271
asbasbasbag61
(g77
g63
NtRp4272
(dp4273
g66
(dp4274
sg75
g4255
sg68
(lp4275
g61
(g82
g63
NtRp4276
(dp4277
g66
(dp4278
sg75
g4272
sg68
(lp4279
g61
(g62
g63
NtRp4280
(dp4281
g66
(dp4282
g74
I1
ssg75
g4276
sg68
(lp4283
I00
asbasbasbag61
(g77
g63
NtRp4284
(dp4285
g66
(dp4286
sg75
g4255
sg68
(lp4287
g61
(g82
g63
NtRp4288
(dp4289
g66
(dp4290
sg75
g4284
sg68
(lp4291
g61
(g62
g63
NtRp4292
(dp4293
g66
(dp4294
g74
I1
ssg75
g4288
sg68
(lp4295
S'/admin/default/site'
p4296
asbasbasbasbasbasbasbag61
(g77
g63
NtRp4297
(dp4298
g66
(dp4299
sg75
g4239
sg68
(lp4300
g61
(g82
g63
NtRp4301
(dp4302
g66
(dp4303
sg75
g4297
sg68
(lp4304
g61
(g62
g63
NtRp4305
(dp4306
g66
(dp4307
g74
I2
ssg75
g4301
sg68
(lp4308
g61
(g70
g63
NtRp4309
(dp4310
g66
(dp4311
g74
I1
ssg75
Nsg68
(lp4312
g61
(g77
g63
NtRp4313
(dp4314
g66
(dp4315
sg75
g4309
sg68
(lp4316
g61
(g82
g63
NtRp4317
(dp4318
g66
(dp4319
sg75
g4313
sg68
(lp4320
g61
(g62
g63
NtRp4321
(dp4322
g66
(dp4323
g74
I1
ssg75
g4317
sg68
(lp4324
g4125
(S's\x08\x00\x00\x00This App'
tRp4325
asbasbasbag61
(g77
g63
NtRp4326
(dp4327
g66
(dp4328
sg75
g4309
sg68
(lp4329
g61
(g82
g63
NtRp4330
(dp4331
g66
(dp4332
sg75
g4326
sg68
(lp4333
g61
(g62
g63
NtRp4334
(dp4335
g66
(dp4336
g74
I1
ssg75
g4330
sg68
(lp4337
I00
asbasbasbag61
(g77
g63
NtRp4338
(dp4339
g66
(dp4340
sg75
g4309
sg68
(lp4341
g61
(g82
g63
NtRp4342
(dp4343
g66
(dp4344
sg75
g4338
sg68
(lp4345
g61
(g62
g63
NtRp4346
(dp4347
g66
(dp4348
g74
I1
ssg75
g4342
sg68
(lp4349
S'/admin/default/design/pro'
p4350
asbasbasbag61
(g77
g63
NtRp4351
(dp4352
g66
(dp4353
sg75
g4309
sg68
(lp4354
g61
(g82
g63
NtRp4355
(dp4356
g66
(dp4357
sg75
g4351
sg68
(lp4358
g61
(g62
g63
NtRp4359
(dp4360
g66
(dp4361
g74
I1
ssg75
g4355
sg68
(lp4362
(lp4363
(g4125
(S's\n\x00\x00\x00Controller'
tRp4364
I00
S'/admin/default/edit/pro/controllers/default.py'
tp4365
a(g4125
(S's\x04\x00\x00\x00View'
tRp4366
I00
S'/admin/default/edit/pro/views/default/kruskal.html'
tp4367
a(g4125
(S's\x06\x00\x00\x00Layout'
tRp4368
I00
S'/admin/default/edit/pro/views/layout.html'
tp4369
a(g4125
(S's\n\x00\x00\x00Stylesheet'
tRp4370
I00
S'/admin/default/edit/pro/static/css/web2py.css'
tp4371
a(g4125
(S's\x08\x00\x00\x00DB Model'
tRp4372
I00
S'/admin/default/edit/pro/models/db.py'
tp4373
a(g4125
(S's\n\x00\x00\x00Menu Model'
tRp4374
I00
S'/admin/default/edit/pro/models/menu.py'
tp4375
a(g4125
(S's\x08\x00\x00\x00Database'
tRp4376
I00
S'/pro/appadmin/index'
tp4377
a(g4125
(S's\x06\x00\x00\x00Errors'
tRp4378
I00
S'/admin/default/errors/pro'
tp4379
a(g4125
(S's\x05\x00\x00\x00About'
tRp4380
I00
S'/admin/default/about/pro'
tp4381
aasbasbasbasbasbasbasbag61
(g77
g63
NtRp4382
(dp4383
g66
(dp4384
sg75
g4239
sg68
(lp4385
g61
(g82
g63
NtRp4386
(dp4387
g66
(dp4388
sg75
g4382
sg68
(lp4389
g61
(g62
g63
NtRp4390
(dp4391
g66
(dp4392
g74
I2
ssg75
g4386
sg68
(lp4393
g61
(g70
g63
NtRp4394
(dp4395
g66
(dp4396
g74
I1
ssg75
Nsg68
(lp4397
g61
(g77
g63
NtRp4398
(dp4399
g66
(dp4400
sg75
g4394
sg68
(lp4401
g61
(g82
g63
NtRp4402
(dp4403
g66
(dp4404
sg75
g4398
sg68
(lp4405
g61
(g62
g63
NtRp4406
(dp4407
g66
(dp4408
g74
I1
ssg75
g4402
sg68
(lp4409
S'web2py.com'
p4410
asbasbasbag61
(g77
g63
NtRp4411
(dp4412
g66
(dp4413
sg75
g4394
sg68
(lp4414
g61
(g82
g63
NtRp4415
(dp4416
g66
(dp4417
sg75
g4411
sg68
(lp4418
g61
(g62
g63
NtRp4419
(dp4420
g66
(dp4421
g74
I1
ssg75
g4415
sg68
(lp4422
I00
asbasbasbag61
(g77
g63
NtRp4423
(dp4424
g66
(dp4425
sg75
g4394
sg68
(lp4426
g61
(g82
g63
NtRp4427
(dp4428
g66
(dp4429
sg75
g4423
sg68
(lp4430
g61
(g62
g63
NtRp4431
(dp4432
g66
(dp4433
g74
I1
ssg75
g4427
sg68
(lp4434
S'http://www.web2py.com'
p4435
asbasbasbag61
(g77
g63
NtRp4436
(dp4437
g66
(dp4438
sg75
g4394
sg68
(lp4439
g61
(g82
g63
NtRp4440
(dp4441
g66
(dp4442
sg75
g4436
sg68
(lp4443
g61
(g62
g63
NtRp4444
(dp4445
g66
(dp4446
g74
I1
ssg75
g4440
sg68
(lp4447
(lp4448
(g4125
(S's\x08\x00\x00\x00Download'
tRp4449
I00
S'http://www.web2py.com/examples/default/download'
p4450
tp4451
a(g4125
(S's\x07\x00\x00\x00Support'
tRp4452
I00
S'http://www.web2py.com/examples/default/support'
p4453
tp4454
a(g4125
(S's\x04\x00\x00\x00Demo'
tRp4455
I00
S'http://web2py.com/demo_admin'
p4456
tp4457
a(g4125
(S's\x0e\x00\x00\x00Quick Examples'
tRp4458
I00
S'http://web2py.com/examples/default/examples'
p4459
tp4460
a(g4125
(S's\x03\x00\x00\x00FAQ'
tRp4461
I00
S'http://web2py.com/AlterEgo'
p4462
tp4463
a(g4125
(S's\x06\x00\x00\x00Videos'
tRp4464
I00
S'http://www.web2py.com/examples/default/videos/'
p4465
tp4466
a(g4125
(S's\x11\x00\x00\x00Free Applications'
tRp4467
I00
S'http://web2py.com/appliances'
p4468
tp4469
a(g4125
(S's\x07\x00\x00\x00Plugins'
tRp4470
I00
S'http://web2py.com/plugins'
p4471
tp4472
a(g4125
(S's\x07\x00\x00\x00Layouts'
tRp4473
I00
S'http://web2py.com/layouts'
p4474
tp4475
a(g4125
(S's\x07\x00\x00\x00Recipes'
tRp4476
I00
S'http://web2pyslices.com/'
p4477
tp4478
a(g4125
(S's\x08\x00\x00\x00Semantic'
tRp4479
I00
S'http://web2py.com/semantic'
p4480
tp4481
aasbasbasbasbasbasbasbag61
(g77
g63
NtRp4482
(dp4483
g66
(dp4484
sg75
g4239
sg68
(lp4485
g61
(g82
g63
NtRp4486
(dp4487
g66
(dp4488
sg75
g4482
sg68
(lp4489
g61
(g62
g63
NtRp4490
(dp4491
g66
(dp4492
g74
I2
ssg75
g4486
sg68
(lp4493
g61
(g70
g63
NtRp4494
(dp4495
g66
(dp4496
g74
I1
ssg75
Nsg68
(lp4497
g61
(g77
g63
NtRp4498
(dp4499
g66
(dp4500
sg75
g4494
sg68
(lp4501
g61
(g82
g63
NtRp4502
(dp4503
g66
(dp4504
sg75
g4498
sg68
(lp4505
g61
(g62
g63
NtRp4506
(dp4507
g66
(dp4508
g74
I1
ssg75
g4502
sg68
(lp4509
g4125
(S's\r\x00\x00\x00Documentation'
tRp4510
asbasbasbag61
(g77
g63
NtRp4511
(dp4512
g66
(dp4513
sg75
g4494
sg68
(lp4514
g61
(g82
g63
NtRp4515
(dp4516
g66
(dp4517
sg75
g4511
sg68
(lp4518
g61
(g62
g63
NtRp4519
(dp4520
g66
(dp4521
g74
I1
ssg75
g4515
sg68
(lp4522
I00
asbasbasbag61
(g77
g63
NtRp4523
(dp4524
g66
(dp4525
sg75
g4494
sg68
(lp4526
g61
(g82
g63
NtRp4527
(dp4528
g66
(dp4529
sg75
g4523
sg68
(lp4530
g61
(g62
g63
NtRp4531
(dp4532
g66
(dp4533
g74
I1
ssg75
g4527
sg68
(lp4534
S'http://www.web2py.com/book'
p4535
asbasbasbag61
(g77
g63
NtRp4536
(dp4537
g66
(dp4538
sg75
g4494
sg68
(lp4539
g61
(g82
g63
NtRp4540
(dp4541
g66
(dp4542
sg75
g4536
sg68
(lp4543
g61
(g62
g63
NtRp4544
(dp4545
g66
(dp4546
g74
I1
ssg75
g4540
sg68
(lp4547
(lp4548
(g4125
(S's\x07\x00\x00\x00Preface'
tRp4549
I00
S'http://www.web2py.com/book/default/chapter/00'
p4550
tp4551
a(g4125
(S's\x0c\x00\x00\x00Introduction'
tRp4552
I00
S'http://www.web2py.com/book/default/chapter/01'
p4553
tp4554
a(g4125
(S's\x06\x00\x00\x00Python'
tRp4555
I00
S'http://www.web2py.com/book/default/chapter/02'
p4556
tp4557
a(g4125
(S's\x08\x00\x00\x00Overview'
tRp4558
I00
S'http://www.web2py.com/book/default/chapter/03'
p4559
tp4560
a(g4125
(S's\x08\x00\x00\x00The Core'
tRp4561
I00
S'http://www.web2py.com/book/default/chapter/04'
p4562
tp4563
a(g4125
(S's\t\x00\x00\x00The Views'
tRp4564
I00
S'http://www.web2py.com/book/default/chapter/05'
p4565
tp4566
a(g4125
(S's\x08\x00\x00\x00Database'
tRp4567
I00
S'http://www.web2py.com/book/default/chapter/06'
p4568
tp4569
a(g4125
(S's\x14\x00\x00\x00Forms and Validators'
tRp4570
I00
S'http://www.web2py.com/book/default/chapter/07'
p4571
tp4572
a(g4125
(S's\r\x00\x00\x00Email and SMS'
tRp4573
I00
S'http://www.web2py.com/book/default/chapter/08'
p4574
tp4575
a(g4125
(S's\x0e\x00\x00\x00Access Control'
tRp4576
I00
S'http://www.web2py.com/book/default/chapter/09'
p4577
tp4578
a(g4125
(S's\x08\x00\x00\x00Services'
tRp4579
I00
S'http://www.web2py.com/book/default/chapter/10'
p4580
tp4581
a(g4125
(S's\x0c\x00\x00\x00Ajax Recipes'
tRp4582
I00
S'http://www.web2py.com/book/default/chapter/11'
p4583
tp4584
a(g4125
(S's\x16\x00\x00\x00Components and Plugins'
tRp4585
I00
S'http://www.web2py.com/book/default/chapter/12'
p4586
tp4587
a(g4125
(S's\x12\x00\x00\x00Deployment Recipes'
tRp4588
I00
S'http://www.web2py.com/book/default/chapter/13'
p4589
tp4590
a(g4125
(S's\r\x00\x00\x00Other Recipes'
tRp4591
I00
S'http://www.web2py.com/book/default/chapter/14'
p4592
tp4593
a(g4125
(S's\r\x00\x00\x00Buy this book'
tRp4594
I00
S'http://stores.lulu.com/web2py'
p4595
tp4596
aasbasbasbasbasbasbasbag61
(g77
g63
NtRp4597
(dp4598
g66
(dp4599
sg75
g4239
sg68
(lp4600
g61
(g82
g63
NtRp4601
(dp4602
g66
(dp4603
sg75
g4597
sg68
(lp4604
g61
(g62
g63
NtRp4605
(dp4606
g66
(dp4607
g74
I2
ssg75
g4601
sg68
(lp4608
g61
(g70
g63
NtRp4609
(dp4610
g66
(dp4611
g74
I1
ssg75
Nsg68
(lp4612
g61
(g77
g63
NtRp4613
(dp4614
g66
(dp4615
sg75
g4609
sg68
(lp4616
g61
(g82
g63
NtRp4617
(dp4618
g66
(dp4619
sg75
g4613
sg68
(lp4620
g61
(g62
g63
NtRp4621
(dp4622
g66
(dp4623
g74
I1
ssg75
g4617
sg68
(lp4624
g4125
(S's\t\x00\x00\x00Community'
tRp4625
asbasbasbag61
(g77
g63
NtRp4626
(dp4627
g66
(dp4628
sg75
g4609
sg68
(lp4629
g61
(g82
g63
NtRp4630
(dp4631
g66
(dp4632
sg75
g4626
sg68
(lp4633
g61
(g62
g63
NtRp4634
(dp4635
g66
(dp4636
g74
I1
ssg75
g4630
sg68
(lp4637
I00
asbasbasbag61
(g77
g63
NtRp4638
(dp4639
g66
(dp4640
sg75
g4609
sg68
(lp4641
g61
(g82
g63
NtRp4642
(dp4643
g66
(dp4644
sg75
g4638
sg68
(lp4645
g61
(g62
g63
NtRp4646
(dp4647
g66
(dp4648
g74
I1
ssg75
g4642
sg68
(lp4649
Nasbasbasbag61
(g77
g63
NtRp4650
(dp4651
g66
(dp4652
sg75
g4609
sg68
(lp4653
g61
(g82
g63
NtRp4654
(dp4655
g66
(dp4656
sg75
g4650
sg68
(lp4657
g61
(g62
g63
NtRp4658
(dp4659
g66
(dp4660
g74
I1
ssg75
g4654
sg68
(lp4661
(lp4662
(g4125
(S's\x06\x00\x00\x00Groups'
tRp4663
I00
S'http://www.web2py.com/examples/default/usergroups'
p4664
tp4665
a(g4125
(S's\x07\x00\x00\x00Twitter'
tRp4666
I00
S'http://twitter.com/web2py'
p4667
tp4668
a(g4125
(S's\t\x00\x00\x00Live Chat'
tRp4669
I00
S'http://webchat.freenode.net/?channels=web2py'
p4670
tp4671
aasbasbasbasbasbasbasbag61
(g77
g63
NtRp4672
(dp4673
g66
(dp4674
sg75
g4239
sg68
(lp4675
g61
(g82
g63
NtRp4676
(dp4677
g66
(dp4678
sg75
g4672
sg68
(lp4679
g61
(g62
g63
NtRp4680
(dp4681
g66
(dp4682
g74
I2
ssg75
g4676
sg68
(lp4683
g61
(g70
g63
NtRp4684
(dp4685
g66
(dp4686
g74
I1
ssg75
Nsg68
(lp4687
g61
(g77
g63
NtRp4688
(dp4689
g66
(dp4690
sg75
g4684
sg68
(lp4691
g61
(g82
g63
NtRp4692
(dp4693
g66
(dp4694
sg75
g4688
sg68
(lp4695
g61
(g62
g63
NtRp4696
(dp4697
g66
(dp4698
g74
I1
ssg75
g4692
sg68
(lp4699
g4125
(S's\x07\x00\x00\x00Plugins'
tRp4700
asbasbasbag61
(g77
g63
NtRp4701
(dp4702
g66
(dp4703
sg75
g4684
sg68
(lp4704
g61
(g82
g63
NtRp4705
(dp4706
g66
(dp4707
sg75
g4701
sg68
(lp4708
g61
(g62
g63
NtRp4709
(dp4710
g66
(dp4711
g74
I1
ssg75
g4705
sg68
(lp4712
I00
asbasbasbag61
(g77
g63
NtRp4713
(dp4714
g66
(dp4715
sg75
g4684
sg68
(lp4716
g61
(g82
g63
NtRp4717
(dp4718
g66
(dp4719
sg75
g4713
sg68
(lp4720
g61
(g62
g63
NtRp4721
(dp4722
g66
(dp4723
g74
I1
ssg75
g4717
sg68
(lp4724
Nasbasbasbag61
(g77
g63
NtRp4725
(dp4726
g66
(dp4727
sg75
g4684
sg68
(lp4728
g61
(g82
g63
NtRp4729
(dp4730
g66
(dp4731
sg75
g4725
sg68
(lp4732
g61
(g62
g63
NtRp4733
(dp4734
g66
(dp4735
g74
I1
ssg75
g4729
sg68
(lp4736
(lp4737
(S'plugin_wiki'
p4738
I00
S'http://web2py.com/examples/default/download'
p4739
tp4740
a(g4125
(S's\r\x00\x00\x00Other Plugins'
tRp4741
I00
g4471
tp4742
a(g4125
(S's\x0e\x00\x00\x00Layout Plugins'
tRp4743
I00
g4474
tp4744
aasbasbasbasbasbasbasbasbasbasbasbasbasbasbasbasbasbasbasbag61
(g77
g63
NtRp4745
(dp4746
g66
(dp4747
sg75
g3589
sg68
(lp4748
g61
(g82
g63
NtRp4749
(dp4750
g66
(dp4751
g86
g87
ssg75
g4745
sg68
(lp4752
S'meta'
p4753
asbag61
(g82
g63
NtRp4754
(dp4755
g66
(dp4756
g93
g94
ssg75
g4745
sg68
(lp4757
S':'
asbag61
(g82
g63
NtRp4758
(dp4759
g66
(dp4760
sg75
g4745
sg68
(lp4761
g61
(g62
g63
NtRp4762
(dp4763
g66
(dp4764
g74
I5
ssg75
g4758
sg68
(lp4765
g61
(g70
g63
NtRp4766
(dp4767
g66
(dp4768
g74
I4
ssg75
Nsg68
(lp4769
g61
(g77
g63
NtRp4770
(dp4771
g66
(dp4772
sg75
g4766
sg68
(lp4773
g61
(g82
g63
NtRp4774
(dp4775
g66
(dp4776
g86
g87
ssg75
g4770
sg68
(lp4777
S'author'
p4778
asbag61
(g82
g63
NtRp4779
(dp4780
g66
(dp4781
g93
g94
ssg75
g4770
sg68
(lp4782
S':'
asbag61
(g82
g63
NtRp4783
(dp4784
g66
(dp4785
sg75
g4770
sg68
(lp4786
g61
(g62
g63
NtRp4787
(dp4788
g66
(dp4789
g74
I4
ssg75
g4783
sg68
(lp4790
S'Your Name <you@example.com>'
p4791
asbasbasbag61
(g77
g63
NtRp4792
(dp4793
g66
(dp4794
sg75
g4766
sg68
(lp4795
g61
(g82
g63
NtRp4796
(dp4797
g66
(dp4798
g86
g87
ssg75
g4792
sg68
(lp4799
S'copyright'
p4800
asbag61
(g82
g63
NtRp4801
(dp4802
g66
(dp4803
g93
g94
ssg75
g4792
sg68
(lp4804
S':'
asbag61
(g82
g63
NtRp4805
(dp4806
g66
(dp4807
sg75
g4792
sg68
(lp4808
g61
(g62
g63
NtRp4809
(dp4810
g66
(dp4811
g74
I4
ssg75
g4805
sg68
(lp4812
S'Copyright 2011'
p4813
asbasbasbag61
(g77
g63
NtRp4814
(dp4815
g66
(dp4816
sg75
g4766
sg68
(lp4817
g61
(g82
g63
NtRp4818
(dp4819
g66
(dp4820
g86
g87
ssg75
g4814
sg68
(lp4821
S'description'
p4822
asbag61
(g82
g63
NtRp4823
(dp4824
g66
(dp4825
g93
g94
ssg75
g4814
sg68
(lp4826
S':'
asbag61
(g82
g63
NtRp4827
(dp4828
g66
(dp4829
sg75
g4814
sg68
(lp4830
g61
(g62
g63
NtRp4831
(dp4832
g66
(dp4833
g74
I4
ssg75
g4827
sg68
(lp4834
S'a cool new app'
p4835
asbasbasbag61
(g77
g63
NtRp4836
(dp4837
g66
(dp4838
sg75
g4766
sg68
(lp4839
g61
(g82
g63
NtRp4840
(dp4841
g66
(dp4842
g86
g87
ssg75
g4836
sg68
(lp4843
S'generator'
p4844
asbag61
(g82
g63
NtRp4845
(dp4846
g66
(dp4847
g93
g94
ssg75
g4836
sg68
(lp4848
S':'
asbag61
(g82
g63
NtRp4849
(dp4850
g66
(dp4851
sg75
g4836
sg68
(lp4852
g61
(g62
g63
NtRp4853
(dp4854
g66
(dp4855
g74
I4
ssg75
g4849
sg68
(lp4856
S'Web2py Web Framework'
p4857
asbasbasbag61
(g77
g63
NtRp4858
(dp4859
g66
(dp4860
sg75
g4766
sg68
(lp4861
g61
(g82
g63
NtRp4862
(dp4863
g66
(dp4864
g86
g87
ssg75
g4858
sg68
(lp4865
S'keywords'
p4866
asbag61
(g82
g63
NtRp4867
(dp4868
g66
(dp4869
g93
g94
ssg75
g4858
sg68
(lp4870
S':'
asbag61
(g82
g63
NtRp4871
(dp4872
g66
(dp4873
sg75
g4858
sg68
(lp4874
g61
(g62
g63
NtRp4875
(dp4876
g66
(dp4877
g74
I4
ssg75
g4871
sg68
(lp4878
S'web2py, python, framework'
p4879
asbasbasbasbasbasbasbag61
(g77
g63
NtRp4880
(dp4881
g66
(dp4882
sg75
g3589
sg68
(lp4883
g61
(g82
g63
NtRp4884
(dp4885
g66
(dp4886
g86
g87
ssg75
g4880
sg68
(lp4887
S'postprocessing'
p4888
asbag61
(g82
g63
NtRp4889
(dp4890
g66
(dp4891
g93
g94
ssg75
g4880
sg68
(lp4892
S':'
asbag61
(g82
g63
NtRp4893
(dp4894
g66
(dp4895
sg75
g4880
sg68
(lp4896
g61
(g62
g63
NtRp4897
(dp4898
g66
(dp4899
g74
I5
ssg75
g4893
sg68
(lp4900
g61
(g70
g63
NtRp4901
(dp4902
g66
(dp4903
g74
I4
ssg75
Nsg68
(lp4904
sbasbasbasbag61
(g77
g63
NtRp4905
(dp4906
g66
(dp4907
sg75
g3589
sg68
(lp4908
g61
(g82
g63
NtRp4909
(dp4910
g66
(dp4911
g86
g87
ssg75
g4905
sg68
(lp4912
S'session_file'
p4913
asbag61
(g82
g63
NtRp4914
(dp4915
g66
(dp4916
g93
g94
ssg75
g4905
sg68
(lp4917
S':'
asbag61
(g82
g63
NtRp4918
(dp4919
g66
(dp4920
sg75
g4905
sg68
(lp4921
g61
(g62
g63
NtRp4922
(dp4923
g66
(dp4924
g74
I5
ssg75
g4918
sg68
(lp4925
S"<open file 'D:\\web2py\\applications\\pro\\sessions\\127.0.0.1-fc976245-ef6c-457f-bccb-5f0f31b16c20', mode 'rb+' at 0x074EE2F0>"
p4926
asbasbasbag61
(g77
g63
NtRp4927
(dp4928
g66
(dp4929
sg75
g3589
sg68
(lp4930
g61
(g82
g63
NtRp4931
(dp4932
g66
(dp4933
g86
g87
ssg75
g4927
sg68
(lp4934
S'session_filename'
p4935
asbag61
(g82
g63
NtRp4936
(dp4937
g66
(dp4938
g93
g94
ssg75
g4927
sg68
(lp4939
S':'
asbag61
(g82
g63
NtRp4940
(dp4941
g66
(dp4942
sg75
g4927
sg68
(lp4943
g61
(g62
g63
NtRp4944
(dp4945
g66
(dp4946
g74
I5
ssg75
g4940
sg68
(lp4947
S'D:\\web2py\\applications\\pro\\sessions\\127.0.0.1-fc976245-ef6c-457f-bccb-5f0f31b16c20'
p4948
asbasbasbag61
(g77
g63
NtRp4949
(dp4950
g66
(dp4951
sg75
g3589
sg68
(lp4952
g61
(g82
g63
NtRp4953
(dp4954
g66
(dp4955
g86
g87
ssg75
g4949
sg68
(lp4956
S'session_id'
p4957
asbag61
(g82
g63
NtRp4958
(dp4959
g66
(dp4960
g93
g94
ssg75
g4949
sg68
(lp4961
S':'
asbag61
(g82
g63
NtRp4962
(dp4963
g66
(dp4964
sg75
g4949
sg68
(lp4965
g61
(g62
g63
NtRp4966
(dp4967
g66
(dp4968
g74
I5
ssg75
g4962
sg68
(lp4969
S'127.0.0.1-fc976245-ef6c-457f-bccb-5f0f31b16c20'
p4970
asbasbasbag61
(g77
g63
NtRp4971
(dp4972
g66
(dp4973
sg75
g3589
sg68
(lp4974
g61
(g82
g63
NtRp4975
(dp4976
g66
(dp4977
g86
g87
ssg75
g4971
sg68
(lp4978
S'session_id_name'
p4979
asbag61
(g82
g63
NtRp4980
(dp4981
g66
(dp4982
g93
g94
ssg75
g4971
sg68
(lp4983
S':'
asbag61
(g82
g63
NtRp4984
(dp4985
g66
(dp4986
sg75
g4971
sg68
(lp4987
g61
(g62
g63
NtRp4988
(dp4989
g66
(dp4990
g74
I5
ssg75
g4984
sg68
(lp4991
g3646
asbasbasbag61
(g77
g63
NtRp4992
(dp4993
g66
(dp4994
sg75
g3589
sg68
(lp4995
g61
(g82
g63
NtRp4996
(dp4997
g66
(dp4998
g86
g87
ssg75
g4992
sg68
(lp4999
S'session_locked'
p5000
asbag61
(g82
g63
NtRp5001
(dp5002
g66
(dp5003
g93
g94
ssg75
g4992
sg68
(lp5004
S':'
asbag61
(g82
g63
NtRp5005
(dp5006
g66
(dp5007
sg75
g4992
sg68
(lp5008
g61
(g62
g63
NtRp5009
(dp5010
g66
(dp5011
g74
I5
ssg75
g5005
sg68
(lp5012
g1807
asbasbasbag61
(g77
g63
NtRp5013
(dp5014
g66
(dp5015
sg75
g3589
sg68
(lp5016
g61
(g82
g63
NtRp5017
(dp5018
g66
(dp5019
g86
g87
ssg75
g5013
sg68
(lp5020
S'session_new'
p5021
asbag61
(g82
g63
NtRp5022
(dp5023
g66
(dp5024
g93
g94
ssg75
g5013
sg68
(lp5025
S':'
asbag61
(g82
g63
NtRp5026
(dp5027
g66
(dp5028
sg75
g5013
sg68
(lp5029
g61
(g62
g63
NtRp5030
(dp5031
g66
(dp5032
g74
I5
ssg75
g5026
sg68
(lp5033
g104
asbasbasbag61
(g77
g63
NtRp5034
(dp5035
g66
(dp5036
sg75
g3589
sg68
(lp5037
g61
(g82
g63
NtRp5038
(dp5039
g66
(dp5040
g86
g87
ssg75
g5034
sg68
(lp5041
S'status'
p5042
asbag61
(g82
g63
NtRp5043
(dp5044
g66
(dp5045
g93
g94
ssg75
g5034
sg68
(lp5046
S':'
asbag61
(g82
g63
NtRp5047
(dp5048
g66
(dp5049
sg75
g5034
sg68
(lp5050
g61
(g62
g63
NtRp5051
(dp5052
g66
(dp5053
g74
I5
ssg75
g5047
sg68
(lp5054
S'200'
p5055
asbasbasbag61
(g77
g63
NtRp5056
(dp5057
g66
(dp5058
sg75
g3589
sg68
(lp5059
g61
(g82
g63
NtRp5060
(dp5061
g66
(dp5062
g86
g87
ssg75
g5056
sg68
(lp5063
S'subtitle'
p5064
asbag61
(g82
g63
NtRp5065
(dp5066
g66
(dp5067
g93
g94
ssg75
g5056
sg68
(lp5068
S':'
asbag61
(g82
g63
NtRp5069
(dp5070
g66
(dp5071
sg75
g5056
sg68
(lp5072
g61
(g62
g63
NtRp5073
(dp5074
g66
(dp5075
g74
I5
ssg75
g5069
sg68
(lp5076
g4125
(S's\r\x00\x00\x00customize me!'
tRp5077
asbasbasbag61
(g77
g63
NtRp5078
(dp5079
g66
(dp5080
sg75
g3589
sg68
(lp5081
g61
(g82
g63
NtRp5082
(dp5083
g66
(dp5084
g86
g87
ssg75
g5078
sg68
(lp5085
S'title'
p5086
asbag61
(g82
g63
NtRp5087
(dp5088
g66
(dp5089
g93
g94
ssg75
g5078
sg68
(lp5090
S':'
asbag61
(g82
g63
NtRp5091
(dp5092
g66
(dp5093
sg75
g5078
sg68
(lp5094
g61
(g62
g63
NtRp5095
(dp5096
g66
(dp5097
g74
I5
ssg75
g5091
sg68
(lp5098
S'Pro'
p5099
asbasbasbag61
(g77
g63
NtRp5100
(dp5101
g66
(dp5102
sg75
g3589
sg68
(lp5103
g61
(g82
g63
NtRp5104
(dp5105
g66
(dp5106
g86
g87
ssg75
g5100
sg68
(lp5107
g2471
asbag61
(g82
g63
NtRp5108
(dp5109
g66
(dp5110
g93
g94
ssg75
g5100
sg68
(lp5111
S':'
asbag61
(g82
g63
NtRp5112
(dp5113
g66
(dp5114
sg75
g5100
sg68
(lp5115
g61
(g62
g63
NtRp5116
(dp5117
g66
(dp5118
g74
I5
ssg75
g5112
sg68
(lp5119
g2484
asbasbasbag61
(g77
g63
NtRp5120
(dp5121
g66
(dp5122
sg75
g3589
sg68
(lp5123
g61
(g82
g63
NtRp5124
(dp5125
g66
(dp5126
g86
g87
ssg75
g5120
sg68
(lp5127
S'view'
p5128
asbag61
(g82
g63
NtRp5129
(dp5130
g66
(dp5131
g93
g94
ssg75
g5120
sg68
(lp5132
S':'
asbag61
(g82
g63
NtRp5133
(dp5134
g66
(dp5135
sg75
g5120
sg68
(lp5136
g61
(g62
g63
NtRp5137
(dp5138
g66
(dp5139
g74
I5
ssg75
g5133
sg68
(lp5140
S'default/kruskal.html'
p5141
asbasbasbasbasbsS'locals'
p5142
(dp5143
g4
S"r'D:\\web2py\\applications\\pro\\views\\default/kruskal.html'"
p5144
sg6
S'\'response.write(\\\'<!DOCTYPE html PUBLIC "-//W3C//D...  </div> -->\\\\n </body>\\\\n</html>\\\\n\\\', escape=False)\''
p5145
sssS'traceback'
p5146
S'Traceback (most recent call last):\n  File "gluon/restricted.py", line 204, in restricted\n  File "gluon/restricted.py", line 189, in compile2\n  File "D:\\web2py\\applications\\pro\\views\\default/kruskal.html", line 36\n    \nSyntaxError: keyword can\'t be an expression\n'
p5147
s.