(dp1
S'output'
p2
S"<type 'exceptions.KeyError'> 8"
p3
sS'layer'
p4
S'/home/arpita/courses/sem3/ssad/web2py/applications/project/controllers/default.py'
p5
sS'code'
p6
S'# -*- coding: utf-8 -*-\n# this file is released under public domain and you can use without limitations\n\n#########################################################################\n## This is a samples controller\n## - index is the default action of any application\n## - user is required for authentication and authorization\n## - download is for downloading files uploaded in the db (does streaming)\n## - call exposes all registered services (none by default)\n#########################################################################\n@auth.requires_membership(\'Administrator\')\ndef index():\n    emp=db().select(db.Employee.ALL, orderby=db.Employee.Importance_val)\n    \n    """\n    example action using the internationalization operator T and flash\n    rendered by views/default/index.html or views/generic.html\n    """\n    form=crud.create(db.Employee)\n    response.flash = "Employee Details"\n    return dict(form=form,emp=emp)\n\ndef user():\n    """\n    exposes:\n    http://..../[app]/default/user/login\n    http://..../[app]/default/user/logout\n    http://..../[app]/default/user/register\n    http://..../[app]/default/user/profile\n    http://..../[app]/default/user/retrieve_password\n    http://..../[app]/default/user/change_password\n    use @auth.requires_login()\n        @auth.requires_membership(\'group name\')\n        @auth.requires_permission(\'read\',\'table name\',record_id)\n    to decorate functions that need access control\n    """\n    return dict(form=auth())\n\n\n\n\n\n@auth.requires_signature()\ndef data():\n    """\n    http://..../[app]/default/data/tables\n    http://..../[app]/default/data/create/[table]\n    http://..../[app]/default/data/read/[table]/[id]\n    http://..../[app]/default/data/update/[table]/[id]\n    http://..../[app]/default/data/delete/[table]/[id]\n    http://..../[app]/default/data/select/[table]\n    http://..../[app]/default/data/search/[table]\n    but URLs must be signed, i.e. linked with\n      A(\'table\',_href=URL(\'data/tables\',user_signature=True))\n    or with the signed load operator\n      LOAD(\'default\',\'data.load\',args=\'tables\',ajax=True,user_signature=True)\n    """\n    return dict(form=crud())\n\ndef graph():\n    empl=db.Employee(request.args(0))\n    return dict(empl=empl)  \n \n\n\ndef relate():\n   response.flash= "Define Relation"\n   form=crud.create(db.Relation)\n   return dict(form=form)\n\n\nc=[]\nrep=[]\nvis=[]\ned=[]\np={}\nq={}\ndef kruskal():\n    \n    lis = db().select(db.Relation.ALL)\n    emp=db().select(db.Employee.ALL, orderby=db.Employee.Name)\n    counts=len(emp)\n    for i in xrange(counts+1):\n       c.append([])\n       vis.append([])\n       rep.append(i)\n       ed.append([])\n       for j in xrange(counts+1):\n          c[i].append(0)\n          vis[i].append(0)\n          ed[i].append(0)\n    for li in lis:\n       a=li.Emp1_id\n       b=li.Emp2_id\n       c[a][b]=1\n       \n    cou=0   \n    while cou !=counts:\n        min=100\n        for i in xrange(counts+1):\n            for j in xrange(counts+1):\n                if c[i][j]!=0 and vis[i][j]==0:\n                    if rep[i]!=rep[j]:\n                               vis[i][j]=1\n                               ed[i][j]=1\n                               count1=0\n                               count2=0\n                               for k in xrange(counts+1):\n                                        if rep[k]==rep[i]:\n                                            count1=count1+1\n                                        if rep[k]==rep[j]:\n                                            count2=count2+1\n                               if count1<count2:\n                                           for k in xrange(counts+1):\n                                                if rep[k]==rep[i] and k!=i:\n                                                    rep[k]=rep[j]\n                                           rep[i]=rep[j]\n                               else:\n                                        for k in xrange(counts+1):\n                                                   if rep[k]==rep[j] and k!=j:\n                                                        rep[k]=rep[i]\n                                        rep[j]=rep[i]\n\n                    else:\n                        vis[i][j]=1\n        cou=0\n        for k in xrange(counts+1):\n            if rep[k]==rep[1]:\n                    cou=cou+1\n        k=0            \n        for i in xrange(counts+1):\n                for j in xrange(counts+1):\n                      if ed[i][j]==1:\n                           p[k]=i\n                           q[k]=j\n                           k=k+1 \n    file = open(\'applications/project/controllers/myfile.txt\',\'w\')\n    for i in xrange(counts+1):\n        file = open(\'applications/project/controllers/myfile.txt\',\'a\')\n        for j in xrange(k+1):\n             if p[j]==i:\n                file.write(\'parent=p[j]\')\n                file.write(\'children=q[j]\')\n                file.close()                                             \n    return dict(p=p,q=q)\n\nresponse._vars=response._caller(kruskal)\n'
p7
sS'snapshot'
p8
(dp9
S'exception'
p10
(dp11
S'__hash__'
p12
S"<method-wrapper '__hash__' of exceptions.KeyError object>"
p13
sS'__setattr__'
p14
S"<method-wrapper '__setattr__' of exceptions.KeyError object>"
p15
sS'__reduce_ex__'
p16
S'<built-in method __reduce_ex__ of exceptions.KeyError object>'
p17
sS'__getslice__'
p18
S"<method-wrapper '__getslice__' of exceptions.KeyError object>"
p19
sS'__getitem__'
p20
S"<method-wrapper '__getitem__' of exceptions.KeyError object>"
p21
sS'__setstate__'
p22
S'<built-in method __setstate__ of exceptions.KeyError object>'
p23
sS'__reduce__'
p24
S'<built-in method __reduce__ of exceptions.KeyError object>'
p25
sS'__str__'
p26
S"<method-wrapper '__str__' of exceptions.KeyError object>"
p27
sS'__format__'
p28
S'<built-in method __format__ of exceptions.KeyError object>'
p29
sS'__getattribute__'
p30
S"<method-wrapper '__getattribute__' of exceptions.KeyError object>"
p31
sS'__class__'
p32
S"<type 'exceptions.KeyError'>"
p33
sS'__unicode__'
p34
S'<built-in method __unicode__ of exceptions.KeyError object>'
p35
sS'__delattr__'
p36
S"<method-wrapper '__delattr__' of exceptions.KeyError object>"
p37
sS'__subclasshook__'
p38
S'<built-in method __subclasshook__ of type object>'
p39
sS'__repr__'
p40
S"<method-wrapper '__repr__' of exceptions.KeyError object>"
p41
sS'args'
p42
S'(8,)'
p43
sS'__dict__'
p44
S'{}'
p45
sS'__sizeof__'
p46
S'<built-in method __sizeof__ of exceptions.KeyError object>'
p47
sS'__doc__'
p48
S"'Mapping key not found.'"
p49
sS'__init__'
p50
S"<method-wrapper '__init__' of exceptions.KeyError object>"
p51
sS'__new__'
p52
S'<built-in method __new__ of type object>'
p53
ssS'evalue'
p54
S'8'
sS'request'
p55
ccopy_reg
_reconstructor
p56
(cgluon.html
BEAUTIFY
p57
c__builtin__
object
p58
NtRp59
(dp60
S'attributes'
p61
(dp62
sS'components'
p63
(lp64
g56
(cgluon.html
TABLE
p65
g58
NtRp66
(dp67
g61
(dp68
S'level'
p69
I5
ssS'parent'
p70
Nsg63
(lp71
g56
(cgluon.html
TR
p72
g58
NtRp73
(dp74
g61
(dp75
sg70
g66
sg63
(lp76
g56
(cgluon.html
TD
p77
g58
NtRp78
(dp79
g61
(dp80
S'_style'
p81
S'font-weight:bold;vertical-align:top'
p82
ssg70
g73
sg63
(lp83
S'ajax'
p84
asbag56
(g77
g58
NtRp85
(dp86
g61
(dp87
S'_valign'
p88
S'top'
p89
ssg70
g73
sg63
(lp90
S':'
asbag56
(g77
g58
NtRp91
(dp92
g61
(dp93
sg70
g73
sg63
(lp94
g56
(g57
g58
NtRp95
(dp96
g61
(dp97
g69
I5
ssg70
g91
sg63
(lp98
S'False'
p99
asbasbasbag56
(g72
g58
NtRp100
(dp101
g61
(dp102
sg70
g66
sg63
(lp103
g56
(g77
g58
NtRp104
(dp105
g61
(dp106
g81
g82
ssg70
g100
sg63
(lp107
S'application'
p108
asbag56
(g77
g58
NtRp109
(dp110
g61
(dp111
g88
g89
ssg70
g100
sg63
(lp112
S':'
asbag56
(g77
g58
NtRp113
(dp114
g61
(dp115
sg70
g100
sg63
(lp116
g56
(g57
g58
NtRp117
(dp118
g61
(dp119
g69
I5
ssg70
g113
sg63
(lp120
S'project'
p121
asbasbasbag56
(g72
g58
NtRp122
(dp123
g61
(dp124
sg70
g66
sg63
(lp125
g56
(g77
g58
NtRp126
(dp127
g61
(dp128
g81
g82
ssg70
g122
sg63
(lp129
g42
asbag56
(g77
g58
NtRp130
(dp131
g61
(dp132
g88
g89
ssg70
g122
sg63
(lp133
S':'
asbag56
(g77
g58
NtRp134
(dp135
g61
(dp136
sg70
g122
sg63
(lp137
g56
(g57
g58
NtRp138
(dp139
g61
(dp140
g69
I5
ssg70
g134
sg63
(lp141
g56
(g65
g58
NtRp142
(dp143
g61
(dp144
g69
I4
ssg70
Nsg63
(lp145
sbasbasbasbag56
(g72
g58
NtRp146
(dp147
g61
(dp148
sg70
g66
sg63
(lp149
g56
(g77
g58
NtRp150
(dp151
g61
(dp152
g81
g82
ssg70
g146
sg63
(lp153
S'body'
p154
asbag56
(g77
g58
NtRp155
(dp156
g61
(dp157
g88
g89
ssg70
g146
sg63
(lp158
S':'
asbag56
(g77
g58
NtRp159
(dp160
g61
(dp161
sg70
g146
sg63
(lp162
g56
(g57
g58
NtRp163
(dp164
g61
(dp165
g69
I5
ssg70
g159
sg63
(lp166
S'<cStringIO.StringO object at 0xa1d6e40>'
p167
asbasbasbag56
(g72
g58
NtRp168
(dp169
g61
(dp170
sg70
g66
sg63
(lp171
g56
(g77
g58
NtRp172
(dp173
g61
(dp174
g81
g82
ssg70
g168
sg63
(lp175
S'client'
p176
asbag56
(g77
g58
NtRp177
(dp178
g61
(dp179
g88
g89
ssg70
g168
sg63
(lp180
S':'
asbag56
(g77
g58
NtRp181
(dp182
g61
(dp183
sg70
g168
sg63
(lp184
g56
(g57
g58
NtRp185
(dp186
g61
(dp187
g69
I5
ssg70
g181
sg63
(lp188
S'127.0.0.1'
p189
asbasbasbag56
(g72
g58
NtRp190
(dp191
g61
(dp192
sg70
g66
sg63
(lp193
g56
(g77
g58
NtRp194
(dp195
g61
(dp196
g81
g82
ssg70
g190
sg63
(lp197
S'controller'
p198
asbag56
(g77
g58
NtRp199
(dp200
g61
(dp201
g88
g89
ssg70
g190
sg63
(lp202
S':'
asbag56
(g77
g58
NtRp203
(dp204
g61
(dp205
sg70
g190
sg63
(lp206
g56
(g57
g58
NtRp207
(dp208
g61
(dp209
g69
I5
ssg70
g203
sg63
(lp210
S'default'
p211
asbasbasbag56
(g72
g58
NtRp212
(dp213
g61
(dp214
sg70
g66
sg63
(lp215
g56
(g77
g58
NtRp216
(dp217
g61
(dp218
g81
g82
ssg70
g212
sg63
(lp219
S'cookies'
p220
asbag56
(g77
g58
NtRp221
(dp222
g61
(dp223
g88
g89
ssg70
g212
sg63
(lp224
S':'
asbag56
(g77
g58
NtRp225
(dp226
g61
(dp227
sg70
g212
sg63
(lp228
g56
(g57
g58
NtRp229
(dp230
g61
(dp231
g69
I5
ssg70
g225
sg63
(lp232
g56
(g65
g58
NtRp233
(dp234
g61
(dp235
g69
I4
ssg70
Nsg63
(lp236
g56
(g72
g58
NtRp237
(dp238
g61
(dp239
sg70
g233
sg63
(lp240
g56
(g77
g58
NtRp241
(dp242
g61
(dp243
g81
g82
ssg70
g237
sg63
(lp244
S'session_id_admin'
p245
asbag56
(g77
g58
NtRp246
(dp247
g61
(dp248
g88
g89
ssg70
g237
sg63
(lp249
S':'
asbag56
(g77
g58
NtRp250
(dp251
g61
(dp252
sg70
g237
sg63
(lp253
g56
(g57
g58
NtRp254
(dp255
g61
(dp256
g69
I4
ssg70
g250
sg63
(lp257
g56
(g65
g58
NtRp258
(dp259
g61
(dp260
g69
I3
ssg70
Nsg63
(lp261
g56
(g72
g58
NtRp262
(dp263
g61
(dp264
sg70
g258
sg63
(lp265
g56
(g77
g58
NtRp266
(dp267
g61
(dp268
g81
g82
ssg70
g262
sg63
(lp269
S'comment'
p270
asbag56
(g77
g58
NtRp271
(dp272
g61
(dp273
g88
g89
ssg70
g262
sg63
(lp274
S':'
asbag56
(g77
g58
NtRp275
(dp276
g61
(dp277
sg70
g262
sg63
(lp278
g56
(g57
g58
NtRp279
(dp280
g61
(dp281
g69
I3
ssg70
g275
sg63
(lp282
S''
asbasbasbag56
(g72
g58
NtRp283
(dp284
g61
(dp285
sg70
g258
sg63
(lp286
g56
(g77
g58
NtRp287
(dp288
g61
(dp289
g81
g82
ssg70
g283
sg63
(lp290
S'domain'
p291
asbag56
(g77
g58
NtRp292
(dp293
g61
(dp294
g88
g89
ssg70
g283
sg63
(lp295
S':'
asbag56
(g77
g58
NtRp296
(dp297
g61
(dp298
sg70
g283
sg63
(lp299
g56
(g57
g58
NtRp300
(dp301
g61
(dp302
g69
I3
ssg70
g296
sg63
(lp303
S''
asbasbasbag56
(g72
g58
NtRp304
(dp305
g61
(dp306
sg70
g258
sg63
(lp307
g56
(g77
g58
NtRp308
(dp309
g61
(dp310
g81
g82
ssg70
g304
sg63
(lp311
S'expires'
p312
asbag56
(g77
g58
NtRp313
(dp314
g61
(dp315
g88
g89
ssg70
g304
sg63
(lp316
S':'
asbag56
(g77
g58
NtRp317
(dp318
g61
(dp319
sg70
g304
sg63
(lp320
g56
(g57
g58
NtRp321
(dp322
g61
(dp323
g69
I3
ssg70
g317
sg63
(lp324
S''
asbasbasbag56
(g72
g58
NtRp325
(dp326
g61
(dp327
sg70
g258
sg63
(lp328
g56
(g77
g58
NtRp329
(dp330
g61
(dp331
g81
g82
ssg70
g325
sg63
(lp332
S'httponly'
p333
asbag56
(g77
g58
NtRp334
(dp335
g61
(dp336
g88
g89
ssg70
g325
sg63
(lp337
S':'
asbag56
(g77
g58
NtRp338
(dp339
g61
(dp340
sg70
g325
sg63
(lp341
g56
(g57
g58
NtRp342
(dp343
g61
(dp344
g69
I3
ssg70
g338
sg63
(lp345
S''
asbasbasbag56
(g72
g58
NtRp346
(dp347
g61
(dp348
sg70
g258
sg63
(lp349
g56
(g77
g58
NtRp350
(dp351
g61
(dp352
g81
g82
ssg70
g346
sg63
(lp353
S'max-age'
p354
asbag56
(g77
g58
NtRp355
(dp356
g61
(dp357
g88
g89
ssg70
g346
sg63
(lp358
S':'
asbag56
(g77
g58
NtRp359
(dp360
g61
(dp361
sg70
g346
sg63
(lp362
g56
(g57
g58
NtRp363
(dp364
g61
(dp365
g69
I3
ssg70
g359
sg63
(lp366
S''
asbasbasbag56
(g72
g58
NtRp367
(dp368
g61
(dp369
sg70
g258
sg63
(lp370
g56
(g77
g58
NtRp371
(dp372
g61
(dp373
g81
g82
ssg70
g367
sg63
(lp374
S'path'
p375
asbag56
(g77
g58
NtRp376
(dp377
g61
(dp378
g88
g89
ssg70
g367
sg63
(lp379
S':'
asbag56
(g77
g58
NtRp380
(dp381
g61
(dp382
sg70
g367
sg63
(lp383
g56
(g57
g58
NtRp384
(dp385
g61
(dp386
g69
I3
ssg70
g380
sg63
(lp387
S''
asbasbasbag56
(g72
g58
NtRp388
(dp389
g61
(dp390
sg70
g258
sg63
(lp391
g56
(g77
g58
NtRp392
(dp393
g61
(dp394
g81
g82
ssg70
g388
sg63
(lp395
S'secure'
p396
asbag56
(g77
g58
NtRp397
(dp398
g61
(dp399
g88
g89
ssg70
g388
sg63
(lp400
S':'
asbag56
(g77
g58
NtRp401
(dp402
g61
(dp403
sg70
g388
sg63
(lp404
g56
(g57
g58
NtRp405
(dp406
g61
(dp407
g69
I3
ssg70
g401
sg63
(lp408
S''
asbasbasbag56
(g72
g58
NtRp409
(dp410
g61
(dp411
sg70
g258
sg63
(lp412
g56
(g77
g58
NtRp413
(dp414
g61
(dp415
g81
g82
ssg70
g409
sg63
(lp416
S'version'
p417
asbag56
(g77
g58
NtRp418
(dp419
g61
(dp420
g88
g89
ssg70
g409
sg63
(lp421
S':'
asbag56
(g77
g58
NtRp422
(dp423
g61
(dp424
sg70
g409
sg63
(lp425
g56
(g57
g58
NtRp426
(dp427
g61
(dp428
g69
I3
ssg70
g422
sg63
(lp429
S''
asbasbasbasbasbasbasbag56
(g72
g58
NtRp430
(dp431
g61
(dp432
sg70
g233
sg63
(lp433
g56
(g77
g58
NtRp434
(dp435
g61
(dp436
g81
g82
ssg70
g430
sg63
(lp437
S'session_id_project'
p438
asbag56
(g77
g58
NtRp439
(dp440
g61
(dp441
g88
g89
ssg70
g430
sg63
(lp442
S':'
asbag56
(g77
g58
NtRp443
(dp444
g61
(dp445
sg70
g430
sg63
(lp446
g56
(g57
g58
NtRp447
(dp448
g61
(dp449
g69
I4
ssg70
g443
sg63
(lp450
g56
(g65
g58
NtRp451
(dp452
g61
(dp453
g69
I3
ssg70
Nsg63
(lp454
g56
(g72
g58
NtRp455
(dp456
g61
(dp457
sg70
g451
sg63
(lp458
g56
(g77
g58
NtRp459
(dp460
g61
(dp461
g81
g82
ssg70
g455
sg63
(lp462
g270
asbag56
(g77
g58
NtRp463
(dp464
g61
(dp465
g88
g89
ssg70
g455
sg63
(lp466
S':'
asbag56
(g77
g58
NtRp467
(dp468
g61
(dp469
sg70
g455
sg63
(lp470
g56
(g57
g58
NtRp471
(dp472
g61
(dp473
g69
I3
ssg70
g467
sg63
(lp474
S''
asbasbasbag56
(g72
g58
NtRp475
(dp476
g61
(dp477
sg70
g451
sg63
(lp478
g56
(g77
g58
NtRp479
(dp480
g61
(dp481
g81
g82
ssg70
g475
sg63
(lp482
g291
asbag56
(g77
g58
NtRp483
(dp484
g61
(dp485
g88
g89
ssg70
g475
sg63
(lp486
S':'
asbag56
(g77
g58
NtRp487
(dp488
g61
(dp489
sg70
g475
sg63
(lp490
g56
(g57
g58
NtRp491
(dp492
g61
(dp493
g69
I3
ssg70
g487
sg63
(lp494
S''
asbasbasbag56
(g72
g58
NtRp495
(dp496
g61
(dp497
sg70
g451
sg63
(lp498
g56
(g77
g58
NtRp499
(dp500
g61
(dp501
g81
g82
ssg70
g495
sg63
(lp502
g312
asbag56
(g77
g58
NtRp503
(dp504
g61
(dp505
g88
g89
ssg70
g495
sg63
(lp506
S':'
asbag56
(g77
g58
NtRp507
(dp508
g61
(dp509
sg70
g495
sg63
(lp510
g56
(g57
g58
NtRp511
(dp512
g61
(dp513
g69
I3
ssg70
g507
sg63
(lp514
S''
asbasbasbag56
(g72
g58
NtRp515
(dp516
g61
(dp517
sg70
g451
sg63
(lp518
g56
(g77
g58
NtRp519
(dp520
g61
(dp521
g81
g82
ssg70
g515
sg63
(lp522
g333
asbag56
(g77
g58
NtRp523
(dp524
g61
(dp525
g88
g89
ssg70
g515
sg63
(lp526
S':'
asbag56
(g77
g58
NtRp527
(dp528
g61
(dp529
sg70
g515
sg63
(lp530
g56
(g57
g58
NtRp531
(dp532
g61
(dp533
g69
I3
ssg70
g527
sg63
(lp534
S''
asbasbasbag56
(g72
g58
NtRp535
(dp536
g61
(dp537
sg70
g451
sg63
(lp538
g56
(g77
g58
NtRp539
(dp540
g61
(dp541
g81
g82
ssg70
g535
sg63
(lp542
g354
asbag56
(g77
g58
NtRp543
(dp544
g61
(dp545
g88
g89
ssg70
g535
sg63
(lp546
S':'
asbag56
(g77
g58
NtRp547
(dp548
g61
(dp549
sg70
g535
sg63
(lp550
g56
(g57
g58
NtRp551
(dp552
g61
(dp553
g69
I3
ssg70
g547
sg63
(lp554
S''
asbasbasbag56
(g72
g58
NtRp555
(dp556
g61
(dp557
sg70
g451
sg63
(lp558
g56
(g77
g58
NtRp559
(dp560
g61
(dp561
g81
g82
ssg70
g555
sg63
(lp562
g375
asbag56
(g77
g58
NtRp563
(dp564
g61
(dp565
g88
g89
ssg70
g555
sg63
(lp566
S':'
asbag56
(g77
g58
NtRp567
(dp568
g61
(dp569
sg70
g555
sg63
(lp570
g56
(g57
g58
NtRp571
(dp572
g61
(dp573
g69
I3
ssg70
g567
sg63
(lp574
S''
asbasbasbag56
(g72
g58
NtRp575
(dp576
g61
(dp577
sg70
g451
sg63
(lp578
g56
(g77
g58
NtRp579
(dp580
g61
(dp581
g81
g82
ssg70
g575
sg63
(lp582
g396
asbag56
(g77
g58
NtRp583
(dp584
g61
(dp585
g88
g89
ssg70
g575
sg63
(lp586
S':'
asbag56
(g77
g58
NtRp587
(dp588
g61
(dp589
sg70
g575
sg63
(lp590
g56
(g57
g58
NtRp591
(dp592
g61
(dp593
g69
I3
ssg70
g587
sg63
(lp594
S''
asbasbasbag56
(g72
g58
NtRp595
(dp596
g61
(dp597
sg70
g451
sg63
(lp598
g56
(g77
g58
NtRp599
(dp600
g61
(dp601
g81
g82
ssg70
g595
sg63
(lp602
g417
asbag56
(g77
g58
NtRp603
(dp604
g61
(dp605
g88
g89
ssg70
g595
sg63
(lp606
S':'
asbag56
(g77
g58
NtRp607
(dp608
g61
(dp609
sg70
g595
sg63
(lp610
g56
(g57
g58
NtRp611
(dp612
g61
(dp613
g69
I3
ssg70
g607
sg63
(lp614
S''
asbasbasbasbasbasbasbag56
(g72
g58
NtRp615
(dp616
g61
(dp617
sg70
g233
sg63
(lp618
g56
(g77
g58
NtRp619
(dp620
g61
(dp621
g81
g82
ssg70
g615
sg63
(lp622
S'session_id_welcome'
p623
asbag56
(g77
g58
NtRp624
(dp625
g61
(dp626
g88
g89
ssg70
g615
sg63
(lp627
S':'
asbag56
(g77
g58
NtRp628
(dp629
g61
(dp630
sg70
g615
sg63
(lp631
g56
(g57
g58
NtRp632
(dp633
g61
(dp634
g69
I4
ssg70
g628
sg63
(lp635
g56
(g65
g58
NtRp636
(dp637
g61
(dp638
g69
I3
ssg70
Nsg63
(lp639
g56
(g72
g58
NtRp640
(dp641
g61
(dp642
sg70
g636
sg63
(lp643
g56
(g77
g58
NtRp644
(dp645
g61
(dp646
g81
g82
ssg70
g640
sg63
(lp647
g270
asbag56
(g77
g58
NtRp648
(dp649
g61
(dp650
g88
g89
ssg70
g640
sg63
(lp651
S':'
asbag56
(g77
g58
NtRp652
(dp653
g61
(dp654
sg70
g640
sg63
(lp655
g56
(g57
g58
NtRp656
(dp657
g61
(dp658
g69
I3
ssg70
g652
sg63
(lp659
S''
asbasbasbag56
(g72
g58
NtRp660
(dp661
g61
(dp662
sg70
g636
sg63
(lp663
g56
(g77
g58
NtRp664
(dp665
g61
(dp666
g81
g82
ssg70
g660
sg63
(lp667
g291
asbag56
(g77
g58
NtRp668
(dp669
g61
(dp670
g88
g89
ssg70
g660
sg63
(lp671
S':'
asbag56
(g77
g58
NtRp672
(dp673
g61
(dp674
sg70
g660
sg63
(lp675
g56
(g57
g58
NtRp676
(dp677
g61
(dp678
g69
I3
ssg70
g672
sg63
(lp679
S''
asbasbasbag56
(g72
g58
NtRp680
(dp681
g61
(dp682
sg70
g636
sg63
(lp683
g56
(g77
g58
NtRp684
(dp685
g61
(dp686
g81
g82
ssg70
g680
sg63
(lp687
g312
asbag56
(g77
g58
NtRp688
(dp689
g61
(dp690
g88
g89
ssg70
g680
sg63
(lp691
S':'
asbag56
(g77
g58
NtRp692
(dp693
g61
(dp694
sg70
g680
sg63
(lp695
g56
(g57
g58
NtRp696
(dp697
g61
(dp698
g69
I3
ssg70
g692
sg63
(lp699
S''
asbasbasbag56
(g72
g58
NtRp700
(dp701
g61
(dp702
sg70
g636
sg63
(lp703
g56
(g77
g58
NtRp704
(dp705
g61
(dp706
g81
g82
ssg70
g700
sg63
(lp707
g333
asbag56
(g77
g58
NtRp708
(dp709
g61
(dp710
g88
g89
ssg70
g700
sg63
(lp711
S':'
asbag56
(g77
g58
NtRp712
(dp713
g61
(dp714
sg70
g700
sg63
(lp715
g56
(g57
g58
NtRp716
(dp717
g61
(dp718
g69
I3
ssg70
g712
sg63
(lp719
S''
asbasbasbag56
(g72
g58
NtRp720
(dp721
g61
(dp722
sg70
g636
sg63
(lp723
g56
(g77
g58
NtRp724
(dp725
g61
(dp726
g81
g82
ssg70
g720
sg63
(lp727
g354
asbag56
(g77
g58
NtRp728
(dp729
g61
(dp730
g88
g89
ssg70
g720
sg63
(lp731
S':'
asbag56
(g77
g58
NtRp732
(dp733
g61
(dp734
sg70
g720
sg63
(lp735
g56
(g57
g58
NtRp736
(dp737
g61
(dp738
g69
I3
ssg70
g732
sg63
(lp739
S''
asbasbasbag56
(g72
g58
NtRp740
(dp741
g61
(dp742
sg70
g636
sg63
(lp743
g56
(g77
g58
NtRp744
(dp745
g61
(dp746
g81
g82
ssg70
g740
sg63
(lp747
g375
asbag56
(g77
g58
NtRp748
(dp749
g61
(dp750
g88
g89
ssg70
g740
sg63
(lp751
S':'
asbag56
(g77
g58
NtRp752
(dp753
g61
(dp754
sg70
g740
sg63
(lp755
g56
(g57
g58
NtRp756
(dp757
g61
(dp758
g69
I3
ssg70
g752
sg63
(lp759
S''
asbasbasbag56
(g72
g58
NtRp760
(dp761
g61
(dp762
sg70
g636
sg63
(lp763
g56
(g77
g58
NtRp764
(dp765
g61
(dp766
g81
g82
ssg70
g760
sg63
(lp767
g396
asbag56
(g77
g58
NtRp768
(dp769
g61
(dp770
g88
g89
ssg70
g760
sg63
(lp771
S':'
asbag56
(g77
g58
NtRp772
(dp773
g61
(dp774
sg70
g760
sg63
(lp775
g56
(g57
g58
NtRp776
(dp777
g61
(dp778
g69
I3
ssg70
g772
sg63
(lp779
S''
asbasbasbag56
(g72
g58
NtRp780
(dp781
g61
(dp782
sg70
g636
sg63
(lp783
g56
(g77
g58
NtRp784
(dp785
g61
(dp786
g81
g82
ssg70
g780
sg63
(lp787
g417
asbag56
(g77
g58
NtRp788
(dp789
g61
(dp790
g88
g89
ssg70
g780
sg63
(lp791
S':'
asbag56
(g77
g58
NtRp792
(dp793
g61
(dp794
sg70
g780
sg63
(lp795
g56
(g57
g58
NtRp796
(dp797
g61
(dp798
g69
I3
ssg70
g792
sg63
(lp799
S''
asbasbasbasbasbasbasbasbasbasbasbag56
(g72
g58
NtRp800
(dp801
g61
(dp802
sg70
g66
sg63
(lp803
g56
(g77
g58
NtRp804
(dp805
g61
(dp806
g81
g82
ssg70
g800
sg63
(lp807
S'env'
p808
asbag56
(g77
g58
NtRp809
(dp810
g61
(dp811
g88
g89
ssg70
g800
sg63
(lp812
S':'
asbag56
(g77
g58
NtRp813
(dp814
g61
(dp815
sg70
g800
sg63
(lp816
g56
(g57
g58
NtRp817
(dp818
g61
(dp819
g69
I5
ssg70
g813
sg63
(lp820
g56
(g65
g58
NtRp821
(dp822
g61
(dp823
g69
I4
ssg70
Nsg63
(lp824
g56
(g72
g58
NtRp825
(dp826
g61
(dp827
sg70
g821
sg63
(lp828
g56
(g77
g58
NtRp829
(dp830
g61
(dp831
g81
g82
ssg70
g825
sg63
(lp832
S'app_folders'
p833
asbag56
(g77
g58
NtRp834
(dp835
g61
(dp836
g88
g89
ssg70
g825
sg63
(lp837
S':'
asbag56
(g77
g58
NtRp838
(dp839
g61
(dp840
sg70
g825
sg63
(lp841
g56
(g57
g58
NtRp842
(dp843
g61
(dp844
g69
I4
ssg70
g838
sg63
(lp845
S"set(['/home/arpita/courses/sem3/ssad/web2py/applications/admin/', '/home/arpita/courses/sem3/ssad/web2py/applications/project/', '/home/arpita/courses/sem3/ssad/web2py/applications/welcome/'])"
p846
asbasbasbag56
(g72
g58
NtRp847
(dp848
g61
(dp849
sg70
g821
sg63
(lp850
g56
(g77
g58
NtRp851
(dp852
g61
(dp853
g81
g82
ssg70
g847
sg63
(lp854
S'applications_parent'
p855
asbag56
(g77
g58
NtRp856
(dp857
g61
(dp858
g88
g89
ssg70
g847
sg63
(lp859
S':'
asbag56
(g77
g58
NtRp860
(dp861
g61
(dp862
sg70
g847
sg63
(lp863
g56
(g57
g58
NtRp864
(dp865
g61
(dp866
g69
I4
ssg70
g860
sg63
(lp867
S'/home/arpita/courses/sem3/ssad/web2py'
p868
asbasbasbag56
(g72
g58
NtRp869
(dp870
g61
(dp871
sg70
g821
sg63
(lp872
g56
(g77
g58
NtRp873
(dp874
g61
(dp875
g81
g82
ssg70
g869
sg63
(lp876
S'cmd_args'
p877
asbag56
(g77
g58
NtRp878
(dp879
g61
(dp880
g88
g89
ssg70
g869
sg63
(lp881
S':'
asbag56
(g77
g58
NtRp882
(dp883
g61
(dp884
sg70
g869
sg63
(lp885
g56
(g57
g58
NtRp886
(dp887
g61
(dp888
g69
I4
ssg70
g882
sg63
(lp889
g56
(g65
g58
NtRp890
(dp891
g61
(dp892
g69
I3
ssg70
Nsg63
(lp893
sbasbasbasbag56
(g72
g58
NtRp894
(dp895
g61
(dp896
sg70
g821
sg63
(lp897
g56
(g77
g58
NtRp898
(dp899
g61
(dp900
g81
g82
ssg70
g894
sg63
(lp901
S'cmd_options'
p902
asbag56
(g77
g58
NtRp903
(dp904
g61
(dp905
g88
g89
ssg70
g894
sg63
(lp906
S':'
asbag56
(g77
g58
NtRp907
(dp908
g61
(dp909
sg70
g894
sg63
(lp910
g56
(g57
g58
NtRp911
(dp912
g61
(dp913
g69
I4
ssg70
g907
sg63
(lp914
S"<Values at 0x928e3cc: {'verbose': False, 'ip': '127.0.0.1', 'shutdown_timeout': 5, 'taskbar': False, 'nocron': False, 'pid_filename': 'httpserver.pid', 'maxthreads': None, 'softcron': False, 'server_name': 'arpita-HP-630-Notebook-PC', 'bpython': False, 'nogui': False, 'port': 8000, 'extcron': False, 'debuglevel': 30, 'test': None, 'folder': '/home/arpita/courses/sem3/ssad/web2py', 'config': '', 'import_models': False, 'winservice': '', 'shell': None, 'run': '', 'log_filename': 'httpserver.log', 'args': [''], 'socket_timeout': 5, 'ssl_ca_certificate': None, 'scheduler': None, 'profiler_filename': None, 'ssl_private_key': '', 'password': 'arpita', 'request_queue_size': 5, 'ssl_certificate': '', 'cronjob': False, 'numthreads': None, 'quiet': False, 'interfaces': None, 'minthreads': None, 'timeout': 10, 'plain': False, 'nobanner': False}>"
p915
asbasbasbag56
(g72
g58
NtRp916
(dp917
g61
(dp918
sg70
g821
sg63
(lp919
g56
(g77
g58
NtRp920
(dp921
g61
(dp922
g81
g82
ssg70
g916
sg63
(lp923
S'db_sessions'
p924
asbag56
(g77
g58
NtRp925
(dp926
g61
(dp927
g88
g89
ssg70
g916
sg63
(lp928
S':'
asbag56
(g77
g58
NtRp929
(dp930
g61
(dp931
sg70
g916
sg63
(lp932
g56
(g57
g58
NtRp933
(dp934
g61
(dp935
g69
I4
ssg70
g929
sg63
(lp936
S'set([])'
p937
asbasbasbag56
(g72
g58
NtRp938
(dp939
g61
(dp940
sg70
g821
sg63
(lp941
g56
(g77
g58
NtRp942
(dp943
g61
(dp944
g81
g82
ssg70
g938
sg63
(lp945
S'debugging'
p946
asbag56
(g77
g58
NtRp947
(dp948
g61
(dp949
g88
g89
ssg70
g938
sg63
(lp950
S':'
asbag56
(g77
g58
NtRp951
(dp952
g61
(dp953
sg70
g938
sg63
(lp954
g56
(g57
g58
NtRp955
(dp956
g61
(dp957
g69
I4
ssg70
g951
sg63
(lp958
g99
asbasbasbag56
(g72
g58
NtRp959
(dp960
g61
(dp961
sg70
g821
sg63
(lp962
g56
(g77
g58
NtRp963
(dp964
g61
(dp965
g81
g82
ssg70
g959
sg63
(lp966
S'gluon_parent'
p967
asbag56
(g77
g58
NtRp968
(dp969
g61
(dp970
g88
g89
ssg70
g959
sg63
(lp971
S':'
asbag56
(g77
g58
NtRp972
(dp973
g61
(dp974
sg70
g959
sg63
(lp975
g56
(g57
g58
NtRp976
(dp977
g61
(dp978
g69
I4
ssg70
g972
sg63
(lp979
S'/home/arpita/courses/sem3/ssad/web2py'
p980
asbasbasbag56
(g72
g58
NtRp981
(dp982
g61
(dp983
sg70
g821
sg63
(lp984
g56
(g77
g58
NtRp985
(dp986
g61
(dp987
g81
g82
ssg70
g981
sg63
(lp988
S'http_accept'
p989
asbag56
(g77
g58
NtRp990
(dp991
g61
(dp992
g88
g89
ssg70
g981
sg63
(lp993
S':'
asbag56
(g77
g58
NtRp994
(dp995
g61
(dp996
sg70
g981
sg63
(lp997
g56
(g57
g58
NtRp998
(dp999
g61
(dp1000
g69
I4
ssg70
g994
sg63
(lp1001
S'text/html,application/xhtml+xml,application/xml;q=0.9,*/*;q=0.8'
p1002
asbasbasbag56
(g72
g58
NtRp1003
(dp1004
g61
(dp1005
sg70
g821
sg63
(lp1006
g56
(g77
g58
NtRp1007
(dp1008
g61
(dp1009
g81
g82
ssg70
g1003
sg63
(lp1010
S'http_accept_charset'
p1011
asbag56
(g77
g58
NtRp1012
(dp1013
g61
(dp1014
g88
g89
ssg70
g1003
sg63
(lp1015
S':'
asbag56
(g77
g58
NtRp1016
(dp1017
g61
(dp1018
sg70
g1003
sg63
(lp1019
g56
(g57
g58
NtRp1020
(dp1021
g61
(dp1022
g69
I4
ssg70
g1016
sg63
(lp1023
S'ISO-8859-1,utf-8;q=0.7,*;q=0.7'
p1024
asbasbasbag56
(g72
g58
NtRp1025
(dp1026
g61
(dp1027
sg70
g821
sg63
(lp1028
g56
(g77
g58
NtRp1029
(dp1030
g61
(dp1031
g81
g82
ssg70
g1025
sg63
(lp1032
S'http_accept_encoding'
p1033
asbag56
(g77
g58
NtRp1034
(dp1035
g61
(dp1036
g88
g89
ssg70
g1025
sg63
(lp1037
S':'
asbag56
(g77
g58
NtRp1038
(dp1039
g61
(dp1040
sg70
g1025
sg63
(lp1041
g56
(g57
g58
NtRp1042
(dp1043
g61
(dp1044
g69
I4
ssg70
g1038
sg63
(lp1045
S'gzip, deflate'
p1046
asbasbasbag56
(g72
g58
NtRp1047
(dp1048
g61
(dp1049
sg70
g821
sg63
(lp1050
g56
(g77
g58
NtRp1051
(dp1052
g61
(dp1053
g81
g82
ssg70
g1047
sg63
(lp1054
S'http_accept_language'
p1055
asbag56
(g77
g58
NtRp1056
(dp1057
g61
(dp1058
g88
g89
ssg70
g1047
sg63
(lp1059
S':'
asbag56
(g77
g58
NtRp1060
(dp1061
g61
(dp1062
sg70
g1047
sg63
(lp1063
g56
(g57
g58
NtRp1064
(dp1065
g61
(dp1066
g69
I4
ssg70
g1060
sg63
(lp1067
S'en-us,en;q=0.5'
p1068
asbasbasbag56
(g72
g58
NtRp1069
(dp1070
g61
(dp1071
sg70
g821
sg63
(lp1072
g56
(g77
g58
NtRp1073
(dp1074
g61
(dp1075
g81
g82
ssg70
g1069
sg63
(lp1076
S'http_connection'
p1077
asbag56
(g77
g58
NtRp1078
(dp1079
g61
(dp1080
g88
g89
ssg70
g1069
sg63
(lp1081
S':'
asbag56
(g77
g58
NtRp1082
(dp1083
g61
(dp1084
sg70
g1069
sg63
(lp1085
g56
(g57
g58
NtRp1086
(dp1087
g61
(dp1088
g69
I4
ssg70
g1082
sg63
(lp1089
S'keep-alive'
p1090
asbasbasbag56
(g72
g58
NtRp1091
(dp1092
g61
(dp1093
sg70
g821
sg63
(lp1094
g56
(g77
g58
NtRp1095
(dp1096
g61
(dp1097
g81
g82
ssg70
g1091
sg63
(lp1098
S'http_cookie'
p1099
asbag56
(g77
g58
NtRp1100
(dp1101
g61
(dp1102
g88
g89
ssg70
g1091
sg63
(lp1103
S':'
asbag56
(g77
g58
NtRp1104
(dp1105
g61
(dp1106
sg70
g1091
sg63
(lp1107
g56
(g57
g58
NtRp1108
(dp1109
g61
(dp1110
g69
I4
ssg70
g1104
sg63
(lp1111
S'session_id_welcome=127.0.0.1-678b1a4f-bdb2-46cd-abad-b52c0674e327; session_id_admin=127.0.0.1-898a117f-1979-482c-9a45-67a3f4c49569; session_id_project=127.0.0.1-b6115b3d-9b4c-4cde-b209-d74130608881'
p1112
asbasbasbag56
(g72
g58
NtRp1113
(dp1114
g61
(dp1115
sg70
g821
sg63
(lp1116
g56
(g77
g58
NtRp1117
(dp1118
g61
(dp1119
g81
g82
ssg70
g1113
sg63
(lp1120
S'http_host'
p1121
asbag56
(g77
g58
NtRp1122
(dp1123
g61
(dp1124
g88
g89
ssg70
g1113
sg63
(lp1125
S':'
asbag56
(g77
g58
NtRp1126
(dp1127
g61
(dp1128
sg70
g1113
sg63
(lp1129
g56
(g57
g58
NtRp1130
(dp1131
g61
(dp1132
g69
I4
ssg70
g1126
sg63
(lp1133
S'127.0.0.1:8000'
p1134
asbasbasbag56
(g72
g58
NtRp1135
(dp1136
g61
(dp1137
sg70
g821
sg63
(lp1138
g56
(g77
g58
NtRp1139
(dp1140
g61
(dp1141
g81
g82
ssg70
g1135
sg63
(lp1142
S'http_referer'
p1143
asbag56
(g77
g58
NtRp1144
(dp1145
g61
(dp1146
g88
g89
ssg70
g1135
sg63
(lp1147
S':'
asbag56
(g77
g58
NtRp1148
(dp1149
g61
(dp1150
sg70
g1135
sg63
(lp1151
g56
(g57
g58
NtRp1152
(dp1153
g61
(dp1154
g69
I4
ssg70
g1148
sg63
(lp1155
S'http://127.0.0.1:8000/project/default/relate'
p1156
asbasbasbag56
(g72
g58
NtRp1157
(dp1158
g61
(dp1159
sg70
g821
sg63
(lp1160
g56
(g77
g58
NtRp1161
(dp1162
g61
(dp1163
g81
g82
ssg70
g1157
sg63
(lp1164
S'http_user_agent'
p1165
asbag56
(g77
g58
NtRp1166
(dp1167
g61
(dp1168
g88
g89
ssg70
g1157
sg63
(lp1169
S':'
asbag56
(g77
g58
NtRp1170
(dp1171
g61
(dp1172
sg70
g1157
sg63
(lp1173
g56
(g57
g58
NtRp1174
(dp1175
g61
(dp1176
g69
I4
ssg70
g1170
sg63
(lp1177
S'Mozilla/5.0 (X11; Linux i686; rv:7.0.1) Gecko/20100101 Firefox/7.0.1'
p1178
asbasbasbag56
(g72
g58
NtRp1179
(dp1180
g61
(dp1181
sg70
g821
sg63
(lp1182
g56
(g77
g58
NtRp1183
(dp1184
g61
(dp1185
g81
g82
ssg70
g1179
sg63
(lp1186
S'is_jython'
p1187
asbag56
(g77
g58
NtRp1188
(dp1189
g61
(dp1190
g88
g89
ssg70
g1179
sg63
(lp1191
S':'
asbag56
(g77
g58
NtRp1192
(dp1193
g61
(dp1194
sg70
g1179
sg63
(lp1195
g56
(g57
g58
NtRp1196
(dp1197
g61
(dp1198
g69
I4
ssg70
g1192
sg63
(lp1199
g99
asbasbasbag56
(g72
g58
NtRp1200
(dp1201
g61
(dp1202
sg70
g821
sg63
(lp1203
g56
(g77
g58
NtRp1204
(dp1205
g61
(dp1206
g81
g82
ssg70
g1200
sg63
(lp1207
S'is_pypy'
p1208
asbag56
(g77
g58
NtRp1209
(dp1210
g61
(dp1211
g88
g89
ssg70
g1200
sg63
(lp1212
S':'
asbag56
(g77
g58
NtRp1213
(dp1214
g61
(dp1215
sg70
g1200
sg63
(lp1216
g56
(g57
g58
NtRp1217
(dp1218
g61
(dp1219
g69
I4
ssg70
g1213
sg63
(lp1220
g99
asbasbasbag56
(g72
g58
NtRp1221
(dp1222
g61
(dp1223
sg70
g821
sg63
(lp1224
g56
(g77
g58
NtRp1225
(dp1226
g61
(dp1227
g81
g82
ssg70
g1221
sg63
(lp1228
S'path_info'
p1229
asbag56
(g77
g58
NtRp1230
(dp1231
g61
(dp1232
g88
g89
ssg70
g1221
sg63
(lp1233
S':'
asbag56
(g77
g58
NtRp1234
(dp1235
g61
(dp1236
sg70
g1221
sg63
(lp1237
g56
(g57
g58
NtRp1238
(dp1239
g61
(dp1240
g69
I4
ssg70
g1234
sg63
(lp1241
S'/project/default/kruskal'
p1242
asbasbasbag56
(g72
g58
NtRp1243
(dp1244
g61
(dp1245
sg70
g821
sg63
(lp1246
g56
(g77
g58
NtRp1247
(dp1248
g61
(dp1249
g81
g82
ssg70
g1243
sg63
(lp1250
S'query_string'
p1251
asbag56
(g77
g58
NtRp1252
(dp1253
g61
(dp1254
g88
g89
ssg70
g1243
sg63
(lp1255
S':'
asbag56
(g77
g58
NtRp1256
(dp1257
g61
(dp1258
sg70
g1243
sg63
(lp1259
g56
(g57
g58
NtRp1260
(dp1261
g61
(dp1262
g69
I4
ssg70
g1256
sg63
(lp1263
S''
asbasbasbag56
(g72
g58
NtRp1264
(dp1265
g61
(dp1266
sg70
g821
sg63
(lp1267
g56
(g77
g58
NtRp1268
(dp1269
g61
(dp1270
g81
g82
ssg70
g1264
sg63
(lp1271
S'remote_addr'
p1272
asbag56
(g77
g58
NtRp1273
(dp1274
g61
(dp1275
g88
g89
ssg70
g1264
sg63
(lp1276
S':'
asbag56
(g77
g58
NtRp1277
(dp1278
g61
(dp1279
sg70
g1264
sg63
(lp1280
g56
(g57
g58
NtRp1281
(dp1282
g61
(dp1283
g69
I4
ssg70
g1277
sg63
(lp1284
g189
asbasbasbag56
(g72
g58
NtRp1285
(dp1286
g61
(dp1287
sg70
g821
sg63
(lp1288
g56
(g77
g58
NtRp1289
(dp1290
g61
(dp1291
g81
g82
ssg70
g1285
sg63
(lp1292
S'remote_port'
p1293
asbag56
(g77
g58
NtRp1294
(dp1295
g61
(dp1296
g88
g89
ssg70
g1285
sg63
(lp1297
S':'
asbag56
(g77
g58
NtRp1298
(dp1299
g61
(dp1300
sg70
g1285
sg63
(lp1301
g56
(g57
g58
NtRp1302
(dp1303
g61
(dp1304
g69
I4
ssg70
g1298
sg63
(lp1305
S'48089'
p1306
asbasbasbag56
(g72
g58
NtRp1307
(dp1308
g61
(dp1309
sg70
g821
sg63
(lp1310
g56
(g77
g58
NtRp1311
(dp1312
g61
(dp1313
g81
g82
ssg70
g1307
sg63
(lp1314
S'request_method'
p1315
asbag56
(g77
g58
NtRp1316
(dp1317
g61
(dp1318
g88
g89
ssg70
g1307
sg63
(lp1319
S':'
asbag56
(g77
g58
NtRp1320
(dp1321
g61
(dp1322
sg70
g1307
sg63
(lp1323
g56
(g57
g58
NtRp1324
(dp1325
g61
(dp1326
g69
I4
ssg70
g1320
sg63
(lp1327
S'GET'
p1328
asbasbasbag56
(g72
g58
NtRp1329
(dp1330
g61
(dp1331
sg70
g821
sg63
(lp1332
g56
(g77
g58
NtRp1333
(dp1334
g61
(dp1335
g81
g82
ssg70
g1329
sg63
(lp1336
S'script_name'
p1337
asbag56
(g77
g58
NtRp1338
(dp1339
g61
(dp1340
g88
g89
ssg70
g1329
sg63
(lp1341
S':'
asbag56
(g77
g58
NtRp1342
(dp1343
g61
(dp1344
sg70
g1329
sg63
(lp1345
g56
(g57
g58
NtRp1346
(dp1347
g61
(dp1348
g69
I4
ssg70
g1342
sg63
(lp1349
S''
asbasbasbag56
(g72
g58
NtRp1350
(dp1351
g61
(dp1352
sg70
g821
sg63
(lp1353
g56
(g77
g58
NtRp1354
(dp1355
g61
(dp1356
g81
g82
ssg70
g1350
sg63
(lp1357
S'server_name'
p1358
asbag56
(g77
g58
NtRp1359
(dp1360
g61
(dp1361
g88
g89
ssg70
g1350
sg63
(lp1362
S':'
asbag56
(g77
g58
NtRp1363
(dp1364
g61
(dp1365
sg70
g1350
sg63
(lp1366
g56
(g57
g58
NtRp1367
(dp1368
g61
(dp1369
g69
I4
ssg70
g1363
sg63
(lp1370
S'arpita-HP-630-Notebook-PC'
p1371
asbasbasbag56
(g72
g58
NtRp1372
(dp1373
g61
(dp1374
sg70
g821
sg63
(lp1375
g56
(g77
g58
NtRp1376
(dp1377
g61
(dp1378
g81
g82
ssg70
g1372
sg63
(lp1379
S'server_port'
p1380
asbag56
(g77
g58
NtRp1381
(dp1382
g61
(dp1383
g88
g89
ssg70
g1372
sg63
(lp1384
S':'
asbag56
(g77
g58
NtRp1385
(dp1386
g61
(dp1387
sg70
g1372
sg63
(lp1388
g56
(g57
g58
NtRp1389
(dp1390
g61
(dp1391
g69
I4
ssg70
g1385
sg63
(lp1392
S'8000'
p1393
asbasbasbag56
(g72
g58
NtRp1394
(dp1395
g61
(dp1396
sg70
g821
sg63
(lp1397
g56
(g77
g58
NtRp1398
(dp1399
g61
(dp1400
g81
g82
ssg70
g1394
sg63
(lp1401
S'server_protocol'
p1402
asbag56
(g77
g58
NtRp1403
(dp1404
g61
(dp1405
g88
g89
ssg70
g1394
sg63
(lp1406
S':'
asbag56
(g77
g58
NtRp1407
(dp1408
g61
(dp1409
sg70
g1394
sg63
(lp1410
g56
(g57
g58
NtRp1411
(dp1412
g61
(dp1413
g69
I4
ssg70
g1407
sg63
(lp1414
S'HTTP/1.1'
p1415
asbasbasbag56
(g72
g58
NtRp1416
(dp1417
g61
(dp1418
sg70
g821
sg63
(lp1419
g56
(g77
g58
NtRp1420
(dp1421
g61
(dp1422
g81
g82
ssg70
g1416
sg63
(lp1423
S'server_software'
p1424
asbag56
(g77
g58
NtRp1425
(dp1426
g61
(dp1427
g88
g89
ssg70
g1416
sg63
(lp1428
S':'
asbag56
(g77
g58
NtRp1429
(dp1430
g61
(dp1431
sg70
g1416
sg63
(lp1432
g56
(g57
g58
NtRp1433
(dp1434
g61
(dp1435
g69
I4
ssg70
g1429
sg63
(lp1436
S'Rocket 1.2.4'
p1437
asbasbasbag56
(g72
g58
NtRp1438
(dp1439
g61
(dp1440
sg70
g821
sg63
(lp1441
g56
(g77
g58
NtRp1442
(dp1443
g61
(dp1444
g81
g82
ssg70
g1438
sg63
(lp1445
S'web2py_crontype'
p1446
asbag56
(g77
g58
NtRp1447
(dp1448
g61
(dp1449
g88
g89
ssg70
g1438
sg63
(lp1450
S':'
asbag56
(g77
g58
NtRp1451
(dp1452
g61
(dp1453
sg70
g1438
sg63
(lp1454
g56
(g57
g58
NtRp1455
(dp1456
g61
(dp1457
g69
I4
ssg70
g1451
sg63
(lp1458
S'hard'
p1459
asbasbasbag56
(g72
g58
NtRp1460
(dp1461
g61
(dp1462
sg70
g821
sg63
(lp1463
g56
(g77
g58
NtRp1464
(dp1465
g61
(dp1466
g81
g82
ssg70
g1460
sg63
(lp1467
S'web2py_path'
p1468
asbag56
(g77
g58
NtRp1469
(dp1470
g61
(dp1471
g88
g89
ssg70
g1460
sg63
(lp1472
S':'
asbag56
(g77
g58
NtRp1473
(dp1474
g61
(dp1475
sg70
g1460
sg63
(lp1476
g56
(g57
g58
NtRp1477
(dp1478
g61
(dp1479
g69
I4
ssg70
g1473
sg63
(lp1480
g868
asbasbasbag56
(g72
g58
NtRp1481
(dp1482
g61
(dp1483
sg70
g821
sg63
(lp1484
g56
(g77
g58
NtRp1485
(dp1486
g61
(dp1487
g81
g82
ssg70
g1481
sg63
(lp1488
S'web2py_version'
p1489
asbag56
(g77
g58
NtRp1490
(dp1491
g61
(dp1492
g88
g89
ssg70
g1481
sg63
(lp1493
S':'
asbag56
(g77
g58
NtRp1494
(dp1495
g61
(dp1496
sg70
g1481
sg63
(lp1497
g56
(g57
g58
NtRp1498
(dp1499
g61
(dp1500
g69
I4
ssg70
g1494
sg63
(lp1501
g56
(g65
g58
NtRp1502
(dp1503
g61
(dp1504
g69
I3
ssg70
Nsg63
(lp1505
g56
(g72
g58
NtRp1506
(dp1507
g61
(dp1508
sg70
g1502
sg63
(lp1509
g56
(g77
g58
NtRp1510
(dp1511
g61
(dp1512
sg70
g1506
sg63
(lp1513
g56
(g57
g58
NtRp1514
(dp1515
g61
(dp1516
g69
I3
ssg70
g1510
sg63
(lp1517
S'1'
asbasbasbag56
(g72
g58
NtRp1518
(dp1519
g61
(dp1520
sg70
g1502
sg63
(lp1521
g56
(g77
g58
NtRp1522
(dp1523
g61
(dp1524
sg70
g1518
sg63
(lp1525
g56
(g57
g58
NtRp1526
(dp1527
g61
(dp1528
g69
I3
ssg70
g1522
sg63
(lp1529
S'99'
p1530
asbasbasbag56
(g72
g58
NtRp1531
(dp1532
g61
(dp1533
sg70
g1502
sg63
(lp1534
g56
(g77
g58
NtRp1535
(dp1536
g61
(dp1537
sg70
g1531
sg63
(lp1538
g56
(g57
g58
NtRp1539
(dp1540
g61
(dp1541
g69
I3
ssg70
g1535
sg63
(lp1542
S'7'
asbasbasbag56
(g72
g58
NtRp1543
(dp1544
g61
(dp1545
sg70
g1502
sg63
(lp1546
g56
(g77
g58
NtRp1547
(dp1548
g61
(dp1549
sg70
g1543
sg63
(lp1550
g56
(g57
g58
NtRp1551
(dp1552
g61
(dp1553
g69
I3
ssg70
g1547
sg63
(lp1554
S'datetime.datetime(2012, 3, 4, 22, 12, 8)'
p1555
asbasbasbag56
(g72
g58
NtRp1556
(dp1557
g61
(dp1558
sg70
g1502
sg63
(lp1559
g56
(g77
g58
NtRp1560
(dp1561
g61
(dp1562
sg70
g1556
sg63
(lp1563
g56
(g57
g58
NtRp1564
(dp1565
g61
(dp1566
g69
I3
ssg70
g1560
sg63
(lp1567
S'stable'
p1568
asbasbasbasbasbasbasbag56
(g72
g58
NtRp1569
(dp1570
g61
(dp1571
sg70
g821
sg63
(lp1572
g56
(g77
g58
NtRp1573
(dp1574
g61
(dp1575
g81
g82
ssg70
g1569
sg63
(lp1576
S'wsgi_errors'
p1577
asbag56
(g77
g58
NtRp1578
(dp1579
g61
(dp1580
g88
g89
ssg70
g1569
sg63
(lp1581
S':'
asbag56
(g77
g58
NtRp1582
(dp1583
g61
(dp1584
sg70
g1569
sg63
(lp1585
g56
(g57
g58
NtRp1586
(dp1587
g61
(dp1588
g69
I4
ssg70
g1582
sg63
(lp1589
S"<open file '<stderr>', mode 'w' at 0xb74190d0>"
p1590
asbasbasbag56
(g72
g58
NtRp1591
(dp1592
g61
(dp1593
sg70
g821
sg63
(lp1594
g56
(g77
g58
NtRp1595
(dp1596
g61
(dp1597
g81
g82
ssg70
g1591
sg63
(lp1598
S'wsgi_file_wrapper'
p1599
asbag56
(g77
g58
NtRp1600
(dp1601
g61
(dp1602
g88
g89
ssg70
g1591
sg63
(lp1603
S':'
asbag56
(g77
g58
NtRp1604
(dp1605
g61
(dp1606
sg70
g1591
sg63
(lp1607
g56
(g57
g58
NtRp1608
(dp1609
g61
(dp1610
g69
I4
ssg70
g1604
sg63
(lp1611
S'<class wsgiref.util.FileWrapper at 0x9231f5c>'
p1612
asbasbasbag56
(g72
g58
NtRp1613
(dp1614
g61
(dp1615
sg70
g821
sg63
(lp1616
g56
(g77
g58
NtRp1617
(dp1618
g61
(dp1619
g81
g82
ssg70
g1613
sg63
(lp1620
S'wsgi_input'
p1621
asbag56
(g77
g58
NtRp1622
(dp1623
g61
(dp1624
g88
g89
ssg70
g1613
sg63
(lp1625
S':'
asbag56
(g77
g58
NtRp1626
(dp1627
g61
(dp1628
sg70
g1613
sg63
(lp1629
g56
(g57
g58
NtRp1630
(dp1631
g61
(dp1632
g69
I4
ssg70
g1626
sg63
(lp1633
S'<socket._fileobject object at 0xa139dec>'
p1634
asbasbasbag56
(g72
g58
NtRp1635
(dp1636
g61
(dp1637
sg70
g821
sg63
(lp1638
g56
(g77
g58
NtRp1639
(dp1640
g61
(dp1641
g81
g82
ssg70
g1635
sg63
(lp1642
S'wsgi_multiprocess'
p1643
asbag56
(g77
g58
NtRp1644
(dp1645
g61
(dp1646
g88
g89
ssg70
g1635
sg63
(lp1647
S':'
asbag56
(g77
g58
NtRp1648
(dp1649
g61
(dp1650
sg70
g1635
sg63
(lp1651
g56
(g57
g58
NtRp1652
(dp1653
g61
(dp1654
g69
I4
ssg70
g1648
sg63
(lp1655
g99
asbasbasbag56
(g72
g58
NtRp1656
(dp1657
g61
(dp1658
sg70
g821
sg63
(lp1659
g56
(g77
g58
NtRp1660
(dp1661
g61
(dp1662
g81
g82
ssg70
g1656
sg63
(lp1663
S'wsgi_multithread'
p1664
asbag56
(g77
g58
NtRp1665
(dp1666
g61
(dp1667
g88
g89
ssg70
g1656
sg63
(lp1668
S':'
asbag56
(g77
g58
NtRp1669
(dp1670
g61
(dp1671
sg70
g1656
sg63
(lp1672
g56
(g57
g58
NtRp1673
(dp1674
g61
(dp1675
g69
I4
ssg70
g1669
sg63
(lp1676
S'True'
p1677
asbasbasbag56
(g72
g58
NtRp1678
(dp1679
g61
(dp1680
sg70
g821
sg63
(lp1681
g56
(g77
g58
NtRp1682
(dp1683
g61
(dp1684
g81
g82
ssg70
g1678
sg63
(lp1685
S'wsgi_run_once'
p1686
asbag56
(g77
g58
NtRp1687
(dp1688
g61
(dp1689
g88
g89
ssg70
g1678
sg63
(lp1690
S':'
asbag56
(g77
g58
NtRp1691
(dp1692
g61
(dp1693
sg70
g1678
sg63
(lp1694
g56
(g57
g58
NtRp1695
(dp1696
g61
(dp1697
g69
I4
ssg70
g1691
sg63
(lp1698
g99
asbasbasbag56
(g72
g58
NtRp1699
(dp1700
g61
(dp1701
sg70
g821
sg63
(lp1702
g56
(g77
g58
NtRp1703
(dp1704
g61
(dp1705
g81
g82
ssg70
g1699
sg63
(lp1706
S'wsgi_url_scheme'
p1707
asbag56
(g77
g58
NtRp1708
(dp1709
g61
(dp1710
g88
g89
ssg70
g1699
sg63
(lp1711
S':'
asbag56
(g77
g58
NtRp1712
(dp1713
g61
(dp1714
sg70
g1699
sg63
(lp1715
g56
(g57
g58
NtRp1716
(dp1717
g61
(dp1718
g69
I4
ssg70
g1712
sg63
(lp1719
S'http'
p1720
asbasbasbag56
(g72
g58
NtRp1721
(dp1722
g61
(dp1723
sg70
g821
sg63
(lp1724
g56
(g77
g58
NtRp1725
(dp1726
g61
(dp1727
g81
g82
ssg70
g1721
sg63
(lp1728
S'wsgi_version'
p1729
asbag56
(g77
g58
NtRp1730
(dp1731
g61
(dp1732
g88
g89
ssg70
g1721
sg63
(lp1733
S':'
asbag56
(g77
g58
NtRp1734
(dp1735
g61
(dp1736
sg70
g1721
sg63
(lp1737
g56
(g57
g58
NtRp1738
(dp1739
g61
(dp1740
g69
I4
ssg70
g1734
sg63
(lp1741
g56
(g65
g58
NtRp1742
(dp1743
g61
(dp1744
g69
I3
ssg70
Nsg63
(lp1745
g56
(g72
g58
NtRp1746
(dp1747
g61
(dp1748
sg70
g1742
sg63
(lp1749
g56
(g77
g58
NtRp1750
(dp1751
g61
(dp1752
sg70
g1746
sg63
(lp1753
g56
(g57
g58
NtRp1754
(dp1755
g61
(dp1756
g69
I3
ssg70
g1750
sg63
(lp1757
S'1'
asbasbasbag56
(g72
g58
NtRp1758
(dp1759
g61
(dp1760
sg70
g1742
sg63
(lp1761
g56
(g77
g58
NtRp1762
(dp1763
g61
(dp1764
sg70
g1758
sg63
(lp1765
g56
(g57
g58
NtRp1766
(dp1767
g61
(dp1768
g69
I3
ssg70
g1762
sg63
(lp1769
S'0'
asbasbasbasbasbasbasbasbasbasbasbag56
(g72
g58
NtRp1770
(dp1771
g61
(dp1772
sg70
g66
sg63
(lp1773
g56
(g77
g58
NtRp1774
(dp1775
g61
(dp1776
g81
g82
ssg70
g1770
sg63
(lp1777
S'extension'
p1778
asbag56
(g77
g58
NtRp1779
(dp1780
g61
(dp1781
g88
g89
ssg70
g1770
sg63
(lp1782
S':'
asbag56
(g77
g58
NtRp1783
(dp1784
g61
(dp1785
sg70
g1770
sg63
(lp1786
g56
(g57
g58
NtRp1787
(dp1788
g61
(dp1789
g69
I5
ssg70
g1783
sg63
(lp1790
S'html'
p1791
asbasbasbag56
(g72
g58
NtRp1792
(dp1793
g61
(dp1794
sg70
g66
sg63
(lp1795
g56
(g77
g58
NtRp1796
(dp1797
g61
(dp1798
g81
g82
ssg70
g1792
sg63
(lp1799
S'folder'
p1800
asbag56
(g77
g58
NtRp1801
(dp1802
g61
(dp1803
g88
g89
ssg70
g1792
sg63
(lp1804
S':'
asbag56
(g77
g58
NtRp1805
(dp1806
g61
(dp1807
sg70
g1792
sg63
(lp1808
g56
(g57
g58
NtRp1809
(dp1810
g61
(dp1811
g69
I5
ssg70
g1805
sg63
(lp1812
S'/home/arpita/courses/sem3/ssad/web2py/applications/project/'
p1813
asbasbasbag56
(g72
g58
NtRp1814
(dp1815
g61
(dp1816
sg70
g66
sg63
(lp1817
g56
(g77
g58
NtRp1818
(dp1819
g61
(dp1820
g81
g82
ssg70
g1814
sg63
(lp1821
S'function'
p1822
asbag56
(g77
g58
NtRp1823
(dp1824
g61
(dp1825
g88
g89
ssg70
g1814
sg63
(lp1826
S':'
asbag56
(g77
g58
NtRp1827
(dp1828
g61
(dp1829
sg70
g1814
sg63
(lp1830
g56
(g57
g58
NtRp1831
(dp1832
g61
(dp1833
g69
I5
ssg70
g1827
sg63
(lp1834
S'kruskal'
p1835
asbasbasbag56
(g72
g58
NtRp1836
(dp1837
g61
(dp1838
sg70
g66
sg63
(lp1839
g56
(g77
g58
NtRp1840
(dp1841
g61
(dp1842
g81
g82
ssg70
g1836
sg63
(lp1843
S'get_vars'
p1844
asbag56
(g77
g58
NtRp1845
(dp1846
g61
(dp1847
g88
g89
ssg70
g1836
sg63
(lp1848
S':'
asbag56
(g77
g58
NtRp1849
(dp1850
g61
(dp1851
sg70
g1836
sg63
(lp1852
g56
(g57
g58
NtRp1853
(dp1854
g61
(dp1855
g69
I5
ssg70
g1849
sg63
(lp1856
g56
(g65
g58
NtRp1857
(dp1858
g61
(dp1859
g69
I4
ssg70
Nsg63
(lp1860
sbasbasbasbag56
(g72
g58
NtRp1861
(dp1862
g61
(dp1863
sg70
g66
sg63
(lp1864
g56
(g77
g58
NtRp1865
(dp1866
g61
(dp1867
g81
g82
ssg70
g1861
sg63
(lp1868
S'global_settings'
p1869
asbag56
(g77
g58
NtRp1870
(dp1871
g61
(dp1872
g88
g89
ssg70
g1861
sg63
(lp1873
S':'
asbag56
(g77
g58
NtRp1874
(dp1875
g61
(dp1876
sg70
g1861
sg63
(lp1877
g56
(g57
g58
NtRp1878
(dp1879
g61
(dp1880
g69
I5
ssg70
g1874
sg63
(lp1881
g56
(g65
g58
NtRp1882
(dp1883
g61
(dp1884
g69
I4
ssg70
Nsg63
(lp1885
g56
(g72
g58
NtRp1886
(dp1887
g61
(dp1888
sg70
g1882
sg63
(lp1889
g56
(g77
g58
NtRp1890
(dp1891
g61
(dp1892
g81
g82
ssg70
g1886
sg63
(lp1893
g833
asbag56
(g77
g58
NtRp1894
(dp1895
g61
(dp1896
g88
g89
ssg70
g1886
sg63
(lp1897
S':'
asbag56
(g77
g58
NtRp1898
(dp1899
g61
(dp1900
sg70
g1886
sg63
(lp1901
g56
(g57
g58
NtRp1902
(dp1903
g61
(dp1904
g69
I4
ssg70
g1898
sg63
(lp1905
S"set(['/home/arpita/courses/sem3/ssad/web2py/applications/admin/', '/home/arpita/courses/sem3/ssad/web2py/applications/project/', '/home/arpita/courses/sem3/ssad/web2py/applications/welcome/'])"
p1906
asbasbasbag56
(g72
g58
NtRp1907
(dp1908
g61
(dp1909
sg70
g1882
sg63
(lp1910
g56
(g77
g58
NtRp1911
(dp1912
g61
(dp1913
g81
g82
ssg70
g1907
sg63
(lp1914
g855
asbag56
(g77
g58
NtRp1915
(dp1916
g61
(dp1917
g88
g89
ssg70
g1907
sg63
(lp1918
S':'
asbag56
(g77
g58
NtRp1919
(dp1920
g61
(dp1921
sg70
g1907
sg63
(lp1922
g56
(g57
g58
NtRp1923
(dp1924
g61
(dp1925
g69
I4
ssg70
g1919
sg63
(lp1926
g868
asbasbasbag56
(g72
g58
NtRp1927
(dp1928
g61
(dp1929
sg70
g1882
sg63
(lp1930
g56
(g77
g58
NtRp1931
(dp1932
g61
(dp1933
g81
g82
ssg70
g1927
sg63
(lp1934
g877
asbag56
(g77
g58
NtRp1935
(dp1936
g61
(dp1937
g88
g89
ssg70
g1927
sg63
(lp1938
S':'
asbag56
(g77
g58
NtRp1939
(dp1940
g61
(dp1941
sg70
g1927
sg63
(lp1942
g56
(g57
g58
NtRp1943
(dp1944
g61
(dp1945
g69
I4
ssg70
g1939
sg63
(lp1946
g56
(g65
g58
NtRp1947
(dp1948
g61
(dp1949
g69
I3
ssg70
Nsg63
(lp1950
sbasbasbasbag56
(g72
g58
NtRp1951
(dp1952
g61
(dp1953
sg70
g1882
sg63
(lp1954
g56
(g77
g58
NtRp1955
(dp1956
g61
(dp1957
g81
g82
ssg70
g1951
sg63
(lp1958
g902
asbag56
(g77
g58
NtRp1959
(dp1960
g61
(dp1961
g88
g89
ssg70
g1951
sg63
(lp1962
S':'
asbag56
(g77
g58
NtRp1963
(dp1964
g61
(dp1965
sg70
g1951
sg63
(lp1966
g56
(g57
g58
NtRp1967
(dp1968
g61
(dp1969
g69
I4
ssg70
g1963
sg63
(lp1970
S"<Values at 0x928e3cc: {'verbose': False, 'ip': '127.0.0.1', 'shutdown_timeout': 5, 'taskbar': False, 'nocron': False, 'pid_filename': 'httpserver.pid', 'maxthreads': None, 'softcron': False, 'server_name': 'arpita-HP-630-Notebook-PC', 'bpython': False, 'nogui': False, 'port': 8000, 'extcron': False, 'debuglevel': 30, 'test': None, 'folder': '/home/arpita/courses/sem3/ssad/web2py', 'config': '', 'import_models': False, 'winservice': '', 'shell': None, 'run': '', 'log_filename': 'httpserver.log', 'args': [''], 'socket_timeout': 5, 'ssl_ca_certificate': None, 'scheduler': None, 'profiler_filename': None, 'ssl_private_key': '', 'password': 'arpita', 'request_queue_size': 5, 'ssl_certificate': '', 'cronjob': False, 'numthreads': None, 'quiet': False, 'interfaces': None, 'minthreads': None, 'timeout': 10, 'plain': False, 'nobanner': False}>"
p1971
asbasbasbag56
(g72
g58
NtRp1972
(dp1973
g61
(dp1974
sg70
g1882
sg63
(lp1975
g56
(g77
g58
NtRp1976
(dp1977
g61
(dp1978
g81
g82
ssg70
g1972
sg63
(lp1979
g924
asbag56
(g77
g58
NtRp1980
(dp1981
g61
(dp1982
g88
g89
ssg70
g1972
sg63
(lp1983
S':'
asbag56
(g77
g58
NtRp1984
(dp1985
g61
(dp1986
sg70
g1972
sg63
(lp1987
g56
(g57
g58
NtRp1988
(dp1989
g61
(dp1990
g69
I4
ssg70
g1984
sg63
(lp1991
S'set([])'
p1992
asbasbasbag56
(g72
g58
NtRp1993
(dp1994
g61
(dp1995
sg70
g1882
sg63
(lp1996
g56
(g77
g58
NtRp1997
(dp1998
g61
(dp1999
g81
g82
ssg70
g1993
sg63
(lp2000
g946
asbag56
(g77
g58
NtRp2001
(dp2002
g61
(dp2003
g88
g89
ssg70
g1993
sg63
(lp2004
S':'
asbag56
(g77
g58
NtRp2005
(dp2006
g61
(dp2007
sg70
g1993
sg63
(lp2008
g56
(g57
g58
NtRp2009
(dp2010
g61
(dp2011
g69
I4
ssg70
g2005
sg63
(lp2012
g99
asbasbasbag56
(g72
g58
NtRp2013
(dp2014
g61
(dp2015
sg70
g1882
sg63
(lp2016
g56
(g77
g58
NtRp2017
(dp2018
g61
(dp2019
g81
g82
ssg70
g2013
sg63
(lp2020
g967
asbag56
(g77
g58
NtRp2021
(dp2022
g61
(dp2023
g88
g89
ssg70
g2013
sg63
(lp2024
S':'
asbag56
(g77
g58
NtRp2025
(dp2026
g61
(dp2027
sg70
g2013
sg63
(lp2028
g56
(g57
g58
NtRp2029
(dp2030
g61
(dp2031
g69
I4
ssg70
g2025
sg63
(lp2032
g980
asbasbasbag56
(g72
g58
NtRp2033
(dp2034
g61
(dp2035
sg70
g1882
sg63
(lp2036
g56
(g77
g58
NtRp2037
(dp2038
g61
(dp2039
g81
g82
ssg70
g2033
sg63
(lp2040
g1187
asbag56
(g77
g58
NtRp2041
(dp2042
g61
(dp2043
g88
g89
ssg70
g2033
sg63
(lp2044
S':'
asbag56
(g77
g58
NtRp2045
(dp2046
g61
(dp2047
sg70
g2033
sg63
(lp2048
g56
(g57
g58
NtRp2049
(dp2050
g61
(dp2051
g69
I4
ssg70
g2045
sg63
(lp2052
g99
asbasbasbag56
(g72
g58
NtRp2053
(dp2054
g61
(dp2055
sg70
g1882
sg63
(lp2056
g56
(g77
g58
NtRp2057
(dp2058
g61
(dp2059
g81
g82
ssg70
g2053
sg63
(lp2060
g1208
asbag56
(g77
g58
NtRp2061
(dp2062
g61
(dp2063
g88
g89
ssg70
g2053
sg63
(lp2064
S':'
asbag56
(g77
g58
NtRp2065
(dp2066
g61
(dp2067
sg70
g2053
sg63
(lp2068
g56
(g57
g58
NtRp2069
(dp2070
g61
(dp2071
g69
I4
ssg70
g2065
sg63
(lp2072
g99
asbasbasbag56
(g72
g58
NtRp2073
(dp2074
g61
(dp2075
sg70
g1882
sg63
(lp2076
g56
(g77
g58
NtRp2077
(dp2078
g61
(dp2079
g81
g82
ssg70
g2073
sg63
(lp2080
g1446
asbag56
(g77
g58
NtRp2081
(dp2082
g61
(dp2083
g88
g89
ssg70
g2073
sg63
(lp2084
S':'
asbag56
(g77
g58
NtRp2085
(dp2086
g61
(dp2087
sg70
g2073
sg63
(lp2088
g56
(g57
g58
NtRp2089
(dp2090
g61
(dp2091
g69
I4
ssg70
g2085
sg63
(lp2092
g1459
asbasbasbag56
(g72
g58
NtRp2093
(dp2094
g61
(dp2095
sg70
g1882
sg63
(lp2096
g56
(g77
g58
NtRp2097
(dp2098
g61
(dp2099
g81
g82
ssg70
g2093
sg63
(lp2100
g1489
asbag56
(g77
g58
NtRp2101
(dp2102
g61
(dp2103
g88
g89
ssg70
g2093
sg63
(lp2104
S':'
asbag56
(g77
g58
NtRp2105
(dp2106
g61
(dp2107
sg70
g2093
sg63
(lp2108
g56
(g57
g58
NtRp2109
(dp2110
g61
(dp2111
g69
I4
ssg70
g2105
sg63
(lp2112
g56
(g65
g58
NtRp2113
(dp2114
g61
(dp2115
g69
I3
ssg70
Nsg63
(lp2116
g56
(g72
g58
NtRp2117
(dp2118
g61
(dp2119
sg70
g2113
sg63
(lp2120
g56
(g77
g58
NtRp2121
(dp2122
g61
(dp2123
sg70
g2117
sg63
(lp2124
g56
(g57
g58
NtRp2125
(dp2126
g61
(dp2127
g69
I3
ssg70
g2121
sg63
(lp2128
S'1'
asbasbasbag56
(g72
g58
NtRp2129
(dp2130
g61
(dp2131
sg70
g2113
sg63
(lp2132
g56
(g77
g58
NtRp2133
(dp2134
g61
(dp2135
sg70
g2129
sg63
(lp2136
g56
(g57
g58
NtRp2137
(dp2138
g61
(dp2139
g69
I3
ssg70
g2133
sg63
(lp2140
S'99'
p2141
asbasbasbag56
(g72
g58
NtRp2142
(dp2143
g61
(dp2144
sg70
g2113
sg63
(lp2145
g56
(g77
g58
NtRp2146
(dp2147
g61
(dp2148
sg70
g2142
sg63
(lp2149
g56
(g57
g58
NtRp2150
(dp2151
g61
(dp2152
g69
I3
ssg70
g2146
sg63
(lp2153
S'7'
asbasbasbag56
(g72
g58
NtRp2154
(dp2155
g61
(dp2156
sg70
g2113
sg63
(lp2157
g56
(g77
g58
NtRp2158
(dp2159
g61
(dp2160
sg70
g2154
sg63
(lp2161
g56
(g57
g58
NtRp2162
(dp2163
g61
(dp2164
g69
I3
ssg70
g2158
sg63
(lp2165
S'datetime.datetime(2012, 3, 4, 22, 12, 8)'
p2166
asbasbasbag56
(g72
g58
NtRp2167
(dp2168
g61
(dp2169
sg70
g2113
sg63
(lp2170
g56
(g77
g58
NtRp2171
(dp2172
g61
(dp2173
sg70
g2167
sg63
(lp2174
g56
(g57
g58
NtRp2175
(dp2176
g61
(dp2177
g69
I3
ssg70
g2171
sg63
(lp2178
g1568
asbasbasbasbasbasbasbasbasbasbasbag56
(g72
g58
NtRp2179
(dp2180
g61
(dp2181
sg70
g66
sg63
(lp2182
g56
(g77
g58
NtRp2183
(dp2184
g61
(dp2185
g81
g82
ssg70
g2179
sg63
(lp2186
S'is_https'
p2187
asbag56
(g77
g58
NtRp2188
(dp2189
g61
(dp2190
g88
g89
ssg70
g2179
sg63
(lp2191
S':'
asbag56
(g77
g58
NtRp2192
(dp2193
g61
(dp2194
sg70
g2179
sg63
(lp2195
g56
(g57
g58
NtRp2196
(dp2197
g61
(dp2198
g69
I5
ssg70
g2192
sg63
(lp2199
g99
asbasbasbag56
(g72
g58
NtRp2200
(dp2201
g61
(dp2202
sg70
g66
sg63
(lp2203
g56
(g77
g58
NtRp2204
(dp2205
g61
(dp2206
g81
g82
ssg70
g2200
sg63
(lp2207
S'is_local'
p2208
asbag56
(g77
g58
NtRp2209
(dp2210
g61
(dp2211
g88
g89
ssg70
g2200
sg63
(lp2212
S':'
asbag56
(g77
g58
NtRp2213
(dp2214
g61
(dp2215
sg70
g2200
sg63
(lp2216
g56
(g57
g58
NtRp2217
(dp2218
g61
(dp2219
g69
I5
ssg70
g2213
sg63
(lp2220
g1677
asbasbasbag56
(g72
g58
NtRp2221
(dp2222
g61
(dp2223
sg70
g66
sg63
(lp2224
g56
(g77
g58
NtRp2225
(dp2226
g61
(dp2227
g81
g82
ssg70
g2221
sg63
(lp2228
S'is_restful'
p2229
asbag56
(g77
g58
NtRp2230
(dp2231
g61
(dp2232
g88
g89
ssg70
g2221
sg63
(lp2233
S':'
asbag56
(g77
g58
NtRp2234
(dp2235
g61
(dp2236
sg70
g2221
sg63
(lp2237
g56
(g57
g58
NtRp2238
(dp2239
g61
(dp2240
g69
I5
ssg70
g2234
sg63
(lp2241
g99
asbasbasbag56
(g72
g58
NtRp2242
(dp2243
g61
(dp2244
sg70
g66
sg63
(lp2245
g56
(g77
g58
NtRp2246
(dp2247
g61
(dp2248
g81
g82
ssg70
g2242
sg63
(lp2249
S'now'
p2250
asbag56
(g77
g58
NtRp2251
(dp2252
g61
(dp2253
g88
g89
ssg70
g2242
sg63
(lp2254
S':'
asbag56
(g77
g58
NtRp2255
(dp2256
g61
(dp2257
sg70
g2242
sg63
(lp2258
g56
(g57
g58
NtRp2259
(dp2260
g61
(dp2261
g69
I5
ssg70
g2255
sg63
(lp2262
S'datetime.datetime(2012, 11, 6, 6, 10, 33, 115374)'
p2263
asbasbasbag56
(g72
g58
NtRp2264
(dp2265
g61
(dp2266
sg70
g66
sg63
(lp2267
g56
(g77
g58
NtRp2268
(dp2269
g61
(dp2270
g81
g82
ssg70
g2264
sg63
(lp2271
S'post_vars'
p2272
asbag56
(g77
g58
NtRp2273
(dp2274
g61
(dp2275
g88
g89
ssg70
g2264
sg63
(lp2276
S':'
asbag56
(g77
g58
NtRp2277
(dp2278
g61
(dp2279
sg70
g2264
sg63
(lp2280
g56
(g57
g58
NtRp2281
(dp2282
g61
(dp2283
g69
I5
ssg70
g2277
sg63
(lp2284
g56
(g65
g58
NtRp2285
(dp2286
g61
(dp2287
g69
I4
ssg70
Nsg63
(lp2288
sbasbasbasbag56
(g72
g58
NtRp2289
(dp2290
g61
(dp2291
sg70
g66
sg63
(lp2292
g56
(g77
g58
NtRp2293
(dp2294
g61
(dp2295
g81
g82
ssg70
g2289
sg63
(lp2296
S'url'
p2297
asbag56
(g77
g58
NtRp2298
(dp2299
g61
(dp2300
g88
g89
ssg70
g2289
sg63
(lp2301
S':'
asbag56
(g77
g58
NtRp2302
(dp2303
g61
(dp2304
sg70
g2289
sg63
(lp2305
g56
(g57
g58
NtRp2306
(dp2307
g61
(dp2308
g69
I5
ssg70
g2302
sg63
(lp2309
S'/project/default/kruskal'
p2310
asbasbasbag56
(g72
g58
NtRp2311
(dp2312
g61
(dp2313
sg70
g66
sg63
(lp2314
g56
(g77
g58
NtRp2315
(dp2316
g61
(dp2317
g81
g82
ssg70
g2311
sg63
(lp2318
S'utcnow'
p2319
asbag56
(g77
g58
NtRp2320
(dp2321
g61
(dp2322
g88
g89
ssg70
g2311
sg63
(lp2323
S':'
asbag56
(g77
g58
NtRp2324
(dp2325
g61
(dp2326
sg70
g2311
sg63
(lp2327
g56
(g57
g58
NtRp2328
(dp2329
g61
(dp2330
g69
I5
ssg70
g2324
sg63
(lp2331
S'datetime.datetime(2012, 11, 6, 0, 40, 33, 115455)'
p2332
asbasbasbag56
(g72
g58
NtRp2333
(dp2334
g61
(dp2335
sg70
g66
sg63
(lp2336
g56
(g77
g58
NtRp2337
(dp2338
g61
(dp2339
g81
g82
ssg70
g2333
sg63
(lp2340
S'uuid'
p2341
asbag56
(g77
g58
NtRp2342
(dp2343
g61
(dp2344
g88
g89
ssg70
g2333
sg63
(lp2345
S':'
asbag56
(g77
g58
NtRp2346
(dp2347
g61
(dp2348
sg70
g2333
sg63
(lp2349
g56
(g57
g58
NtRp2350
(dp2351
g61
(dp2352
g69
I5
ssg70
g2346
sg63
(lp2353
S'project/127.0.0.1.2012-11-06.06-10-33.97ed362b-e8b7-4dff-a30f-6f7c0c9f72c0'
p2354
asbasbasbag56
(g72
g58
NtRp2355
(dp2356
g61
(dp2357
sg70
g66
sg63
(lp2358
g56
(g77
g58
NtRp2359
(dp2360
g61
(dp2361
g81
g82
ssg70
g2355
sg63
(lp2362
S'vars'
p2363
asbag56
(g77
g58
NtRp2364
(dp2365
g61
(dp2366
g88
g89
ssg70
g2355
sg63
(lp2367
S':'
asbag56
(g77
g58
NtRp2368
(dp2369
g61
(dp2370
sg70
g2355
sg63
(lp2371
g56
(g57
g58
NtRp2372
(dp2373
g61
(dp2374
g69
I5
ssg70
g2368
sg63
(lp2375
g56
(g65
g58
NtRp2376
(dp2377
g61
(dp2378
g69
I4
ssg70
Nsg63
(lp2379
sbasbasbasbag56
(g72
g58
NtRp2380
(dp2381
g61
(dp2382
sg70
g66
sg63
(lp2383
g56
(g77
g58
NtRp2384
(dp2385
g61
(dp2386
g81
g82
ssg70
g2380
sg63
(lp2387
S'wsgi'
p2388
asbag56
(g77
g58
NtRp2389
(dp2390
g61
(dp2391
g88
g89
ssg70
g2380
sg63
(lp2392
S':'
asbag56
(g77
g58
NtRp2393
(dp2394
g61
(dp2395
sg70
g2380
sg63
(lp2396
g56
(g57
g58
NtRp2397
(dp2398
g61
(dp2399
g69
I5
ssg70
g2393
sg63
(lp2400
g56
(g65
g58
NtRp2401
(dp2402
g61
(dp2403
g69
I4
ssg70
Nsg63
(lp2404
g56
(g72
g58
NtRp2405
(dp2406
g61
(dp2407
sg70
g2401
sg63
(lp2408
g56
(g77
g58
NtRp2409
(dp2410
g61
(dp2411
g81
g82
ssg70
g2405
sg63
(lp2412
S'environ'
p2413
asbag56
(g77
g58
NtRp2414
(dp2415
g61
(dp2416
g88
g89
ssg70
g2405
sg63
(lp2417
S':'
asbag56
(g77
g58
NtRp2418
(dp2419
g61
(dp2420
sg70
g2405
sg63
(lp2421
g56
(g57
g58
NtRp2422
(dp2423
g61
(dp2424
g69
I4
ssg70
g2418
sg63
(lp2425
g56
(g65
g58
NtRp2426
(dp2427
g61
(dp2428
g69
I3
ssg70
Nsg63
(lp2429
g56
(g72
g58
NtRp2430
(dp2431
g61
(dp2432
sg70
g2426
sg63
(lp2433
g56
(g77
g58
NtRp2434
(dp2435
g61
(dp2436
g81
g82
ssg70
g2430
sg63
(lp2437
S'HTTP_ACCEPT'
p2438
asbag56
(g77
g58
NtRp2439
(dp2440
g61
(dp2441
g88
g89
ssg70
g2430
sg63
(lp2442
S':'
asbag56
(g77
g58
NtRp2443
(dp2444
g61
(dp2445
sg70
g2430
sg63
(lp2446
g56
(g57
g58
NtRp2447
(dp2448
g61
(dp2449
g69
I3
ssg70
g2443
sg63
(lp2450
g1002
asbasbasbag56
(g72
g58
NtRp2451
(dp2452
g61
(dp2453
sg70
g2426
sg63
(lp2454
g56
(g77
g58
NtRp2455
(dp2456
g61
(dp2457
g81
g82
ssg70
g2451
sg63
(lp2458
S'HTTP_ACCEPT_CHARSET'
p2459
asbag56
(g77
g58
NtRp2460
(dp2461
g61
(dp2462
g88
g89
ssg70
g2451
sg63
(lp2463
S':'
asbag56
(g77
g58
NtRp2464
(dp2465
g61
(dp2466
sg70
g2451
sg63
(lp2467
g56
(g57
g58
NtRp2468
(dp2469
g61
(dp2470
g69
I3
ssg70
g2464
sg63
(lp2471
g1024
asbasbasbag56
(g72
g58
NtRp2472
(dp2473
g61
(dp2474
sg70
g2426
sg63
(lp2475
g56
(g77
g58
NtRp2476
(dp2477
g61
(dp2478
g81
g82
ssg70
g2472
sg63
(lp2479
S'HTTP_ACCEPT_ENCODING'
p2480
asbag56
(g77
g58
NtRp2481
(dp2482
g61
(dp2483
g88
g89
ssg70
g2472
sg63
(lp2484
S':'
asbag56
(g77
g58
NtRp2485
(dp2486
g61
(dp2487
sg70
g2472
sg63
(lp2488
g56
(g57
g58
NtRp2489
(dp2490
g61
(dp2491
g69
I3
ssg70
g2485
sg63
(lp2492
g1046
asbasbasbag56
(g72
g58
NtRp2493
(dp2494
g61
(dp2495
sg70
g2426
sg63
(lp2496
g56
(g77
g58
NtRp2497
(dp2498
g61
(dp2499
g81
g82
ssg70
g2493
sg63
(lp2500
S'HTTP_ACCEPT_LANGUAGE'
p2501
asbag56
(g77
g58
NtRp2502
(dp2503
g61
(dp2504
g88
g89
ssg70
g2493
sg63
(lp2505
S':'
asbag56
(g77
g58
NtRp2506
(dp2507
g61
(dp2508
sg70
g2493
sg63
(lp2509
g56
(g57
g58
NtRp2510
(dp2511
g61
(dp2512
g69
I3
ssg70
g2506
sg63
(lp2513
g1068
asbasbasbag56
(g72
g58
NtRp2514
(dp2515
g61
(dp2516
sg70
g2426
sg63
(lp2517
g56
(g77
g58
NtRp2518
(dp2519
g61
(dp2520
g81
g82
ssg70
g2514
sg63
(lp2521
S'HTTP_CONNECTION'
p2522
asbag56
(g77
g58
NtRp2523
(dp2524
g61
(dp2525
g88
g89
ssg70
g2514
sg63
(lp2526
S':'
asbag56
(g77
g58
NtRp2527
(dp2528
g61
(dp2529
sg70
g2514
sg63
(lp2530
g56
(g57
g58
NtRp2531
(dp2532
g61
(dp2533
g69
I3
ssg70
g2527
sg63
(lp2534
g1090
asbasbasbag56
(g72
g58
NtRp2535
(dp2536
g61
(dp2537
sg70
g2426
sg63
(lp2538
g56
(g77
g58
NtRp2539
(dp2540
g61
(dp2541
g81
g82
ssg70
g2535
sg63
(lp2542
S'HTTP_COOKIE'
p2543
asbag56
(g77
g58
NtRp2544
(dp2545
g61
(dp2546
g88
g89
ssg70
g2535
sg63
(lp2547
S':'
asbag56
(g77
g58
NtRp2548
(dp2549
g61
(dp2550
sg70
g2535
sg63
(lp2551
g56
(g57
g58
NtRp2552
(dp2553
g61
(dp2554
g69
I3
ssg70
g2548
sg63
(lp2555
g1112
asbasbasbag56
(g72
g58
NtRp2556
(dp2557
g61
(dp2558
sg70
g2426
sg63
(lp2559
g56
(g77
g58
NtRp2560
(dp2561
g61
(dp2562
g81
g82
ssg70
g2556
sg63
(lp2563
S'HTTP_HOST'
p2564
asbag56
(g77
g58
NtRp2565
(dp2566
g61
(dp2567
g88
g89
ssg70
g2556
sg63
(lp2568
S':'
asbag56
(g77
g58
NtRp2569
(dp2570
g61
(dp2571
sg70
g2556
sg63
(lp2572
g56
(g57
g58
NtRp2573
(dp2574
g61
(dp2575
g69
I3
ssg70
g2569
sg63
(lp2576
g1134
asbasbasbag56
(g72
g58
NtRp2577
(dp2578
g61
(dp2579
sg70
g2426
sg63
(lp2580
g56
(g77
g58
NtRp2581
(dp2582
g61
(dp2583
g81
g82
ssg70
g2577
sg63
(lp2584
S'HTTP_REFERER'
p2585
asbag56
(g77
g58
NtRp2586
(dp2587
g61
(dp2588
g88
g89
ssg70
g2577
sg63
(lp2589
S':'
asbag56
(g77
g58
NtRp2590
(dp2591
g61
(dp2592
sg70
g2577
sg63
(lp2593
g56
(g57
g58
NtRp2594
(dp2595
g61
(dp2596
g69
I3
ssg70
g2590
sg63
(lp2597
g1156
asbasbasbag56
(g72
g58
NtRp2598
(dp2599
g61
(dp2600
sg70
g2426
sg63
(lp2601
g56
(g77
g58
NtRp2602
(dp2603
g61
(dp2604
g81
g82
ssg70
g2598
sg63
(lp2605
S'HTTP_USER_AGENT'
p2606
asbag56
(g77
g58
NtRp2607
(dp2608
g61
(dp2609
g88
g89
ssg70
g2598
sg63
(lp2610
S':'
asbag56
(g77
g58
NtRp2611
(dp2612
g61
(dp2613
sg70
g2598
sg63
(lp2614
g56
(g57
g58
NtRp2615
(dp2616
g61
(dp2617
g69
I3
ssg70
g2611
sg63
(lp2618
g1178
asbasbasbag56
(g72
g58
NtRp2619
(dp2620
g61
(dp2621
sg70
g2426
sg63
(lp2622
g56
(g77
g58
NtRp2623
(dp2624
g61
(dp2625
g81
g82
ssg70
g2619
sg63
(lp2626
S'PATH_INFO'
p2627
asbag56
(g77
g58
NtRp2628
(dp2629
g61
(dp2630
g88
g89
ssg70
g2619
sg63
(lp2631
S':'
asbag56
(g77
g58
NtRp2632
(dp2633
g61
(dp2634
sg70
g2619
sg63
(lp2635
g56
(g57
g58
NtRp2636
(dp2637
g61
(dp2638
g69
I3
ssg70
g2632
sg63
(lp2639
g1242
asbasbasbag56
(g72
g58
NtRp2640
(dp2641
g61
(dp2642
sg70
g2426
sg63
(lp2643
g56
(g77
g58
NtRp2644
(dp2645
g61
(dp2646
g81
g82
ssg70
g2640
sg63
(lp2647
S'QUERY_STRING'
p2648
asbag56
(g77
g58
NtRp2649
(dp2650
g61
(dp2651
g88
g89
ssg70
g2640
sg63
(lp2652
S':'
asbag56
(g77
g58
NtRp2653
(dp2654
g61
(dp2655
sg70
g2640
sg63
(lp2656
g56
(g57
g58
NtRp2657
(dp2658
g61
(dp2659
g69
I3
ssg70
g2653
sg63
(lp2660
S''
asbasbasbag56
(g72
g58
NtRp2661
(dp2662
g61
(dp2663
sg70
g2426
sg63
(lp2664
g56
(g77
g58
NtRp2665
(dp2666
g61
(dp2667
g81
g82
ssg70
g2661
sg63
(lp2668
S'REMOTE_ADDR'
p2669
asbag56
(g77
g58
NtRp2670
(dp2671
g61
(dp2672
g88
g89
ssg70
g2661
sg63
(lp2673
S':'
asbag56
(g77
g58
NtRp2674
(dp2675
g61
(dp2676
sg70
g2661
sg63
(lp2677
g56
(g57
g58
NtRp2678
(dp2679
g61
(dp2680
g69
I3
ssg70
g2674
sg63
(lp2681
g189
asbasbasbag56
(g72
g58
NtRp2682
(dp2683
g61
(dp2684
sg70
g2426
sg63
(lp2685
g56
(g77
g58
NtRp2686
(dp2687
g61
(dp2688
g81
g82
ssg70
g2682
sg63
(lp2689
S'REMOTE_PORT'
p2690
asbag56
(g77
g58
NtRp2691
(dp2692
g61
(dp2693
g88
g89
ssg70
g2682
sg63
(lp2694
S':'
asbag56
(g77
g58
NtRp2695
(dp2696
g61
(dp2697
sg70
g2682
sg63
(lp2698
g56
(g57
g58
NtRp2699
(dp2700
g61
(dp2701
g69
I3
ssg70
g2695
sg63
(lp2702
g1306
asbasbasbag56
(g72
g58
NtRp2703
(dp2704
g61
(dp2705
sg70
g2426
sg63
(lp2706
g56
(g77
g58
NtRp2707
(dp2708
g61
(dp2709
g81
g82
ssg70
g2703
sg63
(lp2710
S'REQUEST_METHOD'
p2711
asbag56
(g77
g58
NtRp2712
(dp2713
g61
(dp2714
g88
g89
ssg70
g2703
sg63
(lp2715
S':'
asbag56
(g77
g58
NtRp2716
(dp2717
g61
(dp2718
sg70
g2703
sg63
(lp2719
g56
(g57
g58
NtRp2720
(dp2721
g61
(dp2722
g69
I3
ssg70
g2716
sg63
(lp2723
g1328
asbasbasbag56
(g72
g58
NtRp2724
(dp2725
g61
(dp2726
sg70
g2426
sg63
(lp2727
g56
(g77
g58
NtRp2728
(dp2729
g61
(dp2730
g81
g82
ssg70
g2724
sg63
(lp2731
S'SCRIPT_NAME'
p2732
asbag56
(g77
g58
NtRp2733
(dp2734
g61
(dp2735
g88
g89
ssg70
g2724
sg63
(lp2736
S':'
asbag56
(g77
g58
NtRp2737
(dp2738
g61
(dp2739
sg70
g2724
sg63
(lp2740
g56
(g57
g58
NtRp2741
(dp2742
g61
(dp2743
g69
I3
ssg70
g2737
sg63
(lp2744
S''
asbasbasbag56
(g72
g58
NtRp2745
(dp2746
g61
(dp2747
sg70
g2426
sg63
(lp2748
g56
(g77
g58
NtRp2749
(dp2750
g61
(dp2751
g81
g82
ssg70
g2745
sg63
(lp2752
S'SERVER_NAME'
p2753
asbag56
(g77
g58
NtRp2754
(dp2755
g61
(dp2756
g88
g89
ssg70
g2745
sg63
(lp2757
S':'
asbag56
(g77
g58
NtRp2758
(dp2759
g61
(dp2760
sg70
g2745
sg63
(lp2761
g56
(g57
g58
NtRp2762
(dp2763
g61
(dp2764
g69
I3
ssg70
g2758
sg63
(lp2765
g1371
asbasbasbag56
(g72
g58
NtRp2766
(dp2767
g61
(dp2768
sg70
g2426
sg63
(lp2769
g56
(g77
g58
NtRp2770
(dp2771
g61
(dp2772
g81
g82
ssg70
g2766
sg63
(lp2773
S'SERVER_PORT'
p2774
asbag56
(g77
g58
NtRp2775
(dp2776
g61
(dp2777
g88
g89
ssg70
g2766
sg63
(lp2778
S':'
asbag56
(g77
g58
NtRp2779
(dp2780
g61
(dp2781
sg70
g2766
sg63
(lp2782
g56
(g57
g58
NtRp2783
(dp2784
g61
(dp2785
g69
I3
ssg70
g2779
sg63
(lp2786
g1393
asbasbasbag56
(g72
g58
NtRp2787
(dp2788
g61
(dp2789
sg70
g2426
sg63
(lp2790
g56
(g77
g58
NtRp2791
(dp2792
g61
(dp2793
g81
g82
ssg70
g2787
sg63
(lp2794
S'SERVER_PROTOCOL'
p2795
asbag56
(g77
g58
NtRp2796
(dp2797
g61
(dp2798
g88
g89
ssg70
g2787
sg63
(lp2799
S':'
asbag56
(g77
g58
NtRp2800
(dp2801
g61
(dp2802
sg70
g2787
sg63
(lp2803
g56
(g57
g58
NtRp2804
(dp2805
g61
(dp2806
g69
I3
ssg70
g2800
sg63
(lp2807
g1415
asbasbasbag56
(g72
g58
NtRp2808
(dp2809
g61
(dp2810
sg70
g2426
sg63
(lp2811
g56
(g77
g58
NtRp2812
(dp2813
g61
(dp2814
g81
g82
ssg70
g2808
sg63
(lp2815
S'SERVER_SOFTWARE'
p2816
asbag56
(g77
g58
NtRp2817
(dp2818
g61
(dp2819
g88
g89
ssg70
g2808
sg63
(lp2820
S':'
asbag56
(g77
g58
NtRp2821
(dp2822
g61
(dp2823
sg70
g2808
sg63
(lp2824
g56
(g57
g58
NtRp2825
(dp2826
g61
(dp2827
g69
I3
ssg70
g2821
sg63
(lp2828
g1437
asbasbasbag56
(g72
g58
NtRp2829
(dp2830
g61
(dp2831
sg70
g2426
sg63
(lp2832
g56
(g77
g58
NtRp2833
(dp2834
g61
(dp2835
g81
g82
ssg70
g2829
sg63
(lp2836
S'wsgi.errors'
p2837
asbag56
(g77
g58
NtRp2838
(dp2839
g61
(dp2840
g88
g89
ssg70
g2829
sg63
(lp2841
S':'
asbag56
(g77
g58
NtRp2842
(dp2843
g61
(dp2844
sg70
g2829
sg63
(lp2845
g56
(g57
g58
NtRp2846
(dp2847
g61
(dp2848
g69
I3
ssg70
g2842
sg63
(lp2849
S"<open file '<stderr>', mode 'w' at 0xb74190d0>"
p2850
asbasbasbag56
(g72
g58
NtRp2851
(dp2852
g61
(dp2853
sg70
g2426
sg63
(lp2854
g56
(g77
g58
NtRp2855
(dp2856
g61
(dp2857
g81
g82
ssg70
g2851
sg63
(lp2858
S'wsgi.file_wrapper'
p2859
asbag56
(g77
g58
NtRp2860
(dp2861
g61
(dp2862
g88
g89
ssg70
g2851
sg63
(lp2863
S':'
asbag56
(g77
g58
NtRp2864
(dp2865
g61
(dp2866
sg70
g2851
sg63
(lp2867
g56
(g57
g58
NtRp2868
(dp2869
g61
(dp2870
g69
I3
ssg70
g2864
sg63
(lp2871
S'<class wsgiref.util.FileWrapper at 0x9231f5c>'
p2872
asbasbasbag56
(g72
g58
NtRp2873
(dp2874
g61
(dp2875
sg70
g2426
sg63
(lp2876
g56
(g77
g58
NtRp2877
(dp2878
g61
(dp2879
g81
g82
ssg70
g2873
sg63
(lp2880
S'wsgi.input'
p2881
asbag56
(g77
g58
NtRp2882
(dp2883
g61
(dp2884
g88
g89
ssg70
g2873
sg63
(lp2885
S':'
asbag56
(g77
g58
NtRp2886
(dp2887
g61
(dp2888
sg70
g2873
sg63
(lp2889
g56
(g57
g58
NtRp2890
(dp2891
g61
(dp2892
g69
I3
ssg70
g2886
sg63
(lp2893
S'<cStringIO.StringO object at 0xa1d6e40>'
p2894
asbasbasbag56
(g72
g58
NtRp2895
(dp2896
g61
(dp2897
sg70
g2426
sg63
(lp2898
g56
(g77
g58
NtRp2899
(dp2900
g61
(dp2901
g81
g82
ssg70
g2895
sg63
(lp2902
S'wsgi.multiprocess'
p2903
asbag56
(g77
g58
NtRp2904
(dp2905
g61
(dp2906
g88
g89
ssg70
g2895
sg63
(lp2907
S':'
asbag56
(g77
g58
NtRp2908
(dp2909
g61
(dp2910
sg70
g2895
sg63
(lp2911
g56
(g57
g58
NtRp2912
(dp2913
g61
(dp2914
g69
I3
ssg70
g2908
sg63
(lp2915
g99
asbasbasbag56
(g72
g58
NtRp2916
(dp2917
g61
(dp2918
sg70
g2426
sg63
(lp2919
g56
(g77
g58
NtRp2920
(dp2921
g61
(dp2922
g81
g82
ssg70
g2916
sg63
(lp2923
S'wsgi.multithread'
p2924
asbag56
(g77
g58
NtRp2925
(dp2926
g61
(dp2927
g88
g89
ssg70
g2916
sg63
(lp2928
S':'
asbag56
(g77
g58
NtRp2929
(dp2930
g61
(dp2931
sg70
g2916
sg63
(lp2932
g56
(g57
g58
NtRp2933
(dp2934
g61
(dp2935
g69
I3
ssg70
g2929
sg63
(lp2936
g1677
asbasbasbag56
(g72
g58
NtRp2937
(dp2938
g61
(dp2939
sg70
g2426
sg63
(lp2940
g56
(g77
g58
NtRp2941
(dp2942
g61
(dp2943
g81
g82
ssg70
g2937
sg63
(lp2944
S'wsgi.run_once'
p2945
asbag56
(g77
g58
NtRp2946
(dp2947
g61
(dp2948
g88
g89
ssg70
g2937
sg63
(lp2949
S':'
asbag56
(g77
g58
NtRp2950
(dp2951
g61
(dp2952
sg70
g2937
sg63
(lp2953
g56
(g57
g58
NtRp2954
(dp2955
g61
(dp2956
g69
I3
ssg70
g2950
sg63
(lp2957
g99
asbasbasbag56
(g72
g58
NtRp2958
(dp2959
g61
(dp2960
sg70
g2426
sg63
(lp2961
g56
(g77
g58
NtRp2962
(dp2963
g61
(dp2964
g81
g82
ssg70
g2958
sg63
(lp2965
S'wsgi.url_scheme'
p2966
asbag56
(g77
g58
NtRp2967
(dp2968
g61
(dp2969
g88
g89
ssg70
g2958
sg63
(lp2970
S':'
asbag56
(g77
g58
NtRp2971
(dp2972
g61
(dp2973
sg70
g2958
sg63
(lp2974
g56
(g57
g58
NtRp2975
(dp2976
g61
(dp2977
g69
I3
ssg70
g2971
sg63
(lp2978
g1720
asbasbasbag56
(g72
g58
NtRp2979
(dp2980
g61
(dp2981
sg70
g2426
sg63
(lp2982
g56
(g77
g58
NtRp2983
(dp2984
g61
(dp2985
g81
g82
ssg70
g2979
sg63
(lp2986
S'wsgi.version'
p2987
asbag56
(g77
g58
NtRp2988
(dp2989
g61
(dp2990
g88
g89
ssg70
g2979
sg63
(lp2991
S':'
asbag56
(g77
g58
NtRp2992
(dp2993
g61
(dp2994
sg70
g2979
sg63
(lp2995
g56
(g57
g58
NtRp2996
(dp2997
g61
(dp2998
g69
I3
ssg70
g2992
sg63
(lp2999
S'1'
asbasbasbasbasbasbasbasbasbasbasbasbasbsS'frames'
p3000
(lp3001
(dp3002
S'file'
p3003
S'/home/arpita/courses/sem3/ssad/web2py/gluon/restricted.py'
p3004
sS'dump'
p3005
(dp3006
S'environment'
p3007
S"{'A': <class 'gluon.html.A'>, 'Auth': <class 'gluon.tools.Auth'>, 'B': <class 'gluon.html.B'>, 'BEAUTIFY': <class 'gluon.html.BEAUTIFY'>, 'BODY': <class 'gluon.html.BODY'>, 'BR': <class 'gluon.html.BR'>, 'BUTTON': <class 'gluon.html.BUTTON'>, 'CAT': <class 'gluon.html.CAT'>, 'CENTER': <class 'gluon.html.CENTER'>, 'CLEANUP': <class 'gluon.validators.CLEANUP'>, ...}"
p3008
sS'ccode'
p3009
S'<code object <module> at 0x9ef2530, file "/home/...cations/project/controllers/default.py", line 11>'
p3010
ssS'lnum'
p3011
I205
sS'lines'
p3012
(dp3013
I200
S'    try:'
p3014
sI201
S'        if type(code) == types.CodeType:'
p3015
sI202
S'            ccode = code'
p3016
sI203
S'        else:'
p3017
sI204
S'            ccode = compile2(code,layer)'
p3018
sI205
S'        exec ccode in environment'
p3019
sI206
S'    except HTTP:'
p3020
sI207
S'        raise'
p3021
sI208
S'    except RestrictedError:'
p3022
sI209
S'        # do not encapsulate (obfuscate) the original RestrictedError'
p3023
ssS'call'
p3024
S"(code='# -*- coding: utf-8 -*-\\n# this file is released ...p,q=q)\\n\\nresponse._vars=response._caller(kruskal)\\n', environment={'A': <class 'gluon.html.A'>, 'Auth': <class 'gluon.tools.Auth'>, 'B': <class 'gluon.html.B'>, 'BEAUTIFY': <class 'gluon.html.BEAUTIFY'>, 'BODY': <class 'gluon.html.BODY'>, 'BR': <class 'gluon.html.BR'>, 'BUTTON': <class 'gluon.html.BUTTON'>, 'CAT': <class 'gluon.html.CAT'>, 'CENTER': <class 'gluon.html.CENTER'>, 'CLEANUP': <class 'gluon.validators.CLEANUP'>, ...}, layer='/home/arpita/courses/sem3/ssad/web2py/applications/project/controllers/default.py')"
p3025
sS'func'
p3026
S'restricted'
p3027
sa(dp3028
g3003
S'/home/arpita/courses/sem3/ssad/web2py/applications/project/controllers/default.py'
p3029
sg3005
(dp3030
sg3011
I147
sg3012
(dp3031
I136
S'                           k=k+1'
p3032
sI137
S"    file = open('applications/project/controllers/myfile.txt','w')"
p3033
sI138
S'    for i in xrange(counts+1):'
p3034
sI139
S"        file = open('applications/project/controllers/myfile.txt','a')"
p3035
sI140
S'        for j in xrange(k+1):'
p3036
sI141
S'             if p[j]==i:'
p3037
sI142
S"                file.write('parent=p[j]')"
p3038
sI143
S"                file.write('children=q[j]')"
p3039
sI144
S'                file.close()'
p3040
sI145
S'    return dict(p=p,q=q)'
p3041
ssg3024
S'()'
p3042
sg3026
S'<module>'
p3043
sa(dp3044
g3003
S'/home/arpita/courses/sem3/ssad/web2py/gluon/globals.py'
p3045
sg3005
(dp3046
S'self'
p3047
S'undefined'
p3048
sS'f'
S'<function kruskal>'
p3049
ssg3011
I173
sg3012
(dp3050
I168
S'        self.menu = []             # used by the default view layout'
p3051
sI169
S'        self.files = []            # used by web2py_ajax.html'
p3052
sI170
S'        self.generic_patterns = [] # patterns to allow generic views'
p3053
sI171
S"        self.delimiters = ('{{','}}')"
p3054
sI172
S'        self._vars = None'
p3055
sI173
S'        self._caller = lambda f: f()'
p3056
sI174
S'        self._view_environment = None'
p3057
sI175
S'        self._custom_commit = None'
p3058
sI176
S'        self._custom_rollback = None'
p3059
sI177
S''
ssg3024
S'(f=<function kruskal>)'
p3060
sg3026
S'<lambda>'
p3061
sa(dp3062
g3003
S'/home/arpita/courses/sem3/ssad/web2py/applications/project/controllers/default.py'
p3063
sg3005
(dp3064
S'i'
S'0'
sS'j'
S'8'
sS'global p'
p3065
S'{0: 1, 1: 1, 2: 1, 3: 1, 4: 2, 5: 4, 6: 5, 7: 7}'
p3066
ssg3011
I141
sg3012
(dp3067
I136
S'                           k=k+1'
p3068
sI137
S"    file = open('applications/project/controllers/myfile.txt','w')"
p3069
sI138
S'    for i in xrange(counts+1):'
p3070
sI139
S"        file = open('applications/project/controllers/myfile.txt','a')"
p3071
sI140
S'        for j in xrange(k+1):'
p3072
sI141
S'             if p[j]==i:'
p3073
sI142
S"                file.write('parent=p[j]')"
p3074
sI143
S"                file.write('children=q[j]')"
p3075
sI144
S'                file.close()'
p3076
sI145
S'    return dict(p=p,q=q)'
p3077
ssg3024
S'()'
p3078
sg3026
S'kruskal'
p3079
sasS'pyver'
p3080
S'Python 2.7.2+: /usr/bin/python'
p3081
sS'session'
p3082
g56
(g57
g58
NtRp3083
(dp3084
g61
(dp3085
sg63
(lp3086
g56
(g65
g58
NtRp3087
(dp3088
g61
(dp3089
g69
I5
ssg70
Nsg63
(lp3090
g56
(g72
g58
NtRp3091
(dp3092
g61
(dp3093
sg70
g3087
sg63
(lp3094
g56
(g77
g58
NtRp3095
(dp3096
g61
(dp3097
g81
g82
ssg70
g3091
sg63
(lp3098
S'auth'
p3099
asbag56
(g77
g58
NtRp3100
(dp3101
g61
(dp3102
g88
g89
ssg70
g3091
sg63
(lp3103
S':'
asbag56
(g77
g58
NtRp3104
(dp3105
g61
(dp3106
sg70
g3091
sg63
(lp3107
g56
(g57
g58
NtRp3108
(dp3109
g61
(dp3110
g69
I5
ssg70
g3104
sg63
(lp3111
g56
(g65
g58
NtRp3112
(dp3113
g61
(dp3114
g69
I4
ssg70
Nsg63
(lp3115
g56
(g72
g58
NtRp3116
(dp3117
g61
(dp3118
sg70
g3112
sg63
(lp3119
g56
(g77
g58
NtRp3120
(dp3121
g61
(dp3122
g81
g82
ssg70
g3116
sg63
(lp3123
S'expiration'
p3124
asbag56
(g77
g58
NtRp3125
(dp3126
g61
(dp3127
g88
g89
ssg70
g3116
sg63
(lp3128
S':'
asbag56
(g77
g58
NtRp3129
(dp3130
g61
(dp3131
sg70
g3116
sg63
(lp3132
g56
(g57
g58
NtRp3133
(dp3134
g61
(dp3135
g69
I4
ssg70
g3129
sg63
(lp3136
S'3600'
p3137
asbasbasbag56
(g72
g58
NtRp3138
(dp3139
g61
(dp3140
sg70
g3112
sg63
(lp3141
g56
(g77
g58
NtRp3142
(dp3143
g61
(dp3144
g81
g82
ssg70
g3138
sg63
(lp3145
S'hmac_key'
p3146
asbag56
(g77
g58
NtRp3147
(dp3148
g61
(dp3149
g88
g89
ssg70
g3138
sg63
(lp3150
S':'
asbag56
(g77
g58
NtRp3151
(dp3152
g61
(dp3153
sg70
g3138
sg63
(lp3154
g56
(g57
g58
NtRp3155
(dp3156
g61
(dp3157
g69
I4
ssg70
g3151
sg63
(lp3158
S'ee259152-1826-4e17-9658-bb6e34efdeea'
p3159
asbasbasbag56
(g72
g58
NtRp3160
(dp3161
g61
(dp3162
sg70
g3112
sg63
(lp3163
g56
(g77
g58
NtRp3164
(dp3165
g61
(dp3166
g81
g82
ssg70
g3160
sg63
(lp3167
S'last_visit'
p3168
asbag56
(g77
g58
NtRp3169
(dp3170
g61
(dp3171
g88
g89
ssg70
g3160
sg63
(lp3172
S':'
asbag56
(g77
g58
NtRp3173
(dp3174
g61
(dp3175
sg70
g3160
sg63
(lp3176
g56
(g57
g58
NtRp3177
(dp3178
g61
(dp3179
g69
I4
ssg70
g3173
sg63
(lp3180
S'datetime.datetime(2012, 11, 6, 6, 10, 29, 981692)'
p3181
asbasbasbag56
(g72
g58
NtRp3182
(dp3183
g61
(dp3184
sg70
g3112
sg63
(lp3185
g56
(g77
g58
NtRp3186
(dp3187
g61
(dp3188
g81
g82
ssg70
g3182
sg63
(lp3189
S'remember'
p3190
asbag56
(g77
g58
NtRp3191
(dp3192
g61
(dp3193
g88
g89
ssg70
g3182
sg63
(lp3194
S':'
asbag56
(g77
g58
NtRp3195
(dp3196
g61
(dp3197
sg70
g3182
sg63
(lp3198
g56
(g57
g58
NtRp3199
(dp3200
g61
(dp3201
g69
I4
ssg70
g3195
sg63
(lp3202
g99
asbasbasbag56
(g72
g58
NtRp3203
(dp3204
g61
(dp3205
sg70
g3112
sg63
(lp3206
g56
(g77
g58
NtRp3207
(dp3208
g61
(dp3209
g81
g82
ssg70
g3203
sg63
(lp3210
S'user'
p3211
asbag56
(g77
g58
NtRp3212
(dp3213
g61
(dp3214
g88
g89
ssg70
g3203
sg63
(lp3215
S':'
asbag56
(g77
g58
NtRp3216
(dp3217
g61
(dp3218
sg70
g3203
sg63
(lp3219
g56
(g57
g58
NtRp3220
(dp3221
g61
(dp3222
g69
I4
ssg70
g3216
sg63
(lp3223
g56
(g65
g58
NtRp3224
(dp3225
g61
(dp3226
g69
I3
ssg70
Nsg63
(lp3227
g56
(g72
g58
NtRp3228
(dp3229
g61
(dp3230
sg70
g3224
sg63
(lp3231
g56
(g77
g58
NtRp3232
(dp3233
g61
(dp3234
g81
g82
ssg70
g3228
sg63
(lp3235
S'email'
p3236
asbag56
(g77
g58
NtRp3237
(dp3238
g61
(dp3239
g88
g89
ssg70
g3228
sg63
(lp3240
S':'
asbag56
(g77
g58
NtRp3241
(dp3242
g61
(dp3243
sg70
g3228
sg63
(lp3244
g56
(g57
g58
NtRp3245
(dp3246
g61
(dp3247
g69
I3
ssg70
g3241
sg63
(lp3248
S'rammurthy@faculty.iiit.ac.in'
p3249
asbasbasbag56
(g72
g58
NtRp3250
(dp3251
g61
(dp3252
sg70
g3224
sg63
(lp3253
g56
(g77
g58
NtRp3254
(dp3255
g61
(dp3256
g81
g82
ssg70
g3250
sg63
(lp3257
S'first_name'
p3258
asbag56
(g77
g58
NtRp3259
(dp3260
g61
(dp3261
g88
g89
ssg70
g3250
sg63
(lp3262
S':'
asbag56
(g77
g58
NtRp3263
(dp3264
g61
(dp3265
sg70
g3250
sg63
(lp3266
g56
(g57
g58
NtRp3267
(dp3268
g61
(dp3269
g69
I3
ssg70
g3263
sg63
(lp3270
S'rammurthy'
p3271
asbasbasbag56
(g72
g58
NtRp3272
(dp3273
g61
(dp3274
sg70
g3224
sg63
(lp3275
g56
(g77
g58
NtRp3276
(dp3277
g61
(dp3278
g81
g82
ssg70
g3272
sg63
(lp3279
S'id'
p3280
asbag56
(g77
g58
NtRp3281
(dp3282
g61
(dp3283
g88
g89
ssg70
g3272
sg63
(lp3284
S':'
asbag56
(g77
g58
NtRp3285
(dp3286
g61
(dp3287
sg70
g3272
sg63
(lp3288
g56
(g57
g58
NtRp3289
(dp3290
g61
(dp3291
g69
I3
ssg70
g3285
sg63
(lp3292
S'1'
asbasbasbag56
(g72
g58
NtRp3293
(dp3294
g61
(dp3295
sg70
g3224
sg63
(lp3296
g56
(g77
g58
NtRp3297
(dp3298
g61
(dp3299
g81
g82
ssg70
g3293
sg63
(lp3300
S'last_name'
p3301
asbag56
(g77
g58
NtRp3302
(dp3303
g61
(dp3304
g88
g89
ssg70
g3293
sg63
(lp3305
S':'
asbag56
(g77
g58
NtRp3306
(dp3307
g61
(dp3308
sg70
g3293
sg63
(lp3309
g56
(g57
g58
NtRp3310
(dp3311
g61
(dp3312
g69
I3
ssg70
g3306
sg63
(lp3313
S'sir'
p3314
asbasbasbag56
(g72
g58
NtRp3315
(dp3316
g61
(dp3317
sg70
g3224
sg63
(lp3318
g56
(g77
g58
NtRp3319
(dp3320
g61
(dp3321
g81
g82
ssg70
g3315
sg63
(lp3322
S'password'
p3323
asbag56
(g77
g58
NtRp3324
(dp3325
g61
(dp3326
g88
g89
ssg70
g3315
sg63
(lp3327
S':'
asbag56
(g77
g58
NtRp3328
(dp3329
g61
(dp3330
sg70
g3315
sg63
(lp3331
g56
(g57
g58
NtRp3332
(dp3333
g61
(dp3334
g69
I3
ssg70
g3328
sg63
(lp3335
S'9da56e6636f0f89c2a2b7b54a400c423'
p3336
asbasbasbag56
(g72
g58
NtRp3337
(dp3338
g61
(dp3339
sg70
g3224
sg63
(lp3340
g56
(g77
g58
NtRp3341
(dp3342
g61
(dp3343
g81
g82
ssg70
g3337
sg63
(lp3344
S'registration_id'
p3345
asbag56
(g77
g58
NtRp3346
(dp3347
g61
(dp3348
g88
g89
ssg70
g3337
sg63
(lp3349
S':'
asbag56
(g77
g58
NtRp3350
(dp3351
g61
(dp3352
sg70
g3337
sg63
(lp3353
g56
(g57
g58
NtRp3354
(dp3355
g61
(dp3356
g69
I3
ssg70
g3350
sg63
(lp3357
S''
asbasbasbag56
(g72
g58
NtRp3358
(dp3359
g61
(dp3360
sg70
g3224
sg63
(lp3361
g56
(g77
g58
NtRp3362
(dp3363
g61
(dp3364
g81
g82
ssg70
g3358
sg63
(lp3365
S'registration_key'
p3366
asbag56
(g77
g58
NtRp3367
(dp3368
g61
(dp3369
g88
g89
ssg70
g3358
sg63
(lp3370
S':'
asbag56
(g77
g58
NtRp3371
(dp3372
g61
(dp3373
sg70
g3358
sg63
(lp3374
g56
(g57
g58
NtRp3375
(dp3376
g61
(dp3377
g69
I3
ssg70
g3371
sg63
(lp3378
S''
asbasbasbag56
(g72
g58
NtRp3379
(dp3380
g61
(dp3381
sg70
g3224
sg63
(lp3382
g56
(g77
g58
NtRp3383
(dp3384
g61
(dp3385
g81
g82
ssg70
g3379
sg63
(lp3386
S'reset_password_key'
p3387
asbag56
(g77
g58
NtRp3388
(dp3389
g61
(dp3390
g88
g89
ssg70
g3379
sg63
(lp3391
S':'
asbag56
(g77
g58
NtRp3392
(dp3393
g61
(dp3394
sg70
g3379
sg63
(lp3395
g56
(g57
g58
NtRp3396
(dp3397
g61
(dp3398
g69
I3
ssg70
g3392
sg63
(lp3399
S''
asbasbasbasbasbasbasbag56
(g72
g58
NtRp3400
(dp3401
g61
(dp3402
sg70
g3112
sg63
(lp3403
g56
(g77
g58
NtRp3404
(dp3405
g61
(dp3406
g81
g82
ssg70
g3400
sg63
(lp3407
S'user_groups'
p3408
asbag56
(g77
g58
NtRp3409
(dp3410
g61
(dp3411
g88
g89
ssg70
g3400
sg63
(lp3412
S':'
asbag56
(g77
g58
NtRp3413
(dp3414
g61
(dp3415
sg70
g3400
sg63
(lp3416
g56
(g57
g58
NtRp3417
(dp3418
g61
(dp3419
g69
I4
ssg70
g3413
sg63
(lp3420
g56
(g65
g58
NtRp3421
(dp3422
g61
(dp3423
g69
I3
ssg70
Nsg63
(lp3424
g56
(g72
g58
NtRp3425
(dp3426
g61
(dp3427
sg70
g3421
sg63
(lp3428
g56
(g77
g58
NtRp3429
(dp3430
g61
(dp3431
g81
g82
ssg70
g3425
sg63
(lp3432
S'1'
asbag56
(g77
g58
NtRp3433
(dp3434
g61
(dp3435
g88
g89
ssg70
g3425
sg63
(lp3436
S':'
asbag56
(g77
g58
NtRp3437
(dp3438
g61
(dp3439
sg70
g3425
sg63
(lp3440
g56
(g57
g58
NtRp3441
(dp3442
g61
(dp3443
g69
I3
ssg70
g3437
sg63
(lp3444
S'user_1'
p3445
asbasbasbag56
(g72
g58
NtRp3446
(dp3447
g61
(dp3448
sg70
g3421
sg63
(lp3449
g56
(g77
g58
NtRp3450
(dp3451
g61
(dp3452
g81
g82
ssg70
g3446
sg63
(lp3453
S'2'
asbag56
(g77
g58
NtRp3454
(dp3455
g61
(dp3456
g88
g89
ssg70
g3446
sg63
(lp3457
S':'
asbag56
(g77
g58
NtRp3458
(dp3459
g61
(dp3460
sg70
g3446
sg63
(lp3461
g56
(g57
g58
NtRp3462
(dp3463
g61
(dp3464
g69
I3
ssg70
g3458
sg63
(lp3465
S'Administrator'
p3466
asbasbasbasbasbasbasbasbasbasbasbasbasbsS'etype'
p3467
S"<type 'exceptions.KeyError'>"
p3468
sS'date'
p3469
S'Tue Nov  6 06:10:33 2012'
p3470
sS'response'
p3471
g56
(g57
g58
NtRp3472
(dp3473
g61
(dp3474
sg63
(lp3475
g56
(g65
g58
NtRp3476
(dp3477
g61
(dp3478
g69
I5
ssg70
Nsg63
(lp3479
g56
(g72
g58
NtRp3480
(dp3481
g61
(dp3482
sg70
g3476
sg63
(lp3483
g56
(g77
g58
NtRp3484
(dp3485
g61
(dp3486
g81
g82
ssg70
g3480
sg63
(lp3487
g154
asbag56
(g77
g58
NtRp3488
(dp3489
g61
(dp3490
g88
g89
ssg70
g3480
sg63
(lp3491
S':'
asbag56
(g77
g58
NtRp3492
(dp3493
g61
(dp3494
sg70
g3480
sg63
(lp3495
g56
(g57
g58
NtRp3496
(dp3497
g61
(dp3498
g69
I5
ssg70
g3492
sg63
(lp3499
S'<cStringIO.StringO object at 0x9718900>'
p3500
asbasbasbag56
(g72
g58
NtRp3501
(dp3502
g61
(dp3503
sg70
g3476
sg63
(lp3504
g56
(g77
g58
NtRp3505
(dp3506
g61
(dp3507
g81
g82
ssg70
g3501
sg63
(lp3508
g220
asbag56
(g77
g58
NtRp3509
(dp3510
g61
(dp3511
g88
g89
ssg70
g3501
sg63
(lp3512
S':'
asbag56
(g77
g58
NtRp3513
(dp3514
g61
(dp3515
sg70
g3501
sg63
(lp3516
g56
(g57
g58
NtRp3517
(dp3518
g61
(dp3519
g69
I5
ssg70
g3513
sg63
(lp3520
g56
(g65
g58
NtRp3521
(dp3522
g61
(dp3523
g69
I4
ssg70
Nsg63
(lp3524
g56
(g72
g58
NtRp3525
(dp3526
g61
(dp3527
sg70
g3521
sg63
(lp3528
g56
(g77
g58
NtRp3529
(dp3530
g61
(dp3531
g81
g82
ssg70
g3525
sg63
(lp3532
S'session_id_project'
p3533
asbag56
(g77
g58
NtRp3534
(dp3535
g61
(dp3536
g88
g89
ssg70
g3525
sg63
(lp3537
S':'
asbag56
(g77
g58
NtRp3538
(dp3539
g61
(dp3540
sg70
g3525
sg63
(lp3541
g56
(g57
g58
NtRp3542
(dp3543
g61
(dp3544
g69
I4
ssg70
g3538
sg63
(lp3545
g56
(g65
g58
NtRp3546
(dp3547
g61
(dp3548
g69
I3
ssg70
Nsg63
(lp3549
g56
(g72
g58
NtRp3550
(dp3551
g61
(dp3552
sg70
g3546
sg63
(lp3553
g56
(g77
g58
NtRp3554
(dp3555
g61
(dp3556
g81
g82
ssg70
g3550
sg63
(lp3557
g270
asbag56
(g77
g58
NtRp3558
(dp3559
g61
(dp3560
g88
g89
ssg70
g3550
sg63
(lp3561
S':'
asbag56
(g77
g58
NtRp3562
(dp3563
g61
(dp3564
sg70
g3550
sg63
(lp3565
g56
(g57
g58
NtRp3566
(dp3567
g61
(dp3568
g69
I3
ssg70
g3562
sg63
(lp3569
S''
asbasbasbag56
(g72
g58
NtRp3570
(dp3571
g61
(dp3572
sg70
g3546
sg63
(lp3573
g56
(g77
g58
NtRp3574
(dp3575
g61
(dp3576
g81
g82
ssg70
g3570
sg63
(lp3577
g291
asbag56
(g77
g58
NtRp3578
(dp3579
g61
(dp3580
g88
g89
ssg70
g3570
sg63
(lp3581
S':'
asbag56
(g77
g58
NtRp3582
(dp3583
g61
(dp3584
sg70
g3570
sg63
(lp3585
g56
(g57
g58
NtRp3586
(dp3587
g61
(dp3588
g69
I3
ssg70
g3582
sg63
(lp3589
S''
asbasbasbag56
(g72
g58
NtRp3590
(dp3591
g61
(dp3592
sg70
g3546
sg63
(lp3593
g56
(g77
g58
NtRp3594
(dp3595
g61
(dp3596
g81
g82
ssg70
g3590
sg63
(lp3597
g312
asbag56
(g77
g58
NtRp3598
(dp3599
g61
(dp3600
g88
g89
ssg70
g3590
sg63
(lp3601
S':'
asbag56
(g77
g58
NtRp3602
(dp3603
g61
(dp3604
sg70
g3590
sg63
(lp3605
g56
(g57
g58
NtRp3606
(dp3607
g61
(dp3608
g69
I3
ssg70
g3602
sg63
(lp3609
S''
asbasbasbag56
(g72
g58
NtRp3610
(dp3611
g61
(dp3612
sg70
g3546
sg63
(lp3613
g56
(g77
g58
NtRp3614
(dp3615
g61
(dp3616
g81
g82
ssg70
g3610
sg63
(lp3617
g333
asbag56
(g77
g58
NtRp3618
(dp3619
g61
(dp3620
g88
g89
ssg70
g3610
sg63
(lp3621
S':'
asbag56
(g77
g58
NtRp3622
(dp3623
g61
(dp3624
sg70
g3610
sg63
(lp3625
g56
(g57
g58
NtRp3626
(dp3627
g61
(dp3628
g69
I3
ssg70
g3622
sg63
(lp3629
S''
asbasbasbag56
(g72
g58
NtRp3630
(dp3631
g61
(dp3632
sg70
g3546
sg63
(lp3633
g56
(g77
g58
NtRp3634
(dp3635
g61
(dp3636
g81
g82
ssg70
g3630
sg63
(lp3637
g354
asbag56
(g77
g58
NtRp3638
(dp3639
g61
(dp3640
g88
g89
ssg70
g3630
sg63
(lp3641
S':'
asbag56
(g77
g58
NtRp3642
(dp3643
g61
(dp3644
sg70
g3630
sg63
(lp3645
g56
(g57
g58
NtRp3646
(dp3647
g61
(dp3648
g69
I3
ssg70
g3642
sg63
(lp3649
S''
asbasbasbag56
(g72
g58
NtRp3650
(dp3651
g61
(dp3652
sg70
g3546
sg63
(lp3653
g56
(g77
g58
NtRp3654
(dp3655
g61
(dp3656
g81
g82
ssg70
g3650
sg63
(lp3657
g375
asbag56
(g77
g58
NtRp3658
(dp3659
g61
(dp3660
g88
g89
ssg70
g3650
sg63
(lp3661
S':'
asbag56
(g77
g58
NtRp3662
(dp3663
g61
(dp3664
sg70
g3650
sg63
(lp3665
g56
(g57
g58
NtRp3666
(dp3667
g61
(dp3668
g69
I3
ssg70
g3662
sg63
(lp3669
S'/'
asbasbasbag56
(g72
g58
NtRp3670
(dp3671
g61
(dp3672
sg70
g3546
sg63
(lp3673
g56
(g77
g58
NtRp3674
(dp3675
g61
(dp3676
g81
g82
ssg70
g3670
sg63
(lp3677
g396
asbag56
(g77
g58
NtRp3678
(dp3679
g61
(dp3680
g88
g89
ssg70
g3670
sg63
(lp3681
S':'
asbag56
(g77
g58
NtRp3682
(dp3683
g61
(dp3684
sg70
g3670
sg63
(lp3685
g56
(g57
g58
NtRp3686
(dp3687
g61
(dp3688
g69
I3
ssg70
g3682
sg63
(lp3689
S''
asbasbasbag56
(g72
g58
NtRp3690
(dp3691
g61
(dp3692
sg70
g3546
sg63
(lp3693
g56
(g77
g58
NtRp3694
(dp3695
g61
(dp3696
g81
g82
ssg70
g3690
sg63
(lp3697
g417
asbag56
(g77
g58
NtRp3698
(dp3699
g61
(dp3700
g88
g89
ssg70
g3690
sg63
(lp3701
S':'
asbag56
(g77
g58
NtRp3702
(dp3703
g61
(dp3704
sg70
g3690
sg63
(lp3705
g56
(g57
g58
NtRp3706
(dp3707
g61
(dp3708
g69
I3
ssg70
g3702
sg63
(lp3709
S''
asbasbasbasbasbasbasbasbasbasbasbag56
(g72
g58
NtRp3710
(dp3711
g61
(dp3712
sg70
g3476
sg63
(lp3713
g56
(g77
g58
NtRp3714
(dp3715
g61
(dp3716
g81
g82
ssg70
g3710
sg63
(lp3717
S'delimiters'
p3718
asbag56
(g77
g58
NtRp3719
(dp3720
g61
(dp3721
g88
g89
ssg70
g3710
sg63
(lp3722
S':'
asbag56
(g77
g58
NtRp3723
(dp3724
g61
(dp3725
sg70
g3710
sg63
(lp3726
g56
(g57
g58
NtRp3727
(dp3728
g61
(dp3729
g69
I5
ssg70
g3723
sg63
(lp3730
g56
(g65
g58
NtRp3731
(dp3732
g61
(dp3733
g69
I4
ssg70
Nsg63
(lp3734
g56
(g72
g58
NtRp3735
(dp3736
g61
(dp3737
sg70
g3731
sg63
(lp3738
g56
(g77
g58
NtRp3739
(dp3740
g61
(dp3741
sg70
g3735
sg63
(lp3742
g56
(g57
g58
NtRp3743
(dp3744
g61
(dp3745
g69
I4
ssg70
g3739
sg63
(lp3746
S'{{'
p3747
asbasbasbag56
(g72
g58
NtRp3748
(dp3749
g61
(dp3750
sg70
g3731
sg63
(lp3751
g56
(g77
g58
NtRp3752
(dp3753
g61
(dp3754
sg70
g3748
sg63
(lp3755
g56
(g57
g58
NtRp3756
(dp3757
g61
(dp3758
g69
I4
ssg70
g3752
sg63
(lp3759
S'}}'
p3760
asbasbasbasbasbasbasbag56
(g72
g58
NtRp3761
(dp3762
g61
(dp3763
sg70
g3476
sg63
(lp3764
g56
(g77
g58
NtRp3765
(dp3766
g61
(dp3767
g81
g82
ssg70
g3761
sg63
(lp3768
S'files'
p3769
asbag56
(g77
g58
NtRp3770
(dp3771
g61
(dp3772
g88
g89
ssg70
g3761
sg63
(lp3773
S':'
asbag56
(g77
g58
NtRp3774
(dp3775
g61
(dp3776
sg70
g3761
sg63
(lp3777
g56
(g57
g58
NtRp3778
(dp3779
g61
(dp3780
g69
I5
ssg70
g3774
sg63
(lp3781
g56
(g65
g58
NtRp3782
(dp3783
g61
(dp3784
g69
I4
ssg70
Nsg63
(lp3785
sbasbasbasbag56
(g72
g58
NtRp3786
(dp3787
g61
(dp3788
sg70
g3476
sg63
(lp3789
g56
(g77
g58
NtRp3790
(dp3791
g61
(dp3792
g81
g82
ssg70
g3786
sg63
(lp3793
S'flash'
p3794
asbag56
(g77
g58
NtRp3795
(dp3796
g61
(dp3797
g88
g89
ssg70
g3786
sg63
(lp3798
S':'
asbag56
(g77
g58
NtRp3799
(dp3800
g61
(dp3801
sg70
g3786
sg63
(lp3802
g56
(g57
g58
NtRp3803
(dp3804
g61
(dp3805
g69
I5
ssg70
g3799
sg63
(lp3806
S''
asbasbasbag56
(g72
g58
NtRp3807
(dp3808
g61
(dp3809
sg70
g3476
sg63
(lp3810
g56
(g77
g58
NtRp3811
(dp3812
g61
(dp3813
g81
g82
ssg70
g3807
sg63
(lp3814
S'generic_patterns'
p3815
asbag56
(g77
g58
NtRp3816
(dp3817
g61
(dp3818
g88
g89
ssg70
g3807
sg63
(lp3819
S':'
asbag56
(g77
g58
NtRp3820
(dp3821
g61
(dp3822
sg70
g3807
sg63
(lp3823
g56
(g57
g58
NtRp3824
(dp3825
g61
(dp3826
g69
I5
ssg70
g3820
sg63
(lp3827
g56
(g65
g58
NtRp3828
(dp3829
g61
(dp3830
g69
I4
ssg70
Nsg63
(lp3831
g56
(g72
g58
NtRp3832
(dp3833
g61
(dp3834
sg70
g3828
sg63
(lp3835
g56
(g77
g58
NtRp3836
(dp3837
g61
(dp3838
sg70
g3832
sg63
(lp3839
g56
(g57
g58
NtRp3840
(dp3841
g61
(dp3842
g69
I4
ssg70
g3836
sg63
(lp3843
S'*'
asbasbasbasbasbasbasbag56
(g72
g58
NtRp3844
(dp3845
g61
(dp3846
sg70
g3476
sg63
(lp3847
g56
(g77
g58
NtRp3848
(dp3849
g61
(dp3850
g81
g82
ssg70
g3844
sg63
(lp3851
S'headers'
p3852
asbag56
(g77
g58
NtRp3853
(dp3854
g61
(dp3855
g88
g89
ssg70
g3844
sg63
(lp3856
S':'
asbag56
(g77
g58
NtRp3857
(dp3858
g61
(dp3859
sg70
g3844
sg63
(lp3860
g56
(g57
g58
NtRp3861
(dp3862
g61
(dp3863
g69
I5
ssg70
g3857
sg63
(lp3864
g56
(g65
g58
NtRp3865
(dp3866
g61
(dp3867
g69
I4
ssg70
Nsg63
(lp3868
g56
(g72
g58
NtRp3869
(dp3870
g61
(dp3871
sg70
g3865
sg63
(lp3872
g56
(g77
g58
NtRp3873
(dp3874
g61
(dp3875
g81
g82
ssg70
g3869
sg63
(lp3876
S'Cache-Control'
p3877
asbag56
(g77
g58
NtRp3878
(dp3879
g61
(dp3880
g88
g89
ssg70
g3869
sg63
(lp3881
S':'
asbag56
(g77
g58
NtRp3882
(dp3883
g61
(dp3884
sg70
g3869
sg63
(lp3885
g56
(g57
g58
NtRp3886
(dp3887
g61
(dp3888
g69
I4
ssg70
g3882
sg63
(lp3889
S'no-store, no-cache, must-revalidate, post-check=0, pre-check=0'
p3890
asbasbasbag56
(g72
g58
NtRp3891
(dp3892
g61
(dp3893
sg70
g3865
sg63
(lp3894
g56
(g77
g58
NtRp3895
(dp3896
g61
(dp3897
g81
g82
ssg70
g3891
sg63
(lp3898
S'Content-Type'
p3899
asbag56
(g77
g58
NtRp3900
(dp3901
g61
(dp3902
g88
g89
ssg70
g3891
sg63
(lp3903
S':'
asbag56
(g77
g58
NtRp3904
(dp3905
g61
(dp3906
sg70
g3891
sg63
(lp3907
g56
(g57
g58
NtRp3908
(dp3909
g61
(dp3910
g69
I4
ssg70
g3904
sg63
(lp3911
S'text/html; charset=utf-8'
p3912
asbasbasbag56
(g72
g58
NtRp3913
(dp3914
g61
(dp3915
sg70
g3865
sg63
(lp3916
g56
(g77
g58
NtRp3917
(dp3918
g61
(dp3919
g81
g82
ssg70
g3913
sg63
(lp3920
S'Expires'
p3921
asbag56
(g77
g58
NtRp3922
(dp3923
g61
(dp3924
g88
g89
ssg70
g3913
sg63
(lp3925
S':'
asbag56
(g77
g58
NtRp3926
(dp3927
g61
(dp3928
sg70
g3913
sg63
(lp3929
g56
(g57
g58
NtRp3930
(dp3931
g61
(dp3932
g69
I4
ssg70
g3926
sg63
(lp3933
S'Tue, 06 Nov 2012 00:40:33 GMT'
p3934
asbasbasbag56
(g72
g58
NtRp3935
(dp3936
g61
(dp3937
sg70
g3865
sg63
(lp3938
g56
(g77
g58
NtRp3939
(dp3940
g61
(dp3941
g81
g82
ssg70
g3935
sg63
(lp3942
S'Pragma'
p3943
asbag56
(g77
g58
NtRp3944
(dp3945
g61
(dp3946
g88
g89
ssg70
g3935
sg63
(lp3947
S':'
asbag56
(g77
g58
NtRp3948
(dp3949
g61
(dp3950
sg70
g3935
sg63
(lp3951
g56
(g57
g58
NtRp3952
(dp3953
g61
(dp3954
g69
I4
ssg70
g3948
sg63
(lp3955
S'no-cache'
p3956
asbasbasbag56
(g72
g58
NtRp3957
(dp3958
g61
(dp3959
sg70
g3865
sg63
(lp3960
g56
(g77
g58
NtRp3961
(dp3962
g61
(dp3963
g81
g82
ssg70
g3957
sg63
(lp3964
S'X-Powered-By'
p3965
asbag56
(g77
g58
NtRp3966
(dp3967
g61
(dp3968
g88
g89
ssg70
g3957
sg63
(lp3969
S':'
asbag56
(g77
g58
NtRp3970
(dp3971
g61
(dp3972
sg70
g3957
sg63
(lp3973
g56
(g57
g58
NtRp3974
(dp3975
g61
(dp3976
g69
I4
ssg70
g3970
sg63
(lp3977
S'web2py'
p3978
asbasbasbasbasbasbasbag56
(g72
g58
NtRp3979
(dp3980
g61
(dp3981
sg70
g3476
sg63
(lp3982
g56
(g77
g58
NtRp3983
(dp3984
g61
(dp3985
g81
g82
ssg70
g3979
sg63
(lp3986
S'menu'
p3987
asbag56
(g77
g58
NtRp3988
(dp3989
g61
(dp3990
g88
g89
ssg70
g3979
sg63
(lp3991
S':'
asbag56
(g77
g58
NtRp3992
(dp3993
g61
(dp3994
sg70
g3979
sg63
(lp3995
g56
(g57
g58
NtRp3996
(dp3997
g61
(dp3998
g69
I5
ssg70
g3992
sg63
(lp3999
g56
(g65
g58
NtRp4000
(dp4001
g61
(dp4002
g69
I4
ssg70
Nsg63
(lp4003
g56
(g72
g58
NtRp4004
(dp4005
g61
(dp4006
sg70
g4000
sg63
(lp4007
g56
(g77
g58
NtRp4008
(dp4009
g61
(dp4010
sg70
g4004
sg63
(lp4011
g56
(g57
g58
NtRp4012
(dp4013
g61
(dp4014
g69
I4
ssg70
g4008
sg63
(lp4015
g56
(g65
g58
NtRp4016
(dp4017
g61
(dp4018
g69
I3
ssg70
Nsg63
(lp4019
g56
(g72
g58
NtRp4020
(dp4021
g61
(dp4022
sg70
g4016
sg63
(lp4023
g56
(g77
g58
NtRp4024
(dp4025
g61
(dp4026
sg70
g4020
sg63
(lp4027
g56
(g57
g58
NtRp4028
(dp4029
g61
(dp4030
g69
I3
ssg70
g4024
sg63
(lp4031
cgluon.languages
lazyT_unpickle
p4032
(S't\x04\x00\x00\x00Home'
tRp4033
asbasbasbag56
(g72
g58
NtRp4034
(dp4035
g61
(dp4036
sg70
g4016
sg63
(lp4037
g56
(g77
g58
NtRp4038
(dp4039
g61
(dp4040
sg70
g4034
sg63
(lp4041
g56
(g57
g58
NtRp4042
(dp4043
g61
(dp4044
g69
I3
ssg70
g4038
sg63
(lp4045
g99
asbasbasbag56
(g72
g58
NtRp4046
(dp4047
g61
(dp4048
sg70
g4016
sg63
(lp4049
g56
(g77
g58
NtRp4050
(dp4051
g61
(dp4052
sg70
g4046
sg63
(lp4053
g56
(g57
g58
NtRp4054
(dp4055
g61
(dp4056
g69
I3
ssg70
g4050
sg63
(lp4057
S'/project/default/index'
p4058
asbasbasbag56
(g72
g58
NtRp4059
(dp4060
g61
(dp4061
sg70
g4016
sg63
(lp4062
g56
(g77
g58
NtRp4063
(dp4064
g61
(dp4065
sg70
g4059
sg63
(lp4066
g56
(g57
g58
NtRp4067
(dp4068
g61
(dp4069
g69
I3
ssg70
g4063
sg63
(lp4070
g56
(g65
g58
NtRp4071
(dp4072
g61
(dp4073
g69
I2
ssg70
Nsg63
(lp4074
sbasbasbasbasbasbasbasbag56
(g72
g58
NtRp4075
(dp4076
g61
(dp4077
sg70
g4000
sg63
(lp4078
g56
(g77
g58
NtRp4079
(dp4080
g61
(dp4081
sg70
g4075
sg63
(lp4082
g56
(g57
g58
NtRp4083
(dp4084
g61
(dp4085
g69
I4
ssg70
g4079
sg63
(lp4086
g56
(g65
g58
NtRp4087
(dp4088
g61
(dp4089
g69
I3
ssg70
Nsg63
(lp4090
g56
(g72
g58
NtRp4091
(dp4092
g61
(dp4093
sg70
g4087
sg63
(lp4094
g56
(g77
g58
NtRp4095
(dp4096
g61
(dp4097
sg70
g4091
sg63
(lp4098
g56
(g57
g58
NtRp4099
(dp4100
g61
(dp4101
g69
I3
ssg70
g4095
sg63
(lp4102
g56
(cgluon.html
SPAN
p4103
g58
NtRp4104
(dp4105
g61
(dp4106
g81
S'color:yellow'
p4107
ssg70
Nsg63
(lp4108
g3978
asbasbasbasbag56
(g72
g58
NtRp4109
(dp4110
g61
(dp4111
sg70
g4087
sg63
(lp4112
g56
(g77
g58
NtRp4113
(dp4114
g61
(dp4115
sg70
g4109
sg63
(lp4116
g56
(g57
g58
NtRp4117
(dp4118
g61
(dp4119
g69
I3
ssg70
g4113
sg63
(lp4120
g99
asbasbasbag56
(g72
g58
NtRp4121
(dp4122
g61
(dp4123
sg70
g4087
sg63
(lp4124
g56
(g77
g58
NtRp4125
(dp4126
g61
(dp4127
sg70
g4121
sg63
(lp4128
g56
(g57
g58
NtRp4129
(dp4130
g61
(dp4131
g69
I3
ssg70
g4125
sg63
(lp4132
S'None'
p4133
asbasbasbag56
(g72
g58
NtRp4134
(dp4135
g61
(dp4136
sg70
g4087
sg63
(lp4137
g56
(g77
g58
NtRp4138
(dp4139
g61
(dp4140
sg70
g4134
sg63
(lp4141
g56
(g57
g58
NtRp4142
(dp4143
g61
(dp4144
g69
I3
ssg70
g4138
sg63
(lp4145
g56
(g65
g58
NtRp4146
(dp4147
g61
(dp4148
g69
I2
ssg70
Nsg63
(lp4149
g56
(g72
g58
NtRp4150
(dp4151
g61
(dp4152
sg70
g4146
sg63
(lp4153
g56
(g77
g58
NtRp4154
(dp4155
g61
(dp4156
sg70
g4150
sg63
(lp4157
g56
(g57
g58
NtRp4158
(dp4159
g61
(dp4160
g69
I2
ssg70
g4154
sg63
(lp4161
g56
(g65
g58
NtRp4162
(dp4163
g61
(dp4164
g69
I1
ssg70
Nsg63
(lp4165
g56
(g72
g58
NtRp4166
(dp4167
g61
(dp4168
sg70
g4162
sg63
(lp4169
g56
(g77
g58
NtRp4170
(dp4171
g61
(dp4172
sg70
g4166
sg63
(lp4173
g56
(g57
g58
NtRp4174
(dp4175
g61
(dp4176
g69
I1
ssg70
g4170
sg63
(lp4177
g4032
(S's\x08\x00\x00\x00My Sites'
tRp4178
asbasbasbag56
(g72
g58
NtRp4179
(dp4180
g61
(dp4181
sg70
g4162
sg63
(lp4182
g56
(g77
g58
NtRp4183
(dp4184
g61
(dp4185
sg70
g4179
sg63
(lp4186
g56
(g57
g58
NtRp4187
(dp4188
g61
(dp4189
g69
I1
ssg70
g4183
sg63
(lp4190
I00
asbasbasbag56
(g72
g58
NtRp4191
(dp4192
g61
(dp4193
sg70
g4162
sg63
(lp4194
g56
(g77
g58
NtRp4195
(dp4196
g61
(dp4197
sg70
g4191
sg63
(lp4198
g56
(g57
g58
NtRp4199
(dp4200
g61
(dp4201
g69
I1
ssg70
g4195
sg63
(lp4202
S'/admin/default/site'
p4203
asbasbasbasbasbasbasbag56
(g72
g58
NtRp4204
(dp4205
g61
(dp4206
sg70
g4146
sg63
(lp4207
g56
(g77
g58
NtRp4208
(dp4209
g61
(dp4210
sg70
g4204
sg63
(lp4211
g56
(g57
g58
NtRp4212
(dp4213
g61
(dp4214
g69
I2
ssg70
g4208
sg63
(lp4215
g56
(g65
g58
NtRp4216
(dp4217
g61
(dp4218
g69
I1
ssg70
Nsg63
(lp4219
g56
(g72
g58
NtRp4220
(dp4221
g61
(dp4222
sg70
g4216
sg63
(lp4223
g56
(g77
g58
NtRp4224
(dp4225
g61
(dp4226
sg70
g4220
sg63
(lp4227
g56
(g57
g58
NtRp4228
(dp4229
g61
(dp4230
g69
I1
ssg70
g4224
sg63
(lp4231
g4032
(S's\x08\x00\x00\x00This App'
tRp4232
asbasbasbag56
(g72
g58
NtRp4233
(dp4234
g61
(dp4235
sg70
g4216
sg63
(lp4236
g56
(g77
g58
NtRp4237
(dp4238
g61
(dp4239
sg70
g4233
sg63
(lp4240
g56
(g57
g58
NtRp4241
(dp4242
g61
(dp4243
g69
I1
ssg70
g4237
sg63
(lp4244
I00
asbasbasbag56
(g72
g58
NtRp4245
(dp4246
g61
(dp4247
sg70
g4216
sg63
(lp4248
g56
(g77
g58
NtRp4249
(dp4250
g61
(dp4251
sg70
g4245
sg63
(lp4252
g56
(g57
g58
NtRp4253
(dp4254
g61
(dp4255
g69
I1
ssg70
g4249
sg63
(lp4256
S'/admin/default/design/project'
p4257
asbasbasbag56
(g72
g58
NtRp4258
(dp4259
g61
(dp4260
sg70
g4216
sg63
(lp4261
g56
(g77
g58
NtRp4262
(dp4263
g61
(dp4264
sg70
g4258
sg63
(lp4265
g56
(g57
g58
NtRp4266
(dp4267
g61
(dp4268
g69
I1
ssg70
g4262
sg63
(lp4269
(lp4270
(g4032
(S't\n\x00\x00\x00Controller'
tRp4271
I00
S'/admin/default/edit/project/controllers/default.py'
tp4272
a(g4032
(S't\x04\x00\x00\x00View'
tRp4273
I00
S'/admin/default/edit/project/views/default/kruskal.html'
tp4274
a(g4032
(S't\x06\x00\x00\x00Layout'
tRp4275
I00
S'/admin/default/edit/project/views/layout.html'
tp4276
a(g4032
(S't\n\x00\x00\x00Stylesheet'
tRp4277
I00
S'/admin/default/edit/project/static/css/web2py.css'
tp4278
a(g4032
(S's\x08\x00\x00\x00DB Model'
tRp4279
I00
S'/admin/default/edit/project/models/db.py'
tp4280
a(g4032
(S's\n\x00\x00\x00Menu Model'
tRp4281
I00
S'/admin/default/edit/project/models/menu.py'
tp4282
a(g4032
(S't\x08\x00\x00\x00Database'
tRp4283
I00
S'/project/appadmin/index'
tp4284
a(g4032
(S't\x06\x00\x00\x00Errors'
tRp4285
I00
S'/admin/default/errors/project'
tp4286
a(g4032
(S't\x05\x00\x00\x00About'
tRp4287
I00
S'/admin/default/about/project'
tp4288
aasbasbasbasbasbasbasbag56
(g72
g58
NtRp4289
(dp4290
g61
(dp4291
sg70
g4146
sg63
(lp4292
g56
(g77
g58
NtRp4293
(dp4294
g61
(dp4295
sg70
g4289
sg63
(lp4296
g56
(g57
g58
NtRp4297
(dp4298
g61
(dp4299
g69
I2
ssg70
g4293
sg63
(lp4300
g56
(g65
g58
NtRp4301
(dp4302
g61
(dp4303
g69
I1
ssg70
Nsg63
(lp4304
g56
(g72
g58
NtRp4305
(dp4306
g61
(dp4307
sg70
g4301
sg63
(lp4308
g56
(g77
g58
NtRp4309
(dp4310
g61
(dp4311
sg70
g4305
sg63
(lp4312
g56
(g57
g58
NtRp4313
(dp4314
g61
(dp4315
g69
I1
ssg70
g4309
sg63
(lp4316
S'web2py.com'
p4317
asbasbasbag56
(g72
g58
NtRp4318
(dp4319
g61
(dp4320
sg70
g4301
sg63
(lp4321
g56
(g77
g58
NtRp4322
(dp4323
g61
(dp4324
sg70
g4318
sg63
(lp4325
g56
(g57
g58
NtRp4326
(dp4327
g61
(dp4328
g69
I1
ssg70
g4322
sg63
(lp4329
I00
asbasbasbag56
(g72
g58
NtRp4330
(dp4331
g61
(dp4332
sg70
g4301
sg63
(lp4333
g56
(g77
g58
NtRp4334
(dp4335
g61
(dp4336
sg70
g4330
sg63
(lp4337
g56
(g57
g58
NtRp4338
(dp4339
g61
(dp4340
g69
I1
ssg70
g4334
sg63
(lp4341
S'http://www.web2py.com'
p4342
asbasbasbag56
(g72
g58
NtRp4343
(dp4344
g61
(dp4345
sg70
g4301
sg63
(lp4346
g56
(g77
g58
NtRp4347
(dp4348
g61
(dp4349
sg70
g4343
sg63
(lp4350
g56
(g57
g58
NtRp4351
(dp4352
g61
(dp4353
g69
I1
ssg70
g4347
sg63
(lp4354
(lp4355
(g4032
(S't\x08\x00\x00\x00Download'
tRp4356
I00
S'http://www.web2py.com/examples/default/download'
p4357
tp4358
a(g4032
(S't\x07\x00\x00\x00Support'
tRp4359
I00
S'http://www.web2py.com/examples/default/support'
p4360
tp4361
a(g4032
(S't\x04\x00\x00\x00Demo'
tRp4362
I00
S'http://web2py.com/demo_admin'
p4363
tp4364
a(g4032
(S's\x0e\x00\x00\x00Quick Examples'
tRp4365
I00
S'http://web2py.com/examples/default/examples'
p4366
tp4367
a(g4032
(S't\x03\x00\x00\x00FAQ'
tRp4368
I00
S'http://web2py.com/AlterEgo'
p4369
tp4370
a(g4032
(S't\x06\x00\x00\x00Videos'
tRp4371
I00
S'http://www.web2py.com/examples/default/videos/'
p4372
tp4373
a(g4032
(S's\x11\x00\x00\x00Free Applications'
tRp4374
I00
S'http://web2py.com/appliances'
p4375
tp4376
a(g4032
(S't\x07\x00\x00\x00Plugins'
tRp4377
I00
S'http://web2py.com/plugins'
p4378
tp4379
a(g4032
(S't\x07\x00\x00\x00Layouts'
tRp4380
I00
S'http://web2py.com/layouts'
p4381
tp4382
a(g4032
(S't\x07\x00\x00\x00Recipes'
tRp4383
I00
S'http://web2pyslices.com/'
p4384
tp4385
a(g4032
(S't\x08\x00\x00\x00Semantic'
tRp4386
I00
S'http://web2py.com/semantic'
p4387
tp4388
aasbasbasbasbasbasbasbag56
(g72
g58
NtRp4389
(dp4390
g61
(dp4391
sg70
g4146
sg63
(lp4392
g56
(g77
g58
NtRp4393
(dp4394
g61
(dp4395
sg70
g4389
sg63
(lp4396
g56
(g57
g58
NtRp4397
(dp4398
g61
(dp4399
g69
I2
ssg70
g4393
sg63
(lp4400
g56
(g65
g58
NtRp4401
(dp4402
g61
(dp4403
g69
I1
ssg70
Nsg63
(lp4404
g56
(g72
g58
NtRp4405
(dp4406
g61
(dp4407
sg70
g4401
sg63
(lp4408
g56
(g77
g58
NtRp4409
(dp4410
g61
(dp4411
sg70
g4405
sg63
(lp4412
g56
(g57
g58
NtRp4413
(dp4414
g61
(dp4415
g69
I1
ssg70
g4409
sg63
(lp4416
g4032
(S't\r\x00\x00\x00Documentation'
tRp4417
asbasbasbag56
(g72
g58
NtRp4418
(dp4419
g61
(dp4420
sg70
g4401
sg63
(lp4421
g56
(g77
g58
NtRp4422
(dp4423
g61
(dp4424
sg70
g4418
sg63
(lp4425
g56
(g57
g58
NtRp4426
(dp4427
g61
(dp4428
g69
I1
ssg70
g4422
sg63
(lp4429
I00
asbasbasbag56
(g72
g58
NtRp4430
(dp4431
g61
(dp4432
sg70
g4401
sg63
(lp4433
g56
(g77
g58
NtRp4434
(dp4435
g61
(dp4436
sg70
g4430
sg63
(lp4437
g56
(g57
g58
NtRp4438
(dp4439
g61
(dp4440
g69
I1
ssg70
g4434
sg63
(lp4441
S'http://www.web2py.com/book'
p4442
asbasbasbag56
(g72
g58
NtRp4443
(dp4444
g61
(dp4445
sg70
g4401
sg63
(lp4446
g56
(g77
g58
NtRp4447
(dp4448
g61
(dp4449
sg70
g4443
sg63
(lp4450
g56
(g57
g58
NtRp4451
(dp4452
g61
(dp4453
g69
I1
ssg70
g4447
sg63
(lp4454
(lp4455
(g4032
(S't\x07\x00\x00\x00Preface'
tRp4456
I00
S'http://www.web2py.com/book/default/chapter/00'
p4457
tp4458
a(g4032
(S't\x0c\x00\x00\x00Introduction'
tRp4459
I00
S'http://www.web2py.com/book/default/chapter/01'
p4460
tp4461
a(g4032
(S't\x06\x00\x00\x00Python'
tRp4462
I00
S'http://www.web2py.com/book/default/chapter/02'
p4463
tp4464
a(g4032
(S't\x08\x00\x00\x00Overview'
tRp4465
I00
S'http://www.web2py.com/book/default/chapter/03'
p4466
tp4467
a(g4032
(S's\x08\x00\x00\x00The Core'
tRp4468
I00
S'http://www.web2py.com/book/default/chapter/04'
p4469
tp4470
a(g4032
(S's\t\x00\x00\x00The Views'
tRp4471
I00
S'http://www.web2py.com/book/default/chapter/05'
p4472
tp4473
a(g4032
(S't\x08\x00\x00\x00Database'
tRp4474
I00
S'http://www.web2py.com/book/default/chapter/06'
p4475
tp4476
a(g4032
(S's\x14\x00\x00\x00Forms and Validators'
tRp4477
I00
S'http://www.web2py.com/book/default/chapter/07'
p4478
tp4479
a(g4032
(S's\r\x00\x00\x00Email and SMS'
tRp4480
I00
S'http://www.web2py.com/book/default/chapter/08'
p4481
tp4482
a(g4032
(S's\x0e\x00\x00\x00Access Control'
tRp4483
I00
S'http://www.web2py.com/book/default/chapter/09'
p4484
tp4485
a(g4032
(S't\x08\x00\x00\x00Services'
tRp4486
I00
S'http://www.web2py.com/book/default/chapter/10'
p4487
tp4488
a(g4032
(S's\x0c\x00\x00\x00Ajax Recipes'
tRp4489
I00
S'http://www.web2py.com/book/default/chapter/11'
p4490
tp4491
a(g4032
(S's\x16\x00\x00\x00Components and Plugins'
tRp4492
I00
S'http://www.web2py.com/book/default/chapter/12'
p4493
tp4494
a(g4032
(S's\x12\x00\x00\x00Deployment Recipes'
tRp4495
I00
S'http://www.web2py.com/book/default/chapter/13'
p4496
tp4497
a(g4032
(S's\r\x00\x00\x00Other Recipes'
tRp4498
I00
S'http://www.web2py.com/book/default/chapter/14'
p4499
tp4500
a(g4032
(S's\r\x00\x00\x00Buy this book'
tRp4501
I00
S'http://stores.lulu.com/web2py'
p4502
tp4503
aasbasbasbasbasbasbasbag56
(g72
g58
NtRp4504
(dp4505
g61
(dp4506
sg70
g4146
sg63
(lp4507
g56
(g77
g58
NtRp4508
(dp4509
g61
(dp4510
sg70
g4504
sg63
(lp4511
g56
(g57
g58
NtRp4512
(dp4513
g61
(dp4514
g69
I2
ssg70
g4508
sg63
(lp4515
g56
(g65
g58
NtRp4516
(dp4517
g61
(dp4518
g69
I1
ssg70
Nsg63
(lp4519
g56
(g72
g58
NtRp4520
(dp4521
g61
(dp4522
sg70
g4516
sg63
(lp4523
g56
(g77
g58
NtRp4524
(dp4525
g61
(dp4526
sg70
g4520
sg63
(lp4527
g56
(g57
g58
NtRp4528
(dp4529
g61
(dp4530
g69
I1
ssg70
g4524
sg63
(lp4531
g4032
(S't\t\x00\x00\x00Community'
tRp4532
asbasbasbag56
(g72
g58
NtRp4533
(dp4534
g61
(dp4535
sg70
g4516
sg63
(lp4536
g56
(g77
g58
NtRp4537
(dp4538
g61
(dp4539
sg70
g4533
sg63
(lp4540
g56
(g57
g58
NtRp4541
(dp4542
g61
(dp4543
g69
I1
ssg70
g4537
sg63
(lp4544
I00
asbasbasbag56
(g72
g58
NtRp4545
(dp4546
g61
(dp4547
sg70
g4516
sg63
(lp4548
g56
(g77
g58
NtRp4549
(dp4550
g61
(dp4551
sg70
g4545
sg63
(lp4552
g56
(g57
g58
NtRp4553
(dp4554
g61
(dp4555
g69
I1
ssg70
g4549
sg63
(lp4556
Nasbasbasbag56
(g72
g58
NtRp4557
(dp4558
g61
(dp4559
sg70
g4516
sg63
(lp4560
g56
(g77
g58
NtRp4561
(dp4562
g61
(dp4563
sg70
g4557
sg63
(lp4564
g56
(g57
g58
NtRp4565
(dp4566
g61
(dp4567
g69
I1
ssg70
g4561
sg63
(lp4568
(lp4569
(g4032
(S't\x06\x00\x00\x00Groups'
tRp4570
I00
S'http://www.web2py.com/examples/default/usergroups'
p4571
tp4572
a(g4032
(S't\x07\x00\x00\x00Twitter'
tRp4573
I00
S'http://twitter.com/web2py'
p4574
tp4575
a(g4032
(S's\t\x00\x00\x00Live Chat'
tRp4576
I00
S'http://webchat.freenode.net/?channels=web2py'
p4577
tp4578
aasbasbasbasbasbasbasbag56
(g72
g58
NtRp4579
(dp4580
g61
(dp4581
sg70
g4146
sg63
(lp4582
g56
(g77
g58
NtRp4583
(dp4584
g61
(dp4585
sg70
g4579
sg63
(lp4586
g56
(g57
g58
NtRp4587
(dp4588
g61
(dp4589
g69
I2
ssg70
g4583
sg63
(lp4590
g56
(g65
g58
NtRp4591
(dp4592
g61
(dp4593
g69
I1
ssg70
Nsg63
(lp4594
g56
(g72
g58
NtRp4595
(dp4596
g61
(dp4597
sg70
g4591
sg63
(lp4598
g56
(g77
g58
NtRp4599
(dp4600
g61
(dp4601
sg70
g4595
sg63
(lp4602
g56
(g57
g58
NtRp4603
(dp4604
g61
(dp4605
g69
I1
ssg70
g4599
sg63
(lp4606
g4032
(S't\x07\x00\x00\x00Plugins'
tRp4607
asbasbasbag56
(g72
g58
NtRp4608
(dp4609
g61
(dp4610
sg70
g4591
sg63
(lp4611
g56
(g77
g58
NtRp4612
(dp4613
g61
(dp4614
sg70
g4608
sg63
(lp4615
g56
(g57
g58
NtRp4616
(dp4617
g61
(dp4618
g69
I1
ssg70
g4612
sg63
(lp4619
I00
asbasbasbag56
(g72
g58
NtRp4620
(dp4621
g61
(dp4622
sg70
g4591
sg63
(lp4623
g56
(g77
g58
NtRp4624
(dp4625
g61
(dp4626
sg70
g4620
sg63
(lp4627
g56
(g57
g58
NtRp4628
(dp4629
g61
(dp4630
g69
I1
ssg70
g4624
sg63
(lp4631
Nasbasbasbag56
(g72
g58
NtRp4632
(dp4633
g61
(dp4634
sg70
g4591
sg63
(lp4635
g56
(g77
g58
NtRp4636
(dp4637
g61
(dp4638
sg70
g4632
sg63
(lp4639
g56
(g57
g58
NtRp4640
(dp4641
g61
(dp4642
g69
I1
ssg70
g4636
sg63
(lp4643
(lp4644
(S'plugin_wiki'
p4645
I00
S'http://web2py.com/examples/default/download'
p4646
tp4647
a(g4032
(S's\r\x00\x00\x00Other Plugins'
tRp4648
I00
g4378
tp4649
a(g4032
(S's\x0e\x00\x00\x00Layout Plugins'
tRp4650
I00
g4381
tp4651
aasbasbasbasbasbasbasbasbasbasbasbasbasbasbasbasbasbasbasbag56
(g72
g58
NtRp4652
(dp4653
g61
(dp4654
sg70
g3476
sg63
(lp4655
g56
(g77
g58
NtRp4656
(dp4657
g61
(dp4658
g81
g82
ssg70
g4652
sg63
(lp4659
S'meta'
p4660
asbag56
(g77
g58
NtRp4661
(dp4662
g61
(dp4663
g88
g89
ssg70
g4652
sg63
(lp4664
S':'
asbag56
(g77
g58
NtRp4665
(dp4666
g61
(dp4667
sg70
g4652
sg63
(lp4668
g56
(g57
g58
NtRp4669
(dp4670
g61
(dp4671
g69
I5
ssg70
g4665
sg63
(lp4672
g56
(g65
g58
NtRp4673
(dp4674
g61
(dp4675
g69
I4
ssg70
Nsg63
(lp4676
g56
(g72
g58
NtRp4677
(dp4678
g61
(dp4679
sg70
g4673
sg63
(lp4680
g56
(g77
g58
NtRp4681
(dp4682
g61
(dp4683
g81
g82
ssg70
g4677
sg63
(lp4684
S'author'
p4685
asbag56
(g77
g58
NtRp4686
(dp4687
g61
(dp4688
g88
g89
ssg70
g4677
sg63
(lp4689
S':'
asbag56
(g77
g58
NtRp4690
(dp4691
g61
(dp4692
sg70
g4677
sg63
(lp4693
g56
(g57
g58
NtRp4694
(dp4695
g61
(dp4696
g69
I4
ssg70
g4690
sg63
(lp4697
S'Your Name <you@example.com>'
p4698
asbasbasbag56
(g72
g58
NtRp4699
(dp4700
g61
(dp4701
sg70
g4673
sg63
(lp4702
g56
(g77
g58
NtRp4703
(dp4704
g61
(dp4705
g81
g82
ssg70
g4699
sg63
(lp4706
S'copyright'
p4707
asbag56
(g77
g58
NtRp4708
(dp4709
g61
(dp4710
g88
g89
ssg70
g4699
sg63
(lp4711
S':'
asbag56
(g77
g58
NtRp4712
(dp4713
g61
(dp4714
sg70
g4699
sg63
(lp4715
g56
(g57
g58
NtRp4716
(dp4717
g61
(dp4718
g69
I4
ssg70
g4712
sg63
(lp4719
S'Copyright 2011'
p4720
asbasbasbag56
(g72
g58
NtRp4721
(dp4722
g61
(dp4723
sg70
g4673
sg63
(lp4724
g56
(g77
g58
NtRp4725
(dp4726
g61
(dp4727
g81
g82
ssg70
g4721
sg63
(lp4728
S'description'
p4729
asbag56
(g77
g58
NtRp4730
(dp4731
g61
(dp4732
g88
g89
ssg70
g4721
sg63
(lp4733
S':'
asbag56
(g77
g58
NtRp4734
(dp4735
g61
(dp4736
sg70
g4721
sg63
(lp4737
g56
(g57
g58
NtRp4738
(dp4739
g61
(dp4740
g69
I4
ssg70
g4734
sg63
(lp4741
S'a cool new app'
p4742
asbasbasbag56
(g72
g58
NtRp4743
(dp4744
g61
(dp4745
sg70
g4673
sg63
(lp4746
g56
(g77
g58
NtRp4747
(dp4748
g61
(dp4749
g81
g82
ssg70
g4743
sg63
(lp4750
S'generator'
p4751
asbag56
(g77
g58
NtRp4752
(dp4753
g61
(dp4754
g88
g89
ssg70
g4743
sg63
(lp4755
S':'
asbag56
(g77
g58
NtRp4756
(dp4757
g61
(dp4758
sg70
g4743
sg63
(lp4759
g56
(g57
g58
NtRp4760
(dp4761
g61
(dp4762
g69
I4
ssg70
g4756
sg63
(lp4763
S'Web2py Web Framework'
p4764
asbasbasbag56
(g72
g58
NtRp4765
(dp4766
g61
(dp4767
sg70
g4673
sg63
(lp4768
g56
(g77
g58
NtRp4769
(dp4770
g61
(dp4771
g81
g82
ssg70
g4765
sg63
(lp4772
S'keywords'
p4773
asbag56
(g77
g58
NtRp4774
(dp4775
g61
(dp4776
g88
g89
ssg70
g4765
sg63
(lp4777
S':'
asbag56
(g77
g58
NtRp4778
(dp4779
g61
(dp4780
sg70
g4765
sg63
(lp4781
g56
(g57
g58
NtRp4782
(dp4783
g61
(dp4784
g69
I4
ssg70
g4778
sg63
(lp4785
S'web2py, python, framework'
p4786
asbasbasbasbasbasbasbag56
(g72
g58
NtRp4787
(dp4788
g61
(dp4789
sg70
g3476
sg63
(lp4790
g56
(g77
g58
NtRp4791
(dp4792
g61
(dp4793
g81
g82
ssg70
g4787
sg63
(lp4794
S'postprocessing'
p4795
asbag56
(g77
g58
NtRp4796
(dp4797
g61
(dp4798
g88
g89
ssg70
g4787
sg63
(lp4799
S':'
asbag56
(g77
g58
NtRp4800
(dp4801
g61
(dp4802
sg70
g4787
sg63
(lp4803
g56
(g57
g58
NtRp4804
(dp4805
g61
(dp4806
g69
I5
ssg70
g4800
sg63
(lp4807
g56
(g65
g58
NtRp4808
(dp4809
g61
(dp4810
g69
I4
ssg70
Nsg63
(lp4811
sbasbasbasbag56
(g72
g58
NtRp4812
(dp4813
g61
(dp4814
sg70
g3476
sg63
(lp4815
g56
(g77
g58
NtRp4816
(dp4817
g61
(dp4818
g81
g82
ssg70
g4812
sg63
(lp4819
S'session_file'
p4820
asbag56
(g77
g58
NtRp4821
(dp4822
g61
(dp4823
g88
g89
ssg70
g4812
sg63
(lp4824
S':'
asbag56
(g77
g58
NtRp4825
(dp4826
g61
(dp4827
sg70
g4812
sg63
(lp4828
g56
(g57
g58
NtRp4829
(dp4830
g61
(dp4831
g69
I5
ssg70
g4825
sg63
(lp4832
S"<open file '/home/arpita/courses/sem3/ssad/web2py/applications/project/sessions/127.0.0.1-b6115b3d-9b4c-4cde-b209-d74130608881', mode 'rb+' at 0x93e1e90>"
p4833
asbasbasbag56
(g72
g58
NtRp4834
(dp4835
g61
(dp4836
sg70
g3476
sg63
(lp4837
g56
(g77
g58
NtRp4838
(dp4839
g61
(dp4840
g81
g82
ssg70
g4834
sg63
(lp4841
S'session_filename'
p4842
asbag56
(g77
g58
NtRp4843
(dp4844
g61
(dp4845
g88
g89
ssg70
g4834
sg63
(lp4846
S':'
asbag56
(g77
g58
NtRp4847
(dp4848
g61
(dp4849
sg70
g4834
sg63
(lp4850
g56
(g57
g58
NtRp4851
(dp4852
g61
(dp4853
g69
I5
ssg70
g4847
sg63
(lp4854
S'/home/arpita/courses/sem3/ssad/web2py/applications/project/sessions/127.0.0.1-b6115b3d-9b4c-4cde-b209-d74130608881'
p4855
asbasbasbag56
(g72
g58
NtRp4856
(dp4857
g61
(dp4858
sg70
g3476
sg63
(lp4859
g56
(g77
g58
NtRp4860
(dp4861
g61
(dp4862
g81
g82
ssg70
g4856
sg63
(lp4863
S'session_id'
p4864
asbag56
(g77
g58
NtRp4865
(dp4866
g61
(dp4867
g88
g89
ssg70
g4856
sg63
(lp4868
S':'
asbag56
(g77
g58
NtRp4869
(dp4870
g61
(dp4871
sg70
g4856
sg63
(lp4872
g56
(g57
g58
NtRp4873
(dp4874
g61
(dp4875
g69
I5
ssg70
g4869
sg63
(lp4876
S'127.0.0.1-b6115b3d-9b4c-4cde-b209-d74130608881'
p4877
asbasbasbag56
(g72
g58
NtRp4878
(dp4879
g61
(dp4880
sg70
g3476
sg63
(lp4881
g56
(g77
g58
NtRp4882
(dp4883
g61
(dp4884
g81
g82
ssg70
g4878
sg63
(lp4885
S'session_id_name'
p4886
asbag56
(g77
g58
NtRp4887
(dp4888
g61
(dp4889
g88
g89
ssg70
g4878
sg63
(lp4890
S':'
asbag56
(g77
g58
NtRp4891
(dp4892
g61
(dp4893
sg70
g4878
sg63
(lp4894
g56
(g57
g58
NtRp4895
(dp4896
g61
(dp4897
g69
I5
ssg70
g4891
sg63
(lp4898
g3533
asbasbasbag56
(g72
g58
NtRp4899
(dp4900
g61
(dp4901
sg70
g3476
sg63
(lp4902
g56
(g77
g58
NtRp4903
(dp4904
g61
(dp4905
g81
g82
ssg70
g4899
sg63
(lp4906
S'session_locked'
p4907
asbag56
(g77
g58
NtRp4908
(dp4909
g61
(dp4910
g88
g89
ssg70
g4899
sg63
(lp4911
S':'
asbag56
(g77
g58
NtRp4912
(dp4913
g61
(dp4914
sg70
g4899
sg63
(lp4915
g56
(g57
g58
NtRp4916
(dp4917
g61
(dp4918
g69
I5
ssg70
g4912
sg63
(lp4919
g1677
asbasbasbag56
(g72
g58
NtRp4920
(dp4921
g61
(dp4922
sg70
g3476
sg63
(lp4923
g56
(g77
g58
NtRp4924
(dp4925
g61
(dp4926
g81
g82
ssg70
g4920
sg63
(lp4927
S'session_new'
p4928
asbag56
(g77
g58
NtRp4929
(dp4930
g61
(dp4931
g88
g89
ssg70
g4920
sg63
(lp4932
S':'
asbag56
(g77
g58
NtRp4933
(dp4934
g61
(dp4935
sg70
g4920
sg63
(lp4936
g56
(g57
g58
NtRp4937
(dp4938
g61
(dp4939
g69
I5
ssg70
g4933
sg63
(lp4940
g99
asbasbasbag56
(g72
g58
NtRp4941
(dp4942
g61
(dp4943
sg70
g3476
sg63
(lp4944
g56
(g77
g58
NtRp4945
(dp4946
g61
(dp4947
g81
g82
ssg70
g4941
sg63
(lp4948
S'status'
p4949
asbag56
(g77
g58
NtRp4950
(dp4951
g61
(dp4952
g88
g89
ssg70
g4941
sg63
(lp4953
S':'
asbag56
(g77
g58
NtRp4954
(dp4955
g61
(dp4956
sg70
g4941
sg63
(lp4957
g56
(g57
g58
NtRp4958
(dp4959
g61
(dp4960
g69
I5
ssg70
g4954
sg63
(lp4961
S'200'
p4962
asbasbasbag56
(g72
g58
NtRp4963
(dp4964
g61
(dp4965
sg70
g3476
sg63
(lp4966
g56
(g77
g58
NtRp4967
(dp4968
g61
(dp4969
g81
g82
ssg70
g4963
sg63
(lp4970
S'subtitle'
p4971
asbag56
(g77
g58
NtRp4972
(dp4973
g61
(dp4974
g88
g89
ssg70
g4963
sg63
(lp4975
S':'
asbag56
(g77
g58
NtRp4976
(dp4977
g61
(dp4978
sg70
g4963
sg63
(lp4979
g56
(g57
g58
NtRp4980
(dp4981
g61
(dp4982
g69
I5
ssg70
g4976
sg63
(lp4983
g4032
(S's\r\x00\x00\x00customize me!'
tRp4984
asbasbasbag56
(g72
g58
NtRp4985
(dp4986
g61
(dp4987
sg70
g3476
sg63
(lp4988
g56
(g77
g58
NtRp4989
(dp4990
g61
(dp4991
g81
g82
ssg70
g4985
sg63
(lp4992
S'title'
p4993
asbag56
(g77
g58
NtRp4994
(dp4995
g61
(dp4996
g88
g89
ssg70
g4985
sg63
(lp4997
S':'
asbag56
(g77
g58
NtRp4998
(dp4999
g61
(dp5000
sg70
g4985
sg63
(lp5001
g56
(g57
g58
NtRp5002
(dp5003
g61
(dp5004
g69
I5
ssg70
g4998
sg63
(lp5005
S'Project'
p5006
asbasbasbag56
(g72
g58
NtRp5007
(dp5008
g61
(dp5009
sg70
g3476
sg63
(lp5010
g56
(g77
g58
NtRp5011
(dp5012
g61
(dp5013
g81
g82
ssg70
g5007
sg63
(lp5014
g2341
asbag56
(g77
g58
NtRp5015
(dp5016
g61
(dp5017
g88
g89
ssg70
g5007
sg63
(lp5018
S':'
asbag56
(g77
g58
NtRp5019
(dp5020
g61
(dp5021
sg70
g5007
sg63
(lp5022
g56
(g57
g58
NtRp5023
(dp5024
g61
(dp5025
g69
I5
ssg70
g5019
sg63
(lp5026
g2354
asbasbasbag56
(g72
g58
NtRp5027
(dp5028
g61
(dp5029
sg70
g3476
sg63
(lp5030
g56
(g77
g58
NtRp5031
(dp5032
g61
(dp5033
g81
g82
ssg70
g5027
sg63
(lp5034
S'view'
p5035
asbag56
(g77
g58
NtRp5036
(dp5037
g61
(dp5038
g88
g89
ssg70
g5027
sg63
(lp5039
S':'
asbag56
(g77
g58
NtRp5040
(dp5041
g61
(dp5042
sg70
g5027
sg63
(lp5043
g56
(g57
g58
NtRp5044
(dp5045
g61
(dp5046
g69
I5
ssg70
g5040
sg63
(lp5047
S'default/kruskal.html'
p5048
asbasbasbasbasbsS'locals'
p5049
(dp5050
S'a'
S'7'
sS'b'
S'5'
sS'cou'
p5051
S'9'
sS'min'
p5052
S'100'
p5053
sS'i'
S'0'
sS'k'
S'8'
sS'j'
S'8'
sS'li'
p5054
S"<Row {'update_record': <function <lambda> at 0x9... <function <lambda> at 0x974ce2c>, 'Emp2_id': 5}>"
p5055
sS'emp'
p5056
S'<gluon.dal.Rows object>'
p5057
sg3003
S"<open file 'applications/project/controllers/myfile.txt', mode 'a'>"
p5058
sS'lis'
p5059
S'<gluon.dal.Rows object>'
p5060
sS'count1'
p5061
S'1'
sS'counts'
p5062
S'9'
sS'count2'
p5063
S'8'
sssS'traceback'
p5064
S'Traceback (most recent call last):\n  File "/home/arpita/courses/sem3/ssad/web2py/gluon/restricted.py", line 205, in restricted\n    exec ccode in environment\n  File "/home/arpita/courses/sem3/ssad/web2py/applications/project/controllers/default.py", line 147, in <module>\n  File "/home/arpita/courses/sem3/ssad/web2py/gluon/globals.py", line 173, in <lambda>\n    self._caller = lambda f: f()\n  File "/home/arpita/courses/sem3/ssad/web2py/applications/project/controllers/default.py", line 141, in kruskal\n    if p[j]==i:\nKeyError: 8\n'
p5065
s.