(dp1
S'output'
p2
S"<type 'exceptions.TypeError'> dict expected at most 1 arguments, got 2"
p3
sS'layer'
p4
S'/home/arpita/courses/sem3/ssad/web2py/applications/project/controllers/default.py'
p5
sS'code'
p6
S'# -*- coding: utf-8 -*-\n# this file is released under public domain and you can use without limitations\n\n#########################################################################\n## This is a samples controller\n## - index is the default action of any application\n## - user is required for authentication and authorization\n## - download is for downloading files uploaded in the db (does streaming)\n## - call exposes all registered services (none by default)\n#########################################################################\n\n@auth.requires_membership(\'Administrator\')\ndef index():\n    emp=db().select(db.Employee.ALL, orderby=db.Employee.Name)\n    \n    """\n    example action using the internationalization operator T and flash\n    rendered by views/default/index.html or views/generic.html\n    """\n    form=crud.create(db.Employee)\n    response.flash = "Welcome to web2py!"\n    return dict(message=T(\'Hello World\'),form=form,emp=emp)\n\ndef user():\n    """\n    exposes:\n    http://..../[app]/default/user/login\n    http://..../[app]/default/user/logout\n    http://..../[app]/default/user/register\n    http://..../[app]/default/user/profile\n    http://..../[app]/default/user/retrieve_password\n    http://..../[app]/default/user/change_password\n    use @auth.requires_login()\n        @auth.requires_membership(\'group name\')\n        @auth.requires_permission(\'read\',\'table name\',record_id)\n    to decorate functions that need access control\n    """\n    return dict(form=auth())\n\n\ndef download():\n    """\n    allows downloading of uploaded files\n    http://..../[app]/default/download/[filename]\n    """\n    return response.download(request,db)\n\n\ndef call():\n    """\n    exposes services. for example:\n    http://..../[app]/default/call/jsonrpc\n    decorate with @services.jsonrpc the functions to expose\n    supports xml, json, xmlrpc, jsonrpc, amfrpc, rss, csv\n    """\n    return service()\n\n\n@auth.requires_signature()\ndef data():\n    """\n    http://..../[app]/default/data/tables\n    http://..../[app]/default/data/create/[table]\n    http://..../[app]/default/data/read/[table]/[id]\n    http://..../[app]/default/data/update/[table]/[id]\n    http://..../[app]/default/data/delete/[table]/[id]\n    http://..../[app]/default/data/select/[table]\n    http://..../[app]/default/data/search/[table]\n    but URLs must be signed, i.e. linked with\n      A(\'table\',_href=URL(\'data/tables\',user_signature=True))\n    or with the signed load operator\n      LOAD(\'default\',\'data.load\',args=\'tables\',ajax=True,user_signature=True)\n    """\n    return dict(form=crud())\n\ndef graph():\n    empl=db.Employee(request.args(0))\n   # lis[i]=empl.id\n    #i=i+1\n    #empl=db(db.Employee.Name==em.Name).select()\n    return dict(empl=empl)  \n #   id=db(db.Employee.Name==emp.\n  #  redirect(URL(\'index\'))\n\n\ndef relate():\n   form=crud.create(db.Relation)\n   return dict(form=form)\n\n\nc=[]\nrep=[]\nvis=[]\ned=[]\np={}\nq={}\ndef kruskal():\n    \n    lis = db().select(db.Relation.ALL)\n    emp=db().select(db.Employee.ALL, orderby=db.Employee.Name)\n    counts=len(emp)\n    for i in xrange(counts+1):\n       c.append([])\n       vis.append([])\n       rep.append(i)\n       ed.append([])\n       for j in xrange(counts+1):\n          c[i].append(0)\n          vis[i].append(0)\n          ed[i].append(0)\n    for li in lis:\n       a=li.Emp1_id\n       b=li.Emp2_id\n       c[a][b]=1\n       \n    cou=0   \n    while cou !=counts:\n        min=100\n        for i in xrange(counts+1):\n            for j in xrange(counts+1):\n                if c[i][j]!=0 and vis[i][j]==0:\n                    if rep[i]!=rep[j]:\n                               vis[i][j]=1\n                               ed[i][j]=1\n                               count1=0\n                               count2=0\n                               for k in xrange(counts+1):\n                                        if rep[k]==rep[i]:\n                                            count1=count1+1\n                                        if rep[k]==rep[j]:\n                                            count2=count2+1\n                               if count1<count2:\n                                           for k in xrange(counts+1):\n                                                if rep[k]==rep[i] and k!=i:\n                                                    rep[k]=rep[j]\n                                           rep[i]=rep[j]\n                               else:\n                                        for k in xrange(counts+1):\n                                                   if rep[k]==rep[j] and k!=j:\n                                                        rep[k]=rep[i]\n                                        rep[j]=rep[i]\n\n                    else:\n                        vis[i][j]=1\n        cou=0\n        for k in xrange(counts+1):\n            if rep[k]==rep[1]:\n                    cou=cou+1\n        k=0            \n        for i in xrange(counts+1):\n                for j in xrange(counts+1):\n                      if ed[i][j]==1:\n                           p[k]=i\n                           q[k]=j\n                           k=k+1                          \n    return dict(p,q)\n\nresponse._vars=response._caller(kruskal)\n'
p7
sS'snapshot'
p8
(dp9
S'exception'
p10
(dp11
S'__hash__'
p12
S"<method-wrapper '__hash__' of exceptions.TypeError object>"
p13
sS'__setattr__'
p14
S"<method-wrapper '__setattr__' of exceptions.TypeError object>"
p15
sS'__reduce_ex__'
p16
S'<built-in method __reduce_ex__ of exceptions.TypeError object>'
p17
sS'__getslice__'
p18
S"<method-wrapper '__getslice__' of exceptions.TypeError object>"
p19
sS'__getitem__'
p20
S"<method-wrapper '__getitem__' of exceptions.TypeError object>"
p21
sS'__setstate__'
p22
S'<built-in method __setstate__ of exceptions.TypeError object>'
p23
sS'__reduce__'
p24
S'<built-in method __reduce__ of exceptions.TypeError object>'
p25
sS'__str__'
p26
S"<method-wrapper '__str__' of exceptions.TypeError object>"
p27
sS'__format__'
p28
S'<built-in method __format__ of exceptions.TypeError object>'
p29
sS'__getattribute__'
p30
S"<method-wrapper '__getattribute__' of exceptions.TypeError object>"
p31
sS'__class__'
p32
S"<type 'exceptions.TypeError'>"
p33
sS'__unicode__'
p34
S'<built-in method __unicode__ of exceptions.TypeError object>'
p35
sS'__delattr__'
p36
S"<method-wrapper '__delattr__' of exceptions.TypeError object>"
p37
sS'__subclasshook__'
p38
S'<built-in method __subclasshook__ of type object>'
p39
sS'__repr__'
p40
S"<method-wrapper '__repr__' of exceptions.TypeError object>"
p41
sS'args'
p42
S"('dict expected at most 1 arguments, got 2',)"
p43
sS'__dict__'
p44
S'{}'
p45
sS'__sizeof__'
p46
S'<built-in method __sizeof__ of exceptions.TypeError object>'
p47
sS'__doc__'
p48
S"'Inappropriate argument type.'"
p49
sS'__init__'
p50
S"<method-wrapper '__init__' of exceptions.TypeError object>"
p51
sS'__new__'
p52
S'<built-in method __new__ of type object>'
p53
ssS'evalue'
p54
S'dict expected at most 1 arguments, got 2'
p55
sS'request'
p56
ccopy_reg
_reconstructor
p57
(cgluon.html
BEAUTIFY
p58
c__builtin__
object
p59
NtRp60
(dp61
S'attributes'
p62
(dp63
sS'components'
p64
(lp65
g57
(cgluon.html
TABLE
p66
g59
NtRp67
(dp68
g62
(dp69
S'level'
p70
I5
ssS'parent'
p71
Nsg64
(lp72
g57
(cgluon.html
TR
p73
g59
NtRp74
(dp75
g62
(dp76
sg71
g67
sg64
(lp77
g57
(cgluon.html
TD
p78
g59
NtRp79
(dp80
g62
(dp81
S'_style'
p82
S'font-weight:bold;vertical-align:top'
p83
ssg71
g74
sg64
(lp84
S'ajax'
p85
asbag57
(g78
g59
NtRp86
(dp87
g62
(dp88
S'_valign'
p89
S'top'
p90
ssg71
g74
sg64
(lp91
S':'
asbag57
(g78
g59
NtRp92
(dp93
g62
(dp94
sg71
g74
sg64
(lp95
g57
(g58
g59
NtRp96
(dp97
g62
(dp98
g70
I5
ssg71
g92
sg64
(lp99
S'False'
p100
asbasbasbag57
(g73
g59
NtRp101
(dp102
g62
(dp103
sg71
g67
sg64
(lp104
g57
(g78
g59
NtRp105
(dp106
g62
(dp107
g82
g83
ssg71
g101
sg64
(lp108
S'application'
p109
asbag57
(g78
g59
NtRp110
(dp111
g62
(dp112
g89
g90
ssg71
g101
sg64
(lp113
S':'
asbag57
(g78
g59
NtRp114
(dp115
g62
(dp116
sg71
g101
sg64
(lp117
g57
(g58
g59
NtRp118
(dp119
g62
(dp120
g70
I5
ssg71
g114
sg64
(lp121
S'project'
p122
asbasbasbag57
(g73
g59
NtRp123
(dp124
g62
(dp125
sg71
g67
sg64
(lp126
g57
(g78
g59
NtRp127
(dp128
g62
(dp129
g82
g83
ssg71
g123
sg64
(lp130
g42
asbag57
(g78
g59
NtRp131
(dp132
g62
(dp133
g89
g90
ssg71
g123
sg64
(lp134
S':'
asbag57
(g78
g59
NtRp135
(dp136
g62
(dp137
sg71
g123
sg64
(lp138
g57
(g58
g59
NtRp139
(dp140
g62
(dp141
g70
I5
ssg71
g135
sg64
(lp142
g57
(g66
g59
NtRp143
(dp144
g62
(dp145
g70
I4
ssg71
Nsg64
(lp146
sbasbasbasbag57
(g73
g59
NtRp147
(dp148
g62
(dp149
sg71
g67
sg64
(lp150
g57
(g78
g59
NtRp151
(dp152
g62
(dp153
g82
g83
ssg71
g147
sg64
(lp154
S'body'
p155
asbag57
(g78
g59
NtRp156
(dp157
g62
(dp158
g89
g90
ssg71
g147
sg64
(lp159
S':'
asbag57
(g78
g59
NtRp160
(dp161
g62
(dp162
sg71
g147
sg64
(lp163
g57
(g58
g59
NtRp164
(dp165
g62
(dp166
g70
I5
ssg71
g160
sg64
(lp167
S'<cStringIO.StringO object at 0x945ed80>'
p168
asbasbasbag57
(g73
g59
NtRp169
(dp170
g62
(dp171
sg71
g67
sg64
(lp172
g57
(g78
g59
NtRp173
(dp174
g62
(dp175
g82
g83
ssg71
g169
sg64
(lp176
S'client'
p177
asbag57
(g78
g59
NtRp178
(dp179
g62
(dp180
g89
g90
ssg71
g169
sg64
(lp181
S':'
asbag57
(g78
g59
NtRp182
(dp183
g62
(dp184
sg71
g169
sg64
(lp185
g57
(g58
g59
NtRp186
(dp187
g62
(dp188
g70
I5
ssg71
g182
sg64
(lp189
S'127.0.0.1'
p190
asbasbasbag57
(g73
g59
NtRp191
(dp192
g62
(dp193
sg71
g67
sg64
(lp194
g57
(g78
g59
NtRp195
(dp196
g62
(dp197
g82
g83
ssg71
g191
sg64
(lp198
S'controller'
p199
asbag57
(g78
g59
NtRp200
(dp201
g62
(dp202
g89
g90
ssg71
g191
sg64
(lp203
S':'
asbag57
(g78
g59
NtRp204
(dp205
g62
(dp206
sg71
g191
sg64
(lp207
g57
(g58
g59
NtRp208
(dp209
g62
(dp210
g70
I5
ssg71
g204
sg64
(lp211
S'default'
p212
asbasbasbag57
(g73
g59
NtRp213
(dp214
g62
(dp215
sg71
g67
sg64
(lp216
g57
(g78
g59
NtRp217
(dp218
g62
(dp219
g82
g83
ssg71
g213
sg64
(lp220
S'cookies'
p221
asbag57
(g78
g59
NtRp222
(dp223
g62
(dp224
g89
g90
ssg71
g213
sg64
(lp225
S':'
asbag57
(g78
g59
NtRp226
(dp227
g62
(dp228
sg71
g213
sg64
(lp229
g57
(g58
g59
NtRp230
(dp231
g62
(dp232
g70
I5
ssg71
g226
sg64
(lp233
g57
(g66
g59
NtRp234
(dp235
g62
(dp236
g70
I4
ssg71
Nsg64
(lp237
g57
(g73
g59
NtRp238
(dp239
g62
(dp240
sg71
g234
sg64
(lp241
g57
(g78
g59
NtRp242
(dp243
g62
(dp244
g82
g83
ssg71
g238
sg64
(lp245
S'session_id_admin'
p246
asbag57
(g78
g59
NtRp247
(dp248
g62
(dp249
g89
g90
ssg71
g238
sg64
(lp250
S':'
asbag57
(g78
g59
NtRp251
(dp252
g62
(dp253
sg71
g238
sg64
(lp254
g57
(g58
g59
NtRp255
(dp256
g62
(dp257
g70
I4
ssg71
g251
sg64
(lp258
g57
(g66
g59
NtRp259
(dp260
g62
(dp261
g70
I3
ssg71
Nsg64
(lp262
g57
(g73
g59
NtRp263
(dp264
g62
(dp265
sg71
g259
sg64
(lp266
g57
(g78
g59
NtRp267
(dp268
g62
(dp269
g82
g83
ssg71
g263
sg64
(lp270
S'comment'
p271
asbag57
(g78
g59
NtRp272
(dp273
g62
(dp274
g89
g90
ssg71
g263
sg64
(lp275
S':'
asbag57
(g78
g59
NtRp276
(dp277
g62
(dp278
sg71
g263
sg64
(lp279
g57
(g58
g59
NtRp280
(dp281
g62
(dp282
g70
I3
ssg71
g276
sg64
(lp283
S''
asbasbasbag57
(g73
g59
NtRp284
(dp285
g62
(dp286
sg71
g259
sg64
(lp287
g57
(g78
g59
NtRp288
(dp289
g62
(dp290
g82
g83
ssg71
g284
sg64
(lp291
S'domain'
p292
asbag57
(g78
g59
NtRp293
(dp294
g62
(dp295
g89
g90
ssg71
g284
sg64
(lp296
S':'
asbag57
(g78
g59
NtRp297
(dp298
g62
(dp299
sg71
g284
sg64
(lp300
g57
(g58
g59
NtRp301
(dp302
g62
(dp303
g70
I3
ssg71
g297
sg64
(lp304
S''
asbasbasbag57
(g73
g59
NtRp305
(dp306
g62
(dp307
sg71
g259
sg64
(lp308
g57
(g78
g59
NtRp309
(dp310
g62
(dp311
g82
g83
ssg71
g305
sg64
(lp312
S'expires'
p313
asbag57
(g78
g59
NtRp314
(dp315
g62
(dp316
g89
g90
ssg71
g305
sg64
(lp317
S':'
asbag57
(g78
g59
NtRp318
(dp319
g62
(dp320
sg71
g305
sg64
(lp321
g57
(g58
g59
NtRp322
(dp323
g62
(dp324
g70
I3
ssg71
g318
sg64
(lp325
S''
asbasbasbag57
(g73
g59
NtRp326
(dp327
g62
(dp328
sg71
g259
sg64
(lp329
g57
(g78
g59
NtRp330
(dp331
g62
(dp332
g82
g83
ssg71
g326
sg64
(lp333
S'httponly'
p334
asbag57
(g78
g59
NtRp335
(dp336
g62
(dp337
g89
g90
ssg71
g326
sg64
(lp338
S':'
asbag57
(g78
g59
NtRp339
(dp340
g62
(dp341
sg71
g326
sg64
(lp342
g57
(g58
g59
NtRp343
(dp344
g62
(dp345
g70
I3
ssg71
g339
sg64
(lp346
S''
asbasbasbag57
(g73
g59
NtRp347
(dp348
g62
(dp349
sg71
g259
sg64
(lp350
g57
(g78
g59
NtRp351
(dp352
g62
(dp353
g82
g83
ssg71
g347
sg64
(lp354
S'max-age'
p355
asbag57
(g78
g59
NtRp356
(dp357
g62
(dp358
g89
g90
ssg71
g347
sg64
(lp359
S':'
asbag57
(g78
g59
NtRp360
(dp361
g62
(dp362
sg71
g347
sg64
(lp363
g57
(g58
g59
NtRp364
(dp365
g62
(dp366
g70
I3
ssg71
g360
sg64
(lp367
S''
asbasbasbag57
(g73
g59
NtRp368
(dp369
g62
(dp370
sg71
g259
sg64
(lp371
g57
(g78
g59
NtRp372
(dp373
g62
(dp374
g82
g83
ssg71
g368
sg64
(lp375
S'path'
p376
asbag57
(g78
g59
NtRp377
(dp378
g62
(dp379
g89
g90
ssg71
g368
sg64
(lp380
S':'
asbag57
(g78
g59
NtRp381
(dp382
g62
(dp383
sg71
g368
sg64
(lp384
g57
(g58
g59
NtRp385
(dp386
g62
(dp387
g70
I3
ssg71
g381
sg64
(lp388
S''
asbasbasbag57
(g73
g59
NtRp389
(dp390
g62
(dp391
sg71
g259
sg64
(lp392
g57
(g78
g59
NtRp393
(dp394
g62
(dp395
g82
g83
ssg71
g389
sg64
(lp396
S'secure'
p397
asbag57
(g78
g59
NtRp398
(dp399
g62
(dp400
g89
g90
ssg71
g389
sg64
(lp401
S':'
asbag57
(g78
g59
NtRp402
(dp403
g62
(dp404
sg71
g389
sg64
(lp405
g57
(g58
g59
NtRp406
(dp407
g62
(dp408
g70
I3
ssg71
g402
sg64
(lp409
S''
asbasbasbag57
(g73
g59
NtRp410
(dp411
g62
(dp412
sg71
g259
sg64
(lp413
g57
(g78
g59
NtRp414
(dp415
g62
(dp416
g82
g83
ssg71
g410
sg64
(lp417
S'version'
p418
asbag57
(g78
g59
NtRp419
(dp420
g62
(dp421
g89
g90
ssg71
g410
sg64
(lp422
S':'
asbag57
(g78
g59
NtRp423
(dp424
g62
(dp425
sg71
g410
sg64
(lp426
g57
(g58
g59
NtRp427
(dp428
g62
(dp429
g70
I3
ssg71
g423
sg64
(lp430
S''
asbasbasbasbasbasbasbag57
(g73
g59
NtRp431
(dp432
g62
(dp433
sg71
g234
sg64
(lp434
g57
(g78
g59
NtRp435
(dp436
g62
(dp437
g82
g83
ssg71
g431
sg64
(lp438
S'session_id_project'
p439
asbag57
(g78
g59
NtRp440
(dp441
g62
(dp442
g89
g90
ssg71
g431
sg64
(lp443
S':'
asbag57
(g78
g59
NtRp444
(dp445
g62
(dp446
sg71
g431
sg64
(lp447
g57
(g58
g59
NtRp448
(dp449
g62
(dp450
g70
I4
ssg71
g444
sg64
(lp451
g57
(g66
g59
NtRp452
(dp453
g62
(dp454
g70
I3
ssg71
Nsg64
(lp455
g57
(g73
g59
NtRp456
(dp457
g62
(dp458
sg71
g452
sg64
(lp459
g57
(g78
g59
NtRp460
(dp461
g62
(dp462
g82
g83
ssg71
g456
sg64
(lp463
g271
asbag57
(g78
g59
NtRp464
(dp465
g62
(dp466
g89
g90
ssg71
g456
sg64
(lp467
S':'
asbag57
(g78
g59
NtRp468
(dp469
g62
(dp470
sg71
g456
sg64
(lp471
g57
(g58
g59
NtRp472
(dp473
g62
(dp474
g70
I3
ssg71
g468
sg64
(lp475
S''
asbasbasbag57
(g73
g59
NtRp476
(dp477
g62
(dp478
sg71
g452
sg64
(lp479
g57
(g78
g59
NtRp480
(dp481
g62
(dp482
g82
g83
ssg71
g476
sg64
(lp483
g292
asbag57
(g78
g59
NtRp484
(dp485
g62
(dp486
g89
g90
ssg71
g476
sg64
(lp487
S':'
asbag57
(g78
g59
NtRp488
(dp489
g62
(dp490
sg71
g476
sg64
(lp491
g57
(g58
g59
NtRp492
(dp493
g62
(dp494
g70
I3
ssg71
g488
sg64
(lp495
S''
asbasbasbag57
(g73
g59
NtRp496
(dp497
g62
(dp498
sg71
g452
sg64
(lp499
g57
(g78
g59
NtRp500
(dp501
g62
(dp502
g82
g83
ssg71
g496
sg64
(lp503
g313
asbag57
(g78
g59
NtRp504
(dp505
g62
(dp506
g89
g90
ssg71
g496
sg64
(lp507
S':'
asbag57
(g78
g59
NtRp508
(dp509
g62
(dp510
sg71
g496
sg64
(lp511
g57
(g58
g59
NtRp512
(dp513
g62
(dp514
g70
I3
ssg71
g508
sg64
(lp515
S''
asbasbasbag57
(g73
g59
NtRp516
(dp517
g62
(dp518
sg71
g452
sg64
(lp519
g57
(g78
g59
NtRp520
(dp521
g62
(dp522
g82
g83
ssg71
g516
sg64
(lp523
g334
asbag57
(g78
g59
NtRp524
(dp525
g62
(dp526
g89
g90
ssg71
g516
sg64
(lp527
S':'
asbag57
(g78
g59
NtRp528
(dp529
g62
(dp530
sg71
g516
sg64
(lp531
g57
(g58
g59
NtRp532
(dp533
g62
(dp534
g70
I3
ssg71
g528
sg64
(lp535
S''
asbasbasbag57
(g73
g59
NtRp536
(dp537
g62
(dp538
sg71
g452
sg64
(lp539
g57
(g78
g59
NtRp540
(dp541
g62
(dp542
g82
g83
ssg71
g536
sg64
(lp543
g355
asbag57
(g78
g59
NtRp544
(dp545
g62
(dp546
g89
g90
ssg71
g536
sg64
(lp547
S':'
asbag57
(g78
g59
NtRp548
(dp549
g62
(dp550
sg71
g536
sg64
(lp551
g57
(g58
g59
NtRp552
(dp553
g62
(dp554
g70
I3
ssg71
g548
sg64
(lp555
S''
asbasbasbag57
(g73
g59
NtRp556
(dp557
g62
(dp558
sg71
g452
sg64
(lp559
g57
(g78
g59
NtRp560
(dp561
g62
(dp562
g82
g83
ssg71
g556
sg64
(lp563
g376
asbag57
(g78
g59
NtRp564
(dp565
g62
(dp566
g89
g90
ssg71
g556
sg64
(lp567
S':'
asbag57
(g78
g59
NtRp568
(dp569
g62
(dp570
sg71
g556
sg64
(lp571
g57
(g58
g59
NtRp572
(dp573
g62
(dp574
g70
I3
ssg71
g568
sg64
(lp575
S''
asbasbasbag57
(g73
g59
NtRp576
(dp577
g62
(dp578
sg71
g452
sg64
(lp579
g57
(g78
g59
NtRp580
(dp581
g62
(dp582
g82
g83
ssg71
g576
sg64
(lp583
g397
asbag57
(g78
g59
NtRp584
(dp585
g62
(dp586
g89
g90
ssg71
g576
sg64
(lp587
S':'
asbag57
(g78
g59
NtRp588
(dp589
g62
(dp590
sg71
g576
sg64
(lp591
g57
(g58
g59
NtRp592
(dp593
g62
(dp594
g70
I3
ssg71
g588
sg64
(lp595
S''
asbasbasbag57
(g73
g59
NtRp596
(dp597
g62
(dp598
sg71
g452
sg64
(lp599
g57
(g78
g59
NtRp600
(dp601
g62
(dp602
g82
g83
ssg71
g596
sg64
(lp603
g418
asbag57
(g78
g59
NtRp604
(dp605
g62
(dp606
g89
g90
ssg71
g596
sg64
(lp607
S':'
asbag57
(g78
g59
NtRp608
(dp609
g62
(dp610
sg71
g596
sg64
(lp611
g57
(g58
g59
NtRp612
(dp613
g62
(dp614
g70
I3
ssg71
g608
sg64
(lp615
S''
asbasbasbasbasbasbasbag57
(g73
g59
NtRp616
(dp617
g62
(dp618
sg71
g234
sg64
(lp619
g57
(g78
g59
NtRp620
(dp621
g62
(dp622
g82
g83
ssg71
g616
sg64
(lp623
S'session_id_welcome'
p624
asbag57
(g78
g59
NtRp625
(dp626
g62
(dp627
g89
g90
ssg71
g616
sg64
(lp628
S':'
asbag57
(g78
g59
NtRp629
(dp630
g62
(dp631
sg71
g616
sg64
(lp632
g57
(g58
g59
NtRp633
(dp634
g62
(dp635
g70
I4
ssg71
g629
sg64
(lp636
g57
(g66
g59
NtRp637
(dp638
g62
(dp639
g70
I3
ssg71
Nsg64
(lp640
g57
(g73
g59
NtRp641
(dp642
g62
(dp643
sg71
g637
sg64
(lp644
g57
(g78
g59
NtRp645
(dp646
g62
(dp647
g82
g83
ssg71
g641
sg64
(lp648
g271
asbag57
(g78
g59
NtRp649
(dp650
g62
(dp651
g89
g90
ssg71
g641
sg64
(lp652
S':'
asbag57
(g78
g59
NtRp653
(dp654
g62
(dp655
sg71
g641
sg64
(lp656
g57
(g58
g59
NtRp657
(dp658
g62
(dp659
g70
I3
ssg71
g653
sg64
(lp660
S''
asbasbasbag57
(g73
g59
NtRp661
(dp662
g62
(dp663
sg71
g637
sg64
(lp664
g57
(g78
g59
NtRp665
(dp666
g62
(dp667
g82
g83
ssg71
g661
sg64
(lp668
g292
asbag57
(g78
g59
NtRp669
(dp670
g62
(dp671
g89
g90
ssg71
g661
sg64
(lp672
S':'
asbag57
(g78
g59
NtRp673
(dp674
g62
(dp675
sg71
g661
sg64
(lp676
g57
(g58
g59
NtRp677
(dp678
g62
(dp679
g70
I3
ssg71
g673
sg64
(lp680
S''
asbasbasbag57
(g73
g59
NtRp681
(dp682
g62
(dp683
sg71
g637
sg64
(lp684
g57
(g78
g59
NtRp685
(dp686
g62
(dp687
g82
g83
ssg71
g681
sg64
(lp688
g313
asbag57
(g78
g59
NtRp689
(dp690
g62
(dp691
g89
g90
ssg71
g681
sg64
(lp692
S':'
asbag57
(g78
g59
NtRp693
(dp694
g62
(dp695
sg71
g681
sg64
(lp696
g57
(g58
g59
NtRp697
(dp698
g62
(dp699
g70
I3
ssg71
g693
sg64
(lp700
S''
asbasbasbag57
(g73
g59
NtRp701
(dp702
g62
(dp703
sg71
g637
sg64
(lp704
g57
(g78
g59
NtRp705
(dp706
g62
(dp707
g82
g83
ssg71
g701
sg64
(lp708
g334
asbag57
(g78
g59
NtRp709
(dp710
g62
(dp711
g89
g90
ssg71
g701
sg64
(lp712
S':'
asbag57
(g78
g59
NtRp713
(dp714
g62
(dp715
sg71
g701
sg64
(lp716
g57
(g58
g59
NtRp717
(dp718
g62
(dp719
g70
I3
ssg71
g713
sg64
(lp720
S''
asbasbasbag57
(g73
g59
NtRp721
(dp722
g62
(dp723
sg71
g637
sg64
(lp724
g57
(g78
g59
NtRp725
(dp726
g62
(dp727
g82
g83
ssg71
g721
sg64
(lp728
g355
asbag57
(g78
g59
NtRp729
(dp730
g62
(dp731
g89
g90
ssg71
g721
sg64
(lp732
S':'
asbag57
(g78
g59
NtRp733
(dp734
g62
(dp735
sg71
g721
sg64
(lp736
g57
(g58
g59
NtRp737
(dp738
g62
(dp739
g70
I3
ssg71
g733
sg64
(lp740
S''
asbasbasbag57
(g73
g59
NtRp741
(dp742
g62
(dp743
sg71
g637
sg64
(lp744
g57
(g78
g59
NtRp745
(dp746
g62
(dp747
g82
g83
ssg71
g741
sg64
(lp748
g376
asbag57
(g78
g59
NtRp749
(dp750
g62
(dp751
g89
g90
ssg71
g741
sg64
(lp752
S':'
asbag57
(g78
g59
NtRp753
(dp754
g62
(dp755
sg71
g741
sg64
(lp756
g57
(g58
g59
NtRp757
(dp758
g62
(dp759
g70
I3
ssg71
g753
sg64
(lp760
S''
asbasbasbag57
(g73
g59
NtRp761
(dp762
g62
(dp763
sg71
g637
sg64
(lp764
g57
(g78
g59
NtRp765
(dp766
g62
(dp767
g82
g83
ssg71
g761
sg64
(lp768
g397
asbag57
(g78
g59
NtRp769
(dp770
g62
(dp771
g89
g90
ssg71
g761
sg64
(lp772
S':'
asbag57
(g78
g59
NtRp773
(dp774
g62
(dp775
sg71
g761
sg64
(lp776
g57
(g58
g59
NtRp777
(dp778
g62
(dp779
g70
I3
ssg71
g773
sg64
(lp780
S''
asbasbasbag57
(g73
g59
NtRp781
(dp782
g62
(dp783
sg71
g637
sg64
(lp784
g57
(g78
g59
NtRp785
(dp786
g62
(dp787
g82
g83
ssg71
g781
sg64
(lp788
g418
asbag57
(g78
g59
NtRp789
(dp790
g62
(dp791
g89
g90
ssg71
g781
sg64
(lp792
S':'
asbag57
(g78
g59
NtRp793
(dp794
g62
(dp795
sg71
g781
sg64
(lp796
g57
(g58
g59
NtRp797
(dp798
g62
(dp799
g70
I3
ssg71
g793
sg64
(lp800
S''
asbasbasbasbasbasbasbasbasbasbasbag57
(g73
g59
NtRp801
(dp802
g62
(dp803
sg71
g67
sg64
(lp804
g57
(g78
g59
NtRp805
(dp806
g62
(dp807
g82
g83
ssg71
g801
sg64
(lp808
S'env'
p809
asbag57
(g78
g59
NtRp810
(dp811
g62
(dp812
g89
g90
ssg71
g801
sg64
(lp813
S':'
asbag57
(g78
g59
NtRp814
(dp815
g62
(dp816
sg71
g801
sg64
(lp817
g57
(g58
g59
NtRp818
(dp819
g62
(dp820
g70
I5
ssg71
g814
sg64
(lp821
g57
(g66
g59
NtRp822
(dp823
g62
(dp824
g70
I4
ssg71
Nsg64
(lp825
g57
(g73
g59
NtRp826
(dp827
g62
(dp828
sg71
g822
sg64
(lp829
g57
(g78
g59
NtRp830
(dp831
g62
(dp832
g82
g83
ssg71
g826
sg64
(lp833
S'app_folders'
p834
asbag57
(g78
g59
NtRp835
(dp836
g62
(dp837
g89
g90
ssg71
g826
sg64
(lp838
S':'
asbag57
(g78
g59
NtRp839
(dp840
g62
(dp841
sg71
g826
sg64
(lp842
g57
(g58
g59
NtRp843
(dp844
g62
(dp845
g70
I4
ssg71
g839
sg64
(lp846
S"set(['/home/arpita/courses/sem3/ssad/web2py/applications/admin/', '/home/arpita/courses/sem3/ssad/web2py/applications/project/', '/home/arpita/courses/sem3/ssad/web2py/applications/welcome/'])"
p847
asbasbasbag57
(g73
g59
NtRp848
(dp849
g62
(dp850
sg71
g822
sg64
(lp851
g57
(g78
g59
NtRp852
(dp853
g62
(dp854
g82
g83
ssg71
g848
sg64
(lp855
S'applications_parent'
p856
asbag57
(g78
g59
NtRp857
(dp858
g62
(dp859
g89
g90
ssg71
g848
sg64
(lp860
S':'
asbag57
(g78
g59
NtRp861
(dp862
g62
(dp863
sg71
g848
sg64
(lp864
g57
(g58
g59
NtRp865
(dp866
g62
(dp867
g70
I4
ssg71
g861
sg64
(lp868
S'/home/arpita/courses/sem3/ssad/web2py'
p869
asbasbasbag57
(g73
g59
NtRp870
(dp871
g62
(dp872
sg71
g822
sg64
(lp873
g57
(g78
g59
NtRp874
(dp875
g62
(dp876
g82
g83
ssg71
g870
sg64
(lp877
S'cmd_args'
p878
asbag57
(g78
g59
NtRp879
(dp880
g62
(dp881
g89
g90
ssg71
g870
sg64
(lp882
S':'
asbag57
(g78
g59
NtRp883
(dp884
g62
(dp885
sg71
g870
sg64
(lp886
g57
(g58
g59
NtRp887
(dp888
g62
(dp889
g70
I4
ssg71
g883
sg64
(lp890
g57
(g66
g59
NtRp891
(dp892
g62
(dp893
g70
I3
ssg71
Nsg64
(lp894
sbasbasbasbag57
(g73
g59
NtRp895
(dp896
g62
(dp897
sg71
g822
sg64
(lp898
g57
(g78
g59
NtRp899
(dp900
g62
(dp901
g82
g83
ssg71
g895
sg64
(lp902
S'cmd_options'
p903
asbag57
(g78
g59
NtRp904
(dp905
g62
(dp906
g89
g90
ssg71
g895
sg64
(lp907
S':'
asbag57
(g78
g59
NtRp908
(dp909
g62
(dp910
sg71
g895
sg64
(lp911
g57
(g58
g59
NtRp912
(dp913
g62
(dp914
g70
I4
ssg71
g908
sg64
(lp915
S"<Values at 0x8e8a3cc: {'verbose': False, 'ip': '127.0.0.1', 'shutdown_timeout': 5, 'taskbar': False, 'nocron': False, 'pid_filename': 'httpserver.pid', 'maxthreads': None, 'softcron': False, 'server_name': 'arpita-HP-630-Notebook-PC', 'bpython': False, 'nogui': False, 'port': 8000, 'extcron': False, 'debuglevel': 30, 'test': None, 'folder': '/home/arpita/courses/sem3/ssad/web2py', 'config': '', 'import_models': False, 'winservice': '', 'shell': None, 'run': '', 'log_filename': 'httpserver.log', 'args': [''], 'socket_timeout': 5, 'ssl_ca_certificate': None, 'scheduler': None, 'profiler_filename': None, 'ssl_private_key': '', 'password': 'arpita', 'request_queue_size': 5, 'ssl_certificate': '', 'cronjob': False, 'numthreads': None, 'quiet': False, 'interfaces': None, 'minthreads': None, 'timeout': 10, 'plain': False, 'nobanner': False}>"
p916
asbasbasbag57
(g73
g59
NtRp917
(dp918
g62
(dp919
sg71
g822
sg64
(lp920
g57
(g78
g59
NtRp921
(dp922
g62
(dp923
g82
g83
ssg71
g917
sg64
(lp924
S'db_sessions'
p925
asbag57
(g78
g59
NtRp926
(dp927
g62
(dp928
g89
g90
ssg71
g917
sg64
(lp929
S':'
asbag57
(g78
g59
NtRp930
(dp931
g62
(dp932
sg71
g917
sg64
(lp933
g57
(g58
g59
NtRp934
(dp935
g62
(dp936
g70
I4
ssg71
g930
sg64
(lp937
S'set([])'
p938
asbasbasbag57
(g73
g59
NtRp939
(dp940
g62
(dp941
sg71
g822
sg64
(lp942
g57
(g78
g59
NtRp943
(dp944
g62
(dp945
g82
g83
ssg71
g939
sg64
(lp946
S'debugging'
p947
asbag57
(g78
g59
NtRp948
(dp949
g62
(dp950
g89
g90
ssg71
g939
sg64
(lp951
S':'
asbag57
(g78
g59
NtRp952
(dp953
g62
(dp954
sg71
g939
sg64
(lp955
g57
(g58
g59
NtRp956
(dp957
g62
(dp958
g70
I4
ssg71
g952
sg64
(lp959
g100
asbasbasbag57
(g73
g59
NtRp960
(dp961
g62
(dp962
sg71
g822
sg64
(lp963
g57
(g78
g59
NtRp964
(dp965
g62
(dp966
g82
g83
ssg71
g960
sg64
(lp967
S'gluon_parent'
p968
asbag57
(g78
g59
NtRp969
(dp970
g62
(dp971
g89
g90
ssg71
g960
sg64
(lp972
S':'
asbag57
(g78
g59
NtRp973
(dp974
g62
(dp975
sg71
g960
sg64
(lp976
g57
(g58
g59
NtRp977
(dp978
g62
(dp979
g70
I4
ssg71
g973
sg64
(lp980
S'/home/arpita/courses/sem3/ssad/web2py'
p981
asbasbasbag57
(g73
g59
NtRp982
(dp983
g62
(dp984
sg71
g822
sg64
(lp985
g57
(g78
g59
NtRp986
(dp987
g62
(dp988
g82
g83
ssg71
g982
sg64
(lp989
S'http_accept'
p990
asbag57
(g78
g59
NtRp991
(dp992
g62
(dp993
g89
g90
ssg71
g982
sg64
(lp994
S':'
asbag57
(g78
g59
NtRp995
(dp996
g62
(dp997
sg71
g982
sg64
(lp998
g57
(g58
g59
NtRp999
(dp1000
g62
(dp1001
g70
I4
ssg71
g995
sg64
(lp1002
S'text/html,application/xhtml+xml,application/xml;q=0.9,*/*;q=0.8'
p1003
asbasbasbag57
(g73
g59
NtRp1004
(dp1005
g62
(dp1006
sg71
g822
sg64
(lp1007
g57
(g78
g59
NtRp1008
(dp1009
g62
(dp1010
g82
g83
ssg71
g1004
sg64
(lp1011
S'http_accept_charset'
p1012
asbag57
(g78
g59
NtRp1013
(dp1014
g62
(dp1015
g89
g90
ssg71
g1004
sg64
(lp1016
S':'
asbag57
(g78
g59
NtRp1017
(dp1018
g62
(dp1019
sg71
g1004
sg64
(lp1020
g57
(g58
g59
NtRp1021
(dp1022
g62
(dp1023
g70
I4
ssg71
g1017
sg64
(lp1024
S'ISO-8859-1,utf-8;q=0.7,*;q=0.7'
p1025
asbasbasbag57
(g73
g59
NtRp1026
(dp1027
g62
(dp1028
sg71
g822
sg64
(lp1029
g57
(g78
g59
NtRp1030
(dp1031
g62
(dp1032
g82
g83
ssg71
g1026
sg64
(lp1033
S'http_accept_encoding'
p1034
asbag57
(g78
g59
NtRp1035
(dp1036
g62
(dp1037
g89
g90
ssg71
g1026
sg64
(lp1038
S':'
asbag57
(g78
g59
NtRp1039
(dp1040
g62
(dp1041
sg71
g1026
sg64
(lp1042
g57
(g58
g59
NtRp1043
(dp1044
g62
(dp1045
g70
I4
ssg71
g1039
sg64
(lp1046
S'gzip, deflate'
p1047
asbasbasbag57
(g73
g59
NtRp1048
(dp1049
g62
(dp1050
sg71
g822
sg64
(lp1051
g57
(g78
g59
NtRp1052
(dp1053
g62
(dp1054
g82
g83
ssg71
g1048
sg64
(lp1055
S'http_accept_language'
p1056
asbag57
(g78
g59
NtRp1057
(dp1058
g62
(dp1059
g89
g90
ssg71
g1048
sg64
(lp1060
S':'
asbag57
(g78
g59
NtRp1061
(dp1062
g62
(dp1063
sg71
g1048
sg64
(lp1064
g57
(g58
g59
NtRp1065
(dp1066
g62
(dp1067
g70
I4
ssg71
g1061
sg64
(lp1068
S'en-us,en;q=0.5'
p1069
asbasbasbag57
(g73
g59
NtRp1070
(dp1071
g62
(dp1072
sg71
g822
sg64
(lp1073
g57
(g78
g59
NtRp1074
(dp1075
g62
(dp1076
g82
g83
ssg71
g1070
sg64
(lp1077
S'http_connection'
p1078
asbag57
(g78
g59
NtRp1079
(dp1080
g62
(dp1081
g89
g90
ssg71
g1070
sg64
(lp1082
S':'
asbag57
(g78
g59
NtRp1083
(dp1084
g62
(dp1085
sg71
g1070
sg64
(lp1086
g57
(g58
g59
NtRp1087
(dp1088
g62
(dp1089
g70
I4
ssg71
g1083
sg64
(lp1090
S'keep-alive'
p1091
asbasbasbag57
(g73
g59
NtRp1092
(dp1093
g62
(dp1094
sg71
g822
sg64
(lp1095
g57
(g78
g59
NtRp1096
(dp1097
g62
(dp1098
g82
g83
ssg71
g1092
sg64
(lp1099
S'http_cookie'
p1100
asbag57
(g78
g59
NtRp1101
(dp1102
g62
(dp1103
g89
g90
ssg71
g1092
sg64
(lp1104
S':'
asbag57
(g78
g59
NtRp1105
(dp1106
g62
(dp1107
sg71
g1092
sg64
(lp1108
g57
(g58
g59
NtRp1109
(dp1110
g62
(dp1111
g70
I4
ssg71
g1105
sg64
(lp1112
S'session_id_welcome=127.0.0.1-a90eb883-30cb-4a6e-a8be-a1316ee6a858; session_id_admin=127.0.0.1-bc5944df-4574-4839-8dd9-d8550cd62889; session_id_project=127.0.0.1-a4d96691-8401-4c66-8ac6-2cead0f9ad29'
p1113
asbasbasbag57
(g73
g59
NtRp1114
(dp1115
g62
(dp1116
sg71
g822
sg64
(lp1117
g57
(g78
g59
NtRp1118
(dp1119
g62
(dp1120
g82
g83
ssg71
g1114
sg64
(lp1121
S'http_host'
p1122
asbag57
(g78
g59
NtRp1123
(dp1124
g62
(dp1125
g89
g90
ssg71
g1114
sg64
(lp1126
S':'
asbag57
(g78
g59
NtRp1127
(dp1128
g62
(dp1129
sg71
g1114
sg64
(lp1130
g57
(g58
g59
NtRp1131
(dp1132
g62
(dp1133
g70
I4
ssg71
g1127
sg64
(lp1134
S'127.0.0.1:8000'
p1135
asbasbasbag57
(g73
g59
NtRp1136
(dp1137
g62
(dp1138
sg71
g822
sg64
(lp1139
g57
(g78
g59
NtRp1140
(dp1141
g62
(dp1142
g82
g83
ssg71
g1136
sg64
(lp1143
S'http_referer'
p1144
asbag57
(g78
g59
NtRp1145
(dp1146
g62
(dp1147
g89
g90
ssg71
g1136
sg64
(lp1148
S':'
asbag57
(g78
g59
NtRp1149
(dp1150
g62
(dp1151
sg71
g1136
sg64
(lp1152
g57
(g58
g59
NtRp1153
(dp1154
g62
(dp1155
g70
I4
ssg71
g1149
sg64
(lp1156
S'http://127.0.0.1:8000/project/default/relate'
p1157
asbasbasbag57
(g73
g59
NtRp1158
(dp1159
g62
(dp1160
sg71
g822
sg64
(lp1161
g57
(g78
g59
NtRp1162
(dp1163
g62
(dp1164
g82
g83
ssg71
g1158
sg64
(lp1165
S'http_user_agent'
p1166
asbag57
(g78
g59
NtRp1167
(dp1168
g62
(dp1169
g89
g90
ssg71
g1158
sg64
(lp1170
S':'
asbag57
(g78
g59
NtRp1171
(dp1172
g62
(dp1173
sg71
g1158
sg64
(lp1174
g57
(g58
g59
NtRp1175
(dp1176
g62
(dp1177
g70
I4
ssg71
g1171
sg64
(lp1178
S'Mozilla/5.0 (X11; Linux i686; rv:7.0.1) Gecko/20100101 Firefox/7.0.1'
p1179
asbasbasbag57
(g73
g59
NtRp1180
(dp1181
g62
(dp1182
sg71
g822
sg64
(lp1183
g57
(g78
g59
NtRp1184
(dp1185
g62
(dp1186
g82
g83
ssg71
g1180
sg64
(lp1187
S'is_jython'
p1188
asbag57
(g78
g59
NtRp1189
(dp1190
g62
(dp1191
g89
g90
ssg71
g1180
sg64
(lp1192
S':'
asbag57
(g78
g59
NtRp1193
(dp1194
g62
(dp1195
sg71
g1180
sg64
(lp1196
g57
(g58
g59
NtRp1197
(dp1198
g62
(dp1199
g70
I4
ssg71
g1193
sg64
(lp1200
g100
asbasbasbag57
(g73
g59
NtRp1201
(dp1202
g62
(dp1203
sg71
g822
sg64
(lp1204
g57
(g78
g59
NtRp1205
(dp1206
g62
(dp1207
g82
g83
ssg71
g1201
sg64
(lp1208
S'is_pypy'
p1209
asbag57
(g78
g59
NtRp1210
(dp1211
g62
(dp1212
g89
g90
ssg71
g1201
sg64
(lp1213
S':'
asbag57
(g78
g59
NtRp1214
(dp1215
g62
(dp1216
sg71
g1201
sg64
(lp1217
g57
(g58
g59
NtRp1218
(dp1219
g62
(dp1220
g70
I4
ssg71
g1214
sg64
(lp1221
g100
asbasbasbag57
(g73
g59
NtRp1222
(dp1223
g62
(dp1224
sg71
g822
sg64
(lp1225
g57
(g78
g59
NtRp1226
(dp1227
g62
(dp1228
g82
g83
ssg71
g1222
sg64
(lp1229
S'path_info'
p1230
asbag57
(g78
g59
NtRp1231
(dp1232
g62
(dp1233
g89
g90
ssg71
g1222
sg64
(lp1234
S':'
asbag57
(g78
g59
NtRp1235
(dp1236
g62
(dp1237
sg71
g1222
sg64
(lp1238
g57
(g58
g59
NtRp1239
(dp1240
g62
(dp1241
g70
I4
ssg71
g1235
sg64
(lp1242
S'/project/default/kruskal'
p1243
asbasbasbag57
(g73
g59
NtRp1244
(dp1245
g62
(dp1246
sg71
g822
sg64
(lp1247
g57
(g78
g59
NtRp1248
(dp1249
g62
(dp1250
g82
g83
ssg71
g1244
sg64
(lp1251
S'query_string'
p1252
asbag57
(g78
g59
NtRp1253
(dp1254
g62
(dp1255
g89
g90
ssg71
g1244
sg64
(lp1256
S':'
asbag57
(g78
g59
NtRp1257
(dp1258
g62
(dp1259
sg71
g1244
sg64
(lp1260
g57
(g58
g59
NtRp1261
(dp1262
g62
(dp1263
g70
I4
ssg71
g1257
sg64
(lp1264
S''
asbasbasbag57
(g73
g59
NtRp1265
(dp1266
g62
(dp1267
sg71
g822
sg64
(lp1268
g57
(g78
g59
NtRp1269
(dp1270
g62
(dp1271
g82
g83
ssg71
g1265
sg64
(lp1272
S'remote_addr'
p1273
asbag57
(g78
g59
NtRp1274
(dp1275
g62
(dp1276
g89
g90
ssg71
g1265
sg64
(lp1277
S':'
asbag57
(g78
g59
NtRp1278
(dp1279
g62
(dp1280
sg71
g1265
sg64
(lp1281
g57
(g58
g59
NtRp1282
(dp1283
g62
(dp1284
g70
I4
ssg71
g1278
sg64
(lp1285
g190
asbasbasbag57
(g73
g59
NtRp1286
(dp1287
g62
(dp1288
sg71
g822
sg64
(lp1289
g57
(g78
g59
NtRp1290
(dp1291
g62
(dp1292
g82
g83
ssg71
g1286
sg64
(lp1293
S'remote_port'
p1294
asbag57
(g78
g59
NtRp1295
(dp1296
g62
(dp1297
g89
g90
ssg71
g1286
sg64
(lp1298
S':'
asbag57
(g78
g59
NtRp1299
(dp1300
g62
(dp1301
sg71
g1286
sg64
(lp1302
g57
(g58
g59
NtRp1303
(dp1304
g62
(dp1305
g70
I4
ssg71
g1299
sg64
(lp1306
S'40624'
p1307
asbasbasbag57
(g73
g59
NtRp1308
(dp1309
g62
(dp1310
sg71
g822
sg64
(lp1311
g57
(g78
g59
NtRp1312
(dp1313
g62
(dp1314
g82
g83
ssg71
g1308
sg64
(lp1315
S'request_method'
p1316
asbag57
(g78
g59
NtRp1317
(dp1318
g62
(dp1319
g89
g90
ssg71
g1308
sg64
(lp1320
S':'
asbag57
(g78
g59
NtRp1321
(dp1322
g62
(dp1323
sg71
g1308
sg64
(lp1324
g57
(g58
g59
NtRp1325
(dp1326
g62
(dp1327
g70
I4
ssg71
g1321
sg64
(lp1328
S'GET'
p1329
asbasbasbag57
(g73
g59
NtRp1330
(dp1331
g62
(dp1332
sg71
g822
sg64
(lp1333
g57
(g78
g59
NtRp1334
(dp1335
g62
(dp1336
g82
g83
ssg71
g1330
sg64
(lp1337
S'script_name'
p1338
asbag57
(g78
g59
NtRp1339
(dp1340
g62
(dp1341
g89
g90
ssg71
g1330
sg64
(lp1342
S':'
asbag57
(g78
g59
NtRp1343
(dp1344
g62
(dp1345
sg71
g1330
sg64
(lp1346
g57
(g58
g59
NtRp1347
(dp1348
g62
(dp1349
g70
I4
ssg71
g1343
sg64
(lp1350
S''
asbasbasbag57
(g73
g59
NtRp1351
(dp1352
g62
(dp1353
sg71
g822
sg64
(lp1354
g57
(g78
g59
NtRp1355
(dp1356
g62
(dp1357
g82
g83
ssg71
g1351
sg64
(lp1358
S'server_name'
p1359
asbag57
(g78
g59
NtRp1360
(dp1361
g62
(dp1362
g89
g90
ssg71
g1351
sg64
(lp1363
S':'
asbag57
(g78
g59
NtRp1364
(dp1365
g62
(dp1366
sg71
g1351
sg64
(lp1367
g57
(g58
g59
NtRp1368
(dp1369
g62
(dp1370
g70
I4
ssg71
g1364
sg64
(lp1371
S'arpita-HP-630-Notebook-PC'
p1372
asbasbasbag57
(g73
g59
NtRp1373
(dp1374
g62
(dp1375
sg71
g822
sg64
(lp1376
g57
(g78
g59
NtRp1377
(dp1378
g62
(dp1379
g82
g83
ssg71
g1373
sg64
(lp1380
S'server_port'
p1381
asbag57
(g78
g59
NtRp1382
(dp1383
g62
(dp1384
g89
g90
ssg71
g1373
sg64
(lp1385
S':'
asbag57
(g78
g59
NtRp1386
(dp1387
g62
(dp1388
sg71
g1373
sg64
(lp1389
g57
(g58
g59
NtRp1390
(dp1391
g62
(dp1392
g70
I4
ssg71
g1386
sg64
(lp1393
S'8000'
p1394
asbasbasbag57
(g73
g59
NtRp1395
(dp1396
g62
(dp1397
sg71
g822
sg64
(lp1398
g57
(g78
g59
NtRp1399
(dp1400
g62
(dp1401
g82
g83
ssg71
g1395
sg64
(lp1402
S'server_protocol'
p1403
asbag57
(g78
g59
NtRp1404
(dp1405
g62
(dp1406
g89
g90
ssg71
g1395
sg64
(lp1407
S':'
asbag57
(g78
g59
NtRp1408
(dp1409
g62
(dp1410
sg71
g1395
sg64
(lp1411
g57
(g58
g59
NtRp1412
(dp1413
g62
(dp1414
g70
I4
ssg71
g1408
sg64
(lp1415
S'HTTP/1.1'
p1416
asbasbasbag57
(g73
g59
NtRp1417
(dp1418
g62
(dp1419
sg71
g822
sg64
(lp1420
g57
(g78
g59
NtRp1421
(dp1422
g62
(dp1423
g82
g83
ssg71
g1417
sg64
(lp1424
S'server_software'
p1425
asbag57
(g78
g59
NtRp1426
(dp1427
g62
(dp1428
g89
g90
ssg71
g1417
sg64
(lp1429
S':'
asbag57
(g78
g59
NtRp1430
(dp1431
g62
(dp1432
sg71
g1417
sg64
(lp1433
g57
(g58
g59
NtRp1434
(dp1435
g62
(dp1436
g70
I4
ssg71
g1430
sg64
(lp1437
S'Rocket 1.2.4'
p1438
asbasbasbag57
(g73
g59
NtRp1439
(dp1440
g62
(dp1441
sg71
g822
sg64
(lp1442
g57
(g78
g59
NtRp1443
(dp1444
g62
(dp1445
g82
g83
ssg71
g1439
sg64
(lp1446
S'web2py_crontype'
p1447
asbag57
(g78
g59
NtRp1448
(dp1449
g62
(dp1450
g89
g90
ssg71
g1439
sg64
(lp1451
S':'
asbag57
(g78
g59
NtRp1452
(dp1453
g62
(dp1454
sg71
g1439
sg64
(lp1455
g57
(g58
g59
NtRp1456
(dp1457
g62
(dp1458
g70
I4
ssg71
g1452
sg64
(lp1459
S'hard'
p1460
asbasbasbag57
(g73
g59
NtRp1461
(dp1462
g62
(dp1463
sg71
g822
sg64
(lp1464
g57
(g78
g59
NtRp1465
(dp1466
g62
(dp1467
g82
g83
ssg71
g1461
sg64
(lp1468
S'web2py_path'
p1469
asbag57
(g78
g59
NtRp1470
(dp1471
g62
(dp1472
g89
g90
ssg71
g1461
sg64
(lp1473
S':'
asbag57
(g78
g59
NtRp1474
(dp1475
g62
(dp1476
sg71
g1461
sg64
(lp1477
g57
(g58
g59
NtRp1478
(dp1479
g62
(dp1480
g70
I4
ssg71
g1474
sg64
(lp1481
g869
asbasbasbag57
(g73
g59
NtRp1482
(dp1483
g62
(dp1484
sg71
g822
sg64
(lp1485
g57
(g78
g59
NtRp1486
(dp1487
g62
(dp1488
g82
g83
ssg71
g1482
sg64
(lp1489
S'web2py_version'
p1490
asbag57
(g78
g59
NtRp1491
(dp1492
g62
(dp1493
g89
g90
ssg71
g1482
sg64
(lp1494
S':'
asbag57
(g78
g59
NtRp1495
(dp1496
g62
(dp1497
sg71
g1482
sg64
(lp1498
g57
(g58
g59
NtRp1499
(dp1500
g62
(dp1501
g70
I4
ssg71
g1495
sg64
(lp1502
g57
(g66
g59
NtRp1503
(dp1504
g62
(dp1505
g70
I3
ssg71
Nsg64
(lp1506
g57
(g73
g59
NtRp1507
(dp1508
g62
(dp1509
sg71
g1503
sg64
(lp1510
g57
(g78
g59
NtRp1511
(dp1512
g62
(dp1513
sg71
g1507
sg64
(lp1514
g57
(g58
g59
NtRp1515
(dp1516
g62
(dp1517
g70
I3
ssg71
g1511
sg64
(lp1518
S'1'
asbasbasbag57
(g73
g59
NtRp1519
(dp1520
g62
(dp1521
sg71
g1503
sg64
(lp1522
g57
(g78
g59
NtRp1523
(dp1524
g62
(dp1525
sg71
g1519
sg64
(lp1526
g57
(g58
g59
NtRp1527
(dp1528
g62
(dp1529
g70
I3
ssg71
g1523
sg64
(lp1530
S'99'
p1531
asbasbasbag57
(g73
g59
NtRp1532
(dp1533
g62
(dp1534
sg71
g1503
sg64
(lp1535
g57
(g78
g59
NtRp1536
(dp1537
g62
(dp1538
sg71
g1532
sg64
(lp1539
g57
(g58
g59
NtRp1540
(dp1541
g62
(dp1542
g70
I3
ssg71
g1536
sg64
(lp1543
S'7'
asbasbasbag57
(g73
g59
NtRp1544
(dp1545
g62
(dp1546
sg71
g1503
sg64
(lp1547
g57
(g78
g59
NtRp1548
(dp1549
g62
(dp1550
sg71
g1544
sg64
(lp1551
g57
(g58
g59
NtRp1552
(dp1553
g62
(dp1554
g70
I3
ssg71
g1548
sg64
(lp1555
S'datetime.datetime(2012, 3, 4, 22, 12, 8)'
p1556
asbasbasbag57
(g73
g59
NtRp1557
(dp1558
g62
(dp1559
sg71
g1503
sg64
(lp1560
g57
(g78
g59
NtRp1561
(dp1562
g62
(dp1563
sg71
g1557
sg64
(lp1564
g57
(g58
g59
NtRp1565
(dp1566
g62
(dp1567
g70
I3
ssg71
g1561
sg64
(lp1568
S'stable'
p1569
asbasbasbasbasbasbasbag57
(g73
g59
NtRp1570
(dp1571
g62
(dp1572
sg71
g822
sg64
(lp1573
g57
(g78
g59
NtRp1574
(dp1575
g62
(dp1576
g82
g83
ssg71
g1570
sg64
(lp1577
S'wsgi_errors'
p1578
asbag57
(g78
g59
NtRp1579
(dp1580
g62
(dp1581
g89
g90
ssg71
g1570
sg64
(lp1582
S':'
asbag57
(g78
g59
NtRp1583
(dp1584
g62
(dp1585
sg71
g1570
sg64
(lp1586
g57
(g58
g59
NtRp1587
(dp1588
g62
(dp1589
g70
I4
ssg71
g1583
sg64
(lp1590
S"<open file '<stderr>', mode 'w' at 0xb73290d0>"
p1591
asbasbasbag57
(g73
g59
NtRp1592
(dp1593
g62
(dp1594
sg71
g822
sg64
(lp1595
g57
(g78
g59
NtRp1596
(dp1597
g62
(dp1598
g82
g83
ssg71
g1592
sg64
(lp1599
S'wsgi_file_wrapper'
p1600
asbag57
(g78
g59
NtRp1601
(dp1602
g62
(dp1603
g89
g90
ssg71
g1592
sg64
(lp1604
S':'
asbag57
(g78
g59
NtRp1605
(dp1606
g62
(dp1607
sg71
g1592
sg64
(lp1608
g57
(g58
g59
NtRp1609
(dp1610
g62
(dp1611
g70
I4
ssg71
g1605
sg64
(lp1612
S'<class wsgiref.util.FileWrapper at 0x8e2df5c>'
p1613
asbasbasbag57
(g73
g59
NtRp1614
(dp1615
g62
(dp1616
sg71
g822
sg64
(lp1617
g57
(g78
g59
NtRp1618
(dp1619
g62
(dp1620
g82
g83
ssg71
g1614
sg64
(lp1621
S'wsgi_input'
p1622
asbag57
(g78
g59
NtRp1623
(dp1624
g62
(dp1625
g89
g90
ssg71
g1614
sg64
(lp1626
S':'
asbag57
(g78
g59
NtRp1627
(dp1628
g62
(dp1629
sg71
g1614
sg64
(lp1630
g57
(g58
g59
NtRp1631
(dp1632
g62
(dp1633
g70
I4
ssg71
g1627
sg64
(lp1634
S'<socket._fileobject object at 0x95eabac>'
p1635
asbasbasbag57
(g73
g59
NtRp1636
(dp1637
g62
(dp1638
sg71
g822
sg64
(lp1639
g57
(g78
g59
NtRp1640
(dp1641
g62
(dp1642
g82
g83
ssg71
g1636
sg64
(lp1643
S'wsgi_multiprocess'
p1644
asbag57
(g78
g59
NtRp1645
(dp1646
g62
(dp1647
g89
g90
ssg71
g1636
sg64
(lp1648
S':'
asbag57
(g78
g59
NtRp1649
(dp1650
g62
(dp1651
sg71
g1636
sg64
(lp1652
g57
(g58
g59
NtRp1653
(dp1654
g62
(dp1655
g70
I4
ssg71
g1649
sg64
(lp1656
g100
asbasbasbag57
(g73
g59
NtRp1657
(dp1658
g62
(dp1659
sg71
g822
sg64
(lp1660
g57
(g78
g59
NtRp1661
(dp1662
g62
(dp1663
g82
g83
ssg71
g1657
sg64
(lp1664
S'wsgi_multithread'
p1665
asbag57
(g78
g59
NtRp1666
(dp1667
g62
(dp1668
g89
g90
ssg71
g1657
sg64
(lp1669
S':'
asbag57
(g78
g59
NtRp1670
(dp1671
g62
(dp1672
sg71
g1657
sg64
(lp1673
g57
(g58
g59
NtRp1674
(dp1675
g62
(dp1676
g70
I4
ssg71
g1670
sg64
(lp1677
S'True'
p1678
asbasbasbag57
(g73
g59
NtRp1679
(dp1680
g62
(dp1681
sg71
g822
sg64
(lp1682
g57
(g78
g59
NtRp1683
(dp1684
g62
(dp1685
g82
g83
ssg71
g1679
sg64
(lp1686
S'wsgi_run_once'
p1687
asbag57
(g78
g59
NtRp1688
(dp1689
g62
(dp1690
g89
g90
ssg71
g1679
sg64
(lp1691
S':'
asbag57
(g78
g59
NtRp1692
(dp1693
g62
(dp1694
sg71
g1679
sg64
(lp1695
g57
(g58
g59
NtRp1696
(dp1697
g62
(dp1698
g70
I4
ssg71
g1692
sg64
(lp1699
g100
asbasbasbag57
(g73
g59
NtRp1700
(dp1701
g62
(dp1702
sg71
g822
sg64
(lp1703
g57
(g78
g59
NtRp1704
(dp1705
g62
(dp1706
g82
g83
ssg71
g1700
sg64
(lp1707
S'wsgi_url_scheme'
p1708
asbag57
(g78
g59
NtRp1709
(dp1710
g62
(dp1711
g89
g90
ssg71
g1700
sg64
(lp1712
S':'
asbag57
(g78
g59
NtRp1713
(dp1714
g62
(dp1715
sg71
g1700
sg64
(lp1716
g57
(g58
g59
NtRp1717
(dp1718
g62
(dp1719
g70
I4
ssg71
g1713
sg64
(lp1720
S'http'
p1721
asbasbasbag57
(g73
g59
NtRp1722
(dp1723
g62
(dp1724
sg71
g822
sg64
(lp1725
g57
(g78
g59
NtRp1726
(dp1727
g62
(dp1728
g82
g83
ssg71
g1722
sg64
(lp1729
S'wsgi_version'
p1730
asbag57
(g78
g59
NtRp1731
(dp1732
g62
(dp1733
g89
g90
ssg71
g1722
sg64
(lp1734
S':'
asbag57
(g78
g59
NtRp1735
(dp1736
g62
(dp1737
sg71
g1722
sg64
(lp1738
g57
(g58
g59
NtRp1739
(dp1740
g62
(dp1741
g70
I4
ssg71
g1735
sg64
(lp1742
g57
(g66
g59
NtRp1743
(dp1744
g62
(dp1745
g70
I3
ssg71
Nsg64
(lp1746
g57
(g73
g59
NtRp1747
(dp1748
g62
(dp1749
sg71
g1743
sg64
(lp1750
g57
(g78
g59
NtRp1751
(dp1752
g62
(dp1753
sg71
g1747
sg64
(lp1754
g57
(g58
g59
NtRp1755
(dp1756
g62
(dp1757
g70
I3
ssg71
g1751
sg64
(lp1758
S'1'
asbasbasbag57
(g73
g59
NtRp1759
(dp1760
g62
(dp1761
sg71
g1743
sg64
(lp1762
g57
(g78
g59
NtRp1763
(dp1764
g62
(dp1765
sg71
g1759
sg64
(lp1766
g57
(g58
g59
NtRp1767
(dp1768
g62
(dp1769
g70
I3
ssg71
g1763
sg64
(lp1770
S'0'
asbasbasbasbasbasbasbasbasbasbasbag57
(g73
g59
NtRp1771
(dp1772
g62
(dp1773
sg71
g67
sg64
(lp1774
g57
(g78
g59
NtRp1775
(dp1776
g62
(dp1777
g82
g83
ssg71
g1771
sg64
(lp1778
S'extension'
p1779
asbag57
(g78
g59
NtRp1780
(dp1781
g62
(dp1782
g89
g90
ssg71
g1771
sg64
(lp1783
S':'
asbag57
(g78
g59
NtRp1784
(dp1785
g62
(dp1786
sg71
g1771
sg64
(lp1787
g57
(g58
g59
NtRp1788
(dp1789
g62
(dp1790
g70
I5
ssg71
g1784
sg64
(lp1791
S'html'
p1792
asbasbasbag57
(g73
g59
NtRp1793
(dp1794
g62
(dp1795
sg71
g67
sg64
(lp1796
g57
(g78
g59
NtRp1797
(dp1798
g62
(dp1799
g82
g83
ssg71
g1793
sg64
(lp1800
S'folder'
p1801
asbag57
(g78
g59
NtRp1802
(dp1803
g62
(dp1804
g89
g90
ssg71
g1793
sg64
(lp1805
S':'
asbag57
(g78
g59
NtRp1806
(dp1807
g62
(dp1808
sg71
g1793
sg64
(lp1809
g57
(g58
g59
NtRp1810
(dp1811
g62
(dp1812
g70
I5
ssg71
g1806
sg64
(lp1813
S'/home/arpita/courses/sem3/ssad/web2py/applications/project/'
p1814
asbasbasbag57
(g73
g59
NtRp1815
(dp1816
g62
(dp1817
sg71
g67
sg64
(lp1818
g57
(g78
g59
NtRp1819
(dp1820
g62
(dp1821
g82
g83
ssg71
g1815
sg64
(lp1822
S'function'
p1823
asbag57
(g78
g59
NtRp1824
(dp1825
g62
(dp1826
g89
g90
ssg71
g1815
sg64
(lp1827
S':'
asbag57
(g78
g59
NtRp1828
(dp1829
g62
(dp1830
sg71
g1815
sg64
(lp1831
g57
(g58
g59
NtRp1832
(dp1833
g62
(dp1834
g70
I5
ssg71
g1828
sg64
(lp1835
S'kruskal'
p1836
asbasbasbag57
(g73
g59
NtRp1837
(dp1838
g62
(dp1839
sg71
g67
sg64
(lp1840
g57
(g78
g59
NtRp1841
(dp1842
g62
(dp1843
g82
g83
ssg71
g1837
sg64
(lp1844
S'get_vars'
p1845
asbag57
(g78
g59
NtRp1846
(dp1847
g62
(dp1848
g89
g90
ssg71
g1837
sg64
(lp1849
S':'
asbag57
(g78
g59
NtRp1850
(dp1851
g62
(dp1852
sg71
g1837
sg64
(lp1853
g57
(g58
g59
NtRp1854
(dp1855
g62
(dp1856
g70
I5
ssg71
g1850
sg64
(lp1857
g57
(g66
g59
NtRp1858
(dp1859
g62
(dp1860
g70
I4
ssg71
Nsg64
(lp1861
sbasbasbasbag57
(g73
g59
NtRp1862
(dp1863
g62
(dp1864
sg71
g67
sg64
(lp1865
g57
(g78
g59
NtRp1866
(dp1867
g62
(dp1868
g82
g83
ssg71
g1862
sg64
(lp1869
S'global_settings'
p1870
asbag57
(g78
g59
NtRp1871
(dp1872
g62
(dp1873
g89
g90
ssg71
g1862
sg64
(lp1874
S':'
asbag57
(g78
g59
NtRp1875
(dp1876
g62
(dp1877
sg71
g1862
sg64
(lp1878
g57
(g58
g59
NtRp1879
(dp1880
g62
(dp1881
g70
I5
ssg71
g1875
sg64
(lp1882
g57
(g66
g59
NtRp1883
(dp1884
g62
(dp1885
g70
I4
ssg71
Nsg64
(lp1886
g57
(g73
g59
NtRp1887
(dp1888
g62
(dp1889
sg71
g1883
sg64
(lp1890
g57
(g78
g59
NtRp1891
(dp1892
g62
(dp1893
g82
g83
ssg71
g1887
sg64
(lp1894
g834
asbag57
(g78
g59
NtRp1895
(dp1896
g62
(dp1897
g89
g90
ssg71
g1887
sg64
(lp1898
S':'
asbag57
(g78
g59
NtRp1899
(dp1900
g62
(dp1901
sg71
g1887
sg64
(lp1902
g57
(g58
g59
NtRp1903
(dp1904
g62
(dp1905
g70
I4
ssg71
g1899
sg64
(lp1906
S"set(['/home/arpita/courses/sem3/ssad/web2py/applications/admin/', '/home/arpita/courses/sem3/ssad/web2py/applications/project/', '/home/arpita/courses/sem3/ssad/web2py/applications/welcome/'])"
p1907
asbasbasbag57
(g73
g59
NtRp1908
(dp1909
g62
(dp1910
sg71
g1883
sg64
(lp1911
g57
(g78
g59
NtRp1912
(dp1913
g62
(dp1914
g82
g83
ssg71
g1908
sg64
(lp1915
g856
asbag57
(g78
g59
NtRp1916
(dp1917
g62
(dp1918
g89
g90
ssg71
g1908
sg64
(lp1919
S':'
asbag57
(g78
g59
NtRp1920
(dp1921
g62
(dp1922
sg71
g1908
sg64
(lp1923
g57
(g58
g59
NtRp1924
(dp1925
g62
(dp1926
g70
I4
ssg71
g1920
sg64
(lp1927
g869
asbasbasbag57
(g73
g59
NtRp1928
(dp1929
g62
(dp1930
sg71
g1883
sg64
(lp1931
g57
(g78
g59
NtRp1932
(dp1933
g62
(dp1934
g82
g83
ssg71
g1928
sg64
(lp1935
g878
asbag57
(g78
g59
NtRp1936
(dp1937
g62
(dp1938
g89
g90
ssg71
g1928
sg64
(lp1939
S':'
asbag57
(g78
g59
NtRp1940
(dp1941
g62
(dp1942
sg71
g1928
sg64
(lp1943
g57
(g58
g59
NtRp1944
(dp1945
g62
(dp1946
g70
I4
ssg71
g1940
sg64
(lp1947
g57
(g66
g59
NtRp1948
(dp1949
g62
(dp1950
g70
I3
ssg71
Nsg64
(lp1951
sbasbasbasbag57
(g73
g59
NtRp1952
(dp1953
g62
(dp1954
sg71
g1883
sg64
(lp1955
g57
(g78
g59
NtRp1956
(dp1957
g62
(dp1958
g82
g83
ssg71
g1952
sg64
(lp1959
g903
asbag57
(g78
g59
NtRp1960
(dp1961
g62
(dp1962
g89
g90
ssg71
g1952
sg64
(lp1963
S':'
asbag57
(g78
g59
NtRp1964
(dp1965
g62
(dp1966
sg71
g1952
sg64
(lp1967
g57
(g58
g59
NtRp1968
(dp1969
g62
(dp1970
g70
I4
ssg71
g1964
sg64
(lp1971
S"<Values at 0x8e8a3cc: {'verbose': False, 'ip': '127.0.0.1', 'shutdown_timeout': 5, 'taskbar': False, 'nocron': False, 'pid_filename': 'httpserver.pid', 'maxthreads': None, 'softcron': False, 'server_name': 'arpita-HP-630-Notebook-PC', 'bpython': False, 'nogui': False, 'port': 8000, 'extcron': False, 'debuglevel': 30, 'test': None, 'folder': '/home/arpita/courses/sem3/ssad/web2py', 'config': '', 'import_models': False, 'winservice': '', 'shell': None, 'run': '', 'log_filename': 'httpserver.log', 'args': [''], 'socket_timeout': 5, 'ssl_ca_certificate': None, 'scheduler': None, 'profiler_filename': None, 'ssl_private_key': '', 'password': 'arpita', 'request_queue_size': 5, 'ssl_certificate': '', 'cronjob': False, 'numthreads': None, 'quiet': False, 'interfaces': None, 'minthreads': None, 'timeout': 10, 'plain': False, 'nobanner': False}>"
p1972
asbasbasbag57
(g73
g59
NtRp1973
(dp1974
g62
(dp1975
sg71
g1883
sg64
(lp1976
g57
(g78
g59
NtRp1977
(dp1978
g62
(dp1979
g82
g83
ssg71
g1973
sg64
(lp1980
g925
asbag57
(g78
g59
NtRp1981
(dp1982
g62
(dp1983
g89
g90
ssg71
g1973
sg64
(lp1984
S':'
asbag57
(g78
g59
NtRp1985
(dp1986
g62
(dp1987
sg71
g1973
sg64
(lp1988
g57
(g58
g59
NtRp1989
(dp1990
g62
(dp1991
g70
I4
ssg71
g1985
sg64
(lp1992
S'set([])'
p1993
asbasbasbag57
(g73
g59
NtRp1994
(dp1995
g62
(dp1996
sg71
g1883
sg64
(lp1997
g57
(g78
g59
NtRp1998
(dp1999
g62
(dp2000
g82
g83
ssg71
g1994
sg64
(lp2001
g947
asbag57
(g78
g59
NtRp2002
(dp2003
g62
(dp2004
g89
g90
ssg71
g1994
sg64
(lp2005
S':'
asbag57
(g78
g59
NtRp2006
(dp2007
g62
(dp2008
sg71
g1994
sg64
(lp2009
g57
(g58
g59
NtRp2010
(dp2011
g62
(dp2012
g70
I4
ssg71
g2006
sg64
(lp2013
g100
asbasbasbag57
(g73
g59
NtRp2014
(dp2015
g62
(dp2016
sg71
g1883
sg64
(lp2017
g57
(g78
g59
NtRp2018
(dp2019
g62
(dp2020
g82
g83
ssg71
g2014
sg64
(lp2021
g968
asbag57
(g78
g59
NtRp2022
(dp2023
g62
(dp2024
g89
g90
ssg71
g2014
sg64
(lp2025
S':'
asbag57
(g78
g59
NtRp2026
(dp2027
g62
(dp2028
sg71
g2014
sg64
(lp2029
g57
(g58
g59
NtRp2030
(dp2031
g62
(dp2032
g70
I4
ssg71
g2026
sg64
(lp2033
g981
asbasbasbag57
(g73
g59
NtRp2034
(dp2035
g62
(dp2036
sg71
g1883
sg64
(lp2037
g57
(g78
g59
NtRp2038
(dp2039
g62
(dp2040
g82
g83
ssg71
g2034
sg64
(lp2041
g1188
asbag57
(g78
g59
NtRp2042
(dp2043
g62
(dp2044
g89
g90
ssg71
g2034
sg64
(lp2045
S':'
asbag57
(g78
g59
NtRp2046
(dp2047
g62
(dp2048
sg71
g2034
sg64
(lp2049
g57
(g58
g59
NtRp2050
(dp2051
g62
(dp2052
g70
I4
ssg71
g2046
sg64
(lp2053
g100
asbasbasbag57
(g73
g59
NtRp2054
(dp2055
g62
(dp2056
sg71
g1883
sg64
(lp2057
g57
(g78
g59
NtRp2058
(dp2059
g62
(dp2060
g82
g83
ssg71
g2054
sg64
(lp2061
g1209
asbag57
(g78
g59
NtRp2062
(dp2063
g62
(dp2064
g89
g90
ssg71
g2054
sg64
(lp2065
S':'
asbag57
(g78
g59
NtRp2066
(dp2067
g62
(dp2068
sg71
g2054
sg64
(lp2069
g57
(g58
g59
NtRp2070
(dp2071
g62
(dp2072
g70
I4
ssg71
g2066
sg64
(lp2073
g100
asbasbasbag57
(g73
g59
NtRp2074
(dp2075
g62
(dp2076
sg71
g1883
sg64
(lp2077
g57
(g78
g59
NtRp2078
(dp2079
g62
(dp2080
g82
g83
ssg71
g2074
sg64
(lp2081
g1447
asbag57
(g78
g59
NtRp2082
(dp2083
g62
(dp2084
g89
g90
ssg71
g2074
sg64
(lp2085
S':'
asbag57
(g78
g59
NtRp2086
(dp2087
g62
(dp2088
sg71
g2074
sg64
(lp2089
g57
(g58
g59
NtRp2090
(dp2091
g62
(dp2092
g70
I4
ssg71
g2086
sg64
(lp2093
g1460
asbasbasbag57
(g73
g59
NtRp2094
(dp2095
g62
(dp2096
sg71
g1883
sg64
(lp2097
g57
(g78
g59
NtRp2098
(dp2099
g62
(dp2100
g82
g83
ssg71
g2094
sg64
(lp2101
g1490
asbag57
(g78
g59
NtRp2102
(dp2103
g62
(dp2104
g89
g90
ssg71
g2094
sg64
(lp2105
S':'
asbag57
(g78
g59
NtRp2106
(dp2107
g62
(dp2108
sg71
g2094
sg64
(lp2109
g57
(g58
g59
NtRp2110
(dp2111
g62
(dp2112
g70
I4
ssg71
g2106
sg64
(lp2113
g57
(g66
g59
NtRp2114
(dp2115
g62
(dp2116
g70
I3
ssg71
Nsg64
(lp2117
g57
(g73
g59
NtRp2118
(dp2119
g62
(dp2120
sg71
g2114
sg64
(lp2121
g57
(g78
g59
NtRp2122
(dp2123
g62
(dp2124
sg71
g2118
sg64
(lp2125
g57
(g58
g59
NtRp2126
(dp2127
g62
(dp2128
g70
I3
ssg71
g2122
sg64
(lp2129
S'1'
asbasbasbag57
(g73
g59
NtRp2130
(dp2131
g62
(dp2132
sg71
g2114
sg64
(lp2133
g57
(g78
g59
NtRp2134
(dp2135
g62
(dp2136
sg71
g2130
sg64
(lp2137
g57
(g58
g59
NtRp2138
(dp2139
g62
(dp2140
g70
I3
ssg71
g2134
sg64
(lp2141
S'99'
p2142
asbasbasbag57
(g73
g59
NtRp2143
(dp2144
g62
(dp2145
sg71
g2114
sg64
(lp2146
g57
(g78
g59
NtRp2147
(dp2148
g62
(dp2149
sg71
g2143
sg64
(lp2150
g57
(g58
g59
NtRp2151
(dp2152
g62
(dp2153
g70
I3
ssg71
g2147
sg64
(lp2154
S'7'
asbasbasbag57
(g73
g59
NtRp2155
(dp2156
g62
(dp2157
sg71
g2114
sg64
(lp2158
g57
(g78
g59
NtRp2159
(dp2160
g62
(dp2161
sg71
g2155
sg64
(lp2162
g57
(g58
g59
NtRp2163
(dp2164
g62
(dp2165
g70
I3
ssg71
g2159
sg64
(lp2166
S'datetime.datetime(2012, 3, 4, 22, 12, 8)'
p2167
asbasbasbag57
(g73
g59
NtRp2168
(dp2169
g62
(dp2170
sg71
g2114
sg64
(lp2171
g57
(g78
g59
NtRp2172
(dp2173
g62
(dp2174
sg71
g2168
sg64
(lp2175
g57
(g58
g59
NtRp2176
(dp2177
g62
(dp2178
g70
I3
ssg71
g2172
sg64
(lp2179
g1569
asbasbasbasbasbasbasbasbasbasbasbag57
(g73
g59
NtRp2180
(dp2181
g62
(dp2182
sg71
g67
sg64
(lp2183
g57
(g78
g59
NtRp2184
(dp2185
g62
(dp2186
g82
g83
ssg71
g2180
sg64
(lp2187
S'is_https'
p2188
asbag57
(g78
g59
NtRp2189
(dp2190
g62
(dp2191
g89
g90
ssg71
g2180
sg64
(lp2192
S':'
asbag57
(g78
g59
NtRp2193
(dp2194
g62
(dp2195
sg71
g2180
sg64
(lp2196
g57
(g58
g59
NtRp2197
(dp2198
g62
(dp2199
g70
I5
ssg71
g2193
sg64
(lp2200
g100
asbasbasbag57
(g73
g59
NtRp2201
(dp2202
g62
(dp2203
sg71
g67
sg64
(lp2204
g57
(g78
g59
NtRp2205
(dp2206
g62
(dp2207
g82
g83
ssg71
g2201
sg64
(lp2208
S'is_local'
p2209
asbag57
(g78
g59
NtRp2210
(dp2211
g62
(dp2212
g89
g90
ssg71
g2201
sg64
(lp2213
S':'
asbag57
(g78
g59
NtRp2214
(dp2215
g62
(dp2216
sg71
g2201
sg64
(lp2217
g57
(g58
g59
NtRp2218
(dp2219
g62
(dp2220
g70
I5
ssg71
g2214
sg64
(lp2221
g1678
asbasbasbag57
(g73
g59
NtRp2222
(dp2223
g62
(dp2224
sg71
g67
sg64
(lp2225
g57
(g78
g59
NtRp2226
(dp2227
g62
(dp2228
g82
g83
ssg71
g2222
sg64
(lp2229
S'is_restful'
p2230
asbag57
(g78
g59
NtRp2231
(dp2232
g62
(dp2233
g89
g90
ssg71
g2222
sg64
(lp2234
S':'
asbag57
(g78
g59
NtRp2235
(dp2236
g62
(dp2237
sg71
g2222
sg64
(lp2238
g57
(g58
g59
NtRp2239
(dp2240
g62
(dp2241
g70
I5
ssg71
g2235
sg64
(lp2242
g100
asbasbasbag57
(g73
g59
NtRp2243
(dp2244
g62
(dp2245
sg71
g67
sg64
(lp2246
g57
(g78
g59
NtRp2247
(dp2248
g62
(dp2249
g82
g83
ssg71
g2243
sg64
(lp2250
S'now'
p2251
asbag57
(g78
g59
NtRp2252
(dp2253
g62
(dp2254
g89
g90
ssg71
g2243
sg64
(lp2255
S':'
asbag57
(g78
g59
NtRp2256
(dp2257
g62
(dp2258
sg71
g2243
sg64
(lp2259
g57
(g58
g59
NtRp2260
(dp2261
g62
(dp2262
g70
I5
ssg71
g2256
sg64
(lp2263
S'datetime.datetime(2012, 10, 14, 18, 48, 22, 238281)'
p2264
asbasbasbag57
(g73
g59
NtRp2265
(dp2266
g62
(dp2267
sg71
g67
sg64
(lp2268
g57
(g78
g59
NtRp2269
(dp2270
g62
(dp2271
g82
g83
ssg71
g2265
sg64
(lp2272
S'post_vars'
p2273
asbag57
(g78
g59
NtRp2274
(dp2275
g62
(dp2276
g89
g90
ssg71
g2265
sg64
(lp2277
S':'
asbag57
(g78
g59
NtRp2278
(dp2279
g62
(dp2280
sg71
g2265
sg64
(lp2281
g57
(g58
g59
NtRp2282
(dp2283
g62
(dp2284
g70
I5
ssg71
g2278
sg64
(lp2285
g57
(g66
g59
NtRp2286
(dp2287
g62
(dp2288
g70
I4
ssg71
Nsg64
(lp2289
sbasbasbasbag57
(g73
g59
NtRp2290
(dp2291
g62
(dp2292
sg71
g67
sg64
(lp2293
g57
(g78
g59
NtRp2294
(dp2295
g62
(dp2296
g82
g83
ssg71
g2290
sg64
(lp2297
S'url'
p2298
asbag57
(g78
g59
NtRp2299
(dp2300
g62
(dp2301
g89
g90
ssg71
g2290
sg64
(lp2302
S':'
asbag57
(g78
g59
NtRp2303
(dp2304
g62
(dp2305
sg71
g2290
sg64
(lp2306
g57
(g58
g59
NtRp2307
(dp2308
g62
(dp2309
g70
I5
ssg71
g2303
sg64
(lp2310
S'/project/default/kruskal'
p2311
asbasbasbag57
(g73
g59
NtRp2312
(dp2313
g62
(dp2314
sg71
g67
sg64
(lp2315
g57
(g78
g59
NtRp2316
(dp2317
g62
(dp2318
g82
g83
ssg71
g2312
sg64
(lp2319
S'utcnow'
p2320
asbag57
(g78
g59
NtRp2321
(dp2322
g62
(dp2323
g89
g90
ssg71
g2312
sg64
(lp2324
S':'
asbag57
(g78
g59
NtRp2325
(dp2326
g62
(dp2327
sg71
g2312
sg64
(lp2328
g57
(g58
g59
NtRp2329
(dp2330
g62
(dp2331
g70
I5
ssg71
g2325
sg64
(lp2332
S'datetime.datetime(2012, 10, 14, 13, 18, 22, 238305)'
p2333
asbasbasbag57
(g73
g59
NtRp2334
(dp2335
g62
(dp2336
sg71
g67
sg64
(lp2337
g57
(g78
g59
NtRp2338
(dp2339
g62
(dp2340
g82
g83
ssg71
g2334
sg64
(lp2341
S'uuid'
p2342
asbag57
(g78
g59
NtRp2343
(dp2344
g62
(dp2345
g89
g90
ssg71
g2334
sg64
(lp2346
S':'
asbag57
(g78
g59
NtRp2347
(dp2348
g62
(dp2349
sg71
g2334
sg64
(lp2350
g57
(g58
g59
NtRp2351
(dp2352
g62
(dp2353
g70
I5
ssg71
g2347
sg64
(lp2354
S'project/127.0.0.1.2012-10-14.18-48-22.c5dbfdfb-8c19-43a0-9f40-231d44f64ea3'
p2355
asbasbasbag57
(g73
g59
NtRp2356
(dp2357
g62
(dp2358
sg71
g67
sg64
(lp2359
g57
(g78
g59
NtRp2360
(dp2361
g62
(dp2362
g82
g83
ssg71
g2356
sg64
(lp2363
S'vars'
p2364
asbag57
(g78
g59
NtRp2365
(dp2366
g62
(dp2367
g89
g90
ssg71
g2356
sg64
(lp2368
S':'
asbag57
(g78
g59
NtRp2369
(dp2370
g62
(dp2371
sg71
g2356
sg64
(lp2372
g57
(g58
g59
NtRp2373
(dp2374
g62
(dp2375
g70
I5
ssg71
g2369
sg64
(lp2376
g57
(g66
g59
NtRp2377
(dp2378
g62
(dp2379
g70
I4
ssg71
Nsg64
(lp2380
sbasbasbasbag57
(g73
g59
NtRp2381
(dp2382
g62
(dp2383
sg71
g67
sg64
(lp2384
g57
(g78
g59
NtRp2385
(dp2386
g62
(dp2387
g82
g83
ssg71
g2381
sg64
(lp2388
S'wsgi'
p2389
asbag57
(g78
g59
NtRp2390
(dp2391
g62
(dp2392
g89
g90
ssg71
g2381
sg64
(lp2393
S':'
asbag57
(g78
g59
NtRp2394
(dp2395
g62
(dp2396
sg71
g2381
sg64
(lp2397
g57
(g58
g59
NtRp2398
(dp2399
g62
(dp2400
g70
I5
ssg71
g2394
sg64
(lp2401
g57
(g66
g59
NtRp2402
(dp2403
g62
(dp2404
g70
I4
ssg71
Nsg64
(lp2405
g57
(g73
g59
NtRp2406
(dp2407
g62
(dp2408
sg71
g2402
sg64
(lp2409
g57
(g78
g59
NtRp2410
(dp2411
g62
(dp2412
g82
g83
ssg71
g2406
sg64
(lp2413
S'environ'
p2414
asbag57
(g78
g59
NtRp2415
(dp2416
g62
(dp2417
g89
g90
ssg71
g2406
sg64
(lp2418
S':'
asbag57
(g78
g59
NtRp2419
(dp2420
g62
(dp2421
sg71
g2406
sg64
(lp2422
g57
(g58
g59
NtRp2423
(dp2424
g62
(dp2425
g70
I4
ssg71
g2419
sg64
(lp2426
g57
(g66
g59
NtRp2427
(dp2428
g62
(dp2429
g70
I3
ssg71
Nsg64
(lp2430
g57
(g73
g59
NtRp2431
(dp2432
g62
(dp2433
sg71
g2427
sg64
(lp2434
g57
(g78
g59
NtRp2435
(dp2436
g62
(dp2437
g82
g83
ssg71
g2431
sg64
(lp2438
S'HTTP_ACCEPT'
p2439
asbag57
(g78
g59
NtRp2440
(dp2441
g62
(dp2442
g89
g90
ssg71
g2431
sg64
(lp2443
S':'
asbag57
(g78
g59
NtRp2444
(dp2445
g62
(dp2446
sg71
g2431
sg64
(lp2447
g57
(g58
g59
NtRp2448
(dp2449
g62
(dp2450
g70
I3
ssg71
g2444
sg64
(lp2451
g1003
asbasbasbag57
(g73
g59
NtRp2452
(dp2453
g62
(dp2454
sg71
g2427
sg64
(lp2455
g57
(g78
g59
NtRp2456
(dp2457
g62
(dp2458
g82
g83
ssg71
g2452
sg64
(lp2459
S'HTTP_ACCEPT_CHARSET'
p2460
asbag57
(g78
g59
NtRp2461
(dp2462
g62
(dp2463
g89
g90
ssg71
g2452
sg64
(lp2464
S':'
asbag57
(g78
g59
NtRp2465
(dp2466
g62
(dp2467
sg71
g2452
sg64
(lp2468
g57
(g58
g59
NtRp2469
(dp2470
g62
(dp2471
g70
I3
ssg71
g2465
sg64
(lp2472
g1025
asbasbasbag57
(g73
g59
NtRp2473
(dp2474
g62
(dp2475
sg71
g2427
sg64
(lp2476
g57
(g78
g59
NtRp2477
(dp2478
g62
(dp2479
g82
g83
ssg71
g2473
sg64
(lp2480
S'HTTP_ACCEPT_ENCODING'
p2481
asbag57
(g78
g59
NtRp2482
(dp2483
g62
(dp2484
g89
g90
ssg71
g2473
sg64
(lp2485
S':'
asbag57
(g78
g59
NtRp2486
(dp2487
g62
(dp2488
sg71
g2473
sg64
(lp2489
g57
(g58
g59
NtRp2490
(dp2491
g62
(dp2492
g70
I3
ssg71
g2486
sg64
(lp2493
g1047
asbasbasbag57
(g73
g59
NtRp2494
(dp2495
g62
(dp2496
sg71
g2427
sg64
(lp2497
g57
(g78
g59
NtRp2498
(dp2499
g62
(dp2500
g82
g83
ssg71
g2494
sg64
(lp2501
S'HTTP_ACCEPT_LANGUAGE'
p2502
asbag57
(g78
g59
NtRp2503
(dp2504
g62
(dp2505
g89
g90
ssg71
g2494
sg64
(lp2506
S':'
asbag57
(g78
g59
NtRp2507
(dp2508
g62
(dp2509
sg71
g2494
sg64
(lp2510
g57
(g58
g59
NtRp2511
(dp2512
g62
(dp2513
g70
I3
ssg71
g2507
sg64
(lp2514
g1069
asbasbasbag57
(g73
g59
NtRp2515
(dp2516
g62
(dp2517
sg71
g2427
sg64
(lp2518
g57
(g78
g59
NtRp2519
(dp2520
g62
(dp2521
g82
g83
ssg71
g2515
sg64
(lp2522
S'HTTP_CONNECTION'
p2523
asbag57
(g78
g59
NtRp2524
(dp2525
g62
(dp2526
g89
g90
ssg71
g2515
sg64
(lp2527
S':'
asbag57
(g78
g59
NtRp2528
(dp2529
g62
(dp2530
sg71
g2515
sg64
(lp2531
g57
(g58
g59
NtRp2532
(dp2533
g62
(dp2534
g70
I3
ssg71
g2528
sg64
(lp2535
g1091
asbasbasbag57
(g73
g59
NtRp2536
(dp2537
g62
(dp2538
sg71
g2427
sg64
(lp2539
g57
(g78
g59
NtRp2540
(dp2541
g62
(dp2542
g82
g83
ssg71
g2536
sg64
(lp2543
S'HTTP_COOKIE'
p2544
asbag57
(g78
g59
NtRp2545
(dp2546
g62
(dp2547
g89
g90
ssg71
g2536
sg64
(lp2548
S':'
asbag57
(g78
g59
NtRp2549
(dp2550
g62
(dp2551
sg71
g2536
sg64
(lp2552
g57
(g58
g59
NtRp2553
(dp2554
g62
(dp2555
g70
I3
ssg71
g2549
sg64
(lp2556
g1113
asbasbasbag57
(g73
g59
NtRp2557
(dp2558
g62
(dp2559
sg71
g2427
sg64
(lp2560
g57
(g78
g59
NtRp2561
(dp2562
g62
(dp2563
g82
g83
ssg71
g2557
sg64
(lp2564
S'HTTP_HOST'
p2565
asbag57
(g78
g59
NtRp2566
(dp2567
g62
(dp2568
g89
g90
ssg71
g2557
sg64
(lp2569
S':'
asbag57
(g78
g59
NtRp2570
(dp2571
g62
(dp2572
sg71
g2557
sg64
(lp2573
g57
(g58
g59
NtRp2574
(dp2575
g62
(dp2576
g70
I3
ssg71
g2570
sg64
(lp2577
g1135
asbasbasbag57
(g73
g59
NtRp2578
(dp2579
g62
(dp2580
sg71
g2427
sg64
(lp2581
g57
(g78
g59
NtRp2582
(dp2583
g62
(dp2584
g82
g83
ssg71
g2578
sg64
(lp2585
S'HTTP_REFERER'
p2586
asbag57
(g78
g59
NtRp2587
(dp2588
g62
(dp2589
g89
g90
ssg71
g2578
sg64
(lp2590
S':'
asbag57
(g78
g59
NtRp2591
(dp2592
g62
(dp2593
sg71
g2578
sg64
(lp2594
g57
(g58
g59
NtRp2595
(dp2596
g62
(dp2597
g70
I3
ssg71
g2591
sg64
(lp2598
g1157
asbasbasbag57
(g73
g59
NtRp2599
(dp2600
g62
(dp2601
sg71
g2427
sg64
(lp2602
g57
(g78
g59
NtRp2603
(dp2604
g62
(dp2605
g82
g83
ssg71
g2599
sg64
(lp2606
S'HTTP_USER_AGENT'
p2607
asbag57
(g78
g59
NtRp2608
(dp2609
g62
(dp2610
g89
g90
ssg71
g2599
sg64
(lp2611
S':'
asbag57
(g78
g59
NtRp2612
(dp2613
g62
(dp2614
sg71
g2599
sg64
(lp2615
g57
(g58
g59
NtRp2616
(dp2617
g62
(dp2618
g70
I3
ssg71
g2612
sg64
(lp2619
g1179
asbasbasbag57
(g73
g59
NtRp2620
(dp2621
g62
(dp2622
sg71
g2427
sg64
(lp2623
g57
(g78
g59
NtRp2624
(dp2625
g62
(dp2626
g82
g83
ssg71
g2620
sg64
(lp2627
S'PATH_INFO'
p2628
asbag57
(g78
g59
NtRp2629
(dp2630
g62
(dp2631
g89
g90
ssg71
g2620
sg64
(lp2632
S':'
asbag57
(g78
g59
NtRp2633
(dp2634
g62
(dp2635
sg71
g2620
sg64
(lp2636
g57
(g58
g59
NtRp2637
(dp2638
g62
(dp2639
g70
I3
ssg71
g2633
sg64
(lp2640
g1243
asbasbasbag57
(g73
g59
NtRp2641
(dp2642
g62
(dp2643
sg71
g2427
sg64
(lp2644
g57
(g78
g59
NtRp2645
(dp2646
g62
(dp2647
g82
g83
ssg71
g2641
sg64
(lp2648
S'QUERY_STRING'
p2649
asbag57
(g78
g59
NtRp2650
(dp2651
g62
(dp2652
g89
g90
ssg71
g2641
sg64
(lp2653
S':'
asbag57
(g78
g59
NtRp2654
(dp2655
g62
(dp2656
sg71
g2641
sg64
(lp2657
g57
(g58
g59
NtRp2658
(dp2659
g62
(dp2660
g70
I3
ssg71
g2654
sg64
(lp2661
S''
asbasbasbag57
(g73
g59
NtRp2662
(dp2663
g62
(dp2664
sg71
g2427
sg64
(lp2665
g57
(g78
g59
NtRp2666
(dp2667
g62
(dp2668
g82
g83
ssg71
g2662
sg64
(lp2669
S'REMOTE_ADDR'
p2670
asbag57
(g78
g59
NtRp2671
(dp2672
g62
(dp2673
g89
g90
ssg71
g2662
sg64
(lp2674
S':'
asbag57
(g78
g59
NtRp2675
(dp2676
g62
(dp2677
sg71
g2662
sg64
(lp2678
g57
(g58
g59
NtRp2679
(dp2680
g62
(dp2681
g70
I3
ssg71
g2675
sg64
(lp2682
g190
asbasbasbag57
(g73
g59
NtRp2683
(dp2684
g62
(dp2685
sg71
g2427
sg64
(lp2686
g57
(g78
g59
NtRp2687
(dp2688
g62
(dp2689
g82
g83
ssg71
g2683
sg64
(lp2690
S'REMOTE_PORT'
p2691
asbag57
(g78
g59
NtRp2692
(dp2693
g62
(dp2694
g89
g90
ssg71
g2683
sg64
(lp2695
S':'
asbag57
(g78
g59
NtRp2696
(dp2697
g62
(dp2698
sg71
g2683
sg64
(lp2699
g57
(g58
g59
NtRp2700
(dp2701
g62
(dp2702
g70
I3
ssg71
g2696
sg64
(lp2703
g1307
asbasbasbag57
(g73
g59
NtRp2704
(dp2705
g62
(dp2706
sg71
g2427
sg64
(lp2707
g57
(g78
g59
NtRp2708
(dp2709
g62
(dp2710
g82
g83
ssg71
g2704
sg64
(lp2711
S'REQUEST_METHOD'
p2712
asbag57
(g78
g59
NtRp2713
(dp2714
g62
(dp2715
g89
g90
ssg71
g2704
sg64
(lp2716
S':'
asbag57
(g78
g59
NtRp2717
(dp2718
g62
(dp2719
sg71
g2704
sg64
(lp2720
g57
(g58
g59
NtRp2721
(dp2722
g62
(dp2723
g70
I3
ssg71
g2717
sg64
(lp2724
g1329
asbasbasbag57
(g73
g59
NtRp2725
(dp2726
g62
(dp2727
sg71
g2427
sg64
(lp2728
g57
(g78
g59
NtRp2729
(dp2730
g62
(dp2731
g82
g83
ssg71
g2725
sg64
(lp2732
S'SCRIPT_NAME'
p2733
asbag57
(g78
g59
NtRp2734
(dp2735
g62
(dp2736
g89
g90
ssg71
g2725
sg64
(lp2737
S':'
asbag57
(g78
g59
NtRp2738
(dp2739
g62
(dp2740
sg71
g2725
sg64
(lp2741
g57
(g58
g59
NtRp2742
(dp2743
g62
(dp2744
g70
I3
ssg71
g2738
sg64
(lp2745
S''
asbasbasbag57
(g73
g59
NtRp2746
(dp2747
g62
(dp2748
sg71
g2427
sg64
(lp2749
g57
(g78
g59
NtRp2750
(dp2751
g62
(dp2752
g82
g83
ssg71
g2746
sg64
(lp2753
S'SERVER_NAME'
p2754
asbag57
(g78
g59
NtRp2755
(dp2756
g62
(dp2757
g89
g90
ssg71
g2746
sg64
(lp2758
S':'
asbag57
(g78
g59
NtRp2759
(dp2760
g62
(dp2761
sg71
g2746
sg64
(lp2762
g57
(g58
g59
NtRp2763
(dp2764
g62
(dp2765
g70
I3
ssg71
g2759
sg64
(lp2766
g1372
asbasbasbag57
(g73
g59
NtRp2767
(dp2768
g62
(dp2769
sg71
g2427
sg64
(lp2770
g57
(g78
g59
NtRp2771
(dp2772
g62
(dp2773
g82
g83
ssg71
g2767
sg64
(lp2774
S'SERVER_PORT'
p2775
asbag57
(g78
g59
NtRp2776
(dp2777
g62
(dp2778
g89
g90
ssg71
g2767
sg64
(lp2779
S':'
asbag57
(g78
g59
NtRp2780
(dp2781
g62
(dp2782
sg71
g2767
sg64
(lp2783
g57
(g58
g59
NtRp2784
(dp2785
g62
(dp2786
g70
I3
ssg71
g2780
sg64
(lp2787
g1394
asbasbasbag57
(g73
g59
NtRp2788
(dp2789
g62
(dp2790
sg71
g2427
sg64
(lp2791
g57
(g78
g59
NtRp2792
(dp2793
g62
(dp2794
g82
g83
ssg71
g2788
sg64
(lp2795
S'SERVER_PROTOCOL'
p2796
asbag57
(g78
g59
NtRp2797
(dp2798
g62
(dp2799
g89
g90
ssg71
g2788
sg64
(lp2800
S':'
asbag57
(g78
g59
NtRp2801
(dp2802
g62
(dp2803
sg71
g2788
sg64
(lp2804
g57
(g58
g59
NtRp2805
(dp2806
g62
(dp2807
g70
I3
ssg71
g2801
sg64
(lp2808
g1416
asbasbasbag57
(g73
g59
NtRp2809
(dp2810
g62
(dp2811
sg71
g2427
sg64
(lp2812
g57
(g78
g59
NtRp2813
(dp2814
g62
(dp2815
g82
g83
ssg71
g2809
sg64
(lp2816
S'SERVER_SOFTWARE'
p2817
asbag57
(g78
g59
NtRp2818
(dp2819
g62
(dp2820
g89
g90
ssg71
g2809
sg64
(lp2821
S':'
asbag57
(g78
g59
NtRp2822
(dp2823
g62
(dp2824
sg71
g2809
sg64
(lp2825
g57
(g58
g59
NtRp2826
(dp2827
g62
(dp2828
g70
I3
ssg71
g2822
sg64
(lp2829
g1438
asbasbasbag57
(g73
g59
NtRp2830
(dp2831
g62
(dp2832
sg71
g2427
sg64
(lp2833
g57
(g78
g59
NtRp2834
(dp2835
g62
(dp2836
g82
g83
ssg71
g2830
sg64
(lp2837
S'wsgi.errors'
p2838
asbag57
(g78
g59
NtRp2839
(dp2840
g62
(dp2841
g89
g90
ssg71
g2830
sg64
(lp2842
S':'
asbag57
(g78
g59
NtRp2843
(dp2844
g62
(dp2845
sg71
g2830
sg64
(lp2846
g57
(g58
g59
NtRp2847
(dp2848
g62
(dp2849
g70
I3
ssg71
g2843
sg64
(lp2850
S"<open file '<stderr>', mode 'w' at 0xb73290d0>"
p2851
asbasbasbag57
(g73
g59
NtRp2852
(dp2853
g62
(dp2854
sg71
g2427
sg64
(lp2855
g57
(g78
g59
NtRp2856
(dp2857
g62
(dp2858
g82
g83
ssg71
g2852
sg64
(lp2859
S'wsgi.file_wrapper'
p2860
asbag57
(g78
g59
NtRp2861
(dp2862
g62
(dp2863
g89
g90
ssg71
g2852
sg64
(lp2864
S':'
asbag57
(g78
g59
NtRp2865
(dp2866
g62
(dp2867
sg71
g2852
sg64
(lp2868
g57
(g58
g59
NtRp2869
(dp2870
g62
(dp2871
g70
I3
ssg71
g2865
sg64
(lp2872
S'<class wsgiref.util.FileWrapper at 0x8e2df5c>'
p2873
asbasbasbag57
(g73
g59
NtRp2874
(dp2875
g62
(dp2876
sg71
g2427
sg64
(lp2877
g57
(g78
g59
NtRp2878
(dp2879
g62
(dp2880
g82
g83
ssg71
g2874
sg64
(lp2881
S'wsgi.input'
p2882
asbag57
(g78
g59
NtRp2883
(dp2884
g62
(dp2885
g89
g90
ssg71
g2874
sg64
(lp2886
S':'
asbag57
(g78
g59
NtRp2887
(dp2888
g62
(dp2889
sg71
g2874
sg64
(lp2890
g57
(g58
g59
NtRp2891
(dp2892
g62
(dp2893
g70
I3
ssg71
g2887
sg64
(lp2894
S'<cStringIO.StringO object at 0x945ed80>'
p2895
asbasbasbag57
(g73
g59
NtRp2896
(dp2897
g62
(dp2898
sg71
g2427
sg64
(lp2899
g57
(g78
g59
NtRp2900
(dp2901
g62
(dp2902
g82
g83
ssg71
g2896
sg64
(lp2903
S'wsgi.multiprocess'
p2904
asbag57
(g78
g59
NtRp2905
(dp2906
g62
(dp2907
g89
g90
ssg71
g2896
sg64
(lp2908
S':'
asbag57
(g78
g59
NtRp2909
(dp2910
g62
(dp2911
sg71
g2896
sg64
(lp2912
g57
(g58
g59
NtRp2913
(dp2914
g62
(dp2915
g70
I3
ssg71
g2909
sg64
(lp2916
g100
asbasbasbag57
(g73
g59
NtRp2917
(dp2918
g62
(dp2919
sg71
g2427
sg64
(lp2920
g57
(g78
g59
NtRp2921
(dp2922
g62
(dp2923
g82
g83
ssg71
g2917
sg64
(lp2924
S'wsgi.multithread'
p2925
asbag57
(g78
g59
NtRp2926
(dp2927
g62
(dp2928
g89
g90
ssg71
g2917
sg64
(lp2929
S':'
asbag57
(g78
g59
NtRp2930
(dp2931
g62
(dp2932
sg71
g2917
sg64
(lp2933
g57
(g58
g59
NtRp2934
(dp2935
g62
(dp2936
g70
I3
ssg71
g2930
sg64
(lp2937
g1678
asbasbasbag57
(g73
g59
NtRp2938
(dp2939
g62
(dp2940
sg71
g2427
sg64
(lp2941
g57
(g78
g59
NtRp2942
(dp2943
g62
(dp2944
g82
g83
ssg71
g2938
sg64
(lp2945
S'wsgi.run_once'
p2946
asbag57
(g78
g59
NtRp2947
(dp2948
g62
(dp2949
g89
g90
ssg71
g2938
sg64
(lp2950
S':'
asbag57
(g78
g59
NtRp2951
(dp2952
g62
(dp2953
sg71
g2938
sg64
(lp2954
g57
(g58
g59
NtRp2955
(dp2956
g62
(dp2957
g70
I3
ssg71
g2951
sg64
(lp2958
g100
asbasbasbag57
(g73
g59
NtRp2959
(dp2960
g62
(dp2961
sg71
g2427
sg64
(lp2962
g57
(g78
g59
NtRp2963
(dp2964
g62
(dp2965
g82
g83
ssg71
g2959
sg64
(lp2966
S'wsgi.url_scheme'
p2967
asbag57
(g78
g59
NtRp2968
(dp2969
g62
(dp2970
g89
g90
ssg71
g2959
sg64
(lp2971
S':'
asbag57
(g78
g59
NtRp2972
(dp2973
g62
(dp2974
sg71
g2959
sg64
(lp2975
g57
(g58
g59
NtRp2976
(dp2977
g62
(dp2978
g70
I3
ssg71
g2972
sg64
(lp2979
g1721
asbasbasbag57
(g73
g59
NtRp2980
(dp2981
g62
(dp2982
sg71
g2427
sg64
(lp2983
g57
(g78
g59
NtRp2984
(dp2985
g62
(dp2986
g82
g83
ssg71
g2980
sg64
(lp2987
S'wsgi.version'
p2988
asbag57
(g78
g59
NtRp2989
(dp2990
g62
(dp2991
g89
g90
ssg71
g2980
sg64
(lp2992
S':'
asbag57
(g78
g59
NtRp2993
(dp2994
g62
(dp2995
sg71
g2980
sg64
(lp2996
g57
(g58
g59
NtRp2997
(dp2998
g62
(dp2999
g70
I3
ssg71
g2993
sg64
(lp3000
S'1'
asbasbasbasbasbasbasbasbasbasbasbasbasbsS'frames'
p3001
(lp3002
(dp3003
S'file'
p3004
S'/home/arpita/courses/sem3/ssad/web2py/gluon/restricted.py'
p3005
sS'dump'
p3006
(dp3007
S'environment'
p3008
S"{'A': <class 'gluon.html.A'>, 'Auth': <class 'gluon.tools.Auth'>, 'B': <class 'gluon.html.B'>, 'BEAUTIFY': <class 'gluon.html.BEAUTIFY'>, 'BODY': <class 'gluon.html.BODY'>, 'BR': <class 'gluon.html.BR'>, 'BUTTON': <class 'gluon.html.BUTTON'>, 'CAT': <class 'gluon.html.CAT'>, 'CENTER': <class 'gluon.html.CENTER'>, 'CLEANUP': <class 'gluon.validators.CLEANUP'>, ...}"
p3009
sS'ccode'
p3010
S'<code object <module> at 0x98accc8, file "/home/...cations/project/controllers/default.py", line 12>'
p3011
ssS'lnum'
p3012
I205
sS'lines'
p3013
(dp3014
I200
S'    try:'
p3015
sI201
S'        if type(code) == types.CodeType:'
p3016
sI202
S'            ccode = code'
p3017
sI203
S'        else:'
p3018
sI204
S'            ccode = compile2(code,layer)'
p3019
sI205
S'        exec ccode in environment'
p3020
sI206
S'    except HTTP:'
p3021
sI207
S'        raise'
p3022
sI208
S'    except RestrictedError:'
p3023
sI209
S'        # do not encapsulate (obfuscate) the original RestrictedError'
p3024
ssS'call'
p3025
S"(code='# -*- coding: utf-8 -*-\\n# this file is released ...t(p,q)\\n\\nresponse._vars=response._caller(kruskal)\\n', environment={'A': <class 'gluon.html.A'>, 'Auth': <class 'gluon.tools.Auth'>, 'B': <class 'gluon.html.B'>, 'BEAUTIFY': <class 'gluon.html.BEAUTIFY'>, 'BODY': <class 'gluon.html.BODY'>, 'BR': <class 'gluon.html.BR'>, 'BUTTON': <class 'gluon.html.BUTTON'>, 'CAT': <class 'gluon.html.CAT'>, 'CENTER': <class 'gluon.html.CENTER'>, 'CLEANUP': <class 'gluon.validators.CLEANUP'>, ...}, layer='/home/arpita/courses/sem3/ssad/web2py/applications/project/controllers/default.py')"
p3026
sS'func'
p3027
S'restricted'
p3028
sa(dp3029
g3004
S'/home/arpita/courses/sem3/ssad/web2py/applications/project/controllers/default.py'
p3030
sg3006
(dp3031
sg3012
I158
sg3013
(dp3032
I147
S'            if rep[k]==rep[1]:'
p3033
sI148
S'                    cou=cou+1'
p3034
sI149
S'        k=0'
p3035
sI150
S'        for i in xrange(counts+1):'
p3036
sI151
S'                for j in xrange(counts+1):'
p3037
sI152
S'                      if ed[i][j]==1:'
p3038
sI153
S'                           p[k]=i'
p3039
sI154
S'                           q[k]=j'
p3040
sI155
S'                           k=k+1'
p3041
sI156
S'    return dict(p,q)'
p3042
ssg3025
S'()'
p3043
sg3027
S'<module>'
p3044
sa(dp3045
g3004
S'/home/arpita/courses/sem3/ssad/web2py/gluon/globals.py'
p3046
sg3006
(dp3047
S'self'
p3048
S'undefined'
p3049
sS'f'
S'<function kruskal>'
p3050
ssg3012
I173
sg3013
(dp3051
I168
S'        self.menu = []             # used by the default view layout'
p3052
sI169
S'        self.files = []            # used by web2py_ajax.html'
p3053
sI170
S'        self.generic_patterns = [] # patterns to allow generic views'
p3054
sI171
S"        self.delimiters = ('{{','}}')"
p3055
sI172
S'        self._vars = None'
p3056
sI173
S'        self._caller = lambda f: f()'
p3057
sI174
S'        self._view_environment = None'
p3058
sI175
S'        self._custom_commit = None'
p3059
sI176
S'        self._custom_rollback = None'
p3060
sI177
S''
ssg3025
S'(f=<function kruskal>)'
p3061
sg3027
S'<lambda>'
p3062
sa(dp3063
g3004
S'/home/arpita/courses/sem3/ssad/web2py/applications/project/controllers/default.py'
p3064
sg3006
(dp3065
S'global q'
p3066
S'{0: 2, 1: 3}'
p3067
sS'global p'
p3068
S'{0: 1, 1: 1}'
p3069
sS'builtindict'
p3070
S"<type 'dict'>"
p3071
ssg3012
I156
sg3013
(dp3072
I147
S'            if rep[k]==rep[1]:'
p3073
sI148
S'                    cou=cou+1'
p3074
sI149
S'        k=0'
p3075
sI150
S'        for i in xrange(counts+1):'
p3076
sI151
S'                for j in xrange(counts+1):'
p3077
sI152
S'                      if ed[i][j]==1:'
p3078
sI153
S'                           p[k]=i'
p3079
sI154
S'                           q[k]=j'
p3080
sI155
S'                           k=k+1'
p3081
sI156
S'    return dict(p,q)'
p3082
ssg3025
S'()'
p3083
sg3027
S'kruskal'
p3084
sasS'pyver'
p3085
S'Python 2.7.2+: /usr/bin/python'
p3086
sS'session'
p3087
g57
(g58
g59
NtRp3088
(dp3089
g62
(dp3090
sg64
(lp3091
g57
(g66
g59
NtRp3092
(dp3093
g62
(dp3094
g70
I5
ssg71
Nsg64
(lp3095
g57
(g73
g59
NtRp3096
(dp3097
g62
(dp3098
sg71
g3092
sg64
(lp3099
g57
(g78
g59
NtRp3100
(dp3101
g62
(dp3102
g82
g83
ssg71
g3096
sg64
(lp3103
S'auth'
p3104
asbag57
(g78
g59
NtRp3105
(dp3106
g62
(dp3107
g89
g90
ssg71
g3096
sg64
(lp3108
S':'
asbag57
(g78
g59
NtRp3109
(dp3110
g62
(dp3111
sg71
g3096
sg64
(lp3112
g57
(g58
g59
NtRp3113
(dp3114
g62
(dp3115
g70
I5
ssg71
g3109
sg64
(lp3116
g57
(g66
g59
NtRp3117
(dp3118
g62
(dp3119
g70
I4
ssg71
Nsg64
(lp3120
g57
(g73
g59
NtRp3121
(dp3122
g62
(dp3123
sg71
g3117
sg64
(lp3124
g57
(g78
g59
NtRp3125
(dp3126
g62
(dp3127
g82
g83
ssg71
g3121
sg64
(lp3128
S'expiration'
p3129
asbag57
(g78
g59
NtRp3130
(dp3131
g62
(dp3132
g89
g90
ssg71
g3121
sg64
(lp3133
S':'
asbag57
(g78
g59
NtRp3134
(dp3135
g62
(dp3136
sg71
g3121
sg64
(lp3137
g57
(g58
g59
NtRp3138
(dp3139
g62
(dp3140
g70
I4
ssg71
g3134
sg64
(lp3141
S'3600'
p3142
asbasbasbag57
(g73
g59
NtRp3143
(dp3144
g62
(dp3145
sg71
g3117
sg64
(lp3146
g57
(g78
g59
NtRp3147
(dp3148
g62
(dp3149
g82
g83
ssg71
g3143
sg64
(lp3150
S'hmac_key'
p3151
asbag57
(g78
g59
NtRp3152
(dp3153
g62
(dp3154
g89
g90
ssg71
g3143
sg64
(lp3155
S':'
asbag57
(g78
g59
NtRp3156
(dp3157
g62
(dp3158
sg71
g3143
sg64
(lp3159
g57
(g58
g59
NtRp3160
(dp3161
g62
(dp3162
g70
I4
ssg71
g3156
sg64
(lp3163
S'784ad663-e292-4a69-93a3-57cbf995b35c'
p3164
asbasbasbag57
(g73
g59
NtRp3165
(dp3166
g62
(dp3167
sg71
g3117
sg64
(lp3168
g57
(g78
g59
NtRp3169
(dp3170
g62
(dp3171
g82
g83
ssg71
g3165
sg64
(lp3172
S'last_visit'
p3173
asbag57
(g78
g59
NtRp3174
(dp3175
g62
(dp3176
g89
g90
ssg71
g3165
sg64
(lp3177
S':'
asbag57
(g78
g59
NtRp3178
(dp3179
g62
(dp3180
sg71
g3165
sg64
(lp3181
g57
(g58
g59
NtRp3182
(dp3183
g62
(dp3184
g70
I4
ssg71
g3178
sg64
(lp3185
S'datetime.datetime(2012, 10, 14, 18, 45, 58, 573575)'
p3186
asbasbasbag57
(g73
g59
NtRp3187
(dp3188
g62
(dp3189
sg71
g3117
sg64
(lp3190
g57
(g78
g59
NtRp3191
(dp3192
g62
(dp3193
g82
g83
ssg71
g3187
sg64
(lp3194
S'remember'
p3195
asbag57
(g78
g59
NtRp3196
(dp3197
g62
(dp3198
g89
g90
ssg71
g3187
sg64
(lp3199
S':'
asbag57
(g78
g59
NtRp3200
(dp3201
g62
(dp3202
sg71
g3187
sg64
(lp3203
g57
(g58
g59
NtRp3204
(dp3205
g62
(dp3206
g70
I4
ssg71
g3200
sg64
(lp3207
g100
asbasbasbag57
(g73
g59
NtRp3208
(dp3209
g62
(dp3210
sg71
g3117
sg64
(lp3211
g57
(g78
g59
NtRp3212
(dp3213
g62
(dp3214
g82
g83
ssg71
g3208
sg64
(lp3215
S'user'
p3216
asbag57
(g78
g59
NtRp3217
(dp3218
g62
(dp3219
g89
g90
ssg71
g3208
sg64
(lp3220
S':'
asbag57
(g78
g59
NtRp3221
(dp3222
g62
(dp3223
sg71
g3208
sg64
(lp3224
g57
(g58
g59
NtRp3225
(dp3226
g62
(dp3227
g70
I4
ssg71
g3221
sg64
(lp3228
g57
(g66
g59
NtRp3229
(dp3230
g62
(dp3231
g70
I3
ssg71
Nsg64
(lp3232
g57
(g73
g59
NtRp3233
(dp3234
g62
(dp3235
sg71
g3229
sg64
(lp3236
g57
(g78
g59
NtRp3237
(dp3238
g62
(dp3239
g82
g83
ssg71
g3233
sg64
(lp3240
S'email'
p3241
asbag57
(g78
g59
NtRp3242
(dp3243
g62
(dp3244
g89
g90
ssg71
g3233
sg64
(lp3245
S':'
asbag57
(g78
g59
NtRp3246
(dp3247
g62
(dp3248
sg71
g3233
sg64
(lp3249
g57
(g58
g59
NtRp3250
(dp3251
g62
(dp3252
g70
I3
ssg71
g3246
sg64
(lp3253
S'rammurthy@faculty.iiit.ac.in'
p3254
asbasbasbag57
(g73
g59
NtRp3255
(dp3256
g62
(dp3257
sg71
g3229
sg64
(lp3258
g57
(g78
g59
NtRp3259
(dp3260
g62
(dp3261
g82
g83
ssg71
g3255
sg64
(lp3262
S'first_name'
p3263
asbag57
(g78
g59
NtRp3264
(dp3265
g62
(dp3266
g89
g90
ssg71
g3255
sg64
(lp3267
S':'
asbag57
(g78
g59
NtRp3268
(dp3269
g62
(dp3270
sg71
g3255
sg64
(lp3271
g57
(g58
g59
NtRp3272
(dp3273
g62
(dp3274
g70
I3
ssg71
g3268
sg64
(lp3275
S'rammurthy'
p3276
asbasbasbag57
(g73
g59
NtRp3277
(dp3278
g62
(dp3279
sg71
g3229
sg64
(lp3280
g57
(g78
g59
NtRp3281
(dp3282
g62
(dp3283
g82
g83
ssg71
g3277
sg64
(lp3284
S'id'
p3285
asbag57
(g78
g59
NtRp3286
(dp3287
g62
(dp3288
g89
g90
ssg71
g3277
sg64
(lp3289
S':'
asbag57
(g78
g59
NtRp3290
(dp3291
g62
(dp3292
sg71
g3277
sg64
(lp3293
g57
(g58
g59
NtRp3294
(dp3295
g62
(dp3296
g70
I3
ssg71
g3290
sg64
(lp3297
S'1'
asbasbasbag57
(g73
g59
NtRp3298
(dp3299
g62
(dp3300
sg71
g3229
sg64
(lp3301
g57
(g78
g59
NtRp3302
(dp3303
g62
(dp3304
g82
g83
ssg71
g3298
sg64
(lp3305
S'last_name'
p3306
asbag57
(g78
g59
NtRp3307
(dp3308
g62
(dp3309
g89
g90
ssg71
g3298
sg64
(lp3310
S':'
asbag57
(g78
g59
NtRp3311
(dp3312
g62
(dp3313
sg71
g3298
sg64
(lp3314
g57
(g58
g59
NtRp3315
(dp3316
g62
(dp3317
g70
I3
ssg71
g3311
sg64
(lp3318
S'sir'
p3319
asbasbasbag57
(g73
g59
NtRp3320
(dp3321
g62
(dp3322
sg71
g3229
sg64
(lp3323
g57
(g78
g59
NtRp3324
(dp3325
g62
(dp3326
g82
g83
ssg71
g3320
sg64
(lp3327
S'password'
p3328
asbag57
(g78
g59
NtRp3329
(dp3330
g62
(dp3331
g89
g90
ssg71
g3320
sg64
(lp3332
S':'
asbag57
(g78
g59
NtRp3333
(dp3334
g62
(dp3335
sg71
g3320
sg64
(lp3336
g57
(g58
g59
NtRp3337
(dp3338
g62
(dp3339
g70
I3
ssg71
g3333
sg64
(lp3340
S'9da56e6636f0f89c2a2b7b54a400c423'
p3341
asbasbasbag57
(g73
g59
NtRp3342
(dp3343
g62
(dp3344
sg71
g3229
sg64
(lp3345
g57
(g78
g59
NtRp3346
(dp3347
g62
(dp3348
g82
g83
ssg71
g3342
sg64
(lp3349
S'registration_id'
p3350
asbag57
(g78
g59
NtRp3351
(dp3352
g62
(dp3353
g89
g90
ssg71
g3342
sg64
(lp3354
S':'
asbag57
(g78
g59
NtRp3355
(dp3356
g62
(dp3357
sg71
g3342
sg64
(lp3358
g57
(g58
g59
NtRp3359
(dp3360
g62
(dp3361
g70
I3
ssg71
g3355
sg64
(lp3362
S''
asbasbasbag57
(g73
g59
NtRp3363
(dp3364
g62
(dp3365
sg71
g3229
sg64
(lp3366
g57
(g78
g59
NtRp3367
(dp3368
g62
(dp3369
g82
g83
ssg71
g3363
sg64
(lp3370
S'registration_key'
p3371
asbag57
(g78
g59
NtRp3372
(dp3373
g62
(dp3374
g89
g90
ssg71
g3363
sg64
(lp3375
S':'
asbag57
(g78
g59
NtRp3376
(dp3377
g62
(dp3378
sg71
g3363
sg64
(lp3379
g57
(g58
g59
NtRp3380
(dp3381
g62
(dp3382
g70
I3
ssg71
g3376
sg64
(lp3383
S''
asbasbasbag57
(g73
g59
NtRp3384
(dp3385
g62
(dp3386
sg71
g3229
sg64
(lp3387
g57
(g78
g59
NtRp3388
(dp3389
g62
(dp3390
g82
g83
ssg71
g3384
sg64
(lp3391
S'reset_password_key'
p3392
asbag57
(g78
g59
NtRp3393
(dp3394
g62
(dp3395
g89
g90
ssg71
g3384
sg64
(lp3396
S':'
asbag57
(g78
g59
NtRp3397
(dp3398
g62
(dp3399
sg71
g3384
sg64
(lp3400
g57
(g58
g59
NtRp3401
(dp3402
g62
(dp3403
g70
I3
ssg71
g3397
sg64
(lp3404
S''
asbasbasbasbasbasbasbag57
(g73
g59
NtRp3405
(dp3406
g62
(dp3407
sg71
g3117
sg64
(lp3408
g57
(g78
g59
NtRp3409
(dp3410
g62
(dp3411
g82
g83
ssg71
g3405
sg64
(lp3412
S'user_groups'
p3413
asbag57
(g78
g59
NtRp3414
(dp3415
g62
(dp3416
g89
g90
ssg71
g3405
sg64
(lp3417
S':'
asbag57
(g78
g59
NtRp3418
(dp3419
g62
(dp3420
sg71
g3405
sg64
(lp3421
g57
(g58
g59
NtRp3422
(dp3423
g62
(dp3424
g70
I4
ssg71
g3418
sg64
(lp3425
g57
(g66
g59
NtRp3426
(dp3427
g62
(dp3428
g70
I3
ssg71
Nsg64
(lp3429
g57
(g73
g59
NtRp3430
(dp3431
g62
(dp3432
sg71
g3426
sg64
(lp3433
g57
(g78
g59
NtRp3434
(dp3435
g62
(dp3436
g82
g83
ssg71
g3430
sg64
(lp3437
S'1'
asbag57
(g78
g59
NtRp3438
(dp3439
g62
(dp3440
g89
g90
ssg71
g3430
sg64
(lp3441
S':'
asbag57
(g78
g59
NtRp3442
(dp3443
g62
(dp3444
sg71
g3430
sg64
(lp3445
g57
(g58
g59
NtRp3446
(dp3447
g62
(dp3448
g70
I3
ssg71
g3442
sg64
(lp3449
S'user_1'
p3450
asbasbasbag57
(g73
g59
NtRp3451
(dp3452
g62
(dp3453
sg71
g3426
sg64
(lp3454
g57
(g78
g59
NtRp3455
(dp3456
g62
(dp3457
g82
g83
ssg71
g3451
sg64
(lp3458
S'2'
asbag57
(g78
g59
NtRp3459
(dp3460
g62
(dp3461
g89
g90
ssg71
g3451
sg64
(lp3462
S':'
asbag57
(g78
g59
NtRp3463
(dp3464
g62
(dp3465
sg71
g3451
sg64
(lp3466
g57
(g58
g59
NtRp3467
(dp3468
g62
(dp3469
g70
I3
ssg71
g3463
sg64
(lp3470
S'Administrator'
p3471
asbasbasbasbasbasbasbasbasbasbasbasbasbsS'etype'
p3472
S"<type 'exceptions.TypeError'>"
p3473
sS'date'
p3474
S'Sun Oct 14 18:48:22 2012'
p3475
sS'response'
p3476
g57
(g58
g59
NtRp3477
(dp3478
g62
(dp3479
sg64
(lp3480
g57
(g66
g59
NtRp3481
(dp3482
g62
(dp3483
g70
I5
ssg71
Nsg64
(lp3484
g57
(g73
g59
NtRp3485
(dp3486
g62
(dp3487
sg71
g3481
sg64
(lp3488
g57
(g78
g59
NtRp3489
(dp3490
g62
(dp3491
g82
g83
ssg71
g3485
sg64
(lp3492
g155
asbag57
(g78
g59
NtRp3493
(dp3494
g62
(dp3495
g89
g90
ssg71
g3485
sg64
(lp3496
S':'
asbag57
(g78
g59
NtRp3497
(dp3498
g62
(dp3499
sg71
g3485
sg64
(lp3500
g57
(g58
g59
NtRp3501
(dp3502
g62
(dp3503
g70
I5
ssg71
g3497
sg64
(lp3504
S'<cStringIO.StringO object at 0x9466fa0>'
p3505
asbasbasbag57
(g73
g59
NtRp3506
(dp3507
g62
(dp3508
sg71
g3481
sg64
(lp3509
g57
(g78
g59
NtRp3510
(dp3511
g62
(dp3512
g82
g83
ssg71
g3506
sg64
(lp3513
g221
asbag57
(g78
g59
NtRp3514
(dp3515
g62
(dp3516
g89
g90
ssg71
g3506
sg64
(lp3517
S':'
asbag57
(g78
g59
NtRp3518
(dp3519
g62
(dp3520
sg71
g3506
sg64
(lp3521
g57
(g58
g59
NtRp3522
(dp3523
g62
(dp3524
g70
I5
ssg71
g3518
sg64
(lp3525
g57
(g66
g59
NtRp3526
(dp3527
g62
(dp3528
g70
I4
ssg71
Nsg64
(lp3529
g57
(g73
g59
NtRp3530
(dp3531
g62
(dp3532
sg71
g3526
sg64
(lp3533
g57
(g78
g59
NtRp3534
(dp3535
g62
(dp3536
g82
g83
ssg71
g3530
sg64
(lp3537
S'session_id_project'
p3538
asbag57
(g78
g59
NtRp3539
(dp3540
g62
(dp3541
g89
g90
ssg71
g3530
sg64
(lp3542
S':'
asbag57
(g78
g59
NtRp3543
(dp3544
g62
(dp3545
sg71
g3530
sg64
(lp3546
g57
(g58
g59
NtRp3547
(dp3548
g62
(dp3549
g70
I4
ssg71
g3543
sg64
(lp3550
g57
(g66
g59
NtRp3551
(dp3552
g62
(dp3553
g70
I3
ssg71
Nsg64
(lp3554
g57
(g73
g59
NtRp3555
(dp3556
g62
(dp3557
sg71
g3551
sg64
(lp3558
g57
(g78
g59
NtRp3559
(dp3560
g62
(dp3561
g82
g83
ssg71
g3555
sg64
(lp3562
g271
asbag57
(g78
g59
NtRp3563
(dp3564
g62
(dp3565
g89
g90
ssg71
g3555
sg64
(lp3566
S':'
asbag57
(g78
g59
NtRp3567
(dp3568
g62
(dp3569
sg71
g3555
sg64
(lp3570
g57
(g58
g59
NtRp3571
(dp3572
g62
(dp3573
g70
I3
ssg71
g3567
sg64
(lp3574
S''
asbasbasbag57
(g73
g59
NtRp3575
(dp3576
g62
(dp3577
sg71
g3551
sg64
(lp3578
g57
(g78
g59
NtRp3579
(dp3580
g62
(dp3581
g82
g83
ssg71
g3575
sg64
(lp3582
g292
asbag57
(g78
g59
NtRp3583
(dp3584
g62
(dp3585
g89
g90
ssg71
g3575
sg64
(lp3586
S':'
asbag57
(g78
g59
NtRp3587
(dp3588
g62
(dp3589
sg71
g3575
sg64
(lp3590
g57
(g58
g59
NtRp3591
(dp3592
g62
(dp3593
g70
I3
ssg71
g3587
sg64
(lp3594
S''
asbasbasbag57
(g73
g59
NtRp3595
(dp3596
g62
(dp3597
sg71
g3551
sg64
(lp3598
g57
(g78
g59
NtRp3599
(dp3600
g62
(dp3601
g82
g83
ssg71
g3595
sg64
(lp3602
g313
asbag57
(g78
g59
NtRp3603
(dp3604
g62
(dp3605
g89
g90
ssg71
g3595
sg64
(lp3606
S':'
asbag57
(g78
g59
NtRp3607
(dp3608
g62
(dp3609
sg71
g3595
sg64
(lp3610
g57
(g58
g59
NtRp3611
(dp3612
g62
(dp3613
g70
I3
ssg71
g3607
sg64
(lp3614
S''
asbasbasbag57
(g73
g59
NtRp3615
(dp3616
g62
(dp3617
sg71
g3551
sg64
(lp3618
g57
(g78
g59
NtRp3619
(dp3620
g62
(dp3621
g82
g83
ssg71
g3615
sg64
(lp3622
g334
asbag57
(g78
g59
NtRp3623
(dp3624
g62
(dp3625
g89
g90
ssg71
g3615
sg64
(lp3626
S':'
asbag57
(g78
g59
NtRp3627
(dp3628
g62
(dp3629
sg71
g3615
sg64
(lp3630
g57
(g58
g59
NtRp3631
(dp3632
g62
(dp3633
g70
I3
ssg71
g3627
sg64
(lp3634
S''
asbasbasbag57
(g73
g59
NtRp3635
(dp3636
g62
(dp3637
sg71
g3551
sg64
(lp3638
g57
(g78
g59
NtRp3639
(dp3640
g62
(dp3641
g82
g83
ssg71
g3635
sg64
(lp3642
g355
asbag57
(g78
g59
NtRp3643
(dp3644
g62
(dp3645
g89
g90
ssg71
g3635
sg64
(lp3646
S':'
asbag57
(g78
g59
NtRp3647
(dp3648
g62
(dp3649
sg71
g3635
sg64
(lp3650
g57
(g58
g59
NtRp3651
(dp3652
g62
(dp3653
g70
I3
ssg71
g3647
sg64
(lp3654
S''
asbasbasbag57
(g73
g59
NtRp3655
(dp3656
g62
(dp3657
sg71
g3551
sg64
(lp3658
g57
(g78
g59
NtRp3659
(dp3660
g62
(dp3661
g82
g83
ssg71
g3655
sg64
(lp3662
g376
asbag57
(g78
g59
NtRp3663
(dp3664
g62
(dp3665
g89
g90
ssg71
g3655
sg64
(lp3666
S':'
asbag57
(g78
g59
NtRp3667
(dp3668
g62
(dp3669
sg71
g3655
sg64
(lp3670
g57
(g58
g59
NtRp3671
(dp3672
g62
(dp3673
g70
I3
ssg71
g3667
sg64
(lp3674
S'/'
asbasbasbag57
(g73
g59
NtRp3675
(dp3676
g62
(dp3677
sg71
g3551
sg64
(lp3678
g57
(g78
g59
NtRp3679
(dp3680
g62
(dp3681
g82
g83
ssg71
g3675
sg64
(lp3682
g397
asbag57
(g78
g59
NtRp3683
(dp3684
g62
(dp3685
g89
g90
ssg71
g3675
sg64
(lp3686
S':'
asbag57
(g78
g59
NtRp3687
(dp3688
g62
(dp3689
sg71
g3675
sg64
(lp3690
g57
(g58
g59
NtRp3691
(dp3692
g62
(dp3693
g70
I3
ssg71
g3687
sg64
(lp3694
S''
asbasbasbag57
(g73
g59
NtRp3695
(dp3696
g62
(dp3697
sg71
g3551
sg64
(lp3698
g57
(g78
g59
NtRp3699
(dp3700
g62
(dp3701
g82
g83
ssg71
g3695
sg64
(lp3702
g418
asbag57
(g78
g59
NtRp3703
(dp3704
g62
(dp3705
g89
g90
ssg71
g3695
sg64
(lp3706
S':'
asbag57
(g78
g59
NtRp3707
(dp3708
g62
(dp3709
sg71
g3695
sg64
(lp3710
g57
(g58
g59
NtRp3711
(dp3712
g62
(dp3713
g70
I3
ssg71
g3707
sg64
(lp3714
S''
asbasbasbasbasbasbasbasbasbasbasbag57
(g73
g59
NtRp3715
(dp3716
g62
(dp3717
sg71
g3481
sg64
(lp3718
g57
(g78
g59
NtRp3719
(dp3720
g62
(dp3721
g82
g83
ssg71
g3715
sg64
(lp3722
S'delimiters'
p3723
asbag57
(g78
g59
NtRp3724
(dp3725
g62
(dp3726
g89
g90
ssg71
g3715
sg64
(lp3727
S':'
asbag57
(g78
g59
NtRp3728
(dp3729
g62
(dp3730
sg71
g3715
sg64
(lp3731
g57
(g58
g59
NtRp3732
(dp3733
g62
(dp3734
g70
I5
ssg71
g3728
sg64
(lp3735
g57
(g66
g59
NtRp3736
(dp3737
g62
(dp3738
g70
I4
ssg71
Nsg64
(lp3739
g57
(g73
g59
NtRp3740
(dp3741
g62
(dp3742
sg71
g3736
sg64
(lp3743
g57
(g78
g59
NtRp3744
(dp3745
g62
(dp3746
sg71
g3740
sg64
(lp3747
g57
(g58
g59
NtRp3748
(dp3749
g62
(dp3750
g70
I4
ssg71
g3744
sg64
(lp3751
S'{{'
p3752
asbasbasbag57
(g73
g59
NtRp3753
(dp3754
g62
(dp3755
sg71
g3736
sg64
(lp3756
g57
(g78
g59
NtRp3757
(dp3758
g62
(dp3759
sg71
g3753
sg64
(lp3760
g57
(g58
g59
NtRp3761
(dp3762
g62
(dp3763
g70
I4
ssg71
g3757
sg64
(lp3764
S'}}'
p3765
asbasbasbasbasbasbasbag57
(g73
g59
NtRp3766
(dp3767
g62
(dp3768
sg71
g3481
sg64
(lp3769
g57
(g78
g59
NtRp3770
(dp3771
g62
(dp3772
g82
g83
ssg71
g3766
sg64
(lp3773
S'files'
p3774
asbag57
(g78
g59
NtRp3775
(dp3776
g62
(dp3777
g89
g90
ssg71
g3766
sg64
(lp3778
S':'
asbag57
(g78
g59
NtRp3779
(dp3780
g62
(dp3781
sg71
g3766
sg64
(lp3782
g57
(g58
g59
NtRp3783
(dp3784
g62
(dp3785
g70
I5
ssg71
g3779
sg64
(lp3786
g57
(g66
g59
NtRp3787
(dp3788
g62
(dp3789
g70
I4
ssg71
Nsg64
(lp3790
sbasbasbasbag57
(g73
g59
NtRp3791
(dp3792
g62
(dp3793
sg71
g3481
sg64
(lp3794
g57
(g78
g59
NtRp3795
(dp3796
g62
(dp3797
g82
g83
ssg71
g3791
sg64
(lp3798
S'flash'
p3799
asbag57
(g78
g59
NtRp3800
(dp3801
g62
(dp3802
g89
g90
ssg71
g3791
sg64
(lp3803
S':'
asbag57
(g78
g59
NtRp3804
(dp3805
g62
(dp3806
sg71
g3791
sg64
(lp3807
g57
(g58
g59
NtRp3808
(dp3809
g62
(dp3810
g70
I5
ssg71
g3804
sg64
(lp3811
S''
asbasbasbag57
(g73
g59
NtRp3812
(dp3813
g62
(dp3814
sg71
g3481
sg64
(lp3815
g57
(g78
g59
NtRp3816
(dp3817
g62
(dp3818
g82
g83
ssg71
g3812
sg64
(lp3819
S'generic_patterns'
p3820
asbag57
(g78
g59
NtRp3821
(dp3822
g62
(dp3823
g89
g90
ssg71
g3812
sg64
(lp3824
S':'
asbag57
(g78
g59
NtRp3825
(dp3826
g62
(dp3827
sg71
g3812
sg64
(lp3828
g57
(g58
g59
NtRp3829
(dp3830
g62
(dp3831
g70
I5
ssg71
g3825
sg64
(lp3832
g57
(g66
g59
NtRp3833
(dp3834
g62
(dp3835
g70
I4
ssg71
Nsg64
(lp3836
g57
(g73
g59
NtRp3837
(dp3838
g62
(dp3839
sg71
g3833
sg64
(lp3840
g57
(g78
g59
NtRp3841
(dp3842
g62
(dp3843
sg71
g3837
sg64
(lp3844
g57
(g58
g59
NtRp3845
(dp3846
g62
(dp3847
g70
I4
ssg71
g3841
sg64
(lp3848
S'*'
asbasbasbasbasbasbasbag57
(g73
g59
NtRp3849
(dp3850
g62
(dp3851
sg71
g3481
sg64
(lp3852
g57
(g78
g59
NtRp3853
(dp3854
g62
(dp3855
g82
g83
ssg71
g3849
sg64
(lp3856
S'headers'
p3857
asbag57
(g78
g59
NtRp3858
(dp3859
g62
(dp3860
g89
g90
ssg71
g3849
sg64
(lp3861
S':'
asbag57
(g78
g59
NtRp3862
(dp3863
g62
(dp3864
sg71
g3849
sg64
(lp3865
g57
(g58
g59
NtRp3866
(dp3867
g62
(dp3868
g70
I5
ssg71
g3862
sg64
(lp3869
g57
(g66
g59
NtRp3870
(dp3871
g62
(dp3872
g70
I4
ssg71
Nsg64
(lp3873
g57
(g73
g59
NtRp3874
(dp3875
g62
(dp3876
sg71
g3870
sg64
(lp3877
g57
(g78
g59
NtRp3878
(dp3879
g62
(dp3880
g82
g83
ssg71
g3874
sg64
(lp3881
S'Cache-Control'
p3882
asbag57
(g78
g59
NtRp3883
(dp3884
g62
(dp3885
g89
g90
ssg71
g3874
sg64
(lp3886
S':'
asbag57
(g78
g59
NtRp3887
(dp3888
g62
(dp3889
sg71
g3874
sg64
(lp3890
g57
(g58
g59
NtRp3891
(dp3892
g62
(dp3893
g70
I4
ssg71
g3887
sg64
(lp3894
S'no-store, no-cache, must-revalidate, post-check=0, pre-check=0'
p3895
asbasbasbag57
(g73
g59
NtRp3896
(dp3897
g62
(dp3898
sg71
g3870
sg64
(lp3899
g57
(g78
g59
NtRp3900
(dp3901
g62
(dp3902
g82
g83
ssg71
g3896
sg64
(lp3903
S'Content-Type'
p3904
asbag57
(g78
g59
NtRp3905
(dp3906
g62
(dp3907
g89
g90
ssg71
g3896
sg64
(lp3908
S':'
asbag57
(g78
g59
NtRp3909
(dp3910
g62
(dp3911
sg71
g3896
sg64
(lp3912
g57
(g58
g59
NtRp3913
(dp3914
g62
(dp3915
g70
I4
ssg71
g3909
sg64
(lp3916
S'text/html; charset=utf-8'
p3917
asbasbasbag57
(g73
g59
NtRp3918
(dp3919
g62
(dp3920
sg71
g3870
sg64
(lp3921
g57
(g78
g59
NtRp3922
(dp3923
g62
(dp3924
g82
g83
ssg71
g3918
sg64
(lp3925
S'Expires'
p3926
asbag57
(g78
g59
NtRp3927
(dp3928
g62
(dp3929
g89
g90
ssg71
g3918
sg64
(lp3930
S':'
asbag57
(g78
g59
NtRp3931
(dp3932
g62
(dp3933
sg71
g3918
sg64
(lp3934
g57
(g58
g59
NtRp3935
(dp3936
g62
(dp3937
g70
I4
ssg71
g3931
sg64
(lp3938
S'Sun, 14 Oct 2012 13:18:22 GMT'
p3939
asbasbasbag57
(g73
g59
NtRp3940
(dp3941
g62
(dp3942
sg71
g3870
sg64
(lp3943
g57
(g78
g59
NtRp3944
(dp3945
g62
(dp3946
g82
g83
ssg71
g3940
sg64
(lp3947
S'Pragma'
p3948
asbag57
(g78
g59
NtRp3949
(dp3950
g62
(dp3951
g89
g90
ssg71
g3940
sg64
(lp3952
S':'
asbag57
(g78
g59
NtRp3953
(dp3954
g62
(dp3955
sg71
g3940
sg64
(lp3956
g57
(g58
g59
NtRp3957
(dp3958
g62
(dp3959
g70
I4
ssg71
g3953
sg64
(lp3960
S'no-cache'
p3961
asbasbasbag57
(g73
g59
NtRp3962
(dp3963
g62
(dp3964
sg71
g3870
sg64
(lp3965
g57
(g78
g59
NtRp3966
(dp3967
g62
(dp3968
g82
g83
ssg71
g3962
sg64
(lp3969
S'X-Powered-By'
p3970
asbag57
(g78
g59
NtRp3971
(dp3972
g62
(dp3973
g89
g90
ssg71
g3962
sg64
(lp3974
S':'
asbag57
(g78
g59
NtRp3975
(dp3976
g62
(dp3977
sg71
g3962
sg64
(lp3978
g57
(g58
g59
NtRp3979
(dp3980
g62
(dp3981
g70
I4
ssg71
g3975
sg64
(lp3982
S'web2py'
p3983
asbasbasbasbasbasbasbag57
(g73
g59
NtRp3984
(dp3985
g62
(dp3986
sg71
g3481
sg64
(lp3987
g57
(g78
g59
NtRp3988
(dp3989
g62
(dp3990
g82
g83
ssg71
g3984
sg64
(lp3991
S'menu'
p3992
asbag57
(g78
g59
NtRp3993
(dp3994
g62
(dp3995
g89
g90
ssg71
g3984
sg64
(lp3996
S':'
asbag57
(g78
g59
NtRp3997
(dp3998
g62
(dp3999
sg71
g3984
sg64
(lp4000
g57
(g58
g59
NtRp4001
(dp4002
g62
(dp4003
g70
I5
ssg71
g3997
sg64
(lp4004
g57
(g66
g59
NtRp4005
(dp4006
g62
(dp4007
g70
I4
ssg71
Nsg64
(lp4008
g57
(g73
g59
NtRp4009
(dp4010
g62
(dp4011
sg71
g4005
sg64
(lp4012
g57
(g78
g59
NtRp4013
(dp4014
g62
(dp4015
sg71
g4009
sg64
(lp4016
g57
(g58
g59
NtRp4017
(dp4018
g62
(dp4019
g70
I4
ssg71
g4013
sg64
(lp4020
g57
(g66
g59
NtRp4021
(dp4022
g62
(dp4023
g70
I3
ssg71
Nsg64
(lp4024
g57
(g73
g59
NtRp4025
(dp4026
g62
(dp4027
sg71
g4021
sg64
(lp4028
g57
(g78
g59
NtRp4029
(dp4030
g62
(dp4031
sg71
g4025
sg64
(lp4032
g57
(g58
g59
NtRp4033
(dp4034
g62
(dp4035
g70
I3
ssg71
g4029
sg64
(lp4036
cgluon.languages
lazyT_unpickle
p4037
(S't\x04\x00\x00\x00Home'
tRp4038
asbasbasbag57
(g73
g59
NtRp4039
(dp4040
g62
(dp4041
sg71
g4021
sg64
(lp4042
g57
(g78
g59
NtRp4043
(dp4044
g62
(dp4045
sg71
g4039
sg64
(lp4046
g57
(g58
g59
NtRp4047
(dp4048
g62
(dp4049
g70
I3
ssg71
g4043
sg64
(lp4050
g100
asbasbasbag57
(g73
g59
NtRp4051
(dp4052
g62
(dp4053
sg71
g4021
sg64
(lp4054
g57
(g78
g59
NtRp4055
(dp4056
g62
(dp4057
sg71
g4051
sg64
(lp4058
g57
(g58
g59
NtRp4059
(dp4060
g62
(dp4061
g70
I3
ssg71
g4055
sg64
(lp4062
S'/project/default/index'
p4063
asbasbasbag57
(g73
g59
NtRp4064
(dp4065
g62
(dp4066
sg71
g4021
sg64
(lp4067
g57
(g78
g59
NtRp4068
(dp4069
g62
(dp4070
sg71
g4064
sg64
(lp4071
g57
(g58
g59
NtRp4072
(dp4073
g62
(dp4074
g70
I3
ssg71
g4068
sg64
(lp4075
g57
(g66
g59
NtRp4076
(dp4077
g62
(dp4078
g70
I2
ssg71
Nsg64
(lp4079
sbasbasbasbasbasbasbasbag57
(g73
g59
NtRp4080
(dp4081
g62
(dp4082
sg71
g4005
sg64
(lp4083
g57
(g78
g59
NtRp4084
(dp4085
g62
(dp4086
sg71
g4080
sg64
(lp4087
g57
(g58
g59
NtRp4088
(dp4089
g62
(dp4090
g70
I4
ssg71
g4084
sg64
(lp4091
g57
(g66
g59
NtRp4092
(dp4093
g62
(dp4094
g70
I3
ssg71
Nsg64
(lp4095
g57
(g73
g59
NtRp4096
(dp4097
g62
(dp4098
sg71
g4092
sg64
(lp4099
g57
(g78
g59
NtRp4100
(dp4101
g62
(dp4102
sg71
g4096
sg64
(lp4103
g57
(g58
g59
NtRp4104
(dp4105
g62
(dp4106
g70
I3
ssg71
g4100
sg64
(lp4107
g57
(cgluon.html
SPAN
p4108
g59
NtRp4109
(dp4110
g62
(dp4111
g82
S'color:yellow'
p4112
ssg71
Nsg64
(lp4113
g3983
asbasbasbasbag57
(g73
g59
NtRp4114
(dp4115
g62
(dp4116
sg71
g4092
sg64
(lp4117
g57
(g78
g59
NtRp4118
(dp4119
g62
(dp4120
sg71
g4114
sg64
(lp4121
g57
(g58
g59
NtRp4122
(dp4123
g62
(dp4124
g70
I3
ssg71
g4118
sg64
(lp4125
g100
asbasbasbag57
(g73
g59
NtRp4126
(dp4127
g62
(dp4128
sg71
g4092
sg64
(lp4129
g57
(g78
g59
NtRp4130
(dp4131
g62
(dp4132
sg71
g4126
sg64
(lp4133
g57
(g58
g59
NtRp4134
(dp4135
g62
(dp4136
g70
I3
ssg71
g4130
sg64
(lp4137
S'None'
p4138
asbasbasbag57
(g73
g59
NtRp4139
(dp4140
g62
(dp4141
sg71
g4092
sg64
(lp4142
g57
(g78
g59
NtRp4143
(dp4144
g62
(dp4145
sg71
g4139
sg64
(lp4146
g57
(g58
g59
NtRp4147
(dp4148
g62
(dp4149
g70
I3
ssg71
g4143
sg64
(lp4150
g57
(g66
g59
NtRp4151
(dp4152
g62
(dp4153
g70
I2
ssg71
Nsg64
(lp4154
g57
(g73
g59
NtRp4155
(dp4156
g62
(dp4157
sg71
g4151
sg64
(lp4158
g57
(g78
g59
NtRp4159
(dp4160
g62
(dp4161
sg71
g4155
sg64
(lp4162
g57
(g58
g59
NtRp4163
(dp4164
g62
(dp4165
g70
I2
ssg71
g4159
sg64
(lp4166
g57
(g66
g59
NtRp4167
(dp4168
g62
(dp4169
g70
I1
ssg71
Nsg64
(lp4170
g57
(g73
g59
NtRp4171
(dp4172
g62
(dp4173
sg71
g4167
sg64
(lp4174
g57
(g78
g59
NtRp4175
(dp4176
g62
(dp4177
sg71
g4171
sg64
(lp4178
g57
(g58
g59
NtRp4179
(dp4180
g62
(dp4181
g70
I1
ssg71
g4175
sg64
(lp4182
g4037
(S's\x08\x00\x00\x00My Sites'
tRp4183
asbasbasbag57
(g73
g59
NtRp4184
(dp4185
g62
(dp4186
sg71
g4167
sg64
(lp4187
g57
(g78
g59
NtRp4188
(dp4189
g62
(dp4190
sg71
g4184
sg64
(lp4191
g57
(g58
g59
NtRp4192
(dp4193
g62
(dp4194
g70
I1
ssg71
g4188
sg64
(lp4195
I00
asbasbasbag57
(g73
g59
NtRp4196
(dp4197
g62
(dp4198
sg71
g4167
sg64
(lp4199
g57
(g78
g59
NtRp4200
(dp4201
g62
(dp4202
sg71
g4196
sg64
(lp4203
g57
(g58
g59
NtRp4204
(dp4205
g62
(dp4206
g70
I1
ssg71
g4200
sg64
(lp4207
S'/admin/default/site'
p4208
asbasbasbasbasbasbasbag57
(g73
g59
NtRp4209
(dp4210
g62
(dp4211
sg71
g4151
sg64
(lp4212
g57
(g78
g59
NtRp4213
(dp4214
g62
(dp4215
sg71
g4209
sg64
(lp4216
g57
(g58
g59
NtRp4217
(dp4218
g62
(dp4219
g70
I2
ssg71
g4213
sg64
(lp4220
g57
(g66
g59
NtRp4221
(dp4222
g62
(dp4223
g70
I1
ssg71
Nsg64
(lp4224
g57
(g73
g59
NtRp4225
(dp4226
g62
(dp4227
sg71
g4221
sg64
(lp4228
g57
(g78
g59
NtRp4229
(dp4230
g62
(dp4231
sg71
g4225
sg64
(lp4232
g57
(g58
g59
NtRp4233
(dp4234
g62
(dp4235
g70
I1
ssg71
g4229
sg64
(lp4236
g4037
(S's\x08\x00\x00\x00This App'
tRp4237
asbasbasbag57
(g73
g59
NtRp4238
(dp4239
g62
(dp4240
sg71
g4221
sg64
(lp4241
g57
(g78
g59
NtRp4242
(dp4243
g62
(dp4244
sg71
g4238
sg64
(lp4245
g57
(g58
g59
NtRp4246
(dp4247
g62
(dp4248
g70
I1
ssg71
g4242
sg64
(lp4249
I00
asbasbasbag57
(g73
g59
NtRp4250
(dp4251
g62
(dp4252
sg71
g4221
sg64
(lp4253
g57
(g78
g59
NtRp4254
(dp4255
g62
(dp4256
sg71
g4250
sg64
(lp4257
g57
(g58
g59
NtRp4258
(dp4259
g62
(dp4260
g70
I1
ssg71
g4254
sg64
(lp4261
S'/admin/default/design/project'
p4262
asbasbasbag57
(g73
g59
NtRp4263
(dp4264
g62
(dp4265
sg71
g4221
sg64
(lp4266
g57
(g78
g59
NtRp4267
(dp4268
g62
(dp4269
sg71
g4263
sg64
(lp4270
g57
(g58
g59
NtRp4271
(dp4272
g62
(dp4273
g70
I1
ssg71
g4267
sg64
(lp4274
(lp4275
(g4037
(S't\n\x00\x00\x00Controller'
tRp4276
I00
S'/admin/default/edit/project/controllers/default.py'
tp4277
a(g4037
(S't\x04\x00\x00\x00View'
tRp4278
I00
S'/admin/default/edit/project/views/default/kruskal.html'
tp4279
a(g4037
(S't\x06\x00\x00\x00Layout'
tRp4280
I00
S'/admin/default/edit/project/views/layout.html'
tp4281
a(g4037
(S't\n\x00\x00\x00Stylesheet'
tRp4282
I00
S'/admin/default/edit/project/static/css/web2py.css'
tp4283
a(g4037
(S's\x08\x00\x00\x00DB Model'
tRp4284
I00
S'/admin/default/edit/project/models/db.py'
tp4285
a(g4037
(S's\n\x00\x00\x00Menu Model'
tRp4286
I00
S'/admin/default/edit/project/models/menu.py'
tp4287
a(g4037
(S't\x08\x00\x00\x00Database'
tRp4288
I00
S'/project/appadmin/index'
tp4289
a(g4037
(S't\x06\x00\x00\x00Errors'
tRp4290
I00
S'/admin/default/errors/project'
tp4291
a(g4037
(S't\x05\x00\x00\x00About'
tRp4292
I00
S'/admin/default/about/project'
tp4293
aasbasbasbasbasbasbasbag57
(g73
g59
NtRp4294
(dp4295
g62
(dp4296
sg71
g4151
sg64
(lp4297
g57
(g78
g59
NtRp4298
(dp4299
g62
(dp4300
sg71
g4294
sg64
(lp4301
g57
(g58
g59
NtRp4302
(dp4303
g62
(dp4304
g70
I2
ssg71
g4298
sg64
(lp4305
g57
(g66
g59
NtRp4306
(dp4307
g62
(dp4308
g70
I1
ssg71
Nsg64
(lp4309
g57
(g73
g59
NtRp4310
(dp4311
g62
(dp4312
sg71
g4306
sg64
(lp4313
g57
(g78
g59
NtRp4314
(dp4315
g62
(dp4316
sg71
g4310
sg64
(lp4317
g57
(g58
g59
NtRp4318
(dp4319
g62
(dp4320
g70
I1
ssg71
g4314
sg64
(lp4321
S'web2py.com'
p4322
asbasbasbag57
(g73
g59
NtRp4323
(dp4324
g62
(dp4325
sg71
g4306
sg64
(lp4326
g57
(g78
g59
NtRp4327
(dp4328
g62
(dp4329
sg71
g4323
sg64
(lp4330
g57
(g58
g59
NtRp4331
(dp4332
g62
(dp4333
g70
I1
ssg71
g4327
sg64
(lp4334
I00
asbasbasbag57
(g73
g59
NtRp4335
(dp4336
g62
(dp4337
sg71
g4306
sg64
(lp4338
g57
(g78
g59
NtRp4339
(dp4340
g62
(dp4341
sg71
g4335
sg64
(lp4342
g57
(g58
g59
NtRp4343
(dp4344
g62
(dp4345
g70
I1
ssg71
g4339
sg64
(lp4346
S'http://www.web2py.com'
p4347
asbasbasbag57
(g73
g59
NtRp4348
(dp4349
g62
(dp4350
sg71
g4306
sg64
(lp4351
g57
(g78
g59
NtRp4352
(dp4353
g62
(dp4354
sg71
g4348
sg64
(lp4355
g57
(g58
g59
NtRp4356
(dp4357
g62
(dp4358
g70
I1
ssg71
g4352
sg64
(lp4359
(lp4360
(g4037
(S't\x08\x00\x00\x00Download'
tRp4361
I00
S'http://www.web2py.com/examples/default/download'
p4362
tp4363
a(g4037
(S't\x07\x00\x00\x00Support'
tRp4364
I00
S'http://www.web2py.com/examples/default/support'
p4365
tp4366
a(g4037
(S't\x04\x00\x00\x00Demo'
tRp4367
I00
S'http://web2py.com/demo_admin'
p4368
tp4369
a(g4037
(S's\x0e\x00\x00\x00Quick Examples'
tRp4370
I00
S'http://web2py.com/examples/default/examples'
p4371
tp4372
a(g4037
(S't\x03\x00\x00\x00FAQ'
tRp4373
I00
S'http://web2py.com/AlterEgo'
p4374
tp4375
a(g4037
(S't\x06\x00\x00\x00Videos'
tRp4376
I00
S'http://www.web2py.com/examples/default/videos/'
p4377
tp4378
a(g4037
(S's\x11\x00\x00\x00Free Applications'
tRp4379
I00
S'http://web2py.com/appliances'
p4380
tp4381
a(g4037
(S't\x07\x00\x00\x00Plugins'
tRp4382
I00
S'http://web2py.com/plugins'
p4383
tp4384
a(g4037
(S't\x07\x00\x00\x00Layouts'
tRp4385
I00
S'http://web2py.com/layouts'
p4386
tp4387
a(g4037
(S't\x07\x00\x00\x00Recipes'
tRp4388
I00
S'http://web2pyslices.com/'
p4389
tp4390
a(g4037
(S't\x08\x00\x00\x00Semantic'
tRp4391
I00
S'http://web2py.com/semantic'
p4392
tp4393
aasbasbasbasbasbasbasbag57
(g73
g59
NtRp4394
(dp4395
g62
(dp4396
sg71
g4151
sg64
(lp4397
g57
(g78
g59
NtRp4398
(dp4399
g62
(dp4400
sg71
g4394
sg64
(lp4401
g57
(g58
g59
NtRp4402
(dp4403
g62
(dp4404
g70
I2
ssg71
g4398
sg64
(lp4405
g57
(g66
g59
NtRp4406
(dp4407
g62
(dp4408
g70
I1
ssg71
Nsg64
(lp4409
g57
(g73
g59
NtRp4410
(dp4411
g62
(dp4412
sg71
g4406
sg64
(lp4413
g57
(g78
g59
NtRp4414
(dp4415
g62
(dp4416
sg71
g4410
sg64
(lp4417
g57
(g58
g59
NtRp4418
(dp4419
g62
(dp4420
g70
I1
ssg71
g4414
sg64
(lp4421
g4037
(S't\r\x00\x00\x00Documentation'
tRp4422
asbasbasbag57
(g73
g59
NtRp4423
(dp4424
g62
(dp4425
sg71
g4406
sg64
(lp4426
g57
(g78
g59
NtRp4427
(dp4428
g62
(dp4429
sg71
g4423
sg64
(lp4430
g57
(g58
g59
NtRp4431
(dp4432
g62
(dp4433
g70
I1
ssg71
g4427
sg64
(lp4434
I00
asbasbasbag57
(g73
g59
NtRp4435
(dp4436
g62
(dp4437
sg71
g4406
sg64
(lp4438
g57
(g78
g59
NtRp4439
(dp4440
g62
(dp4441
sg71
g4435
sg64
(lp4442
g57
(g58
g59
NtRp4443
(dp4444
g62
(dp4445
g70
I1
ssg71
g4439
sg64
(lp4446
S'http://www.web2py.com/book'
p4447
asbasbasbag57
(g73
g59
NtRp4448
(dp4449
g62
(dp4450
sg71
g4406
sg64
(lp4451
g57
(g78
g59
NtRp4452
(dp4453
g62
(dp4454
sg71
g4448
sg64
(lp4455
g57
(g58
g59
NtRp4456
(dp4457
g62
(dp4458
g70
I1
ssg71
g4452
sg64
(lp4459
(lp4460
(g4037
(S't\x07\x00\x00\x00Preface'
tRp4461
I00
S'http://www.web2py.com/book/default/chapter/00'
p4462
tp4463
a(g4037
(S't\x0c\x00\x00\x00Introduction'
tRp4464
I00
S'http://www.web2py.com/book/default/chapter/01'
p4465
tp4466
a(g4037
(S't\x06\x00\x00\x00Python'
tRp4467
I00
S'http://www.web2py.com/book/default/chapter/02'
p4468
tp4469
a(g4037
(S't\x08\x00\x00\x00Overview'
tRp4470
I00
S'http://www.web2py.com/book/default/chapter/03'
p4471
tp4472
a(g4037
(S's\x08\x00\x00\x00The Core'
tRp4473
I00
S'http://www.web2py.com/book/default/chapter/04'
p4474
tp4475
a(g4037
(S's\t\x00\x00\x00The Views'
tRp4476
I00
S'http://www.web2py.com/book/default/chapter/05'
p4477
tp4478
a(g4037
(S't\x08\x00\x00\x00Database'
tRp4479
I00
S'http://www.web2py.com/book/default/chapter/06'
p4480
tp4481
a(g4037
(S's\x14\x00\x00\x00Forms and Validators'
tRp4482
I00
S'http://www.web2py.com/book/default/chapter/07'
p4483
tp4484
a(g4037
(S's\r\x00\x00\x00Email and SMS'
tRp4485
I00
S'http://www.web2py.com/book/default/chapter/08'
p4486
tp4487
a(g4037
(S's\x0e\x00\x00\x00Access Control'
tRp4488
I00
S'http://www.web2py.com/book/default/chapter/09'
p4489
tp4490
a(g4037
(S't\x08\x00\x00\x00Services'
tRp4491
I00
S'http://www.web2py.com/book/default/chapter/10'
p4492
tp4493
a(g4037
(S's\x0c\x00\x00\x00Ajax Recipes'
tRp4494
I00
S'http://www.web2py.com/book/default/chapter/11'
p4495
tp4496
a(g4037
(S's\x16\x00\x00\x00Components and Plugins'
tRp4497
I00
S'http://www.web2py.com/book/default/chapter/12'
p4498
tp4499
a(g4037
(S's\x12\x00\x00\x00Deployment Recipes'
tRp4500
I00
S'http://www.web2py.com/book/default/chapter/13'
p4501
tp4502
a(g4037
(S's\r\x00\x00\x00Other Recipes'
tRp4503
I00
S'http://www.web2py.com/book/default/chapter/14'
p4504
tp4505
a(g4037
(S's\r\x00\x00\x00Buy this book'
tRp4506
I00
S'http://stores.lulu.com/web2py'
p4507
tp4508
aasbasbasbasbasbasbasbag57
(g73
g59
NtRp4509
(dp4510
g62
(dp4511
sg71
g4151
sg64
(lp4512
g57
(g78
g59
NtRp4513
(dp4514
g62
(dp4515
sg71
g4509
sg64
(lp4516
g57
(g58
g59
NtRp4517
(dp4518
g62
(dp4519
g70
I2
ssg71
g4513
sg64
(lp4520
g57
(g66
g59
NtRp4521
(dp4522
g62
(dp4523
g70
I1
ssg71
Nsg64
(lp4524
g57
(g73
g59
NtRp4525
(dp4526
g62
(dp4527
sg71
g4521
sg64
(lp4528
g57
(g78
g59
NtRp4529
(dp4530
g62
(dp4531
sg71
g4525
sg64
(lp4532
g57
(g58
g59
NtRp4533
(dp4534
g62
(dp4535
g70
I1
ssg71
g4529
sg64
(lp4536
g4037
(S't\t\x00\x00\x00Community'
tRp4537
asbasbasbag57
(g73
g59
NtRp4538
(dp4539
g62
(dp4540
sg71
g4521
sg64
(lp4541
g57
(g78
g59
NtRp4542
(dp4543
g62
(dp4544
sg71
g4538
sg64
(lp4545
g57
(g58
g59
NtRp4546
(dp4547
g62
(dp4548
g70
I1
ssg71
g4542
sg64
(lp4549
I00
asbasbasbag57
(g73
g59
NtRp4550
(dp4551
g62
(dp4552
sg71
g4521
sg64
(lp4553
g57
(g78
g59
NtRp4554
(dp4555
g62
(dp4556
sg71
g4550
sg64
(lp4557
g57
(g58
g59
NtRp4558
(dp4559
g62
(dp4560
g70
I1
ssg71
g4554
sg64
(lp4561
Nasbasbasbag57
(g73
g59
NtRp4562
(dp4563
g62
(dp4564
sg71
g4521
sg64
(lp4565
g57
(g78
g59
NtRp4566
(dp4567
g62
(dp4568
sg71
g4562
sg64
(lp4569
g57
(g58
g59
NtRp4570
(dp4571
g62
(dp4572
g70
I1
ssg71
g4566
sg64
(lp4573
(lp4574
(g4037
(S't\x06\x00\x00\x00Groups'
tRp4575
I00
S'http://www.web2py.com/examples/default/usergroups'
p4576
tp4577
a(g4037
(S't\x07\x00\x00\x00Twitter'
tRp4578
I00
S'http://twitter.com/web2py'
p4579
tp4580
a(g4037
(S's\t\x00\x00\x00Live Chat'
tRp4581
I00
S'http://webchat.freenode.net/?channels=web2py'
p4582
tp4583
aasbasbasbasbasbasbasbag57
(g73
g59
NtRp4584
(dp4585
g62
(dp4586
sg71
g4151
sg64
(lp4587
g57
(g78
g59
NtRp4588
(dp4589
g62
(dp4590
sg71
g4584
sg64
(lp4591
g57
(g58
g59
NtRp4592
(dp4593
g62
(dp4594
g70
I2
ssg71
g4588
sg64
(lp4595
g57
(g66
g59
NtRp4596
(dp4597
g62
(dp4598
g70
I1
ssg71
Nsg64
(lp4599
g57
(g73
g59
NtRp4600
(dp4601
g62
(dp4602
sg71
g4596
sg64
(lp4603
g57
(g78
g59
NtRp4604
(dp4605
g62
(dp4606
sg71
g4600
sg64
(lp4607
g57
(g58
g59
NtRp4608
(dp4609
g62
(dp4610
g70
I1
ssg71
g4604
sg64
(lp4611
g4037
(S't\x07\x00\x00\x00Plugins'
tRp4612
asbasbasbag57
(g73
g59
NtRp4613
(dp4614
g62
(dp4615
sg71
g4596
sg64
(lp4616
g57
(g78
g59
NtRp4617
(dp4618
g62
(dp4619
sg71
g4613
sg64
(lp4620
g57
(g58
g59
NtRp4621
(dp4622
g62
(dp4623
g70
I1
ssg71
g4617
sg64
(lp4624
I00
asbasbasbag57
(g73
g59
NtRp4625
(dp4626
g62
(dp4627
sg71
g4596
sg64
(lp4628
g57
(g78
g59
NtRp4629
(dp4630
g62
(dp4631
sg71
g4625
sg64
(lp4632
g57
(g58
g59
NtRp4633
(dp4634
g62
(dp4635
g70
I1
ssg71
g4629
sg64
(lp4636
Nasbasbasbag57
(g73
g59
NtRp4637
(dp4638
g62
(dp4639
sg71
g4596
sg64
(lp4640
g57
(g78
g59
NtRp4641
(dp4642
g62
(dp4643
sg71
g4637
sg64
(lp4644
g57
(g58
g59
NtRp4645
(dp4646
g62
(dp4647
g70
I1
ssg71
g4641
sg64
(lp4648
(lp4649
(S'plugin_wiki'
p4650
I00
S'http://web2py.com/examples/default/download'
p4651
tp4652
a(g4037
(S's\r\x00\x00\x00Other Plugins'
tRp4653
I00
g4383
tp4654
a(g4037
(S's\x0e\x00\x00\x00Layout Plugins'
tRp4655
I00
g4386
tp4656
aasbasbasbasbasbasbasbasbasbasbasbasbasbasbasbasbasbasbasbag57
(g73
g59
NtRp4657
(dp4658
g62
(dp4659
sg71
g3481
sg64
(lp4660
g57
(g78
g59
NtRp4661
(dp4662
g62
(dp4663
g82
g83
ssg71
g4657
sg64
(lp4664
S'meta'
p4665
asbag57
(g78
g59
NtRp4666
(dp4667
g62
(dp4668
g89
g90
ssg71
g4657
sg64
(lp4669
S':'
asbag57
(g78
g59
NtRp4670
(dp4671
g62
(dp4672
sg71
g4657
sg64
(lp4673
g57
(g58
g59
NtRp4674
(dp4675
g62
(dp4676
g70
I5
ssg71
g4670
sg64
(lp4677
g57
(g66
g59
NtRp4678
(dp4679
g62
(dp4680
g70
I4
ssg71
Nsg64
(lp4681
g57
(g73
g59
NtRp4682
(dp4683
g62
(dp4684
sg71
g4678
sg64
(lp4685
g57
(g78
g59
NtRp4686
(dp4687
g62
(dp4688
g82
g83
ssg71
g4682
sg64
(lp4689
S'author'
p4690
asbag57
(g78
g59
NtRp4691
(dp4692
g62
(dp4693
g89
g90
ssg71
g4682
sg64
(lp4694
S':'
asbag57
(g78
g59
NtRp4695
(dp4696
g62
(dp4697
sg71
g4682
sg64
(lp4698
g57
(g58
g59
NtRp4699
(dp4700
g62
(dp4701
g70
I4
ssg71
g4695
sg64
(lp4702
S'Your Name <you@example.com>'
p4703
asbasbasbag57
(g73
g59
NtRp4704
(dp4705
g62
(dp4706
sg71
g4678
sg64
(lp4707
g57
(g78
g59
NtRp4708
(dp4709
g62
(dp4710
g82
g83
ssg71
g4704
sg64
(lp4711
S'copyright'
p4712
asbag57
(g78
g59
NtRp4713
(dp4714
g62
(dp4715
g89
g90
ssg71
g4704
sg64
(lp4716
S':'
asbag57
(g78
g59
NtRp4717
(dp4718
g62
(dp4719
sg71
g4704
sg64
(lp4720
g57
(g58
g59
NtRp4721
(dp4722
g62
(dp4723
g70
I4
ssg71
g4717
sg64
(lp4724
S'Copyright 2011'
p4725
asbasbasbag57
(g73
g59
NtRp4726
(dp4727
g62
(dp4728
sg71
g4678
sg64
(lp4729
g57
(g78
g59
NtRp4730
(dp4731
g62
(dp4732
g82
g83
ssg71
g4726
sg64
(lp4733
S'description'
p4734
asbag57
(g78
g59
NtRp4735
(dp4736
g62
(dp4737
g89
g90
ssg71
g4726
sg64
(lp4738
S':'
asbag57
(g78
g59
NtRp4739
(dp4740
g62
(dp4741
sg71
g4726
sg64
(lp4742
g57
(g58
g59
NtRp4743
(dp4744
g62
(dp4745
g70
I4
ssg71
g4739
sg64
(lp4746
S'a cool new app'
p4747
asbasbasbag57
(g73
g59
NtRp4748
(dp4749
g62
(dp4750
sg71
g4678
sg64
(lp4751
g57
(g78
g59
NtRp4752
(dp4753
g62
(dp4754
g82
g83
ssg71
g4748
sg64
(lp4755
S'generator'
p4756
asbag57
(g78
g59
NtRp4757
(dp4758
g62
(dp4759
g89
g90
ssg71
g4748
sg64
(lp4760
S':'
asbag57
(g78
g59
NtRp4761
(dp4762
g62
(dp4763
sg71
g4748
sg64
(lp4764
g57
(g58
g59
NtRp4765
(dp4766
g62
(dp4767
g70
I4
ssg71
g4761
sg64
(lp4768
S'Web2py Web Framework'
p4769
asbasbasbag57
(g73
g59
NtRp4770
(dp4771
g62
(dp4772
sg71
g4678
sg64
(lp4773
g57
(g78
g59
NtRp4774
(dp4775
g62
(dp4776
g82
g83
ssg71
g4770
sg64
(lp4777
S'keywords'
p4778
asbag57
(g78
g59
NtRp4779
(dp4780
g62
(dp4781
g89
g90
ssg71
g4770
sg64
(lp4782
S':'
asbag57
(g78
g59
NtRp4783
(dp4784
g62
(dp4785
sg71
g4770
sg64
(lp4786
g57
(g58
g59
NtRp4787
(dp4788
g62
(dp4789
g70
I4
ssg71
g4783
sg64
(lp4790
S'web2py, python, framework'
p4791
asbasbasbasbasbasbasbag57
(g73
g59
NtRp4792
(dp4793
g62
(dp4794
sg71
g3481
sg64
(lp4795
g57
(g78
g59
NtRp4796
(dp4797
g62
(dp4798
g82
g83
ssg71
g4792
sg64
(lp4799
S'postprocessing'
p4800
asbag57
(g78
g59
NtRp4801
(dp4802
g62
(dp4803
g89
g90
ssg71
g4792
sg64
(lp4804
S':'
asbag57
(g78
g59
NtRp4805
(dp4806
g62
(dp4807
sg71
g4792
sg64
(lp4808
g57
(g58
g59
NtRp4809
(dp4810
g62
(dp4811
g70
I5
ssg71
g4805
sg64
(lp4812
g57
(g66
g59
NtRp4813
(dp4814
g62
(dp4815
g70
I4
ssg71
Nsg64
(lp4816
sbasbasbasbag57
(g73
g59
NtRp4817
(dp4818
g62
(dp4819
sg71
g3481
sg64
(lp4820
g57
(g78
g59
NtRp4821
(dp4822
g62
(dp4823
g82
g83
ssg71
g4817
sg64
(lp4824
S'session_file'
p4825
asbag57
(g78
g59
NtRp4826
(dp4827
g62
(dp4828
g89
g90
ssg71
g4817
sg64
(lp4829
S':'
asbag57
(g78
g59
NtRp4830
(dp4831
g62
(dp4832
sg71
g4817
sg64
(lp4833
g57
(g58
g59
NtRp4834
(dp4835
g62
(dp4836
g70
I5
ssg71
g4830
sg64
(lp4837
S"<open file '/home/arpita/courses/sem3/ssad/web2py/applications/project/sessions/127.0.0.1-a4d96691-8401-4c66-8ac6-2cead0f9ad29', mode 'rb+' at 0x8e87f40>"
p4838
asbasbasbag57
(g73
g59
NtRp4839
(dp4840
g62
(dp4841
sg71
g3481
sg64
(lp4842
g57
(g78
g59
NtRp4843
(dp4844
g62
(dp4845
g82
g83
ssg71
g4839
sg64
(lp4846
S'session_filename'
p4847
asbag57
(g78
g59
NtRp4848
(dp4849
g62
(dp4850
g89
g90
ssg71
g4839
sg64
(lp4851
S':'
asbag57
(g78
g59
NtRp4852
(dp4853
g62
(dp4854
sg71
g4839
sg64
(lp4855
g57
(g58
g59
NtRp4856
(dp4857
g62
(dp4858
g70
I5
ssg71
g4852
sg64
(lp4859
S'/home/arpita/courses/sem3/ssad/web2py/applications/project/sessions/127.0.0.1-a4d96691-8401-4c66-8ac6-2cead0f9ad29'
p4860
asbasbasbag57
(g73
g59
NtRp4861
(dp4862
g62
(dp4863
sg71
g3481
sg64
(lp4864
g57
(g78
g59
NtRp4865
(dp4866
g62
(dp4867
g82
g83
ssg71
g4861
sg64
(lp4868
S'session_id'
p4869
asbag57
(g78
g59
NtRp4870
(dp4871
g62
(dp4872
g89
g90
ssg71
g4861
sg64
(lp4873
S':'
asbag57
(g78
g59
NtRp4874
(dp4875
g62
(dp4876
sg71
g4861
sg64
(lp4877
g57
(g58
g59
NtRp4878
(dp4879
g62
(dp4880
g70
I5
ssg71
g4874
sg64
(lp4881
S'127.0.0.1-a4d96691-8401-4c66-8ac6-2cead0f9ad29'
p4882
asbasbasbag57
(g73
g59
NtRp4883
(dp4884
g62
(dp4885
sg71
g3481
sg64
(lp4886
g57
(g78
g59
NtRp4887
(dp4888
g62
(dp4889
g82
g83
ssg71
g4883
sg64
(lp4890
S'session_id_name'
p4891
asbag57
(g78
g59
NtRp4892
(dp4893
g62
(dp4894
g89
g90
ssg71
g4883
sg64
(lp4895
S':'
asbag57
(g78
g59
NtRp4896
(dp4897
g62
(dp4898
sg71
g4883
sg64
(lp4899
g57
(g58
g59
NtRp4900
(dp4901
g62
(dp4902
g70
I5
ssg71
g4896
sg64
(lp4903
g3538
asbasbasbag57
(g73
g59
NtRp4904
(dp4905
g62
(dp4906
sg71
g3481
sg64
(lp4907
g57
(g78
g59
NtRp4908
(dp4909
g62
(dp4910
g82
g83
ssg71
g4904
sg64
(lp4911
S'session_locked'
p4912
asbag57
(g78
g59
NtRp4913
(dp4914
g62
(dp4915
g89
g90
ssg71
g4904
sg64
(lp4916
S':'
asbag57
(g78
g59
NtRp4917
(dp4918
g62
(dp4919
sg71
g4904
sg64
(lp4920
g57
(g58
g59
NtRp4921
(dp4922
g62
(dp4923
g70
I5
ssg71
g4917
sg64
(lp4924
g1678
asbasbasbag57
(g73
g59
NtRp4925
(dp4926
g62
(dp4927
sg71
g3481
sg64
(lp4928
g57
(g78
g59
NtRp4929
(dp4930
g62
(dp4931
g82
g83
ssg71
g4925
sg64
(lp4932
S'session_new'
p4933
asbag57
(g78
g59
NtRp4934
(dp4935
g62
(dp4936
g89
g90
ssg71
g4925
sg64
(lp4937
S':'
asbag57
(g78
g59
NtRp4938
(dp4939
g62
(dp4940
sg71
g4925
sg64
(lp4941
g57
(g58
g59
NtRp4942
(dp4943
g62
(dp4944
g70
I5
ssg71
g4938
sg64
(lp4945
g100
asbasbasbag57
(g73
g59
NtRp4946
(dp4947
g62
(dp4948
sg71
g3481
sg64
(lp4949
g57
(g78
g59
NtRp4950
(dp4951
g62
(dp4952
g82
g83
ssg71
g4946
sg64
(lp4953
S'status'
p4954
asbag57
(g78
g59
NtRp4955
(dp4956
g62
(dp4957
g89
g90
ssg71
g4946
sg64
(lp4958
S':'
asbag57
(g78
g59
NtRp4959
(dp4960
g62
(dp4961
sg71
g4946
sg64
(lp4962
g57
(g58
g59
NtRp4963
(dp4964
g62
(dp4965
g70
I5
ssg71
g4959
sg64
(lp4966
S'200'
p4967
asbasbasbag57
(g73
g59
NtRp4968
(dp4969
g62
(dp4970
sg71
g3481
sg64
(lp4971
g57
(g78
g59
NtRp4972
(dp4973
g62
(dp4974
g82
g83
ssg71
g4968
sg64
(lp4975
S'subtitle'
p4976
asbag57
(g78
g59
NtRp4977
(dp4978
g62
(dp4979
g89
g90
ssg71
g4968
sg64
(lp4980
S':'
asbag57
(g78
g59
NtRp4981
(dp4982
g62
(dp4983
sg71
g4968
sg64
(lp4984
g57
(g58
g59
NtRp4985
(dp4986
g62
(dp4987
g70
I5
ssg71
g4981
sg64
(lp4988
g4037
(S's\r\x00\x00\x00customize me!'
tRp4989
asbasbasbag57
(g73
g59
NtRp4990
(dp4991
g62
(dp4992
sg71
g3481
sg64
(lp4993
g57
(g78
g59
NtRp4994
(dp4995
g62
(dp4996
g82
g83
ssg71
g4990
sg64
(lp4997
S'title'
p4998
asbag57
(g78
g59
NtRp4999
(dp5000
g62
(dp5001
g89
g90
ssg71
g4990
sg64
(lp5002
S':'
asbag57
(g78
g59
NtRp5003
(dp5004
g62
(dp5005
sg71
g4990
sg64
(lp5006
g57
(g58
g59
NtRp5007
(dp5008
g62
(dp5009
g70
I5
ssg71
g5003
sg64
(lp5010
S'Project'
p5011
asbasbasbag57
(g73
g59
NtRp5012
(dp5013
g62
(dp5014
sg71
g3481
sg64
(lp5015
g57
(g78
g59
NtRp5016
(dp5017
g62
(dp5018
g82
g83
ssg71
g5012
sg64
(lp5019
g2342
asbag57
(g78
g59
NtRp5020
(dp5021
g62
(dp5022
g89
g90
ssg71
g5012
sg64
(lp5023
S':'
asbag57
(g78
g59
NtRp5024
(dp5025
g62
(dp5026
sg71
g5012
sg64
(lp5027
g57
(g58
g59
NtRp5028
(dp5029
g62
(dp5030
g70
I5
ssg71
g5024
sg64
(lp5031
g2355
asbasbasbag57
(g73
g59
NtRp5032
(dp5033
g62
(dp5034
sg71
g3481
sg64
(lp5035
g57
(g78
g59
NtRp5036
(dp5037
g62
(dp5038
g82
g83
ssg71
g5032
sg64
(lp5039
S'view'
p5040
asbag57
(g78
g59
NtRp5041
(dp5042
g62
(dp5043
g89
g90
ssg71
g5032
sg64
(lp5044
S':'
asbag57
(g78
g59
NtRp5045
(dp5046
g62
(dp5047
sg71
g5032
sg64
(lp5048
g57
(g58
g59
NtRp5049
(dp5050
g62
(dp5051
g70
I5
ssg71
g5045
sg64
(lp5052
S'default/kruskal.html'
p5053
asbasbasbasbasbsS'locals'
p5054
(dp5055
S'a'
S'1'
sS'b'
S'3'
sS'cou'
p5056
S'3'
sS'min'
p5057
S'100'
p5058
sS'i'
S'3'
sS'k'
S'2'
sS'j'
S'3'
sS'li'
p5059
S"<Row {'update_record': <function <lambda> at 0x9... <function <lambda> at 0x9887224>, 'Emp2_id': 3}>"
p5060
sS'emp'
p5061
S'<gluon.dal.Rows object>'
p5062
sS'lis'
p5063
S'<gluon.dal.Rows object>'
p5064
sS'count1'
p5065
S'2'
sS'counts'
p5066
S'3'
sS'count2'
p5067
S'1'
sssS'traceback'
p5068
S'Traceback (most recent call last):\n  File "/home/arpita/courses/sem3/ssad/web2py/gluon/restricted.py", line 205, in restricted\n    exec ccode in environment\n  File "/home/arpita/courses/sem3/ssad/web2py/applications/project/controllers/default.py", line 158, in <module>\n  File "/home/arpita/courses/sem3/ssad/web2py/gluon/globals.py", line 173, in <lambda>\n    self._caller = lambda f: f()\n  File "/home/arpita/courses/sem3/ssad/web2py/applications/project/controllers/default.py", line 156, in kruskal\n    return dict(p,q)\nTypeError: dict expected at most 1 arguments, got 2\n'
p5069
s.