(dp1
S'output'
p2
S"<type 'exceptions.IndexError'> list assignment index out of range"
p3
sS'layer'
p4
S'/home/arpita/courses/sem3/ssad/web2py/applications/project/controllers/default.py'
p5
sS'code'
p6
S'# -*- coding: utf-8 -*-\n# this file is released under public domain and you can use without limitations\n\n#########################################################################\n## This is a samples controller\n## - index is the default action of any application\n## - user is required for authentication and authorization\n## - download is for downloading files uploaded in the db (does streaming)\n## - call exposes all registered services (none by default)\n#########################################################################\n@auth.requires_membership(\'Administrator\')\ndef index():\n    emp=db().select(db.Employee.ALL, orderby=db.Employee.Importance_val)\n    \n    """\n    example action using the internationalization operator T and flash\n    rendered by views/default/index.html or views/generic.html\n    """\n    form=crud.create(db.Employee)\n    response.flash = "Employee Details"\n    return dict(form=form,emp=emp)\n\ndef user():\n    """\n    exposes:\n    http://..../[app]/default/user/login\n    http://..../[app]/default/user/logout\n    http://..../[app]/default/user/register\n    http://..../[app]/default/user/profile\n    http://..../[app]/default/user/retrieve_password\n    http://..../[app]/default/user/change_password\n    use @auth.requires_login()\n        @auth.requires_membership(\'group name\')\n        @auth.requires_permission(\'read\',\'table name\',record_id)\n    to decorate functions that need access control\n    """\n    return dict(form=auth())\n\n\n\n\n\n@auth.requires_signature()\ndef data():\n    """\n    http://..../[app]/default/data/tables\n    http://..../[app]/default/data/create/[table]\n    http://..../[app]/default/data/read/[table]/[id]\n    http://..../[app]/default/data/update/[table]/[id]\n    http://..../[app]/default/data/delete/[table]/[id]\n    http://..../[app]/default/data/select/[table]\n    http://..../[app]/default/data/search/[table]\n    but URLs must be signed, i.e. linked with\n      A(\'table\',_href=URL(\'data/tables\',user_signature=True))\n    or with the signed load operator\n      LOAD(\'default\',\'data.load\',args=\'tables\',ajax=True,user_signature=True)\n    """\n    return dict(form=crud())\n\ndef graph():\n    empl=db.Employee(request.args(0))\n    return dict(empl=empl)  \n \n\n\ndef relate():\n   response.flash= "Define Relation"\n   form=crud.create(db.Relation)\n   return dict(form=form)\n\n\nc=[]\nrep=[]\nvis=[]\nv=[]\ned=[]\np={}\nq={}\ndef kruskal():\n    \n    lis = db().select(db.Relation.ALL)\n    emp=db().select(db.Employee.ALL, orderby=db.Employee.Name)\n    counts=len(emp)\n    for i in xrange(counts+1):\n       c.append([])\n       vis.append([])\n       rep.append(i)\n       ed.append([])\n       for j in xrange(counts+1):\n          c[i].append(0)\n          vis[i].append(0)\n          ed[i].append(0)\n    for li in lis:\n       a=li.Emp1_id\n       b=li.Emp2_id\n       c[a][b]=1\n       \n    cou=0   \n    while cou !=counts:\n        min=100\n        for i in xrange(counts+1):\n            for j in xrange(counts+1):\n                if c[i][j]!=0 and vis[i][j]==0:\n                    if rep[i]!=rep[j]:\n                               vis[i][j]=1\n                               ed[i][j]=1\n                               count1=0\n                               count2=0\n                               for k in xrange(counts+1):\n                                        if rep[k]==rep[i]:\n                                            count1=count1+1\n                                        if rep[k]==rep[j]:\n                                            count2=count2+1\n                               if count1<count2:\n                                           for k in xrange(counts+1):\n                                                if rep[k]==rep[i] and k!=i:\n                                                    rep[k]=rep[j]\n                                           rep[i]=rep[j]\n                               else:\n                                        for k in xrange(counts+1):\n                                                   if rep[k]==rep[j] and k!=j:\n                                                        rep[k]=rep[i]\n                                        rep[j]=rep[i]\n\n                    else:\n                        vis[i][j]=1\n        cou=0\n        for k in xrange(counts+1):\n            if rep[k]==rep[1]:\n                    cou=cou+1\n        k=0            \n        for i in xrange(counts+1):\n                for j in xrange(counts+1):\n                      if ed[i][j]==1:\n                           p[k]=i\n                           q[k]=j\n                           k=k+1 \n    v=[0]*k\n    for i in xrange(k):\n       flag=0\n       for j in xrange(k):\n          if p[i]==q[j]:\n             flag=1\n             break\n       if flag==0:\n          break\n    file=open(\'applications/project/controllers/abc.txt\',\'w\')      \n    fil(p,q,p[i],k)   \n    for j in xrange(k):\n        if v[j]==0:\n            fil(p,q,p[j],k)\n                    \n    #file = open(\'applications/project/controllers/myfile.txt\',\'w\')\n    #for i in xrange(counts+1):\n     #   co=0  \n    \n    #    file = open(\'applications/project/controllers/myfile.txt\',\'a\')\n      #  for j in xrange(k):\n       #     file = open(\'applications/project/controllers/myfile.txt\',\'a\')\n        #    if p[j]==i:\n         #     co=co+1\n          #    if co==1:\n           #     file.write("{\\"name\\":\\"%d\\", " %p[j])\n            #    file.write("\\"children\\":[{\\"name\\":\\"%d\\"}" %q[j] )\n             # else:\n              #  file.write(",{\\"name\\":\\"%d\\"}" %q[j])\n                #file.write(\'children=q[j]\')\n               # file.close()     \n       # if co>0:\n        # file.write("]")\n         #file.write("}")                                               \n    return dict(p=p,q=q)\n\ndef fil(p,q,k,t):\n  file=open(\'applications/project/controllers/abc.txt\',\'a\')\n  for i in xrange(t):\n       if p[i]==k:\n           file.write("parent %d " %p[i])\n           v[i]=1\n           file.write("children %d\\n" %q[i])\n           fil(p,q,q[i],t)\n\nresponse._vars=response._caller(kruskal)\n'
p7
sS'snapshot'
p8
(dp9
S'exception'
p10
(dp11
S'__hash__'
p12
S"<method-wrapper '__hash__' of exceptions.IndexError object>"
p13
sS'__setattr__'
p14
S"<method-wrapper '__setattr__' of exceptions.IndexError object>"
p15
sS'__reduce_ex__'
p16
S'<built-in method __reduce_ex__ of exceptions.IndexError object>'
p17
sS'__getslice__'
p18
S"<method-wrapper '__getslice__' of exceptions.IndexError object>"
p19
sS'__getitem__'
p20
S"<method-wrapper '__getitem__' of exceptions.IndexError object>"
p21
sS'__setstate__'
p22
S'<built-in method __setstate__ of exceptions.IndexError object>'
p23
sS'__reduce__'
p24
S'<built-in method __reduce__ of exceptions.IndexError object>'
p25
sS'__str__'
p26
S"<method-wrapper '__str__' of exceptions.IndexError object>"
p27
sS'__format__'
p28
S'<built-in method __format__ of exceptions.IndexError object>'
p29
sS'__getattribute__'
p30
S"<method-wrapper '__getattribute__' of exceptions.IndexError object>"
p31
sS'__class__'
p32
S"<type 'exceptions.IndexError'>"
p33
sS'__unicode__'
p34
S'<built-in method __unicode__ of exceptions.IndexError object>'
p35
sS'__delattr__'
p36
S"<method-wrapper '__delattr__' of exceptions.IndexError object>"
p37
sS'__subclasshook__'
p38
S'<built-in method __subclasshook__ of type object>'
p39
sS'__repr__'
p40
S"<method-wrapper '__repr__' of exceptions.IndexError object>"
p41
sS'args'
p42
S"('list assignment index out of range',)"
p43
sS'__dict__'
p44
S'{}'
p45
sS'__sizeof__'
p46
S'<built-in method __sizeof__ of exceptions.IndexError object>'
p47
sS'__doc__'
p48
S"'Sequence index out of range.'"
p49
sS'__init__'
p50
S"<method-wrapper '__init__' of exceptions.IndexError object>"
p51
sS'__new__'
p52
S'<built-in method __new__ of type object>'
p53
ssS'evalue'
p54
S'list assignment index out of range'
p55
sS'request'
p56
ccopy_reg
_reconstructor
p57
(cgluon.html
BEAUTIFY
p58
c__builtin__
object
p59
NtRp60
(dp61
S'attributes'
p62
(dp63
sS'components'
p64
(lp65
g57
(cgluon.html
TABLE
p66
g59
NtRp67
(dp68
g62
(dp69
S'level'
p70
I5
ssS'parent'
p71
Nsg64
(lp72
g57
(cgluon.html
TR
p73
g59
NtRp74
(dp75
g62
(dp76
sg71
g67
sg64
(lp77
g57
(cgluon.html
TD
p78
g59
NtRp79
(dp80
g62
(dp81
S'_style'
p82
S'font-weight:bold;vertical-align:top'
p83
ssg71
g74
sg64
(lp84
S'ajax'
p85
asbag57
(g78
g59
NtRp86
(dp87
g62
(dp88
S'_valign'
p89
S'top'
p90
ssg71
g74
sg64
(lp91
S':'
asbag57
(g78
g59
NtRp92
(dp93
g62
(dp94
sg71
g74
sg64
(lp95
g57
(g58
g59
NtRp96
(dp97
g62
(dp98
g70
I5
ssg71
g92
sg64
(lp99
S'False'
p100
asbasbasbag57
(g73
g59
NtRp101
(dp102
g62
(dp103
sg71
g67
sg64
(lp104
g57
(g78
g59
NtRp105
(dp106
g62
(dp107
g82
g83
ssg71
g101
sg64
(lp108
S'application'
p109
asbag57
(g78
g59
NtRp110
(dp111
g62
(dp112
g89
g90
ssg71
g101
sg64
(lp113
S':'
asbag57
(g78
g59
NtRp114
(dp115
g62
(dp116
sg71
g101
sg64
(lp117
g57
(g58
g59
NtRp118
(dp119
g62
(dp120
g70
I5
ssg71
g114
sg64
(lp121
S'project'
p122
asbasbasbag57
(g73
g59
NtRp123
(dp124
g62
(dp125
sg71
g67
sg64
(lp126
g57
(g78
g59
NtRp127
(dp128
g62
(dp129
g82
g83
ssg71
g123
sg64
(lp130
g42
asbag57
(g78
g59
NtRp131
(dp132
g62
(dp133
g89
g90
ssg71
g123
sg64
(lp134
S':'
asbag57
(g78
g59
NtRp135
(dp136
g62
(dp137
sg71
g123
sg64
(lp138
g57
(g58
g59
NtRp139
(dp140
g62
(dp141
g70
I5
ssg71
g135
sg64
(lp142
g57
(g66
g59
NtRp143
(dp144
g62
(dp145
g70
I4
ssg71
Nsg64
(lp146
sbasbasbasbag57
(g73
g59
NtRp147
(dp148
g62
(dp149
sg71
g67
sg64
(lp150
g57
(g78
g59
NtRp151
(dp152
g62
(dp153
g82
g83
ssg71
g147
sg64
(lp154
S'body'
p155
asbag57
(g78
g59
NtRp156
(dp157
g62
(dp158
g89
g90
ssg71
g147
sg64
(lp159
S':'
asbag57
(g78
g59
NtRp160
(dp161
g62
(dp162
sg71
g147
sg64
(lp163
g57
(g58
g59
NtRp164
(dp165
g62
(dp166
g70
I5
ssg71
g160
sg64
(lp167
S'<cStringIO.StringO object at 0x9e0d380>'
p168
asbasbasbag57
(g73
g59
NtRp169
(dp170
g62
(dp171
sg71
g67
sg64
(lp172
g57
(g78
g59
NtRp173
(dp174
g62
(dp175
g82
g83
ssg71
g169
sg64
(lp176
S'client'
p177
asbag57
(g78
g59
NtRp178
(dp179
g62
(dp180
g89
g90
ssg71
g169
sg64
(lp181
S':'
asbag57
(g78
g59
NtRp182
(dp183
g62
(dp184
sg71
g169
sg64
(lp185
g57
(g58
g59
NtRp186
(dp187
g62
(dp188
g70
I5
ssg71
g182
sg64
(lp189
S'127.0.0.1'
p190
asbasbasbag57
(g73
g59
NtRp191
(dp192
g62
(dp193
sg71
g67
sg64
(lp194
g57
(g78
g59
NtRp195
(dp196
g62
(dp197
g82
g83
ssg71
g191
sg64
(lp198
S'controller'
p199
asbag57
(g78
g59
NtRp200
(dp201
g62
(dp202
g89
g90
ssg71
g191
sg64
(lp203
S':'
asbag57
(g78
g59
NtRp204
(dp205
g62
(dp206
sg71
g191
sg64
(lp207
g57
(g58
g59
NtRp208
(dp209
g62
(dp210
g70
I5
ssg71
g204
sg64
(lp211
S'default'
p212
asbasbasbag57
(g73
g59
NtRp213
(dp214
g62
(dp215
sg71
g67
sg64
(lp216
g57
(g78
g59
NtRp217
(dp218
g62
(dp219
g82
g83
ssg71
g213
sg64
(lp220
S'cookies'
p221
asbag57
(g78
g59
NtRp222
(dp223
g62
(dp224
g89
g90
ssg71
g213
sg64
(lp225
S':'
asbag57
(g78
g59
NtRp226
(dp227
g62
(dp228
sg71
g213
sg64
(lp229
g57
(g58
g59
NtRp230
(dp231
g62
(dp232
g70
I5
ssg71
g226
sg64
(lp233
g57
(g66
g59
NtRp234
(dp235
g62
(dp236
g70
I4
ssg71
Nsg64
(lp237
g57
(g73
g59
NtRp238
(dp239
g62
(dp240
sg71
g234
sg64
(lp241
g57
(g78
g59
NtRp242
(dp243
g62
(dp244
g82
g83
ssg71
g238
sg64
(lp245
S'session_id_admin'
p246
asbag57
(g78
g59
NtRp247
(dp248
g62
(dp249
g89
g90
ssg71
g238
sg64
(lp250
S':'
asbag57
(g78
g59
NtRp251
(dp252
g62
(dp253
sg71
g238
sg64
(lp254
g57
(g58
g59
NtRp255
(dp256
g62
(dp257
g70
I4
ssg71
g251
sg64
(lp258
g57
(g66
g59
NtRp259
(dp260
g62
(dp261
g70
I3
ssg71
Nsg64
(lp262
g57
(g73
g59
NtRp263
(dp264
g62
(dp265
sg71
g259
sg64
(lp266
g57
(g78
g59
NtRp267
(dp268
g62
(dp269
g82
g83
ssg71
g263
sg64
(lp270
S'comment'
p271
asbag57
(g78
g59
NtRp272
(dp273
g62
(dp274
g89
g90
ssg71
g263
sg64
(lp275
S':'
asbag57
(g78
g59
NtRp276
(dp277
g62
(dp278
sg71
g263
sg64
(lp279
g57
(g58
g59
NtRp280
(dp281
g62
(dp282
g70
I3
ssg71
g276
sg64
(lp283
S''
asbasbasbag57
(g73
g59
NtRp284
(dp285
g62
(dp286
sg71
g259
sg64
(lp287
g57
(g78
g59
NtRp288
(dp289
g62
(dp290
g82
g83
ssg71
g284
sg64
(lp291
S'domain'
p292
asbag57
(g78
g59
NtRp293
(dp294
g62
(dp295
g89
g90
ssg71
g284
sg64
(lp296
S':'
asbag57
(g78
g59
NtRp297
(dp298
g62
(dp299
sg71
g284
sg64
(lp300
g57
(g58
g59
NtRp301
(dp302
g62
(dp303
g70
I3
ssg71
g297
sg64
(lp304
S''
asbasbasbag57
(g73
g59
NtRp305
(dp306
g62
(dp307
sg71
g259
sg64
(lp308
g57
(g78
g59
NtRp309
(dp310
g62
(dp311
g82
g83
ssg71
g305
sg64
(lp312
S'expires'
p313
asbag57
(g78
g59
NtRp314
(dp315
g62
(dp316
g89
g90
ssg71
g305
sg64
(lp317
S':'
asbag57
(g78
g59
NtRp318
(dp319
g62
(dp320
sg71
g305
sg64
(lp321
g57
(g58
g59
NtRp322
(dp323
g62
(dp324
g70
I3
ssg71
g318
sg64
(lp325
S''
asbasbasbag57
(g73
g59
NtRp326
(dp327
g62
(dp328
sg71
g259
sg64
(lp329
g57
(g78
g59
NtRp330
(dp331
g62
(dp332
g82
g83
ssg71
g326
sg64
(lp333
S'httponly'
p334
asbag57
(g78
g59
NtRp335
(dp336
g62
(dp337
g89
g90
ssg71
g326
sg64
(lp338
S':'
asbag57
(g78
g59
NtRp339
(dp340
g62
(dp341
sg71
g326
sg64
(lp342
g57
(g58
g59
NtRp343
(dp344
g62
(dp345
g70
I3
ssg71
g339
sg64
(lp346
S''
asbasbasbag57
(g73
g59
NtRp347
(dp348
g62
(dp349
sg71
g259
sg64
(lp350
g57
(g78
g59
NtRp351
(dp352
g62
(dp353
g82
g83
ssg71
g347
sg64
(lp354
S'max-age'
p355
asbag57
(g78
g59
NtRp356
(dp357
g62
(dp358
g89
g90
ssg71
g347
sg64
(lp359
S':'
asbag57
(g78
g59
NtRp360
(dp361
g62
(dp362
sg71
g347
sg64
(lp363
g57
(g58
g59
NtRp364
(dp365
g62
(dp366
g70
I3
ssg71
g360
sg64
(lp367
S''
asbasbasbag57
(g73
g59
NtRp368
(dp369
g62
(dp370
sg71
g259
sg64
(lp371
g57
(g78
g59
NtRp372
(dp373
g62
(dp374
g82
g83
ssg71
g368
sg64
(lp375
S'path'
p376
asbag57
(g78
g59
NtRp377
(dp378
g62
(dp379
g89
g90
ssg71
g368
sg64
(lp380
S':'
asbag57
(g78
g59
NtRp381
(dp382
g62
(dp383
sg71
g368
sg64
(lp384
g57
(g58
g59
NtRp385
(dp386
g62
(dp387
g70
I3
ssg71
g381
sg64
(lp388
S''
asbasbasbag57
(g73
g59
NtRp389
(dp390
g62
(dp391
sg71
g259
sg64
(lp392
g57
(g78
g59
NtRp393
(dp394
g62
(dp395
g82
g83
ssg71
g389
sg64
(lp396
S'secure'
p397
asbag57
(g78
g59
NtRp398
(dp399
g62
(dp400
g89
g90
ssg71
g389
sg64
(lp401
S':'
asbag57
(g78
g59
NtRp402
(dp403
g62
(dp404
sg71
g389
sg64
(lp405
g57
(g58
g59
NtRp406
(dp407
g62
(dp408
g70
I3
ssg71
g402
sg64
(lp409
S''
asbasbasbag57
(g73
g59
NtRp410
(dp411
g62
(dp412
sg71
g259
sg64
(lp413
g57
(g78
g59
NtRp414
(dp415
g62
(dp416
g82
g83
ssg71
g410
sg64
(lp417
S'version'
p418
asbag57
(g78
g59
NtRp419
(dp420
g62
(dp421
g89
g90
ssg71
g410
sg64
(lp422
S':'
asbag57
(g78
g59
NtRp423
(dp424
g62
(dp425
sg71
g410
sg64
(lp426
g57
(g58
g59
NtRp427
(dp428
g62
(dp429
g70
I3
ssg71
g423
sg64
(lp430
S''
asbasbasbasbasbasbasbag57
(g73
g59
NtRp431
(dp432
g62
(dp433
sg71
g234
sg64
(lp434
g57
(g78
g59
NtRp435
(dp436
g62
(dp437
g82
g83
ssg71
g431
sg64
(lp438
S'session_id_project'
p439
asbag57
(g78
g59
NtRp440
(dp441
g62
(dp442
g89
g90
ssg71
g431
sg64
(lp443
S':'
asbag57
(g78
g59
NtRp444
(dp445
g62
(dp446
sg71
g431
sg64
(lp447
g57
(g58
g59
NtRp448
(dp449
g62
(dp450
g70
I4
ssg71
g444
sg64
(lp451
g57
(g66
g59
NtRp452
(dp453
g62
(dp454
g70
I3
ssg71
Nsg64
(lp455
g57
(g73
g59
NtRp456
(dp457
g62
(dp458
sg71
g452
sg64
(lp459
g57
(g78
g59
NtRp460
(dp461
g62
(dp462
g82
g83
ssg71
g456
sg64
(lp463
g271
asbag57
(g78
g59
NtRp464
(dp465
g62
(dp466
g89
g90
ssg71
g456
sg64
(lp467
S':'
asbag57
(g78
g59
NtRp468
(dp469
g62
(dp470
sg71
g456
sg64
(lp471
g57
(g58
g59
NtRp472
(dp473
g62
(dp474
g70
I3
ssg71
g468
sg64
(lp475
S''
asbasbasbag57
(g73
g59
NtRp476
(dp477
g62
(dp478
sg71
g452
sg64
(lp479
g57
(g78
g59
NtRp480
(dp481
g62
(dp482
g82
g83
ssg71
g476
sg64
(lp483
g292
asbag57
(g78
g59
NtRp484
(dp485
g62
(dp486
g89
g90
ssg71
g476
sg64
(lp487
S':'
asbag57
(g78
g59
NtRp488
(dp489
g62
(dp490
sg71
g476
sg64
(lp491
g57
(g58
g59
NtRp492
(dp493
g62
(dp494
g70
I3
ssg71
g488
sg64
(lp495
S''
asbasbasbag57
(g73
g59
NtRp496
(dp497
g62
(dp498
sg71
g452
sg64
(lp499
g57
(g78
g59
NtRp500
(dp501
g62
(dp502
g82
g83
ssg71
g496
sg64
(lp503
g313
asbag57
(g78
g59
NtRp504
(dp505
g62
(dp506
g89
g90
ssg71
g496
sg64
(lp507
S':'
asbag57
(g78
g59
NtRp508
(dp509
g62
(dp510
sg71
g496
sg64
(lp511
g57
(g58
g59
NtRp512
(dp513
g62
(dp514
g70
I3
ssg71
g508
sg64
(lp515
S''
asbasbasbag57
(g73
g59
NtRp516
(dp517
g62
(dp518
sg71
g452
sg64
(lp519
g57
(g78
g59
NtRp520
(dp521
g62
(dp522
g82
g83
ssg71
g516
sg64
(lp523
g334
asbag57
(g78
g59
NtRp524
(dp525
g62
(dp526
g89
g90
ssg71
g516
sg64
(lp527
S':'
asbag57
(g78
g59
NtRp528
(dp529
g62
(dp530
sg71
g516
sg64
(lp531
g57
(g58
g59
NtRp532
(dp533
g62
(dp534
g70
I3
ssg71
g528
sg64
(lp535
S''
asbasbasbag57
(g73
g59
NtRp536
(dp537
g62
(dp538
sg71
g452
sg64
(lp539
g57
(g78
g59
NtRp540
(dp541
g62
(dp542
g82
g83
ssg71
g536
sg64
(lp543
g355
asbag57
(g78
g59
NtRp544
(dp545
g62
(dp546
g89
g90
ssg71
g536
sg64
(lp547
S':'
asbag57
(g78
g59
NtRp548
(dp549
g62
(dp550
sg71
g536
sg64
(lp551
g57
(g58
g59
NtRp552
(dp553
g62
(dp554
g70
I3
ssg71
g548
sg64
(lp555
S''
asbasbasbag57
(g73
g59
NtRp556
(dp557
g62
(dp558
sg71
g452
sg64
(lp559
g57
(g78
g59
NtRp560
(dp561
g62
(dp562
g82
g83
ssg71
g556
sg64
(lp563
g376
asbag57
(g78
g59
NtRp564
(dp565
g62
(dp566
g89
g90
ssg71
g556
sg64
(lp567
S':'
asbag57
(g78
g59
NtRp568
(dp569
g62
(dp570
sg71
g556
sg64
(lp571
g57
(g58
g59
NtRp572
(dp573
g62
(dp574
g70
I3
ssg71
g568
sg64
(lp575
S''
asbasbasbag57
(g73
g59
NtRp576
(dp577
g62
(dp578
sg71
g452
sg64
(lp579
g57
(g78
g59
NtRp580
(dp581
g62
(dp582
g82
g83
ssg71
g576
sg64
(lp583
g397
asbag57
(g78
g59
NtRp584
(dp585
g62
(dp586
g89
g90
ssg71
g576
sg64
(lp587
S':'
asbag57
(g78
g59
NtRp588
(dp589
g62
(dp590
sg71
g576
sg64
(lp591
g57
(g58
g59
NtRp592
(dp593
g62
(dp594
g70
I3
ssg71
g588
sg64
(lp595
S''
asbasbasbag57
(g73
g59
NtRp596
(dp597
g62
(dp598
sg71
g452
sg64
(lp599
g57
(g78
g59
NtRp600
(dp601
g62
(dp602
g82
g83
ssg71
g596
sg64
(lp603
g418
asbag57
(g78
g59
NtRp604
(dp605
g62
(dp606
g89
g90
ssg71
g596
sg64
(lp607
S':'
asbag57
(g78
g59
NtRp608
(dp609
g62
(dp610
sg71
g596
sg64
(lp611
g57
(g58
g59
NtRp612
(dp613
g62
(dp614
g70
I3
ssg71
g608
sg64
(lp615
S''
asbasbasbasbasbasbasbag57
(g73
g59
NtRp616
(dp617
g62
(dp618
sg71
g234
sg64
(lp619
g57
(g78
g59
NtRp620
(dp621
g62
(dp622
g82
g83
ssg71
g616
sg64
(lp623
S'session_id_welcome'
p624
asbag57
(g78
g59
NtRp625
(dp626
g62
(dp627
g89
g90
ssg71
g616
sg64
(lp628
S':'
asbag57
(g78
g59
NtRp629
(dp630
g62
(dp631
sg71
g616
sg64
(lp632
g57
(g58
g59
NtRp633
(dp634
g62
(dp635
g70
I4
ssg71
g629
sg64
(lp636
g57
(g66
g59
NtRp637
(dp638
g62
(dp639
g70
I3
ssg71
Nsg64
(lp640
g57
(g73
g59
NtRp641
(dp642
g62
(dp643
sg71
g637
sg64
(lp644
g57
(g78
g59
NtRp645
(dp646
g62
(dp647
g82
g83
ssg71
g641
sg64
(lp648
g271
asbag57
(g78
g59
NtRp649
(dp650
g62
(dp651
g89
g90
ssg71
g641
sg64
(lp652
S':'
asbag57
(g78
g59
NtRp653
(dp654
g62
(dp655
sg71
g641
sg64
(lp656
g57
(g58
g59
NtRp657
(dp658
g62
(dp659
g70
I3
ssg71
g653
sg64
(lp660
S''
asbasbasbag57
(g73
g59
NtRp661
(dp662
g62
(dp663
sg71
g637
sg64
(lp664
g57
(g78
g59
NtRp665
(dp666
g62
(dp667
g82
g83
ssg71
g661
sg64
(lp668
g292
asbag57
(g78
g59
NtRp669
(dp670
g62
(dp671
g89
g90
ssg71
g661
sg64
(lp672
S':'
asbag57
(g78
g59
NtRp673
(dp674
g62
(dp675
sg71
g661
sg64
(lp676
g57
(g58
g59
NtRp677
(dp678
g62
(dp679
g70
I3
ssg71
g673
sg64
(lp680
S''
asbasbasbag57
(g73
g59
NtRp681
(dp682
g62
(dp683
sg71
g637
sg64
(lp684
g57
(g78
g59
NtRp685
(dp686
g62
(dp687
g82
g83
ssg71
g681
sg64
(lp688
g313
asbag57
(g78
g59
NtRp689
(dp690
g62
(dp691
g89
g90
ssg71
g681
sg64
(lp692
S':'
asbag57
(g78
g59
NtRp693
(dp694
g62
(dp695
sg71
g681
sg64
(lp696
g57
(g58
g59
NtRp697
(dp698
g62
(dp699
g70
I3
ssg71
g693
sg64
(lp700
S''
asbasbasbag57
(g73
g59
NtRp701
(dp702
g62
(dp703
sg71
g637
sg64
(lp704
g57
(g78
g59
NtRp705
(dp706
g62
(dp707
g82
g83
ssg71
g701
sg64
(lp708
g334
asbag57
(g78
g59
NtRp709
(dp710
g62
(dp711
g89
g90
ssg71
g701
sg64
(lp712
S':'
asbag57
(g78
g59
NtRp713
(dp714
g62
(dp715
sg71
g701
sg64
(lp716
g57
(g58
g59
NtRp717
(dp718
g62
(dp719
g70
I3
ssg71
g713
sg64
(lp720
S''
asbasbasbag57
(g73
g59
NtRp721
(dp722
g62
(dp723
sg71
g637
sg64
(lp724
g57
(g78
g59
NtRp725
(dp726
g62
(dp727
g82
g83
ssg71
g721
sg64
(lp728
g355
asbag57
(g78
g59
NtRp729
(dp730
g62
(dp731
g89
g90
ssg71
g721
sg64
(lp732
S':'
asbag57
(g78
g59
NtRp733
(dp734
g62
(dp735
sg71
g721
sg64
(lp736
g57
(g58
g59
NtRp737
(dp738
g62
(dp739
g70
I3
ssg71
g733
sg64
(lp740
S''
asbasbasbag57
(g73
g59
NtRp741
(dp742
g62
(dp743
sg71
g637
sg64
(lp744
g57
(g78
g59
NtRp745
(dp746
g62
(dp747
g82
g83
ssg71
g741
sg64
(lp748
g376
asbag57
(g78
g59
NtRp749
(dp750
g62
(dp751
g89
g90
ssg71
g741
sg64
(lp752
S':'
asbag57
(g78
g59
NtRp753
(dp754
g62
(dp755
sg71
g741
sg64
(lp756
g57
(g58
g59
NtRp757
(dp758
g62
(dp759
g70
I3
ssg71
g753
sg64
(lp760
S''
asbasbasbag57
(g73
g59
NtRp761
(dp762
g62
(dp763
sg71
g637
sg64
(lp764
g57
(g78
g59
NtRp765
(dp766
g62
(dp767
g82
g83
ssg71
g761
sg64
(lp768
g397
asbag57
(g78
g59
NtRp769
(dp770
g62
(dp771
g89
g90
ssg71
g761
sg64
(lp772
S':'
asbag57
(g78
g59
NtRp773
(dp774
g62
(dp775
sg71
g761
sg64
(lp776
g57
(g58
g59
NtRp777
(dp778
g62
(dp779
g70
I3
ssg71
g773
sg64
(lp780
S''
asbasbasbag57
(g73
g59
NtRp781
(dp782
g62
(dp783
sg71
g637
sg64
(lp784
g57
(g78
g59
NtRp785
(dp786
g62
(dp787
g82
g83
ssg71
g781
sg64
(lp788
g418
asbag57
(g78
g59
NtRp789
(dp790
g62
(dp791
g89
g90
ssg71
g781
sg64
(lp792
S':'
asbag57
(g78
g59
NtRp793
(dp794
g62
(dp795
sg71
g781
sg64
(lp796
g57
(g58
g59
NtRp797
(dp798
g62
(dp799
g70
I3
ssg71
g793
sg64
(lp800
S''
asbasbasbasbasbasbasbasbasbasbasbag57
(g73
g59
NtRp801
(dp802
g62
(dp803
sg71
g67
sg64
(lp804
g57
(g78
g59
NtRp805
(dp806
g62
(dp807
g82
g83
ssg71
g801
sg64
(lp808
S'env'
p809
asbag57
(g78
g59
NtRp810
(dp811
g62
(dp812
g89
g90
ssg71
g801
sg64
(lp813
S':'
asbag57
(g78
g59
NtRp814
(dp815
g62
(dp816
sg71
g801
sg64
(lp817
g57
(g58
g59
NtRp818
(dp819
g62
(dp820
g70
I5
ssg71
g814
sg64
(lp821
g57
(g66
g59
NtRp822
(dp823
g62
(dp824
g70
I4
ssg71
Nsg64
(lp825
g57
(g73
g59
NtRp826
(dp827
g62
(dp828
sg71
g822
sg64
(lp829
g57
(g78
g59
NtRp830
(dp831
g62
(dp832
g82
g83
ssg71
g826
sg64
(lp833
S'app_folders'
p834
asbag57
(g78
g59
NtRp835
(dp836
g62
(dp837
g89
g90
ssg71
g826
sg64
(lp838
S':'
asbag57
(g78
g59
NtRp839
(dp840
g62
(dp841
sg71
g826
sg64
(lp842
g57
(g58
g59
NtRp843
(dp844
g62
(dp845
g70
I4
ssg71
g839
sg64
(lp846
S"set(['/home/arpita/courses/sem3/ssad/web2py/applications/admin/', '/home/arpita/courses/sem3/ssad/web2py/applications/project/', '/home/arpita/courses/sem3/ssad/web2py/applications/welcome/'])"
p847
asbasbasbag57
(g73
g59
NtRp848
(dp849
g62
(dp850
sg71
g822
sg64
(lp851
g57
(g78
g59
NtRp852
(dp853
g62
(dp854
g82
g83
ssg71
g848
sg64
(lp855
S'applications_parent'
p856
asbag57
(g78
g59
NtRp857
(dp858
g62
(dp859
g89
g90
ssg71
g848
sg64
(lp860
S':'
asbag57
(g78
g59
NtRp861
(dp862
g62
(dp863
sg71
g848
sg64
(lp864
g57
(g58
g59
NtRp865
(dp866
g62
(dp867
g70
I4
ssg71
g861
sg64
(lp868
S'/home/arpita/courses/sem3/ssad/web2py'
p869
asbasbasbag57
(g73
g59
NtRp870
(dp871
g62
(dp872
sg71
g822
sg64
(lp873
g57
(g78
g59
NtRp874
(dp875
g62
(dp876
g82
g83
ssg71
g870
sg64
(lp877
S'cmd_args'
p878
asbag57
(g78
g59
NtRp879
(dp880
g62
(dp881
g89
g90
ssg71
g870
sg64
(lp882
S':'
asbag57
(g78
g59
NtRp883
(dp884
g62
(dp885
sg71
g870
sg64
(lp886
g57
(g58
g59
NtRp887
(dp888
g62
(dp889
g70
I4
ssg71
g883
sg64
(lp890
g57
(g66
g59
NtRp891
(dp892
g62
(dp893
g70
I3
ssg71
Nsg64
(lp894
sbasbasbasbag57
(g73
g59
NtRp895
(dp896
g62
(dp897
sg71
g822
sg64
(lp898
g57
(g78
g59
NtRp899
(dp900
g62
(dp901
g82
g83
ssg71
g895
sg64
(lp902
S'cmd_options'
p903
asbag57
(g78
g59
NtRp904
(dp905
g62
(dp906
g89
g90
ssg71
g895
sg64
(lp907
S':'
asbag57
(g78
g59
NtRp908
(dp909
g62
(dp910
sg71
g895
sg64
(lp911
g57
(g58
g59
NtRp912
(dp913
g62
(dp914
g70
I4
ssg71
g908
sg64
(lp915
S"<Values at 0x99e03cc: {'verbose': False, 'ip': '127.0.0.1', 'shutdown_timeout': 5, 'taskbar': False, 'nocron': False, 'pid_filename': 'httpserver.pid', 'maxthreads': None, 'softcron': False, 'server_name': 'arpita-HP-630-Notebook-PC', 'bpython': False, 'nogui': False, 'port': 8000, 'extcron': False, 'debuglevel': 30, 'test': None, 'folder': '/home/arpita/courses/sem3/ssad/web2py', 'config': '', 'import_models': False, 'winservice': '', 'shell': None, 'run': '', 'log_filename': 'httpserver.log', 'args': [''], 'socket_timeout': 5, 'ssl_ca_certificate': None, 'scheduler': None, 'profiler_filename': None, 'ssl_private_key': '', 'password': 'arpita', 'request_queue_size': 5, 'ssl_certificate': '', 'cronjob': False, 'numthreads': None, 'quiet': False, 'interfaces': None, 'minthreads': None, 'timeout': 10, 'plain': False, 'nobanner': False}>"
p916
asbasbasbag57
(g73
g59
NtRp917
(dp918
g62
(dp919
sg71
g822
sg64
(lp920
g57
(g78
g59
NtRp921
(dp922
g62
(dp923
g82
g83
ssg71
g917
sg64
(lp924
S'db_sessions'
p925
asbag57
(g78
g59
NtRp926
(dp927
g62
(dp928
g89
g90
ssg71
g917
sg64
(lp929
S':'
asbag57
(g78
g59
NtRp930
(dp931
g62
(dp932
sg71
g917
sg64
(lp933
g57
(g58
g59
NtRp934
(dp935
g62
(dp936
g70
I4
ssg71
g930
sg64
(lp937
S'set([])'
p938
asbasbasbag57
(g73
g59
NtRp939
(dp940
g62
(dp941
sg71
g822
sg64
(lp942
g57
(g78
g59
NtRp943
(dp944
g62
(dp945
g82
g83
ssg71
g939
sg64
(lp946
S'debugging'
p947
asbag57
(g78
g59
NtRp948
(dp949
g62
(dp950
g89
g90
ssg71
g939
sg64
(lp951
S':'
asbag57
(g78
g59
NtRp952
(dp953
g62
(dp954
sg71
g939
sg64
(lp955
g57
(g58
g59
NtRp956
(dp957
g62
(dp958
g70
I4
ssg71
g952
sg64
(lp959
g100
asbasbasbag57
(g73
g59
NtRp960
(dp961
g62
(dp962
sg71
g822
sg64
(lp963
g57
(g78
g59
NtRp964
(dp965
g62
(dp966
g82
g83
ssg71
g960
sg64
(lp967
S'gluon_parent'
p968
asbag57
(g78
g59
NtRp969
(dp970
g62
(dp971
g89
g90
ssg71
g960
sg64
(lp972
S':'
asbag57
(g78
g59
NtRp973
(dp974
g62
(dp975
sg71
g960
sg64
(lp976
g57
(g58
g59
NtRp977
(dp978
g62
(dp979
g70
I4
ssg71
g973
sg64
(lp980
S'/home/arpita/courses/sem3/ssad/web2py'
p981
asbasbasbag57
(g73
g59
NtRp982
(dp983
g62
(dp984
sg71
g822
sg64
(lp985
g57
(g78
g59
NtRp986
(dp987
g62
(dp988
g82
g83
ssg71
g982
sg64
(lp989
S'http_accept'
p990
asbag57
(g78
g59
NtRp991
(dp992
g62
(dp993
g89
g90
ssg71
g982
sg64
(lp994
S':'
asbag57
(g78
g59
NtRp995
(dp996
g62
(dp997
sg71
g982
sg64
(lp998
g57
(g58
g59
NtRp999
(dp1000
g62
(dp1001
g70
I4
ssg71
g995
sg64
(lp1002
S'text/html,application/xhtml+xml,application/xml;q=0.9,*/*;q=0.8'
p1003
asbasbasbag57
(g73
g59
NtRp1004
(dp1005
g62
(dp1006
sg71
g822
sg64
(lp1007
g57
(g78
g59
NtRp1008
(dp1009
g62
(dp1010
g82
g83
ssg71
g1004
sg64
(lp1011
S'http_accept_charset'
p1012
asbag57
(g78
g59
NtRp1013
(dp1014
g62
(dp1015
g89
g90
ssg71
g1004
sg64
(lp1016
S':'
asbag57
(g78
g59
NtRp1017
(dp1018
g62
(dp1019
sg71
g1004
sg64
(lp1020
g57
(g58
g59
NtRp1021
(dp1022
g62
(dp1023
g70
I4
ssg71
g1017
sg64
(lp1024
S'ISO-8859-1,utf-8;q=0.7,*;q=0.7'
p1025
asbasbasbag57
(g73
g59
NtRp1026
(dp1027
g62
(dp1028
sg71
g822
sg64
(lp1029
g57
(g78
g59
NtRp1030
(dp1031
g62
(dp1032
g82
g83
ssg71
g1026
sg64
(lp1033
S'http_accept_encoding'
p1034
asbag57
(g78
g59
NtRp1035
(dp1036
g62
(dp1037
g89
g90
ssg71
g1026
sg64
(lp1038
S':'
asbag57
(g78
g59
NtRp1039
(dp1040
g62
(dp1041
sg71
g1026
sg64
(lp1042
g57
(g58
g59
NtRp1043
(dp1044
g62
(dp1045
g70
I4
ssg71
g1039
sg64
(lp1046
S'gzip, deflate'
p1047
asbasbasbag57
(g73
g59
NtRp1048
(dp1049
g62
(dp1050
sg71
g822
sg64
(lp1051
g57
(g78
g59
NtRp1052
(dp1053
g62
(dp1054
g82
g83
ssg71
g1048
sg64
(lp1055
S'http_accept_language'
p1056
asbag57
(g78
g59
NtRp1057
(dp1058
g62
(dp1059
g89
g90
ssg71
g1048
sg64
(lp1060
S':'
asbag57
(g78
g59
NtRp1061
(dp1062
g62
(dp1063
sg71
g1048
sg64
(lp1064
g57
(g58
g59
NtRp1065
(dp1066
g62
(dp1067
g70
I4
ssg71
g1061
sg64
(lp1068
S'en-us,en;q=0.5'
p1069
asbasbasbag57
(g73
g59
NtRp1070
(dp1071
g62
(dp1072
sg71
g822
sg64
(lp1073
g57
(g78
g59
NtRp1074
(dp1075
g62
(dp1076
g82
g83
ssg71
g1070
sg64
(lp1077
S'http_connection'
p1078
asbag57
(g78
g59
NtRp1079
(dp1080
g62
(dp1081
g89
g90
ssg71
g1070
sg64
(lp1082
S':'
asbag57
(g78
g59
NtRp1083
(dp1084
g62
(dp1085
sg71
g1070
sg64
(lp1086
g57
(g58
g59
NtRp1087
(dp1088
g62
(dp1089
g70
I4
ssg71
g1083
sg64
(lp1090
S'keep-alive'
p1091
asbasbasbag57
(g73
g59
NtRp1092
(dp1093
g62
(dp1094
sg71
g822
sg64
(lp1095
g57
(g78
g59
NtRp1096
(dp1097
g62
(dp1098
g82
g83
ssg71
g1092
sg64
(lp1099
S'http_cookie'
p1100
asbag57
(g78
g59
NtRp1101
(dp1102
g62
(dp1103
g89
g90
ssg71
g1092
sg64
(lp1104
S':'
asbag57
(g78
g59
NtRp1105
(dp1106
g62
(dp1107
sg71
g1092
sg64
(lp1108
g57
(g58
g59
NtRp1109
(dp1110
g62
(dp1111
g70
I4
ssg71
g1105
sg64
(lp1112
S'session_id_welcome=127.0.0.1-18fcf790-7e84-475f-ad3e-9915143ebf78; session_id_admin=127.0.0.1-68258ca6-9a3e-47bc-9615-887809986329; session_id_project=127.0.0.1-70b1e447-fab4-4ce7-b92c-36d8158ff7e8'
p1113
asbasbasbag57
(g73
g59
NtRp1114
(dp1115
g62
(dp1116
sg71
g822
sg64
(lp1117
g57
(g78
g59
NtRp1118
(dp1119
g62
(dp1120
g82
g83
ssg71
g1114
sg64
(lp1121
S'http_host'
p1122
asbag57
(g78
g59
NtRp1123
(dp1124
g62
(dp1125
g89
g90
ssg71
g1114
sg64
(lp1126
S':'
asbag57
(g78
g59
NtRp1127
(dp1128
g62
(dp1129
sg71
g1114
sg64
(lp1130
g57
(g58
g59
NtRp1131
(dp1132
g62
(dp1133
g70
I4
ssg71
g1127
sg64
(lp1134
S'127.0.0.1:8000'
p1135
asbasbasbag57
(g73
g59
NtRp1136
(dp1137
g62
(dp1138
sg71
g822
sg64
(lp1139
g57
(g78
g59
NtRp1140
(dp1141
g62
(dp1142
g82
g83
ssg71
g1136
sg64
(lp1143
S'http_referer'
p1144
asbag57
(g78
g59
NtRp1145
(dp1146
g62
(dp1147
g89
g90
ssg71
g1136
sg64
(lp1148
S':'
asbag57
(g78
g59
NtRp1149
(dp1150
g62
(dp1151
sg71
g1136
sg64
(lp1152
g57
(g58
g59
NtRp1153
(dp1154
g62
(dp1155
g70
I4
ssg71
g1149
sg64
(lp1156
S'http://127.0.0.1:8000/project/default/relate'
p1157
asbasbasbag57
(g73
g59
NtRp1158
(dp1159
g62
(dp1160
sg71
g822
sg64
(lp1161
g57
(g78
g59
NtRp1162
(dp1163
g62
(dp1164
g82
g83
ssg71
g1158
sg64
(lp1165
S'http_user_agent'
p1166
asbag57
(g78
g59
NtRp1167
(dp1168
g62
(dp1169
g89
g90
ssg71
g1158
sg64
(lp1170
S':'
asbag57
(g78
g59
NtRp1171
(dp1172
g62
(dp1173
sg71
g1158
sg64
(lp1174
g57
(g58
g59
NtRp1175
(dp1176
g62
(dp1177
g70
I4
ssg71
g1171
sg64
(lp1178
S'Mozilla/5.0 (X11; Linux i686; rv:7.0.1) Gecko/20100101 Firefox/7.0.1'
p1179
asbasbasbag57
(g73
g59
NtRp1180
(dp1181
g62
(dp1182
sg71
g822
sg64
(lp1183
g57
(g78
g59
NtRp1184
(dp1185
g62
(dp1186
g82
g83
ssg71
g1180
sg64
(lp1187
S'is_jython'
p1188
asbag57
(g78
g59
NtRp1189
(dp1190
g62
(dp1191
g89
g90
ssg71
g1180
sg64
(lp1192
S':'
asbag57
(g78
g59
NtRp1193
(dp1194
g62
(dp1195
sg71
g1180
sg64
(lp1196
g57
(g58
g59
NtRp1197
(dp1198
g62
(dp1199
g70
I4
ssg71
g1193
sg64
(lp1200
g100
asbasbasbag57
(g73
g59
NtRp1201
(dp1202
g62
(dp1203
sg71
g822
sg64
(lp1204
g57
(g78
g59
NtRp1205
(dp1206
g62
(dp1207
g82
g83
ssg71
g1201
sg64
(lp1208
S'is_pypy'
p1209
asbag57
(g78
g59
NtRp1210
(dp1211
g62
(dp1212
g89
g90
ssg71
g1201
sg64
(lp1213
S':'
asbag57
(g78
g59
NtRp1214
(dp1215
g62
(dp1216
sg71
g1201
sg64
(lp1217
g57
(g58
g59
NtRp1218
(dp1219
g62
(dp1220
g70
I4
ssg71
g1214
sg64
(lp1221
g100
asbasbasbag57
(g73
g59
NtRp1222
(dp1223
g62
(dp1224
sg71
g822
sg64
(lp1225
g57
(g78
g59
NtRp1226
(dp1227
g62
(dp1228
g82
g83
ssg71
g1222
sg64
(lp1229
S'path_info'
p1230
asbag57
(g78
g59
NtRp1231
(dp1232
g62
(dp1233
g89
g90
ssg71
g1222
sg64
(lp1234
S':'
asbag57
(g78
g59
NtRp1235
(dp1236
g62
(dp1237
sg71
g1222
sg64
(lp1238
g57
(g58
g59
NtRp1239
(dp1240
g62
(dp1241
g70
I4
ssg71
g1235
sg64
(lp1242
S'/project/default/kruskal'
p1243
asbasbasbag57
(g73
g59
NtRp1244
(dp1245
g62
(dp1246
sg71
g822
sg64
(lp1247
g57
(g78
g59
NtRp1248
(dp1249
g62
(dp1250
g82
g83
ssg71
g1244
sg64
(lp1251
S'query_string'
p1252
asbag57
(g78
g59
NtRp1253
(dp1254
g62
(dp1255
g89
g90
ssg71
g1244
sg64
(lp1256
S':'
asbag57
(g78
g59
NtRp1257
(dp1258
g62
(dp1259
sg71
g1244
sg64
(lp1260
g57
(g58
g59
NtRp1261
(dp1262
g62
(dp1263
g70
I4
ssg71
g1257
sg64
(lp1264
S''
asbasbasbag57
(g73
g59
NtRp1265
(dp1266
g62
(dp1267
sg71
g822
sg64
(lp1268
g57
(g78
g59
NtRp1269
(dp1270
g62
(dp1271
g82
g83
ssg71
g1265
sg64
(lp1272
S'remote_addr'
p1273
asbag57
(g78
g59
NtRp1274
(dp1275
g62
(dp1276
g89
g90
ssg71
g1265
sg64
(lp1277
S':'
asbag57
(g78
g59
NtRp1278
(dp1279
g62
(dp1280
sg71
g1265
sg64
(lp1281
g57
(g58
g59
NtRp1282
(dp1283
g62
(dp1284
g70
I4
ssg71
g1278
sg64
(lp1285
g190
asbasbasbag57
(g73
g59
NtRp1286
(dp1287
g62
(dp1288
sg71
g822
sg64
(lp1289
g57
(g78
g59
NtRp1290
(dp1291
g62
(dp1292
g82
g83
ssg71
g1286
sg64
(lp1293
S'remote_port'
p1294
asbag57
(g78
g59
NtRp1295
(dp1296
g62
(dp1297
g89
g90
ssg71
g1286
sg64
(lp1298
S':'
asbag57
(g78
g59
NtRp1299
(dp1300
g62
(dp1301
sg71
g1286
sg64
(lp1302
g57
(g58
g59
NtRp1303
(dp1304
g62
(dp1305
g70
I4
ssg71
g1299
sg64
(lp1306
S'58580'
p1307
asbasbasbag57
(g73
g59
NtRp1308
(dp1309
g62
(dp1310
sg71
g822
sg64
(lp1311
g57
(g78
g59
NtRp1312
(dp1313
g62
(dp1314
g82
g83
ssg71
g1308
sg64
(lp1315
S'request_method'
p1316
asbag57
(g78
g59
NtRp1317
(dp1318
g62
(dp1319
g89
g90
ssg71
g1308
sg64
(lp1320
S':'
asbag57
(g78
g59
NtRp1321
(dp1322
g62
(dp1323
sg71
g1308
sg64
(lp1324
g57
(g58
g59
NtRp1325
(dp1326
g62
(dp1327
g70
I4
ssg71
g1321
sg64
(lp1328
S'GET'
p1329
asbasbasbag57
(g73
g59
NtRp1330
(dp1331
g62
(dp1332
sg71
g822
sg64
(lp1333
g57
(g78
g59
NtRp1334
(dp1335
g62
(dp1336
g82
g83
ssg71
g1330
sg64
(lp1337
S'script_name'
p1338
asbag57
(g78
g59
NtRp1339
(dp1340
g62
(dp1341
g89
g90
ssg71
g1330
sg64
(lp1342
S':'
asbag57
(g78
g59
NtRp1343
(dp1344
g62
(dp1345
sg71
g1330
sg64
(lp1346
g57
(g58
g59
NtRp1347
(dp1348
g62
(dp1349
g70
I4
ssg71
g1343
sg64
(lp1350
S''
asbasbasbag57
(g73
g59
NtRp1351
(dp1352
g62
(dp1353
sg71
g822
sg64
(lp1354
g57
(g78
g59
NtRp1355
(dp1356
g62
(dp1357
g82
g83
ssg71
g1351
sg64
(lp1358
S'server_name'
p1359
asbag57
(g78
g59
NtRp1360
(dp1361
g62
(dp1362
g89
g90
ssg71
g1351
sg64
(lp1363
S':'
asbag57
(g78
g59
NtRp1364
(dp1365
g62
(dp1366
sg71
g1351
sg64
(lp1367
g57
(g58
g59
NtRp1368
(dp1369
g62
(dp1370
g70
I4
ssg71
g1364
sg64
(lp1371
S'arpita-HP-630-Notebook-PC'
p1372
asbasbasbag57
(g73
g59
NtRp1373
(dp1374
g62
(dp1375
sg71
g822
sg64
(lp1376
g57
(g78
g59
NtRp1377
(dp1378
g62
(dp1379
g82
g83
ssg71
g1373
sg64
(lp1380
S'server_port'
p1381
asbag57
(g78
g59
NtRp1382
(dp1383
g62
(dp1384
g89
g90
ssg71
g1373
sg64
(lp1385
S':'
asbag57
(g78
g59
NtRp1386
(dp1387
g62
(dp1388
sg71
g1373
sg64
(lp1389
g57
(g58
g59
NtRp1390
(dp1391
g62
(dp1392
g70
I4
ssg71
g1386
sg64
(lp1393
S'8000'
p1394
asbasbasbag57
(g73
g59
NtRp1395
(dp1396
g62
(dp1397
sg71
g822
sg64
(lp1398
g57
(g78
g59
NtRp1399
(dp1400
g62
(dp1401
g82
g83
ssg71
g1395
sg64
(lp1402
S'server_protocol'
p1403
asbag57
(g78
g59
NtRp1404
(dp1405
g62
(dp1406
g89
g90
ssg71
g1395
sg64
(lp1407
S':'
asbag57
(g78
g59
NtRp1408
(dp1409
g62
(dp1410
sg71
g1395
sg64
(lp1411
g57
(g58
g59
NtRp1412
(dp1413
g62
(dp1414
g70
I4
ssg71
g1408
sg64
(lp1415
S'HTTP/1.1'
p1416
asbasbasbag57
(g73
g59
NtRp1417
(dp1418
g62
(dp1419
sg71
g822
sg64
(lp1420
g57
(g78
g59
NtRp1421
(dp1422
g62
(dp1423
g82
g83
ssg71
g1417
sg64
(lp1424
S'server_software'
p1425
asbag57
(g78
g59
NtRp1426
(dp1427
g62
(dp1428
g89
g90
ssg71
g1417
sg64
(lp1429
S':'
asbag57
(g78
g59
NtRp1430
(dp1431
g62
(dp1432
sg71
g1417
sg64
(lp1433
g57
(g58
g59
NtRp1434
(dp1435
g62
(dp1436
g70
I4
ssg71
g1430
sg64
(lp1437
S'Rocket 1.2.4'
p1438
asbasbasbag57
(g73
g59
NtRp1439
(dp1440
g62
(dp1441
sg71
g822
sg64
(lp1442
g57
(g78
g59
NtRp1443
(dp1444
g62
(dp1445
g82
g83
ssg71
g1439
sg64
(lp1446
S'web2py_crontype'
p1447
asbag57
(g78
g59
NtRp1448
(dp1449
g62
(dp1450
g89
g90
ssg71
g1439
sg64
(lp1451
S':'
asbag57
(g78
g59
NtRp1452
(dp1453
g62
(dp1454
sg71
g1439
sg64
(lp1455
g57
(g58
g59
NtRp1456
(dp1457
g62
(dp1458
g70
I4
ssg71
g1452
sg64
(lp1459
S'hard'
p1460
asbasbasbag57
(g73
g59
NtRp1461
(dp1462
g62
(dp1463
sg71
g822
sg64
(lp1464
g57
(g78
g59
NtRp1465
(dp1466
g62
(dp1467
g82
g83
ssg71
g1461
sg64
(lp1468
S'web2py_path'
p1469
asbag57
(g78
g59
NtRp1470
(dp1471
g62
(dp1472
g89
g90
ssg71
g1461
sg64
(lp1473
S':'
asbag57
(g78
g59
NtRp1474
(dp1475
g62
(dp1476
sg71
g1461
sg64
(lp1477
g57
(g58
g59
NtRp1478
(dp1479
g62
(dp1480
g70
I4
ssg71
g1474
sg64
(lp1481
g869
asbasbasbag57
(g73
g59
NtRp1482
(dp1483
g62
(dp1484
sg71
g822
sg64
(lp1485
g57
(g78
g59
NtRp1486
(dp1487
g62
(dp1488
g82
g83
ssg71
g1482
sg64
(lp1489
S'web2py_version'
p1490
asbag57
(g78
g59
NtRp1491
(dp1492
g62
(dp1493
g89
g90
ssg71
g1482
sg64
(lp1494
S':'
asbag57
(g78
g59
NtRp1495
(dp1496
g62
(dp1497
sg71
g1482
sg64
(lp1498
g57
(g58
g59
NtRp1499
(dp1500
g62
(dp1501
g70
I4
ssg71
g1495
sg64
(lp1502
g57
(g66
g59
NtRp1503
(dp1504
g62
(dp1505
g70
I3
ssg71
Nsg64
(lp1506
g57
(g73
g59
NtRp1507
(dp1508
g62
(dp1509
sg71
g1503
sg64
(lp1510
g57
(g78
g59
NtRp1511
(dp1512
g62
(dp1513
sg71
g1507
sg64
(lp1514
g57
(g58
g59
NtRp1515
(dp1516
g62
(dp1517
g70
I3
ssg71
g1511
sg64
(lp1518
S'1'
asbasbasbag57
(g73
g59
NtRp1519
(dp1520
g62
(dp1521
sg71
g1503
sg64
(lp1522
g57
(g78
g59
NtRp1523
(dp1524
g62
(dp1525
sg71
g1519
sg64
(lp1526
g57
(g58
g59
NtRp1527
(dp1528
g62
(dp1529
g70
I3
ssg71
g1523
sg64
(lp1530
S'99'
p1531
asbasbasbag57
(g73
g59
NtRp1532
(dp1533
g62
(dp1534
sg71
g1503
sg64
(lp1535
g57
(g78
g59
NtRp1536
(dp1537
g62
(dp1538
sg71
g1532
sg64
(lp1539
g57
(g58
g59
NtRp1540
(dp1541
g62
(dp1542
g70
I3
ssg71
g1536
sg64
(lp1543
S'7'
asbasbasbag57
(g73
g59
NtRp1544
(dp1545
g62
(dp1546
sg71
g1503
sg64
(lp1547
g57
(g78
g59
NtRp1548
(dp1549
g62
(dp1550
sg71
g1544
sg64
(lp1551
g57
(g58
g59
NtRp1552
(dp1553
g62
(dp1554
g70
I3
ssg71
g1548
sg64
(lp1555
S'datetime.datetime(2012, 3, 4, 22, 12, 8)'
p1556
asbasbasbag57
(g73
g59
NtRp1557
(dp1558
g62
(dp1559
sg71
g1503
sg64
(lp1560
g57
(g78
g59
NtRp1561
(dp1562
g62
(dp1563
sg71
g1557
sg64
(lp1564
g57
(g58
g59
NtRp1565
(dp1566
g62
(dp1567
g70
I3
ssg71
g1561
sg64
(lp1568
S'stable'
p1569
asbasbasbasbasbasbasbag57
(g73
g59
NtRp1570
(dp1571
g62
(dp1572
sg71
g822
sg64
(lp1573
g57
(g78
g59
NtRp1574
(dp1575
g62
(dp1576
g82
g83
ssg71
g1570
sg64
(lp1577
S'wsgi_errors'
p1578
asbag57
(g78
g59
NtRp1579
(dp1580
g62
(dp1581
g89
g90
ssg71
g1570
sg64
(lp1582
S':'
asbag57
(g78
g59
NtRp1583
(dp1584
g62
(dp1585
sg71
g1570
sg64
(lp1586
g57
(g58
g59
NtRp1587
(dp1588
g62
(dp1589
g70
I4
ssg71
g1583
sg64
(lp1590
S"<open file '<stderr>', mode 'w' at 0xb730f0d0>"
p1591
asbasbasbag57
(g73
g59
NtRp1592
(dp1593
g62
(dp1594
sg71
g822
sg64
(lp1595
g57
(g78
g59
NtRp1596
(dp1597
g62
(dp1598
g82
g83
ssg71
g1592
sg64
(lp1599
S'wsgi_file_wrapper'
p1600
asbag57
(g78
g59
NtRp1601
(dp1602
g62
(dp1603
g89
g90
ssg71
g1592
sg64
(lp1604
S':'
asbag57
(g78
g59
NtRp1605
(dp1606
g62
(dp1607
sg71
g1592
sg64
(lp1608
g57
(g58
g59
NtRp1609
(dp1610
g62
(dp1611
g70
I4
ssg71
g1605
sg64
(lp1612
S'<class wsgiref.util.FileWrapper at 0x9983f2c>'
p1613
asbasbasbag57
(g73
g59
NtRp1614
(dp1615
g62
(dp1616
sg71
g822
sg64
(lp1617
g57
(g78
g59
NtRp1618
(dp1619
g62
(dp1620
g82
g83
ssg71
g1614
sg64
(lp1621
S'wsgi_input'
p1622
asbag57
(g78
g59
NtRp1623
(dp1624
g62
(dp1625
g89
g90
ssg71
g1614
sg64
(lp1626
S':'
asbag57
(g78
g59
NtRp1627
(dp1628
g62
(dp1629
sg71
g1614
sg64
(lp1630
g57
(g58
g59
NtRp1631
(dp1632
g62
(dp1633
g70
I4
ssg71
g1627
sg64
(lp1634
S'<socket._fileobject object at 0xa41a7ac>'
p1635
asbasbasbag57
(g73
g59
NtRp1636
(dp1637
g62
(dp1638
sg71
g822
sg64
(lp1639
g57
(g78
g59
NtRp1640
(dp1641
g62
(dp1642
g82
g83
ssg71
g1636
sg64
(lp1643
S'wsgi_multiprocess'
p1644
asbag57
(g78
g59
NtRp1645
(dp1646
g62
(dp1647
g89
g90
ssg71
g1636
sg64
(lp1648
S':'
asbag57
(g78
g59
NtRp1649
(dp1650
g62
(dp1651
sg71
g1636
sg64
(lp1652
g57
(g58
g59
NtRp1653
(dp1654
g62
(dp1655
g70
I4
ssg71
g1649
sg64
(lp1656
g100
asbasbasbag57
(g73
g59
NtRp1657
(dp1658
g62
(dp1659
sg71
g822
sg64
(lp1660
g57
(g78
g59
NtRp1661
(dp1662
g62
(dp1663
g82
g83
ssg71
g1657
sg64
(lp1664
S'wsgi_multithread'
p1665
asbag57
(g78
g59
NtRp1666
(dp1667
g62
(dp1668
g89
g90
ssg71
g1657
sg64
(lp1669
S':'
asbag57
(g78
g59
NtRp1670
(dp1671
g62
(dp1672
sg71
g1657
sg64
(lp1673
g57
(g58
g59
NtRp1674
(dp1675
g62
(dp1676
g70
I4
ssg71
g1670
sg64
(lp1677
S'True'
p1678
asbasbasbag57
(g73
g59
NtRp1679
(dp1680
g62
(dp1681
sg71
g822
sg64
(lp1682
g57
(g78
g59
NtRp1683
(dp1684
g62
(dp1685
g82
g83
ssg71
g1679
sg64
(lp1686
S'wsgi_run_once'
p1687
asbag57
(g78
g59
NtRp1688
(dp1689
g62
(dp1690
g89
g90
ssg71
g1679
sg64
(lp1691
S':'
asbag57
(g78
g59
NtRp1692
(dp1693
g62
(dp1694
sg71
g1679
sg64
(lp1695
g57
(g58
g59
NtRp1696
(dp1697
g62
(dp1698
g70
I4
ssg71
g1692
sg64
(lp1699
g100
asbasbasbag57
(g73
g59
NtRp1700
(dp1701
g62
(dp1702
sg71
g822
sg64
(lp1703
g57
(g78
g59
NtRp1704
(dp1705
g62
(dp1706
g82
g83
ssg71
g1700
sg64
(lp1707
S'wsgi_url_scheme'
p1708
asbag57
(g78
g59
NtRp1709
(dp1710
g62
(dp1711
g89
g90
ssg71
g1700
sg64
(lp1712
S':'
asbag57
(g78
g59
NtRp1713
(dp1714
g62
(dp1715
sg71
g1700
sg64
(lp1716
g57
(g58
g59
NtRp1717
(dp1718
g62
(dp1719
g70
I4
ssg71
g1713
sg64
(lp1720
S'http'
p1721
asbasbasbag57
(g73
g59
NtRp1722
(dp1723
g62
(dp1724
sg71
g822
sg64
(lp1725
g57
(g78
g59
NtRp1726
(dp1727
g62
(dp1728
g82
g83
ssg71
g1722
sg64
(lp1729
S'wsgi_version'
p1730
asbag57
(g78
g59
NtRp1731
(dp1732
g62
(dp1733
g89
g90
ssg71
g1722
sg64
(lp1734
S':'
asbag57
(g78
g59
NtRp1735
(dp1736
g62
(dp1737
sg71
g1722
sg64
(lp1738
g57
(g58
g59
NtRp1739
(dp1740
g62
(dp1741
g70
I4
ssg71
g1735
sg64
(lp1742
g57
(g66
g59
NtRp1743
(dp1744
g62
(dp1745
g70
I3
ssg71
Nsg64
(lp1746
g57
(g73
g59
NtRp1747
(dp1748
g62
(dp1749
sg71
g1743
sg64
(lp1750
g57
(g78
g59
NtRp1751
(dp1752
g62
(dp1753
sg71
g1747
sg64
(lp1754
g57
(g58
g59
NtRp1755
(dp1756
g62
(dp1757
g70
I3
ssg71
g1751
sg64
(lp1758
S'1'
asbasbasbag57
(g73
g59
NtRp1759
(dp1760
g62
(dp1761
sg71
g1743
sg64
(lp1762
g57
(g78
g59
NtRp1763
(dp1764
g62
(dp1765
sg71
g1759
sg64
(lp1766
g57
(g58
g59
NtRp1767
(dp1768
g62
(dp1769
g70
I3
ssg71
g1763
sg64
(lp1770
S'0'
asbasbasbasbasbasbasbasbasbasbasbag57
(g73
g59
NtRp1771
(dp1772
g62
(dp1773
sg71
g67
sg64
(lp1774
g57
(g78
g59
NtRp1775
(dp1776
g62
(dp1777
g82
g83
ssg71
g1771
sg64
(lp1778
S'extension'
p1779
asbag57
(g78
g59
NtRp1780
(dp1781
g62
(dp1782
g89
g90
ssg71
g1771
sg64
(lp1783
S':'
asbag57
(g78
g59
NtRp1784
(dp1785
g62
(dp1786
sg71
g1771
sg64
(lp1787
g57
(g58
g59
NtRp1788
(dp1789
g62
(dp1790
g70
I5
ssg71
g1784
sg64
(lp1791
S'html'
p1792
asbasbasbag57
(g73
g59
NtRp1793
(dp1794
g62
(dp1795
sg71
g67
sg64
(lp1796
g57
(g78
g59
NtRp1797
(dp1798
g62
(dp1799
g82
g83
ssg71
g1793
sg64
(lp1800
S'folder'
p1801
asbag57
(g78
g59
NtRp1802
(dp1803
g62
(dp1804
g89
g90
ssg71
g1793
sg64
(lp1805
S':'
asbag57
(g78
g59
NtRp1806
(dp1807
g62
(dp1808
sg71
g1793
sg64
(lp1809
g57
(g58
g59
NtRp1810
(dp1811
g62
(dp1812
g70
I5
ssg71
g1806
sg64
(lp1813
S'/home/arpita/courses/sem3/ssad/web2py/applications/project/'
p1814
asbasbasbag57
(g73
g59
NtRp1815
(dp1816
g62
(dp1817
sg71
g67
sg64
(lp1818
g57
(g78
g59
NtRp1819
(dp1820
g62
(dp1821
g82
g83
ssg71
g1815
sg64
(lp1822
S'function'
p1823
asbag57
(g78
g59
NtRp1824
(dp1825
g62
(dp1826
g89
g90
ssg71
g1815
sg64
(lp1827
S':'
asbag57
(g78
g59
NtRp1828
(dp1829
g62
(dp1830
sg71
g1815
sg64
(lp1831
g57
(g58
g59
NtRp1832
(dp1833
g62
(dp1834
g70
I5
ssg71
g1828
sg64
(lp1835
S'kruskal'
p1836
asbasbasbag57
(g73
g59
NtRp1837
(dp1838
g62
(dp1839
sg71
g67
sg64
(lp1840
g57
(g78
g59
NtRp1841
(dp1842
g62
(dp1843
g82
g83
ssg71
g1837
sg64
(lp1844
S'get_vars'
p1845
asbag57
(g78
g59
NtRp1846
(dp1847
g62
(dp1848
g89
g90
ssg71
g1837
sg64
(lp1849
S':'
asbag57
(g78
g59
NtRp1850
(dp1851
g62
(dp1852
sg71
g1837
sg64
(lp1853
g57
(g58
g59
NtRp1854
(dp1855
g62
(dp1856
g70
I5
ssg71
g1850
sg64
(lp1857
g57
(g66
g59
NtRp1858
(dp1859
g62
(dp1860
g70
I4
ssg71
Nsg64
(lp1861
sbasbasbasbag57
(g73
g59
NtRp1862
(dp1863
g62
(dp1864
sg71
g67
sg64
(lp1865
g57
(g78
g59
NtRp1866
(dp1867
g62
(dp1868
g82
g83
ssg71
g1862
sg64
(lp1869
S'global_settings'
p1870
asbag57
(g78
g59
NtRp1871
(dp1872
g62
(dp1873
g89
g90
ssg71
g1862
sg64
(lp1874
S':'
asbag57
(g78
g59
NtRp1875
(dp1876
g62
(dp1877
sg71
g1862
sg64
(lp1878
g57
(g58
g59
NtRp1879
(dp1880
g62
(dp1881
g70
I5
ssg71
g1875
sg64
(lp1882
g57
(g66
g59
NtRp1883
(dp1884
g62
(dp1885
g70
I4
ssg71
Nsg64
(lp1886
g57
(g73
g59
NtRp1887
(dp1888
g62
(dp1889
sg71
g1883
sg64
(lp1890
g57
(g78
g59
NtRp1891
(dp1892
g62
(dp1893
g82
g83
ssg71
g1887
sg64
(lp1894
g834
asbag57
(g78
g59
NtRp1895
(dp1896
g62
(dp1897
g89
g90
ssg71
g1887
sg64
(lp1898
S':'
asbag57
(g78
g59
NtRp1899
(dp1900
g62
(dp1901
sg71
g1887
sg64
(lp1902
g57
(g58
g59
NtRp1903
(dp1904
g62
(dp1905
g70
I4
ssg71
g1899
sg64
(lp1906
S"set(['/home/arpita/courses/sem3/ssad/web2py/applications/admin/', '/home/arpita/courses/sem3/ssad/web2py/applications/project/', '/home/arpita/courses/sem3/ssad/web2py/applications/welcome/'])"
p1907
asbasbasbag57
(g73
g59
NtRp1908
(dp1909
g62
(dp1910
sg71
g1883
sg64
(lp1911
g57
(g78
g59
NtRp1912
(dp1913
g62
(dp1914
g82
g83
ssg71
g1908
sg64
(lp1915
g856
asbag57
(g78
g59
NtRp1916
(dp1917
g62
(dp1918
g89
g90
ssg71
g1908
sg64
(lp1919
S':'
asbag57
(g78
g59
NtRp1920
(dp1921
g62
(dp1922
sg71
g1908
sg64
(lp1923
g57
(g58
g59
NtRp1924
(dp1925
g62
(dp1926
g70
I4
ssg71
g1920
sg64
(lp1927
g869
asbasbasbag57
(g73
g59
NtRp1928
(dp1929
g62
(dp1930
sg71
g1883
sg64
(lp1931
g57
(g78
g59
NtRp1932
(dp1933
g62
(dp1934
g82
g83
ssg71
g1928
sg64
(lp1935
g878
asbag57
(g78
g59
NtRp1936
(dp1937
g62
(dp1938
g89
g90
ssg71
g1928
sg64
(lp1939
S':'
asbag57
(g78
g59
NtRp1940
(dp1941
g62
(dp1942
sg71
g1928
sg64
(lp1943
g57
(g58
g59
NtRp1944
(dp1945
g62
(dp1946
g70
I4
ssg71
g1940
sg64
(lp1947
g57
(g66
g59
NtRp1948
(dp1949
g62
(dp1950
g70
I3
ssg71
Nsg64
(lp1951
sbasbasbasbag57
(g73
g59
NtRp1952
(dp1953
g62
(dp1954
sg71
g1883
sg64
(lp1955
g57
(g78
g59
NtRp1956
(dp1957
g62
(dp1958
g82
g83
ssg71
g1952
sg64
(lp1959
g903
asbag57
(g78
g59
NtRp1960
(dp1961
g62
(dp1962
g89
g90
ssg71
g1952
sg64
(lp1963
S':'
asbag57
(g78
g59
NtRp1964
(dp1965
g62
(dp1966
sg71
g1952
sg64
(lp1967
g57
(g58
g59
NtRp1968
(dp1969
g62
(dp1970
g70
I4
ssg71
g1964
sg64
(lp1971
S"<Values at 0x99e03cc: {'verbose': False, 'ip': '127.0.0.1', 'shutdown_timeout': 5, 'taskbar': False, 'nocron': False, 'pid_filename': 'httpserver.pid', 'maxthreads': None, 'softcron': False, 'server_name': 'arpita-HP-630-Notebook-PC', 'bpython': False, 'nogui': False, 'port': 8000, 'extcron': False, 'debuglevel': 30, 'test': None, 'folder': '/home/arpita/courses/sem3/ssad/web2py', 'config': '', 'import_models': False, 'winservice': '', 'shell': None, 'run': '', 'log_filename': 'httpserver.log', 'args': [''], 'socket_timeout': 5, 'ssl_ca_certificate': None, 'scheduler': None, 'profiler_filename': None, 'ssl_private_key': '', 'password': 'arpita', 'request_queue_size': 5, 'ssl_certificate': '', 'cronjob': False, 'numthreads': None, 'quiet': False, 'interfaces': None, 'minthreads': None, 'timeout': 10, 'plain': False, 'nobanner': False}>"
p1972
asbasbasbag57
(g73
g59
NtRp1973
(dp1974
g62
(dp1975
sg71
g1883
sg64
(lp1976
g57
(g78
g59
NtRp1977
(dp1978
g62
(dp1979
g82
g83
ssg71
g1973
sg64
(lp1980
g925
asbag57
(g78
g59
NtRp1981
(dp1982
g62
(dp1983
g89
g90
ssg71
g1973
sg64
(lp1984
S':'
asbag57
(g78
g59
NtRp1985
(dp1986
g62
(dp1987
sg71
g1973
sg64
(lp1988
g57
(g58
g59
NtRp1989
(dp1990
g62
(dp1991
g70
I4
ssg71
g1985
sg64
(lp1992
S'set([])'
p1993
asbasbasbag57
(g73
g59
NtRp1994
(dp1995
g62
(dp1996
sg71
g1883
sg64
(lp1997
g57
(g78
g59
NtRp1998
(dp1999
g62
(dp2000
g82
g83
ssg71
g1994
sg64
(lp2001
g947
asbag57
(g78
g59
NtRp2002
(dp2003
g62
(dp2004
g89
g90
ssg71
g1994
sg64
(lp2005
S':'
asbag57
(g78
g59
NtRp2006
(dp2007
g62
(dp2008
sg71
g1994
sg64
(lp2009
g57
(g58
g59
NtRp2010
(dp2011
g62
(dp2012
g70
I4
ssg71
g2006
sg64
(lp2013
g100
asbasbasbag57
(g73
g59
NtRp2014
(dp2015
g62
(dp2016
sg71
g1883
sg64
(lp2017
g57
(g78
g59
NtRp2018
(dp2019
g62
(dp2020
g82
g83
ssg71
g2014
sg64
(lp2021
g968
asbag57
(g78
g59
NtRp2022
(dp2023
g62
(dp2024
g89
g90
ssg71
g2014
sg64
(lp2025
S':'
asbag57
(g78
g59
NtRp2026
(dp2027
g62
(dp2028
sg71
g2014
sg64
(lp2029
g57
(g58
g59
NtRp2030
(dp2031
g62
(dp2032
g70
I4
ssg71
g2026
sg64
(lp2033
g981
asbasbasbag57
(g73
g59
NtRp2034
(dp2035
g62
(dp2036
sg71
g1883
sg64
(lp2037
g57
(g78
g59
NtRp2038
(dp2039
g62
(dp2040
g82
g83
ssg71
g2034
sg64
(lp2041
g1188
asbag57
(g78
g59
NtRp2042
(dp2043
g62
(dp2044
g89
g90
ssg71
g2034
sg64
(lp2045
S':'
asbag57
(g78
g59
NtRp2046
(dp2047
g62
(dp2048
sg71
g2034
sg64
(lp2049
g57
(g58
g59
NtRp2050
(dp2051
g62
(dp2052
g70
I4
ssg71
g2046
sg64
(lp2053
g100
asbasbasbag57
(g73
g59
NtRp2054
(dp2055
g62
(dp2056
sg71
g1883
sg64
(lp2057
g57
(g78
g59
NtRp2058
(dp2059
g62
(dp2060
g82
g83
ssg71
g2054
sg64
(lp2061
g1209
asbag57
(g78
g59
NtRp2062
(dp2063
g62
(dp2064
g89
g90
ssg71
g2054
sg64
(lp2065
S':'
asbag57
(g78
g59
NtRp2066
(dp2067
g62
(dp2068
sg71
g2054
sg64
(lp2069
g57
(g58
g59
NtRp2070
(dp2071
g62
(dp2072
g70
I4
ssg71
g2066
sg64
(lp2073
g100
asbasbasbag57
(g73
g59
NtRp2074
(dp2075
g62
(dp2076
sg71
g1883
sg64
(lp2077
g57
(g78
g59
NtRp2078
(dp2079
g62
(dp2080
g82
g83
ssg71
g2074
sg64
(lp2081
g1447
asbag57
(g78
g59
NtRp2082
(dp2083
g62
(dp2084
g89
g90
ssg71
g2074
sg64
(lp2085
S':'
asbag57
(g78
g59
NtRp2086
(dp2087
g62
(dp2088
sg71
g2074
sg64
(lp2089
g57
(g58
g59
NtRp2090
(dp2091
g62
(dp2092
g70
I4
ssg71
g2086
sg64
(lp2093
g1460
asbasbasbag57
(g73
g59
NtRp2094
(dp2095
g62
(dp2096
sg71
g1883
sg64
(lp2097
g57
(g78
g59
NtRp2098
(dp2099
g62
(dp2100
g82
g83
ssg71
g2094
sg64
(lp2101
g1490
asbag57
(g78
g59
NtRp2102
(dp2103
g62
(dp2104
g89
g90
ssg71
g2094
sg64
(lp2105
S':'
asbag57
(g78
g59
NtRp2106
(dp2107
g62
(dp2108
sg71
g2094
sg64
(lp2109
g57
(g58
g59
NtRp2110
(dp2111
g62
(dp2112
g70
I4
ssg71
g2106
sg64
(lp2113
g57
(g66
g59
NtRp2114
(dp2115
g62
(dp2116
g70
I3
ssg71
Nsg64
(lp2117
g57
(g73
g59
NtRp2118
(dp2119
g62
(dp2120
sg71
g2114
sg64
(lp2121
g57
(g78
g59
NtRp2122
(dp2123
g62
(dp2124
sg71
g2118
sg64
(lp2125
g57
(g58
g59
NtRp2126
(dp2127
g62
(dp2128
g70
I3
ssg71
g2122
sg64
(lp2129
S'1'
asbasbasbag57
(g73
g59
NtRp2130
(dp2131
g62
(dp2132
sg71
g2114
sg64
(lp2133
g57
(g78
g59
NtRp2134
(dp2135
g62
(dp2136
sg71
g2130
sg64
(lp2137
g57
(g58
g59
NtRp2138
(dp2139
g62
(dp2140
g70
I3
ssg71
g2134
sg64
(lp2141
S'99'
p2142
asbasbasbag57
(g73
g59
NtRp2143
(dp2144
g62
(dp2145
sg71
g2114
sg64
(lp2146
g57
(g78
g59
NtRp2147
(dp2148
g62
(dp2149
sg71
g2143
sg64
(lp2150
g57
(g58
g59
NtRp2151
(dp2152
g62
(dp2153
g70
I3
ssg71
g2147
sg64
(lp2154
S'7'
asbasbasbag57
(g73
g59
NtRp2155
(dp2156
g62
(dp2157
sg71
g2114
sg64
(lp2158
g57
(g78
g59
NtRp2159
(dp2160
g62
(dp2161
sg71
g2155
sg64
(lp2162
g57
(g58
g59
NtRp2163
(dp2164
g62
(dp2165
g70
I3
ssg71
g2159
sg64
(lp2166
S'datetime.datetime(2012, 3, 4, 22, 12, 8)'
p2167
asbasbasbag57
(g73
g59
NtRp2168
(dp2169
g62
(dp2170
sg71
g2114
sg64
(lp2171
g57
(g78
g59
NtRp2172
(dp2173
g62
(dp2174
sg71
g2168
sg64
(lp2175
g57
(g58
g59
NtRp2176
(dp2177
g62
(dp2178
g70
I3
ssg71
g2172
sg64
(lp2179
g1569
asbasbasbasbasbasbasbasbasbasbasbag57
(g73
g59
NtRp2180
(dp2181
g62
(dp2182
sg71
g67
sg64
(lp2183
g57
(g78
g59
NtRp2184
(dp2185
g62
(dp2186
g82
g83
ssg71
g2180
sg64
(lp2187
S'is_https'
p2188
asbag57
(g78
g59
NtRp2189
(dp2190
g62
(dp2191
g89
g90
ssg71
g2180
sg64
(lp2192
S':'
asbag57
(g78
g59
NtRp2193
(dp2194
g62
(dp2195
sg71
g2180
sg64
(lp2196
g57
(g58
g59
NtRp2197
(dp2198
g62
(dp2199
g70
I5
ssg71
g2193
sg64
(lp2200
g100
asbasbasbag57
(g73
g59
NtRp2201
(dp2202
g62
(dp2203
sg71
g67
sg64
(lp2204
g57
(g78
g59
NtRp2205
(dp2206
g62
(dp2207
g82
g83
ssg71
g2201
sg64
(lp2208
S'is_local'
p2209
asbag57
(g78
g59
NtRp2210
(dp2211
g62
(dp2212
g89
g90
ssg71
g2201
sg64
(lp2213
S':'
asbag57
(g78
g59
NtRp2214
(dp2215
g62
(dp2216
sg71
g2201
sg64
(lp2217
g57
(g58
g59
NtRp2218
(dp2219
g62
(dp2220
g70
I5
ssg71
g2214
sg64
(lp2221
g1678
asbasbasbag57
(g73
g59
NtRp2222
(dp2223
g62
(dp2224
sg71
g67
sg64
(lp2225
g57
(g78
g59
NtRp2226
(dp2227
g62
(dp2228
g82
g83
ssg71
g2222
sg64
(lp2229
S'is_restful'
p2230
asbag57
(g78
g59
NtRp2231
(dp2232
g62
(dp2233
g89
g90
ssg71
g2222
sg64
(lp2234
S':'
asbag57
(g78
g59
NtRp2235
(dp2236
g62
(dp2237
sg71
g2222
sg64
(lp2238
g57
(g58
g59
NtRp2239
(dp2240
g62
(dp2241
g70
I5
ssg71
g2235
sg64
(lp2242
g100
asbasbasbag57
(g73
g59
NtRp2243
(dp2244
g62
(dp2245
sg71
g67
sg64
(lp2246
g57
(g78
g59
NtRp2247
(dp2248
g62
(dp2249
g82
g83
ssg71
g2243
sg64
(lp2250
S'now'
p2251
asbag57
(g78
g59
NtRp2252
(dp2253
g62
(dp2254
g89
g90
ssg71
g2243
sg64
(lp2255
S':'
asbag57
(g78
g59
NtRp2256
(dp2257
g62
(dp2258
sg71
g2243
sg64
(lp2259
g57
(g58
g59
NtRp2260
(dp2261
g62
(dp2262
g70
I5
ssg71
g2256
sg64
(lp2263
S'datetime.datetime(2012, 11, 8, 5, 3, 8, 728275)'
p2264
asbasbasbag57
(g73
g59
NtRp2265
(dp2266
g62
(dp2267
sg71
g67
sg64
(lp2268
g57
(g78
g59
NtRp2269
(dp2270
g62
(dp2271
g82
g83
ssg71
g2265
sg64
(lp2272
S'post_vars'
p2273
asbag57
(g78
g59
NtRp2274
(dp2275
g62
(dp2276
g89
g90
ssg71
g2265
sg64
(lp2277
S':'
asbag57
(g78
g59
NtRp2278
(dp2279
g62
(dp2280
sg71
g2265
sg64
(lp2281
g57
(g58
g59
NtRp2282
(dp2283
g62
(dp2284
g70
I5
ssg71
g2278
sg64
(lp2285
g57
(g66
g59
NtRp2286
(dp2287
g62
(dp2288
g70
I4
ssg71
Nsg64
(lp2289
sbasbasbasbag57
(g73
g59
NtRp2290
(dp2291
g62
(dp2292
sg71
g67
sg64
(lp2293
g57
(g78
g59
NtRp2294
(dp2295
g62
(dp2296
g82
g83
ssg71
g2290
sg64
(lp2297
S'url'
p2298
asbag57
(g78
g59
NtRp2299
(dp2300
g62
(dp2301
g89
g90
ssg71
g2290
sg64
(lp2302
S':'
asbag57
(g78
g59
NtRp2303
(dp2304
g62
(dp2305
sg71
g2290
sg64
(lp2306
g57
(g58
g59
NtRp2307
(dp2308
g62
(dp2309
g70
I5
ssg71
g2303
sg64
(lp2310
S'/project/default/kruskal'
p2311
asbasbasbag57
(g73
g59
NtRp2312
(dp2313
g62
(dp2314
sg71
g67
sg64
(lp2315
g57
(g78
g59
NtRp2316
(dp2317
g62
(dp2318
g82
g83
ssg71
g2312
sg64
(lp2319
S'utcnow'
p2320
asbag57
(g78
g59
NtRp2321
(dp2322
g62
(dp2323
g89
g90
ssg71
g2312
sg64
(lp2324
S':'
asbag57
(g78
g59
NtRp2325
(dp2326
g62
(dp2327
sg71
g2312
sg64
(lp2328
g57
(g58
g59
NtRp2329
(dp2330
g62
(dp2331
g70
I5
ssg71
g2325
sg64
(lp2332
S'datetime.datetime(2012, 11, 7, 23, 33, 8, 728327)'
p2333
asbasbasbag57
(g73
g59
NtRp2334
(dp2335
g62
(dp2336
sg71
g67
sg64
(lp2337
g57
(g78
g59
NtRp2338
(dp2339
g62
(dp2340
g82
g83
ssg71
g2334
sg64
(lp2341
S'uuid'
p2342
asbag57
(g78
g59
NtRp2343
(dp2344
g62
(dp2345
g89
g90
ssg71
g2334
sg64
(lp2346
S':'
asbag57
(g78
g59
NtRp2347
(dp2348
g62
(dp2349
sg71
g2334
sg64
(lp2350
g57
(g58
g59
NtRp2351
(dp2352
g62
(dp2353
g70
I5
ssg71
g2347
sg64
(lp2354
S'project/127.0.0.1.2012-11-08.05-03-08.2fa94ecc-b624-4e69-9baa-440bce3cf3b0'
p2355
asbasbasbag57
(g73
g59
NtRp2356
(dp2357
g62
(dp2358
sg71
g67
sg64
(lp2359
g57
(g78
g59
NtRp2360
(dp2361
g62
(dp2362
g82
g83
ssg71
g2356
sg64
(lp2363
S'vars'
p2364
asbag57
(g78
g59
NtRp2365
(dp2366
g62
(dp2367
g89
g90
ssg71
g2356
sg64
(lp2368
S':'
asbag57
(g78
g59
NtRp2369
(dp2370
g62
(dp2371
sg71
g2356
sg64
(lp2372
g57
(g58
g59
NtRp2373
(dp2374
g62
(dp2375
g70
I5
ssg71
g2369
sg64
(lp2376
g57
(g66
g59
NtRp2377
(dp2378
g62
(dp2379
g70
I4
ssg71
Nsg64
(lp2380
sbasbasbasbag57
(g73
g59
NtRp2381
(dp2382
g62
(dp2383
sg71
g67
sg64
(lp2384
g57
(g78
g59
NtRp2385
(dp2386
g62
(dp2387
g82
g83
ssg71
g2381
sg64
(lp2388
S'wsgi'
p2389
asbag57
(g78
g59
NtRp2390
(dp2391
g62
(dp2392
g89
g90
ssg71
g2381
sg64
(lp2393
S':'
asbag57
(g78
g59
NtRp2394
(dp2395
g62
(dp2396
sg71
g2381
sg64
(lp2397
g57
(g58
g59
NtRp2398
(dp2399
g62
(dp2400
g70
I5
ssg71
g2394
sg64
(lp2401
g57
(g66
g59
NtRp2402
(dp2403
g62
(dp2404
g70
I4
ssg71
Nsg64
(lp2405
g57
(g73
g59
NtRp2406
(dp2407
g62
(dp2408
sg71
g2402
sg64
(lp2409
g57
(g78
g59
NtRp2410
(dp2411
g62
(dp2412
g82
g83
ssg71
g2406
sg64
(lp2413
S'environ'
p2414
asbag57
(g78
g59
NtRp2415
(dp2416
g62
(dp2417
g89
g90
ssg71
g2406
sg64
(lp2418
S':'
asbag57
(g78
g59
NtRp2419
(dp2420
g62
(dp2421
sg71
g2406
sg64
(lp2422
g57
(g58
g59
NtRp2423
(dp2424
g62
(dp2425
g70
I4
ssg71
g2419
sg64
(lp2426
g57
(g66
g59
NtRp2427
(dp2428
g62
(dp2429
g70
I3
ssg71
Nsg64
(lp2430
g57
(g73
g59
NtRp2431
(dp2432
g62
(dp2433
sg71
g2427
sg64
(lp2434
g57
(g78
g59
NtRp2435
(dp2436
g62
(dp2437
g82
g83
ssg71
g2431
sg64
(lp2438
S'HTTP_ACCEPT'
p2439
asbag57
(g78
g59
NtRp2440
(dp2441
g62
(dp2442
g89
g90
ssg71
g2431
sg64
(lp2443
S':'
asbag57
(g78
g59
NtRp2444
(dp2445
g62
(dp2446
sg71
g2431
sg64
(lp2447
g57
(g58
g59
NtRp2448
(dp2449
g62
(dp2450
g70
I3
ssg71
g2444
sg64
(lp2451
g1003
asbasbasbag57
(g73
g59
NtRp2452
(dp2453
g62
(dp2454
sg71
g2427
sg64
(lp2455
g57
(g78
g59
NtRp2456
(dp2457
g62
(dp2458
g82
g83
ssg71
g2452
sg64
(lp2459
S'HTTP_ACCEPT_CHARSET'
p2460
asbag57
(g78
g59
NtRp2461
(dp2462
g62
(dp2463
g89
g90
ssg71
g2452
sg64
(lp2464
S':'
asbag57
(g78
g59
NtRp2465
(dp2466
g62
(dp2467
sg71
g2452
sg64
(lp2468
g57
(g58
g59
NtRp2469
(dp2470
g62
(dp2471
g70
I3
ssg71
g2465
sg64
(lp2472
g1025
asbasbasbag57
(g73
g59
NtRp2473
(dp2474
g62
(dp2475
sg71
g2427
sg64
(lp2476
g57
(g78
g59
NtRp2477
(dp2478
g62
(dp2479
g82
g83
ssg71
g2473
sg64
(lp2480
S'HTTP_ACCEPT_ENCODING'
p2481
asbag57
(g78
g59
NtRp2482
(dp2483
g62
(dp2484
g89
g90
ssg71
g2473
sg64
(lp2485
S':'
asbag57
(g78
g59
NtRp2486
(dp2487
g62
(dp2488
sg71
g2473
sg64
(lp2489
g57
(g58
g59
NtRp2490
(dp2491
g62
(dp2492
g70
I3
ssg71
g2486
sg64
(lp2493
g1047
asbasbasbag57
(g73
g59
NtRp2494
(dp2495
g62
(dp2496
sg71
g2427
sg64
(lp2497
g57
(g78
g59
NtRp2498
(dp2499
g62
(dp2500
g82
g83
ssg71
g2494
sg64
(lp2501
S'HTTP_ACCEPT_LANGUAGE'
p2502
asbag57
(g78
g59
NtRp2503
(dp2504
g62
(dp2505
g89
g90
ssg71
g2494
sg64
(lp2506
S':'
asbag57
(g78
g59
NtRp2507
(dp2508
g62
(dp2509
sg71
g2494
sg64
(lp2510
g57
(g58
g59
NtRp2511
(dp2512
g62
(dp2513
g70
I3
ssg71
g2507
sg64
(lp2514
g1069
asbasbasbag57
(g73
g59
NtRp2515
(dp2516
g62
(dp2517
sg71
g2427
sg64
(lp2518
g57
(g78
g59
NtRp2519
(dp2520
g62
(dp2521
g82
g83
ssg71
g2515
sg64
(lp2522
S'HTTP_CONNECTION'
p2523
asbag57
(g78
g59
NtRp2524
(dp2525
g62
(dp2526
g89
g90
ssg71
g2515
sg64
(lp2527
S':'
asbag57
(g78
g59
NtRp2528
(dp2529
g62
(dp2530
sg71
g2515
sg64
(lp2531
g57
(g58
g59
NtRp2532
(dp2533
g62
(dp2534
g70
I3
ssg71
g2528
sg64
(lp2535
g1091
asbasbasbag57
(g73
g59
NtRp2536
(dp2537
g62
(dp2538
sg71
g2427
sg64
(lp2539
g57
(g78
g59
NtRp2540
(dp2541
g62
(dp2542
g82
g83
ssg71
g2536
sg64
(lp2543
S'HTTP_COOKIE'
p2544
asbag57
(g78
g59
NtRp2545
(dp2546
g62
(dp2547
g89
g90
ssg71
g2536
sg64
(lp2548
S':'
asbag57
(g78
g59
NtRp2549
(dp2550
g62
(dp2551
sg71
g2536
sg64
(lp2552
g57
(g58
g59
NtRp2553
(dp2554
g62
(dp2555
g70
I3
ssg71
g2549
sg64
(lp2556
g1113
asbasbasbag57
(g73
g59
NtRp2557
(dp2558
g62
(dp2559
sg71
g2427
sg64
(lp2560
g57
(g78
g59
NtRp2561
(dp2562
g62
(dp2563
g82
g83
ssg71
g2557
sg64
(lp2564
S'HTTP_HOST'
p2565
asbag57
(g78
g59
NtRp2566
(dp2567
g62
(dp2568
g89
g90
ssg71
g2557
sg64
(lp2569
S':'
asbag57
(g78
g59
NtRp2570
(dp2571
g62
(dp2572
sg71
g2557
sg64
(lp2573
g57
(g58
g59
NtRp2574
(dp2575
g62
(dp2576
g70
I3
ssg71
g2570
sg64
(lp2577
g1135
asbasbasbag57
(g73
g59
NtRp2578
(dp2579
g62
(dp2580
sg71
g2427
sg64
(lp2581
g57
(g78
g59
NtRp2582
(dp2583
g62
(dp2584
g82
g83
ssg71
g2578
sg64
(lp2585
S'HTTP_REFERER'
p2586
asbag57
(g78
g59
NtRp2587
(dp2588
g62
(dp2589
g89
g90
ssg71
g2578
sg64
(lp2590
S':'
asbag57
(g78
g59
NtRp2591
(dp2592
g62
(dp2593
sg71
g2578
sg64
(lp2594
g57
(g58
g59
NtRp2595
(dp2596
g62
(dp2597
g70
I3
ssg71
g2591
sg64
(lp2598
g1157
asbasbasbag57
(g73
g59
NtRp2599
(dp2600
g62
(dp2601
sg71
g2427
sg64
(lp2602
g57
(g78
g59
NtRp2603
(dp2604
g62
(dp2605
g82
g83
ssg71
g2599
sg64
(lp2606
S'HTTP_USER_AGENT'
p2607
asbag57
(g78
g59
NtRp2608
(dp2609
g62
(dp2610
g89
g90
ssg71
g2599
sg64
(lp2611
S':'
asbag57
(g78
g59
NtRp2612
(dp2613
g62
(dp2614
sg71
g2599
sg64
(lp2615
g57
(g58
g59
NtRp2616
(dp2617
g62
(dp2618
g70
I3
ssg71
g2612
sg64
(lp2619
g1179
asbasbasbag57
(g73
g59
NtRp2620
(dp2621
g62
(dp2622
sg71
g2427
sg64
(lp2623
g57
(g78
g59
NtRp2624
(dp2625
g62
(dp2626
g82
g83
ssg71
g2620
sg64
(lp2627
S'PATH_INFO'
p2628
asbag57
(g78
g59
NtRp2629
(dp2630
g62
(dp2631
g89
g90
ssg71
g2620
sg64
(lp2632
S':'
asbag57
(g78
g59
NtRp2633
(dp2634
g62
(dp2635
sg71
g2620
sg64
(lp2636
g57
(g58
g59
NtRp2637
(dp2638
g62
(dp2639
g70
I3
ssg71
g2633
sg64
(lp2640
g1243
asbasbasbag57
(g73
g59
NtRp2641
(dp2642
g62
(dp2643
sg71
g2427
sg64
(lp2644
g57
(g78
g59
NtRp2645
(dp2646
g62
(dp2647
g82
g83
ssg71
g2641
sg64
(lp2648
S'QUERY_STRING'
p2649
asbag57
(g78
g59
NtRp2650
(dp2651
g62
(dp2652
g89
g90
ssg71
g2641
sg64
(lp2653
S':'
asbag57
(g78
g59
NtRp2654
(dp2655
g62
(dp2656
sg71
g2641
sg64
(lp2657
g57
(g58
g59
NtRp2658
(dp2659
g62
(dp2660
g70
I3
ssg71
g2654
sg64
(lp2661
S''
asbasbasbag57
(g73
g59
NtRp2662
(dp2663
g62
(dp2664
sg71
g2427
sg64
(lp2665
g57
(g78
g59
NtRp2666
(dp2667
g62
(dp2668
g82
g83
ssg71
g2662
sg64
(lp2669
S'REMOTE_ADDR'
p2670
asbag57
(g78
g59
NtRp2671
(dp2672
g62
(dp2673
g89
g90
ssg71
g2662
sg64
(lp2674
S':'
asbag57
(g78
g59
NtRp2675
(dp2676
g62
(dp2677
sg71
g2662
sg64
(lp2678
g57
(g58
g59
NtRp2679
(dp2680
g62
(dp2681
g70
I3
ssg71
g2675
sg64
(lp2682
g190
asbasbasbag57
(g73
g59
NtRp2683
(dp2684
g62
(dp2685
sg71
g2427
sg64
(lp2686
g57
(g78
g59
NtRp2687
(dp2688
g62
(dp2689
g82
g83
ssg71
g2683
sg64
(lp2690
S'REMOTE_PORT'
p2691
asbag57
(g78
g59
NtRp2692
(dp2693
g62
(dp2694
g89
g90
ssg71
g2683
sg64
(lp2695
S':'
asbag57
(g78
g59
NtRp2696
(dp2697
g62
(dp2698
sg71
g2683
sg64
(lp2699
g57
(g58
g59
NtRp2700
(dp2701
g62
(dp2702
g70
I3
ssg71
g2696
sg64
(lp2703
g1307
asbasbasbag57
(g73
g59
NtRp2704
(dp2705
g62
(dp2706
sg71
g2427
sg64
(lp2707
g57
(g78
g59
NtRp2708
(dp2709
g62
(dp2710
g82
g83
ssg71
g2704
sg64
(lp2711
S'REQUEST_METHOD'
p2712
asbag57
(g78
g59
NtRp2713
(dp2714
g62
(dp2715
g89
g90
ssg71
g2704
sg64
(lp2716
S':'
asbag57
(g78
g59
NtRp2717
(dp2718
g62
(dp2719
sg71
g2704
sg64
(lp2720
g57
(g58
g59
NtRp2721
(dp2722
g62
(dp2723
g70
I3
ssg71
g2717
sg64
(lp2724
g1329
asbasbasbag57
(g73
g59
NtRp2725
(dp2726
g62
(dp2727
sg71
g2427
sg64
(lp2728
g57
(g78
g59
NtRp2729
(dp2730
g62
(dp2731
g82
g83
ssg71
g2725
sg64
(lp2732
S'SCRIPT_NAME'
p2733
asbag57
(g78
g59
NtRp2734
(dp2735
g62
(dp2736
g89
g90
ssg71
g2725
sg64
(lp2737
S':'
asbag57
(g78
g59
NtRp2738
(dp2739
g62
(dp2740
sg71
g2725
sg64
(lp2741
g57
(g58
g59
NtRp2742
(dp2743
g62
(dp2744
g70
I3
ssg71
g2738
sg64
(lp2745
S''
asbasbasbag57
(g73
g59
NtRp2746
(dp2747
g62
(dp2748
sg71
g2427
sg64
(lp2749
g57
(g78
g59
NtRp2750
(dp2751
g62
(dp2752
g82
g83
ssg71
g2746
sg64
(lp2753
S'SERVER_NAME'
p2754
asbag57
(g78
g59
NtRp2755
(dp2756
g62
(dp2757
g89
g90
ssg71
g2746
sg64
(lp2758
S':'
asbag57
(g78
g59
NtRp2759
(dp2760
g62
(dp2761
sg71
g2746
sg64
(lp2762
g57
(g58
g59
NtRp2763
(dp2764
g62
(dp2765
g70
I3
ssg71
g2759
sg64
(lp2766
g1372
asbasbasbag57
(g73
g59
NtRp2767
(dp2768
g62
(dp2769
sg71
g2427
sg64
(lp2770
g57
(g78
g59
NtRp2771
(dp2772
g62
(dp2773
g82
g83
ssg71
g2767
sg64
(lp2774
S'SERVER_PORT'
p2775
asbag57
(g78
g59
NtRp2776
(dp2777
g62
(dp2778
g89
g90
ssg71
g2767
sg64
(lp2779
S':'
asbag57
(g78
g59
NtRp2780
(dp2781
g62
(dp2782
sg71
g2767
sg64
(lp2783
g57
(g58
g59
NtRp2784
(dp2785
g62
(dp2786
g70
I3
ssg71
g2780
sg64
(lp2787
g1394
asbasbasbag57
(g73
g59
NtRp2788
(dp2789
g62
(dp2790
sg71
g2427
sg64
(lp2791
g57
(g78
g59
NtRp2792
(dp2793
g62
(dp2794
g82
g83
ssg71
g2788
sg64
(lp2795
S'SERVER_PROTOCOL'
p2796
asbag57
(g78
g59
NtRp2797
(dp2798
g62
(dp2799
g89
g90
ssg71
g2788
sg64
(lp2800
S':'
asbag57
(g78
g59
NtRp2801
(dp2802
g62
(dp2803
sg71
g2788
sg64
(lp2804
g57
(g58
g59
NtRp2805
(dp2806
g62
(dp2807
g70
I3
ssg71
g2801
sg64
(lp2808
g1416
asbasbasbag57
(g73
g59
NtRp2809
(dp2810
g62
(dp2811
sg71
g2427
sg64
(lp2812
g57
(g78
g59
NtRp2813
(dp2814
g62
(dp2815
g82
g83
ssg71
g2809
sg64
(lp2816
S'SERVER_SOFTWARE'
p2817
asbag57
(g78
g59
NtRp2818
(dp2819
g62
(dp2820
g89
g90
ssg71
g2809
sg64
(lp2821
S':'
asbag57
(g78
g59
NtRp2822
(dp2823
g62
(dp2824
sg71
g2809
sg64
(lp2825
g57
(g58
g59
NtRp2826
(dp2827
g62
(dp2828
g70
I3
ssg71
g2822
sg64
(lp2829
g1438
asbasbasbag57
(g73
g59
NtRp2830
(dp2831
g62
(dp2832
sg71
g2427
sg64
(lp2833
g57
(g78
g59
NtRp2834
(dp2835
g62
(dp2836
g82
g83
ssg71
g2830
sg64
(lp2837
S'wsgi.errors'
p2838
asbag57
(g78
g59
NtRp2839
(dp2840
g62
(dp2841
g89
g90
ssg71
g2830
sg64
(lp2842
S':'
asbag57
(g78
g59
NtRp2843
(dp2844
g62
(dp2845
sg71
g2830
sg64
(lp2846
g57
(g58
g59
NtRp2847
(dp2848
g62
(dp2849
g70
I3
ssg71
g2843
sg64
(lp2850
S"<open file '<stderr>', mode 'w' at 0xb730f0d0>"
p2851
asbasbasbag57
(g73
g59
NtRp2852
(dp2853
g62
(dp2854
sg71
g2427
sg64
(lp2855
g57
(g78
g59
NtRp2856
(dp2857
g62
(dp2858
g82
g83
ssg71
g2852
sg64
(lp2859
S'wsgi.file_wrapper'
p2860
asbag57
(g78
g59
NtRp2861
(dp2862
g62
(dp2863
g89
g90
ssg71
g2852
sg64
(lp2864
S':'
asbag57
(g78
g59
NtRp2865
(dp2866
g62
(dp2867
sg71
g2852
sg64
(lp2868
g57
(g58
g59
NtRp2869
(dp2870
g62
(dp2871
g70
I3
ssg71
g2865
sg64
(lp2872
S'<class wsgiref.util.FileWrapper at 0x9983f2c>'
p2873
asbasbasbag57
(g73
g59
NtRp2874
(dp2875
g62
(dp2876
sg71
g2427
sg64
(lp2877
g57
(g78
g59
NtRp2878
(dp2879
g62
(dp2880
g82
g83
ssg71
g2874
sg64
(lp2881
S'wsgi.input'
p2882
asbag57
(g78
g59
NtRp2883
(dp2884
g62
(dp2885
g89
g90
ssg71
g2874
sg64
(lp2886
S':'
asbag57
(g78
g59
NtRp2887
(dp2888
g62
(dp2889
sg71
g2874
sg64
(lp2890
g57
(g58
g59
NtRp2891
(dp2892
g62
(dp2893
g70
I3
ssg71
g2887
sg64
(lp2894
S'<cStringIO.StringO object at 0x9e0d380>'
p2895
asbasbasbag57
(g73
g59
NtRp2896
(dp2897
g62
(dp2898
sg71
g2427
sg64
(lp2899
g57
(g78
g59
NtRp2900
(dp2901
g62
(dp2902
g82
g83
ssg71
g2896
sg64
(lp2903
S'wsgi.multiprocess'
p2904
asbag57
(g78
g59
NtRp2905
(dp2906
g62
(dp2907
g89
g90
ssg71
g2896
sg64
(lp2908
S':'
asbag57
(g78
g59
NtRp2909
(dp2910
g62
(dp2911
sg71
g2896
sg64
(lp2912
g57
(g58
g59
NtRp2913
(dp2914
g62
(dp2915
g70
I3
ssg71
g2909
sg64
(lp2916
g100
asbasbasbag57
(g73
g59
NtRp2917
(dp2918
g62
(dp2919
sg71
g2427
sg64
(lp2920
g57
(g78
g59
NtRp2921
(dp2922
g62
(dp2923
g82
g83
ssg71
g2917
sg64
(lp2924
S'wsgi.multithread'
p2925
asbag57
(g78
g59
NtRp2926
(dp2927
g62
(dp2928
g89
g90
ssg71
g2917
sg64
(lp2929
S':'
asbag57
(g78
g59
NtRp2930
(dp2931
g62
(dp2932
sg71
g2917
sg64
(lp2933
g57
(g58
g59
NtRp2934
(dp2935
g62
(dp2936
g70
I3
ssg71
g2930
sg64
(lp2937
g1678
asbasbasbag57
(g73
g59
NtRp2938
(dp2939
g62
(dp2940
sg71
g2427
sg64
(lp2941
g57
(g78
g59
NtRp2942
(dp2943
g62
(dp2944
g82
g83
ssg71
g2938
sg64
(lp2945
S'wsgi.run_once'
p2946
asbag57
(g78
g59
NtRp2947
(dp2948
g62
(dp2949
g89
g90
ssg71
g2938
sg64
(lp2950
S':'
asbag57
(g78
g59
NtRp2951
(dp2952
g62
(dp2953
sg71
g2938
sg64
(lp2954
g57
(g58
g59
NtRp2955
(dp2956
g62
(dp2957
g70
I3
ssg71
g2951
sg64
(lp2958
g100
asbasbasbag57
(g73
g59
NtRp2959
(dp2960
g62
(dp2961
sg71
g2427
sg64
(lp2962
g57
(g78
g59
NtRp2963
(dp2964
g62
(dp2965
g82
g83
ssg71
g2959
sg64
(lp2966
S'wsgi.url_scheme'
p2967
asbag57
(g78
g59
NtRp2968
(dp2969
g62
(dp2970
g89
g90
ssg71
g2959
sg64
(lp2971
S':'
asbag57
(g78
g59
NtRp2972
(dp2973
g62
(dp2974
sg71
g2959
sg64
(lp2975
g57
(g58
g59
NtRp2976
(dp2977
g62
(dp2978
g70
I3
ssg71
g2972
sg64
(lp2979
g1721
asbasbasbag57
(g73
g59
NtRp2980
(dp2981
g62
(dp2982
sg71
g2427
sg64
(lp2983
g57
(g78
g59
NtRp2984
(dp2985
g62
(dp2986
g82
g83
ssg71
g2980
sg64
(lp2987
S'wsgi.version'
p2988
asbag57
(g78
g59
NtRp2989
(dp2990
g62
(dp2991
g89
g90
ssg71
g2980
sg64
(lp2992
S':'
asbag57
(g78
g59
NtRp2993
(dp2994
g62
(dp2995
sg71
g2980
sg64
(lp2996
g57
(g58
g59
NtRp2997
(dp2998
g62
(dp2999
g70
I3
ssg71
g2993
sg64
(lp3000
S'1'
asbasbasbasbasbasbasbasbasbasbasbasbasbsS'frames'
p3001
(lp3002
(dp3003
S'file'
p3004
S'/home/arpita/courses/sem3/ssad/web2py/gluon/restricted.py'
p3005
sS'dump'
p3006
(dp3007
S'environment'
p3008
S"{'A': <class 'gluon.html.A'>, 'Auth': <class 'gluon.tools.Auth'>, 'B': <class 'gluon.html.B'>, 'BEAUTIFY': <class 'gluon.html.BEAUTIFY'>, 'BODY': <class 'gluon.html.BODY'>, 'BR': <class 'gluon.html.BR'>, 'BUTTON': <class 'gluon.html.BUTTON'>, 'CAT': <class 'gluon.html.CAT'>, 'CENTER': <class 'gluon.html.CENTER'>, 'CLEANUP': <class 'gluon.validators.CLEANUP'>, ...}"
p3009
sS'ccode'
p3010
S'<code object <module> at 0xa642ad0, file "/home/...cations/project/controllers/default.py", line 11>'
p3011
ssS'lnum'
p3012
I205
sS'lines'
p3013
(dp3014
I200
S'    try:'
p3015
sI201
S'        if type(code) == types.CodeType:'
p3016
sI202
S'            ccode = code'
p3017
sI203
S'        else:'
p3018
sI204
S'            ccode = compile2(code,layer)'
p3019
sI205
S'        exec ccode in environment'
p3020
sI206
S'    except HTTP:'
p3021
sI207
S'        raise'
p3022
sI208
S'    except RestrictedError:'
p3023
sI209
S'        # do not encapsulate (obfuscate) the original RestrictedError'
p3024
ssS'call'
p3025
S"(code='# -*- coding: utf-8 -*-\\n# this file is released ...[i],t)\\n\\nresponse._vars=response._caller(kruskal)\\n', environment={'A': <class 'gluon.html.A'>, 'Auth': <class 'gluon.tools.Auth'>, 'B': <class 'gluon.html.B'>, 'BEAUTIFY': <class 'gluon.html.BEAUTIFY'>, 'BODY': <class 'gluon.html.BODY'>, 'BR': <class 'gluon.html.BR'>, 'BUTTON': <class 'gluon.html.BUTTON'>, 'CAT': <class 'gluon.html.CAT'>, 'CENTER': <class 'gluon.html.CENTER'>, 'CLEANUP': <class 'gluon.validators.CLEANUP'>, ...}, layer='/home/arpita/courses/sem3/ssad/web2py/applications/project/controllers/default.py')"
p3026
sS'func'
p3027
S'restricted'
p3028
sa(dp3029
g3004
S'/home/arpita/courses/sem3/ssad/web2py/applications/project/controllers/default.py'
p3030
sg3006
(dp3031
sg3012
I183
sg3013
(dp3032
I172
S'    return dict(p=p,q=q)'
p3033
sI173
S''
sI174
S'def fil(p,q,k,t):'
p3034
sI175
S"  file=open('applications/project/controllers/abc.txt','a')"
p3035
sI176
S'  for i in xrange(t):'
p3036
sI177
S'       if p[i]==k:'
p3037
sI178
S'           file.write("parent %d " %p[i])'
p3038
sI179
S'           v[i]=1'
p3039
sI180
S'           file.write("children %d\\n" %q[i])'
p3040
sI181
S'           fil(p,q,q[i],t)'
p3041
ssg3025
S'()'
p3042
sg3027
S'<module>'
p3043
sa(dp3044
g3004
S'/home/arpita/courses/sem3/ssad/web2py/gluon/globals.py'
p3045
sg3006
(dp3046
S'self'
p3047
S'undefined'
p3048
sS'f'
S'<function kruskal>'
p3049
ssg3012
I173
sg3013
(dp3050
I168
S'        self.menu = []             # used by the default view layout'
p3051
sI169
S'        self.files = []            # used by web2py_ajax.html'
p3052
sI170
S'        self.generic_patterns = [] # patterns to allow generic views'
p3053
sI171
S"        self.delimiters = ('{{','}}')"
p3054
sI172
S'        self._vars = None'
p3055
sI173
S'        self._caller = lambda f: f()'
p3056
sI174
S'        self._view_environment = None'
p3057
sI175
S'        self._custom_commit = None'
p3058
sI176
S'        self._custom_rollback = None'
p3059
sI177
S''
ssg3025
S'(f=<function kruskal>)'
p3060
sg3027
S'<lambda>'
p3061
sa(dp3062
g3004
S'/home/arpita/courses/sem3/ssad/web2py/applications/project/controllers/default.py'
p3063
sg3006
(dp3064
S'i'
S'7'
sS'k'
S'8'
sS'global q'
p3065
S'{0: 2, 1: 3, 2: 4, 3: 8, 4: 6, 5: 9, 6: 1, 7: 5}'
p3066
sS'global p'
p3067
S'{0: 1, 1: 1, 2: 1, 3: 1, 4: 2, 5: 4, 6: 5, 7: 7}'
p3068
sS'global fil'
p3069
S'<function fil>'
p3070
ssg3012
I148
sg3013
(dp3071
I143
S'             flag=1'
p3072
sI144
S'             break'
p3073
sI145
S'       if flag==0:'
p3074
sI146
S'          break'
p3075
sI147
S"    file=open('applications/project/controllers/abc.txt','w')"
p3076
sI148
S'    fil(p,q,p[i],k)'
p3077
sI149
S'    for j in xrange(k):'
p3078
sI150
S'        if v[j]==0:'
p3079
sI151
S'            fil(p,q,p[j],k)'
p3080
sI152
S''
ssg3025
S'()'
p3081
sg3027
S'kruskal'
p3082
sa(dp3083
g3004
S'/home/arpita/courses/sem3/ssad/web2py/applications/project/controllers/default.py'
p3084
sg3006
(dp3085
S'i'
S'7'
sS'global v'
p3086
S'[]'
p3087
ssg3012
I179
sg3013
(dp3088
I172
S'    return dict(p=p,q=q)'
p3089
sI173
S''
sI174
S'def fil(p,q,k,t):'
p3090
sI175
S"  file=open('applications/project/controllers/abc.txt','a')"
p3091
sI176
S'  for i in xrange(t):'
p3092
sI177
S'       if p[i]==k:'
p3093
sI178
S'           file.write("parent %d " %p[i])'
p3094
sI179
S'           v[i]=1'
p3095
sI180
S'           file.write("children %d\\n" %q[i])'
p3096
sI181
S'           fil(p,q,q[i],t)'
p3097
ssg3025
S'(p={0: 1, 1: 1, 2: 1, 3: 1, 4: 2, 5: 4, 6: 5, 7: 7}, q={0: 2, 1: 3, 2: 4, 3: 8, 4: 6, 5: 9, 6: 1, 7: 5}, k=7, t=8)'
p3098
sg3027
S'fil'
p3099
sasS'pyver'
p3100
S'Python 2.7.2+: /usr/bin/python'
p3101
sS'session'
p3102
g57
(g58
g59
NtRp3103
(dp3104
g62
(dp3105
sg64
(lp3106
g57
(g66
g59
NtRp3107
(dp3108
g62
(dp3109
g70
I5
ssg71
Nsg64
(lp3110
g57
(g73
g59
NtRp3111
(dp3112
g62
(dp3113
sg71
g3107
sg64
(lp3114
g57
(g78
g59
NtRp3115
(dp3116
g62
(dp3117
g82
g83
ssg71
g3111
sg64
(lp3118
S'auth'
p3119
asbag57
(g78
g59
NtRp3120
(dp3121
g62
(dp3122
g89
g90
ssg71
g3111
sg64
(lp3123
S':'
asbag57
(g78
g59
NtRp3124
(dp3125
g62
(dp3126
sg71
g3111
sg64
(lp3127
g57
(g58
g59
NtRp3128
(dp3129
g62
(dp3130
g70
I5
ssg71
g3124
sg64
(lp3131
g57
(g66
g59
NtRp3132
(dp3133
g62
(dp3134
g70
I4
ssg71
Nsg64
(lp3135
g57
(g73
g59
NtRp3136
(dp3137
g62
(dp3138
sg71
g3132
sg64
(lp3139
g57
(g78
g59
NtRp3140
(dp3141
g62
(dp3142
g82
g83
ssg71
g3136
sg64
(lp3143
S'expiration'
p3144
asbag57
(g78
g59
NtRp3145
(dp3146
g62
(dp3147
g89
g90
ssg71
g3136
sg64
(lp3148
S':'
asbag57
(g78
g59
NtRp3149
(dp3150
g62
(dp3151
sg71
g3136
sg64
(lp3152
g57
(g58
g59
NtRp3153
(dp3154
g62
(dp3155
g70
I4
ssg71
g3149
sg64
(lp3156
S'3600'
p3157
asbasbasbag57
(g73
g59
NtRp3158
(dp3159
g62
(dp3160
sg71
g3132
sg64
(lp3161
g57
(g78
g59
NtRp3162
(dp3163
g62
(dp3164
g82
g83
ssg71
g3158
sg64
(lp3165
S'hmac_key'
p3166
asbag57
(g78
g59
NtRp3167
(dp3168
g62
(dp3169
g89
g90
ssg71
g3158
sg64
(lp3170
S':'
asbag57
(g78
g59
NtRp3171
(dp3172
g62
(dp3173
sg71
g3158
sg64
(lp3174
g57
(g58
g59
NtRp3175
(dp3176
g62
(dp3177
g70
I4
ssg71
g3171
sg64
(lp3178
S'5f030173-8c60-4af3-8bec-ba5ecba0dbde'
p3179
asbasbasbag57
(g73
g59
NtRp3180
(dp3181
g62
(dp3182
sg71
g3132
sg64
(lp3183
g57
(g78
g59
NtRp3184
(dp3185
g62
(dp3186
g82
g83
ssg71
g3180
sg64
(lp3187
S'last_visit'
p3188
asbag57
(g78
g59
NtRp3189
(dp3190
g62
(dp3191
g89
g90
ssg71
g3180
sg64
(lp3192
S':'
asbag57
(g78
g59
NtRp3193
(dp3194
g62
(dp3195
sg71
g3180
sg64
(lp3196
g57
(g58
g59
NtRp3197
(dp3198
g62
(dp3199
g70
I4
ssg71
g3193
sg64
(lp3200
S'datetime.datetime(2012, 11, 8, 5, 0, 0, 277135)'
p3201
asbasbasbag57
(g73
g59
NtRp3202
(dp3203
g62
(dp3204
sg71
g3132
sg64
(lp3205
g57
(g78
g59
NtRp3206
(dp3207
g62
(dp3208
g82
g83
ssg71
g3202
sg64
(lp3209
S'remember'
p3210
asbag57
(g78
g59
NtRp3211
(dp3212
g62
(dp3213
g89
g90
ssg71
g3202
sg64
(lp3214
S':'
asbag57
(g78
g59
NtRp3215
(dp3216
g62
(dp3217
sg71
g3202
sg64
(lp3218
g57
(g58
g59
NtRp3219
(dp3220
g62
(dp3221
g70
I4
ssg71
g3215
sg64
(lp3222
g100
asbasbasbag57
(g73
g59
NtRp3223
(dp3224
g62
(dp3225
sg71
g3132
sg64
(lp3226
g57
(g78
g59
NtRp3227
(dp3228
g62
(dp3229
g82
g83
ssg71
g3223
sg64
(lp3230
S'user'
p3231
asbag57
(g78
g59
NtRp3232
(dp3233
g62
(dp3234
g89
g90
ssg71
g3223
sg64
(lp3235
S':'
asbag57
(g78
g59
NtRp3236
(dp3237
g62
(dp3238
sg71
g3223
sg64
(lp3239
g57
(g58
g59
NtRp3240
(dp3241
g62
(dp3242
g70
I4
ssg71
g3236
sg64
(lp3243
g57
(g66
g59
NtRp3244
(dp3245
g62
(dp3246
g70
I3
ssg71
Nsg64
(lp3247
g57
(g73
g59
NtRp3248
(dp3249
g62
(dp3250
sg71
g3244
sg64
(lp3251
g57
(g78
g59
NtRp3252
(dp3253
g62
(dp3254
g82
g83
ssg71
g3248
sg64
(lp3255
S'email'
p3256
asbag57
(g78
g59
NtRp3257
(dp3258
g62
(dp3259
g89
g90
ssg71
g3248
sg64
(lp3260
S':'
asbag57
(g78
g59
NtRp3261
(dp3262
g62
(dp3263
sg71
g3248
sg64
(lp3264
g57
(g58
g59
NtRp3265
(dp3266
g62
(dp3267
g70
I3
ssg71
g3261
sg64
(lp3268
S'rammurthy@faculty.iiit.ac.in'
p3269
asbasbasbag57
(g73
g59
NtRp3270
(dp3271
g62
(dp3272
sg71
g3244
sg64
(lp3273
g57
(g78
g59
NtRp3274
(dp3275
g62
(dp3276
g82
g83
ssg71
g3270
sg64
(lp3277
S'first_name'
p3278
asbag57
(g78
g59
NtRp3279
(dp3280
g62
(dp3281
g89
g90
ssg71
g3270
sg64
(lp3282
S':'
asbag57
(g78
g59
NtRp3283
(dp3284
g62
(dp3285
sg71
g3270
sg64
(lp3286
g57
(g58
g59
NtRp3287
(dp3288
g62
(dp3289
g70
I3
ssg71
g3283
sg64
(lp3290
S'rammurthy'
p3291
asbasbasbag57
(g73
g59
NtRp3292
(dp3293
g62
(dp3294
sg71
g3244
sg64
(lp3295
g57
(g78
g59
NtRp3296
(dp3297
g62
(dp3298
g82
g83
ssg71
g3292
sg64
(lp3299
S'id'
p3300
asbag57
(g78
g59
NtRp3301
(dp3302
g62
(dp3303
g89
g90
ssg71
g3292
sg64
(lp3304
S':'
asbag57
(g78
g59
NtRp3305
(dp3306
g62
(dp3307
sg71
g3292
sg64
(lp3308
g57
(g58
g59
NtRp3309
(dp3310
g62
(dp3311
g70
I3
ssg71
g3305
sg64
(lp3312
S'1'
asbasbasbag57
(g73
g59
NtRp3313
(dp3314
g62
(dp3315
sg71
g3244
sg64
(lp3316
g57
(g78
g59
NtRp3317
(dp3318
g62
(dp3319
g82
g83
ssg71
g3313
sg64
(lp3320
S'last_name'
p3321
asbag57
(g78
g59
NtRp3322
(dp3323
g62
(dp3324
g89
g90
ssg71
g3313
sg64
(lp3325
S':'
asbag57
(g78
g59
NtRp3326
(dp3327
g62
(dp3328
sg71
g3313
sg64
(lp3329
g57
(g58
g59
NtRp3330
(dp3331
g62
(dp3332
g70
I3
ssg71
g3326
sg64
(lp3333
S'sir'
p3334
asbasbasbag57
(g73
g59
NtRp3335
(dp3336
g62
(dp3337
sg71
g3244
sg64
(lp3338
g57
(g78
g59
NtRp3339
(dp3340
g62
(dp3341
g82
g83
ssg71
g3335
sg64
(lp3342
S'password'
p3343
asbag57
(g78
g59
NtRp3344
(dp3345
g62
(dp3346
g89
g90
ssg71
g3335
sg64
(lp3347
S':'
asbag57
(g78
g59
NtRp3348
(dp3349
g62
(dp3350
sg71
g3335
sg64
(lp3351
g57
(g58
g59
NtRp3352
(dp3353
g62
(dp3354
g70
I3
ssg71
g3348
sg64
(lp3355
S'9da56e6636f0f89c2a2b7b54a400c423'
p3356
asbasbasbag57
(g73
g59
NtRp3357
(dp3358
g62
(dp3359
sg71
g3244
sg64
(lp3360
g57
(g78
g59
NtRp3361
(dp3362
g62
(dp3363
g82
g83
ssg71
g3357
sg64
(lp3364
S'registration_id'
p3365
asbag57
(g78
g59
NtRp3366
(dp3367
g62
(dp3368
g89
g90
ssg71
g3357
sg64
(lp3369
S':'
asbag57
(g78
g59
NtRp3370
(dp3371
g62
(dp3372
sg71
g3357
sg64
(lp3373
g57
(g58
g59
NtRp3374
(dp3375
g62
(dp3376
g70
I3
ssg71
g3370
sg64
(lp3377
S''
asbasbasbag57
(g73
g59
NtRp3378
(dp3379
g62
(dp3380
sg71
g3244
sg64
(lp3381
g57
(g78
g59
NtRp3382
(dp3383
g62
(dp3384
g82
g83
ssg71
g3378
sg64
(lp3385
S'registration_key'
p3386
asbag57
(g78
g59
NtRp3387
(dp3388
g62
(dp3389
g89
g90
ssg71
g3378
sg64
(lp3390
S':'
asbag57
(g78
g59
NtRp3391
(dp3392
g62
(dp3393
sg71
g3378
sg64
(lp3394
g57
(g58
g59
NtRp3395
(dp3396
g62
(dp3397
g70
I3
ssg71
g3391
sg64
(lp3398
S''
asbasbasbag57
(g73
g59
NtRp3399
(dp3400
g62
(dp3401
sg71
g3244
sg64
(lp3402
g57
(g78
g59
NtRp3403
(dp3404
g62
(dp3405
g82
g83
ssg71
g3399
sg64
(lp3406
S'reset_password_key'
p3407
asbag57
(g78
g59
NtRp3408
(dp3409
g62
(dp3410
g89
g90
ssg71
g3399
sg64
(lp3411
S':'
asbag57
(g78
g59
NtRp3412
(dp3413
g62
(dp3414
sg71
g3399
sg64
(lp3415
g57
(g58
g59
NtRp3416
(dp3417
g62
(dp3418
g70
I3
ssg71
g3412
sg64
(lp3419
S''
asbasbasbasbasbasbasbag57
(g73
g59
NtRp3420
(dp3421
g62
(dp3422
sg71
g3132
sg64
(lp3423
g57
(g78
g59
NtRp3424
(dp3425
g62
(dp3426
g82
g83
ssg71
g3420
sg64
(lp3427
S'user_groups'
p3428
asbag57
(g78
g59
NtRp3429
(dp3430
g62
(dp3431
g89
g90
ssg71
g3420
sg64
(lp3432
S':'
asbag57
(g78
g59
NtRp3433
(dp3434
g62
(dp3435
sg71
g3420
sg64
(lp3436
g57
(g58
g59
NtRp3437
(dp3438
g62
(dp3439
g70
I4
ssg71
g3433
sg64
(lp3440
g57
(g66
g59
NtRp3441
(dp3442
g62
(dp3443
g70
I3
ssg71
Nsg64
(lp3444
g57
(g73
g59
NtRp3445
(dp3446
g62
(dp3447
sg71
g3441
sg64
(lp3448
g57
(g78
g59
NtRp3449
(dp3450
g62
(dp3451
g82
g83
ssg71
g3445
sg64
(lp3452
S'1'
asbag57
(g78
g59
NtRp3453
(dp3454
g62
(dp3455
g89
g90
ssg71
g3445
sg64
(lp3456
S':'
asbag57
(g78
g59
NtRp3457
(dp3458
g62
(dp3459
sg71
g3445
sg64
(lp3460
g57
(g58
g59
NtRp3461
(dp3462
g62
(dp3463
g70
I3
ssg71
g3457
sg64
(lp3464
S'user_1'
p3465
asbasbasbag57
(g73
g59
NtRp3466
(dp3467
g62
(dp3468
sg71
g3441
sg64
(lp3469
g57
(g78
g59
NtRp3470
(dp3471
g62
(dp3472
g82
g83
ssg71
g3466
sg64
(lp3473
S'2'
asbag57
(g78
g59
NtRp3474
(dp3475
g62
(dp3476
g89
g90
ssg71
g3466
sg64
(lp3477
S':'
asbag57
(g78
g59
NtRp3478
(dp3479
g62
(dp3480
sg71
g3466
sg64
(lp3481
g57
(g58
g59
NtRp3482
(dp3483
g62
(dp3484
g70
I3
ssg71
g3478
sg64
(lp3485
S'Administrator'
p3486
asbasbasbasbasbasbasbasbasbasbasbasbasbsS'etype'
p3487
S"<type 'exceptions.IndexError'>"
p3488
sS'date'
p3489
S'Thu Nov  8 05:03:08 2012'
p3490
sS'response'
p3491
g57
(g58
g59
NtRp3492
(dp3493
g62
(dp3494
sg64
(lp3495
g57
(g66
g59
NtRp3496
(dp3497
g62
(dp3498
g70
I5
ssg71
Nsg64
(lp3499
g57
(g73
g59
NtRp3500
(dp3501
g62
(dp3502
sg71
g3496
sg64
(lp3503
g57
(g78
g59
NtRp3504
(dp3505
g62
(dp3506
g82
g83
ssg71
g3500
sg64
(lp3507
g155
asbag57
(g78
g59
NtRp3508
(dp3509
g62
(dp3510
g89
g90
ssg71
g3500
sg64
(lp3511
S':'
asbag57
(g78
g59
NtRp3512
(dp3513
g62
(dp3514
sg71
g3500
sg64
(lp3515
g57
(g58
g59
NtRp3516
(dp3517
g62
(dp3518
g70
I5
ssg71
g3512
sg64
(lp3519
S'<cStringIO.StringO object at 0x9eefb40>'
p3520
asbasbasbag57
(g73
g59
NtRp3521
(dp3522
g62
(dp3523
sg71
g3496
sg64
(lp3524
g57
(g78
g59
NtRp3525
(dp3526
g62
(dp3527
g82
g83
ssg71
g3521
sg64
(lp3528
g221
asbag57
(g78
g59
NtRp3529
(dp3530
g62
(dp3531
g89
g90
ssg71
g3521
sg64
(lp3532
S':'
asbag57
(g78
g59
NtRp3533
(dp3534
g62
(dp3535
sg71
g3521
sg64
(lp3536
g57
(g58
g59
NtRp3537
(dp3538
g62
(dp3539
g70
I5
ssg71
g3533
sg64
(lp3540
g57
(g66
g59
NtRp3541
(dp3542
g62
(dp3543
g70
I4
ssg71
Nsg64
(lp3544
g57
(g73
g59
NtRp3545
(dp3546
g62
(dp3547
sg71
g3541
sg64
(lp3548
g57
(g78
g59
NtRp3549
(dp3550
g62
(dp3551
g82
g83
ssg71
g3545
sg64
(lp3552
S'session_id_project'
p3553
asbag57
(g78
g59
NtRp3554
(dp3555
g62
(dp3556
g89
g90
ssg71
g3545
sg64
(lp3557
S':'
asbag57
(g78
g59
NtRp3558
(dp3559
g62
(dp3560
sg71
g3545
sg64
(lp3561
g57
(g58
g59
NtRp3562
(dp3563
g62
(dp3564
g70
I4
ssg71
g3558
sg64
(lp3565
g57
(g66
g59
NtRp3566
(dp3567
g62
(dp3568
g70
I3
ssg71
Nsg64
(lp3569
g57
(g73
g59
NtRp3570
(dp3571
g62
(dp3572
sg71
g3566
sg64
(lp3573
g57
(g78
g59
NtRp3574
(dp3575
g62
(dp3576
g82
g83
ssg71
g3570
sg64
(lp3577
g271
asbag57
(g78
g59
NtRp3578
(dp3579
g62
(dp3580
g89
g90
ssg71
g3570
sg64
(lp3581
S':'
asbag57
(g78
g59
NtRp3582
(dp3583
g62
(dp3584
sg71
g3570
sg64
(lp3585
g57
(g58
g59
NtRp3586
(dp3587
g62
(dp3588
g70
I3
ssg71
g3582
sg64
(lp3589
S''
asbasbasbag57
(g73
g59
NtRp3590
(dp3591
g62
(dp3592
sg71
g3566
sg64
(lp3593
g57
(g78
g59
NtRp3594
(dp3595
g62
(dp3596
g82
g83
ssg71
g3590
sg64
(lp3597
g292
asbag57
(g78
g59
NtRp3598
(dp3599
g62
(dp3600
g89
g90
ssg71
g3590
sg64
(lp3601
S':'
asbag57
(g78
g59
NtRp3602
(dp3603
g62
(dp3604
sg71
g3590
sg64
(lp3605
g57
(g58
g59
NtRp3606
(dp3607
g62
(dp3608
g70
I3
ssg71
g3602
sg64
(lp3609
S''
asbasbasbag57
(g73
g59
NtRp3610
(dp3611
g62
(dp3612
sg71
g3566
sg64
(lp3613
g57
(g78
g59
NtRp3614
(dp3615
g62
(dp3616
g82
g83
ssg71
g3610
sg64
(lp3617
g313
asbag57
(g78
g59
NtRp3618
(dp3619
g62
(dp3620
g89
g90
ssg71
g3610
sg64
(lp3621
S':'
asbag57
(g78
g59
NtRp3622
(dp3623
g62
(dp3624
sg71
g3610
sg64
(lp3625
g57
(g58
g59
NtRp3626
(dp3627
g62
(dp3628
g70
I3
ssg71
g3622
sg64
(lp3629
S''
asbasbasbag57
(g73
g59
NtRp3630
(dp3631
g62
(dp3632
sg71
g3566
sg64
(lp3633
g57
(g78
g59
NtRp3634
(dp3635
g62
(dp3636
g82
g83
ssg71
g3630
sg64
(lp3637
g334
asbag57
(g78
g59
NtRp3638
(dp3639
g62
(dp3640
g89
g90
ssg71
g3630
sg64
(lp3641
S':'
asbag57
(g78
g59
NtRp3642
(dp3643
g62
(dp3644
sg71
g3630
sg64
(lp3645
g57
(g58
g59
NtRp3646
(dp3647
g62
(dp3648
g70
I3
ssg71
g3642
sg64
(lp3649
S''
asbasbasbag57
(g73
g59
NtRp3650
(dp3651
g62
(dp3652
sg71
g3566
sg64
(lp3653
g57
(g78
g59
NtRp3654
(dp3655
g62
(dp3656
g82
g83
ssg71
g3650
sg64
(lp3657
g355
asbag57
(g78
g59
NtRp3658
(dp3659
g62
(dp3660
g89
g90
ssg71
g3650
sg64
(lp3661
S':'
asbag57
(g78
g59
NtRp3662
(dp3663
g62
(dp3664
sg71
g3650
sg64
(lp3665
g57
(g58
g59
NtRp3666
(dp3667
g62
(dp3668
g70
I3
ssg71
g3662
sg64
(lp3669
S''
asbasbasbag57
(g73
g59
NtRp3670
(dp3671
g62
(dp3672
sg71
g3566
sg64
(lp3673
g57
(g78
g59
NtRp3674
(dp3675
g62
(dp3676
g82
g83
ssg71
g3670
sg64
(lp3677
g376
asbag57
(g78
g59
NtRp3678
(dp3679
g62
(dp3680
g89
g90
ssg71
g3670
sg64
(lp3681
S':'
asbag57
(g78
g59
NtRp3682
(dp3683
g62
(dp3684
sg71
g3670
sg64
(lp3685
g57
(g58
g59
NtRp3686
(dp3687
g62
(dp3688
g70
I3
ssg71
g3682
sg64
(lp3689
S'/'
asbasbasbag57
(g73
g59
NtRp3690
(dp3691
g62
(dp3692
sg71
g3566
sg64
(lp3693
g57
(g78
g59
NtRp3694
(dp3695
g62
(dp3696
g82
g83
ssg71
g3690
sg64
(lp3697
g397
asbag57
(g78
g59
NtRp3698
(dp3699
g62
(dp3700
g89
g90
ssg71
g3690
sg64
(lp3701
S':'
asbag57
(g78
g59
NtRp3702
(dp3703
g62
(dp3704
sg71
g3690
sg64
(lp3705
g57
(g58
g59
NtRp3706
(dp3707
g62
(dp3708
g70
I3
ssg71
g3702
sg64
(lp3709
S''
asbasbasbag57
(g73
g59
NtRp3710
(dp3711
g62
(dp3712
sg71
g3566
sg64
(lp3713
g57
(g78
g59
NtRp3714
(dp3715
g62
(dp3716
g82
g83
ssg71
g3710
sg64
(lp3717
g418
asbag57
(g78
g59
NtRp3718
(dp3719
g62
(dp3720
g89
g90
ssg71
g3710
sg64
(lp3721
S':'
asbag57
(g78
g59
NtRp3722
(dp3723
g62
(dp3724
sg71
g3710
sg64
(lp3725
g57
(g58
g59
NtRp3726
(dp3727
g62
(dp3728
g70
I3
ssg71
g3722
sg64
(lp3729
S''
asbasbasbasbasbasbasbasbasbasbasbag57
(g73
g59
NtRp3730
(dp3731
g62
(dp3732
sg71
g3496
sg64
(lp3733
g57
(g78
g59
NtRp3734
(dp3735
g62
(dp3736
g82
g83
ssg71
g3730
sg64
(lp3737
S'delimiters'
p3738
asbag57
(g78
g59
NtRp3739
(dp3740
g62
(dp3741
g89
g90
ssg71
g3730
sg64
(lp3742
S':'
asbag57
(g78
g59
NtRp3743
(dp3744
g62
(dp3745
sg71
g3730
sg64
(lp3746
g57
(g58
g59
NtRp3747
(dp3748
g62
(dp3749
g70
I5
ssg71
g3743
sg64
(lp3750
g57
(g66
g59
NtRp3751
(dp3752
g62
(dp3753
g70
I4
ssg71
Nsg64
(lp3754
g57
(g73
g59
NtRp3755
(dp3756
g62
(dp3757
sg71
g3751
sg64
(lp3758
g57
(g78
g59
NtRp3759
(dp3760
g62
(dp3761
sg71
g3755
sg64
(lp3762
g57
(g58
g59
NtRp3763
(dp3764
g62
(dp3765
g70
I4
ssg71
g3759
sg64
(lp3766
S'{{'
p3767
asbasbasbag57
(g73
g59
NtRp3768
(dp3769
g62
(dp3770
sg71
g3751
sg64
(lp3771
g57
(g78
g59
NtRp3772
(dp3773
g62
(dp3774
sg71
g3768
sg64
(lp3775
g57
(g58
g59
NtRp3776
(dp3777
g62
(dp3778
g70
I4
ssg71
g3772
sg64
(lp3779
S'}}'
p3780
asbasbasbasbasbasbasbag57
(g73
g59
NtRp3781
(dp3782
g62
(dp3783
sg71
g3496
sg64
(lp3784
g57
(g78
g59
NtRp3785
(dp3786
g62
(dp3787
g82
g83
ssg71
g3781
sg64
(lp3788
S'files'
p3789
asbag57
(g78
g59
NtRp3790
(dp3791
g62
(dp3792
g89
g90
ssg71
g3781
sg64
(lp3793
S':'
asbag57
(g78
g59
NtRp3794
(dp3795
g62
(dp3796
sg71
g3781
sg64
(lp3797
g57
(g58
g59
NtRp3798
(dp3799
g62
(dp3800
g70
I5
ssg71
g3794
sg64
(lp3801
g57
(g66
g59
NtRp3802
(dp3803
g62
(dp3804
g70
I4
ssg71
Nsg64
(lp3805
sbasbasbasbag57
(g73
g59
NtRp3806
(dp3807
g62
(dp3808
sg71
g3496
sg64
(lp3809
g57
(g78
g59
NtRp3810
(dp3811
g62
(dp3812
g82
g83
ssg71
g3806
sg64
(lp3813
S'flash'
p3814
asbag57
(g78
g59
NtRp3815
(dp3816
g62
(dp3817
g89
g90
ssg71
g3806
sg64
(lp3818
S':'
asbag57
(g78
g59
NtRp3819
(dp3820
g62
(dp3821
sg71
g3806
sg64
(lp3822
g57
(g58
g59
NtRp3823
(dp3824
g62
(dp3825
g70
I5
ssg71
g3819
sg64
(lp3826
S''
asbasbasbag57
(g73
g59
NtRp3827
(dp3828
g62
(dp3829
sg71
g3496
sg64
(lp3830
g57
(g78
g59
NtRp3831
(dp3832
g62
(dp3833
g82
g83
ssg71
g3827
sg64
(lp3834
S'generic_patterns'
p3835
asbag57
(g78
g59
NtRp3836
(dp3837
g62
(dp3838
g89
g90
ssg71
g3827
sg64
(lp3839
S':'
asbag57
(g78
g59
NtRp3840
(dp3841
g62
(dp3842
sg71
g3827
sg64
(lp3843
g57
(g58
g59
NtRp3844
(dp3845
g62
(dp3846
g70
I5
ssg71
g3840
sg64
(lp3847
g57
(g66
g59
NtRp3848
(dp3849
g62
(dp3850
g70
I4
ssg71
Nsg64
(lp3851
g57
(g73
g59
NtRp3852
(dp3853
g62
(dp3854
sg71
g3848
sg64
(lp3855
g57
(g78
g59
NtRp3856
(dp3857
g62
(dp3858
sg71
g3852
sg64
(lp3859
g57
(g58
g59
NtRp3860
(dp3861
g62
(dp3862
g70
I4
ssg71
g3856
sg64
(lp3863
S'*'
asbasbasbasbasbasbasbag57
(g73
g59
NtRp3864
(dp3865
g62
(dp3866
sg71
g3496
sg64
(lp3867
g57
(g78
g59
NtRp3868
(dp3869
g62
(dp3870
g82
g83
ssg71
g3864
sg64
(lp3871
S'headers'
p3872
asbag57
(g78
g59
NtRp3873
(dp3874
g62
(dp3875
g89
g90
ssg71
g3864
sg64
(lp3876
S':'
asbag57
(g78
g59
NtRp3877
(dp3878
g62
(dp3879
sg71
g3864
sg64
(lp3880
g57
(g58
g59
NtRp3881
(dp3882
g62
(dp3883
g70
I5
ssg71
g3877
sg64
(lp3884
g57
(g66
g59
NtRp3885
(dp3886
g62
(dp3887
g70
I4
ssg71
Nsg64
(lp3888
g57
(g73
g59
NtRp3889
(dp3890
g62
(dp3891
sg71
g3885
sg64
(lp3892
g57
(g78
g59
NtRp3893
(dp3894
g62
(dp3895
g82
g83
ssg71
g3889
sg64
(lp3896
S'Cache-Control'
p3897
asbag57
(g78
g59
NtRp3898
(dp3899
g62
(dp3900
g89
g90
ssg71
g3889
sg64
(lp3901
S':'
asbag57
(g78
g59
NtRp3902
(dp3903
g62
(dp3904
sg71
g3889
sg64
(lp3905
g57
(g58
g59
NtRp3906
(dp3907
g62
(dp3908
g70
I4
ssg71
g3902
sg64
(lp3909
S'no-store, no-cache, must-revalidate, post-check=0, pre-check=0'
p3910
asbasbasbag57
(g73
g59
NtRp3911
(dp3912
g62
(dp3913
sg71
g3885
sg64
(lp3914
g57
(g78
g59
NtRp3915
(dp3916
g62
(dp3917
g82
g83
ssg71
g3911
sg64
(lp3918
S'Content-Type'
p3919
asbag57
(g78
g59
NtRp3920
(dp3921
g62
(dp3922
g89
g90
ssg71
g3911
sg64
(lp3923
S':'
asbag57
(g78
g59
NtRp3924
(dp3925
g62
(dp3926
sg71
g3911
sg64
(lp3927
g57
(g58
g59
NtRp3928
(dp3929
g62
(dp3930
g70
I4
ssg71
g3924
sg64
(lp3931
S'text/html; charset=utf-8'
p3932
asbasbasbag57
(g73
g59
NtRp3933
(dp3934
g62
(dp3935
sg71
g3885
sg64
(lp3936
g57
(g78
g59
NtRp3937
(dp3938
g62
(dp3939
g82
g83
ssg71
g3933
sg64
(lp3940
S'Expires'
p3941
asbag57
(g78
g59
NtRp3942
(dp3943
g62
(dp3944
g89
g90
ssg71
g3933
sg64
(lp3945
S':'
asbag57
(g78
g59
NtRp3946
(dp3947
g62
(dp3948
sg71
g3933
sg64
(lp3949
g57
(g58
g59
NtRp3950
(dp3951
g62
(dp3952
g70
I4
ssg71
g3946
sg64
(lp3953
S'Wed, 07 Nov 2012 23:33:08 GMT'
p3954
asbasbasbag57
(g73
g59
NtRp3955
(dp3956
g62
(dp3957
sg71
g3885
sg64
(lp3958
g57
(g78
g59
NtRp3959
(dp3960
g62
(dp3961
g82
g83
ssg71
g3955
sg64
(lp3962
S'Pragma'
p3963
asbag57
(g78
g59
NtRp3964
(dp3965
g62
(dp3966
g89
g90
ssg71
g3955
sg64
(lp3967
S':'
asbag57
(g78
g59
NtRp3968
(dp3969
g62
(dp3970
sg71
g3955
sg64
(lp3971
g57
(g58
g59
NtRp3972
(dp3973
g62
(dp3974
g70
I4
ssg71
g3968
sg64
(lp3975
S'no-cache'
p3976
asbasbasbag57
(g73
g59
NtRp3977
(dp3978
g62
(dp3979
sg71
g3885
sg64
(lp3980
g57
(g78
g59
NtRp3981
(dp3982
g62
(dp3983
g82
g83
ssg71
g3977
sg64
(lp3984
S'X-Powered-By'
p3985
asbag57
(g78
g59
NtRp3986
(dp3987
g62
(dp3988
g89
g90
ssg71
g3977
sg64
(lp3989
S':'
asbag57
(g78
g59
NtRp3990
(dp3991
g62
(dp3992
sg71
g3977
sg64
(lp3993
g57
(g58
g59
NtRp3994
(dp3995
g62
(dp3996
g70
I4
ssg71
g3990
sg64
(lp3997
S'web2py'
p3998
asbasbasbasbasbasbasbag57
(g73
g59
NtRp3999
(dp4000
g62
(dp4001
sg71
g3496
sg64
(lp4002
g57
(g78
g59
NtRp4003
(dp4004
g62
(dp4005
g82
g83
ssg71
g3999
sg64
(lp4006
S'menu'
p4007
asbag57
(g78
g59
NtRp4008
(dp4009
g62
(dp4010
g89
g90
ssg71
g3999
sg64
(lp4011
S':'
asbag57
(g78
g59
NtRp4012
(dp4013
g62
(dp4014
sg71
g3999
sg64
(lp4015
g57
(g58
g59
NtRp4016
(dp4017
g62
(dp4018
g70
I5
ssg71
g4012
sg64
(lp4019
g57
(g66
g59
NtRp4020
(dp4021
g62
(dp4022
g70
I4
ssg71
Nsg64
(lp4023
g57
(g73
g59
NtRp4024
(dp4025
g62
(dp4026
sg71
g4020
sg64
(lp4027
g57
(g78
g59
NtRp4028
(dp4029
g62
(dp4030
sg71
g4024
sg64
(lp4031
g57
(g58
g59
NtRp4032
(dp4033
g62
(dp4034
g70
I4
ssg71
g4028
sg64
(lp4035
g57
(g66
g59
NtRp4036
(dp4037
g62
(dp4038
g70
I3
ssg71
Nsg64
(lp4039
g57
(g73
g59
NtRp4040
(dp4041
g62
(dp4042
sg71
g4036
sg64
(lp4043
g57
(g78
g59
NtRp4044
(dp4045
g62
(dp4046
sg71
g4040
sg64
(lp4047
g57
(g58
g59
NtRp4048
(dp4049
g62
(dp4050
g70
I3
ssg71
g4044
sg64
(lp4051
cgluon.languages
lazyT_unpickle
p4052
(S't\x04\x00\x00\x00Home'
tRp4053
asbasbasbag57
(g73
g59
NtRp4054
(dp4055
g62
(dp4056
sg71
g4036
sg64
(lp4057
g57
(g78
g59
NtRp4058
(dp4059
g62
(dp4060
sg71
g4054
sg64
(lp4061
g57
(g58
g59
NtRp4062
(dp4063
g62
(dp4064
g70
I3
ssg71
g4058
sg64
(lp4065
g100
asbasbasbag57
(g73
g59
NtRp4066
(dp4067
g62
(dp4068
sg71
g4036
sg64
(lp4069
g57
(g78
g59
NtRp4070
(dp4071
g62
(dp4072
sg71
g4066
sg64
(lp4073
g57
(g58
g59
NtRp4074
(dp4075
g62
(dp4076
g70
I3
ssg71
g4070
sg64
(lp4077
S'/project/default/index'
p4078
asbasbasbag57
(g73
g59
NtRp4079
(dp4080
g62
(dp4081
sg71
g4036
sg64
(lp4082
g57
(g78
g59
NtRp4083
(dp4084
g62
(dp4085
sg71
g4079
sg64
(lp4086
g57
(g58
g59
NtRp4087
(dp4088
g62
(dp4089
g70
I3
ssg71
g4083
sg64
(lp4090
g57
(g66
g59
NtRp4091
(dp4092
g62
(dp4093
g70
I2
ssg71
Nsg64
(lp4094
sbasbasbasbasbasbasbasbag57
(g73
g59
NtRp4095
(dp4096
g62
(dp4097
sg71
g4020
sg64
(lp4098
g57
(g78
g59
NtRp4099
(dp4100
g62
(dp4101
sg71
g4095
sg64
(lp4102
g57
(g58
g59
NtRp4103
(dp4104
g62
(dp4105
g70
I4
ssg71
g4099
sg64
(lp4106
g57
(g66
g59
NtRp4107
(dp4108
g62
(dp4109
g70
I3
ssg71
Nsg64
(lp4110
g57
(g73
g59
NtRp4111
(dp4112
g62
(dp4113
sg71
g4107
sg64
(lp4114
g57
(g78
g59
NtRp4115
(dp4116
g62
(dp4117
sg71
g4111
sg64
(lp4118
g57
(g58
g59
NtRp4119
(dp4120
g62
(dp4121
g70
I3
ssg71
g4115
sg64
(lp4122
g57
(cgluon.html
SPAN
p4123
g59
NtRp4124
(dp4125
g62
(dp4126
g82
S'color:yellow'
p4127
ssg71
Nsg64
(lp4128
g3998
asbasbasbasbag57
(g73
g59
NtRp4129
(dp4130
g62
(dp4131
sg71
g4107
sg64
(lp4132
g57
(g78
g59
NtRp4133
(dp4134
g62
(dp4135
sg71
g4129
sg64
(lp4136
g57
(g58
g59
NtRp4137
(dp4138
g62
(dp4139
g70
I3
ssg71
g4133
sg64
(lp4140
g100
asbasbasbag57
(g73
g59
NtRp4141
(dp4142
g62
(dp4143
sg71
g4107
sg64
(lp4144
g57
(g78
g59
NtRp4145
(dp4146
g62
(dp4147
sg71
g4141
sg64
(lp4148
g57
(g58
g59
NtRp4149
(dp4150
g62
(dp4151
g70
I3
ssg71
g4145
sg64
(lp4152
S'None'
p4153
asbasbasbag57
(g73
g59
NtRp4154
(dp4155
g62
(dp4156
sg71
g4107
sg64
(lp4157
g57
(g78
g59
NtRp4158
(dp4159
g62
(dp4160
sg71
g4154
sg64
(lp4161
g57
(g58
g59
NtRp4162
(dp4163
g62
(dp4164
g70
I3
ssg71
g4158
sg64
(lp4165
g57
(g66
g59
NtRp4166
(dp4167
g62
(dp4168
g70
I2
ssg71
Nsg64
(lp4169
g57
(g73
g59
NtRp4170
(dp4171
g62
(dp4172
sg71
g4166
sg64
(lp4173
g57
(g78
g59
NtRp4174
(dp4175
g62
(dp4176
sg71
g4170
sg64
(lp4177
g57
(g58
g59
NtRp4178
(dp4179
g62
(dp4180
g70
I2
ssg71
g4174
sg64
(lp4181
g57
(g66
g59
NtRp4182
(dp4183
g62
(dp4184
g70
I1
ssg71
Nsg64
(lp4185
g57
(g73
g59
NtRp4186
(dp4187
g62
(dp4188
sg71
g4182
sg64
(lp4189
g57
(g78
g59
NtRp4190
(dp4191
g62
(dp4192
sg71
g4186
sg64
(lp4193
g57
(g58
g59
NtRp4194
(dp4195
g62
(dp4196
g70
I1
ssg71
g4190
sg64
(lp4197
g4052
(S's\x08\x00\x00\x00My Sites'
tRp4198
asbasbasbag57
(g73
g59
NtRp4199
(dp4200
g62
(dp4201
sg71
g4182
sg64
(lp4202
g57
(g78
g59
NtRp4203
(dp4204
g62
(dp4205
sg71
g4199
sg64
(lp4206
g57
(g58
g59
NtRp4207
(dp4208
g62
(dp4209
g70
I1
ssg71
g4203
sg64
(lp4210
I00
asbasbasbag57
(g73
g59
NtRp4211
(dp4212
g62
(dp4213
sg71
g4182
sg64
(lp4214
g57
(g78
g59
NtRp4215
(dp4216
g62
(dp4217
sg71
g4211
sg64
(lp4218
g57
(g58
g59
NtRp4219
(dp4220
g62
(dp4221
g70
I1
ssg71
g4215
sg64
(lp4222
S'/admin/default/site'
p4223
asbasbasbasbasbasbasbag57
(g73
g59
NtRp4224
(dp4225
g62
(dp4226
sg71
g4166
sg64
(lp4227
g57
(g78
g59
NtRp4228
(dp4229
g62
(dp4230
sg71
g4224
sg64
(lp4231
g57
(g58
g59
NtRp4232
(dp4233
g62
(dp4234
g70
I2
ssg71
g4228
sg64
(lp4235
g57
(g66
g59
NtRp4236
(dp4237
g62
(dp4238
g70
I1
ssg71
Nsg64
(lp4239
g57
(g73
g59
NtRp4240
(dp4241
g62
(dp4242
sg71
g4236
sg64
(lp4243
g57
(g78
g59
NtRp4244
(dp4245
g62
(dp4246
sg71
g4240
sg64
(lp4247
g57
(g58
g59
NtRp4248
(dp4249
g62
(dp4250
g70
I1
ssg71
g4244
sg64
(lp4251
g4052
(S's\x08\x00\x00\x00This App'
tRp4252
asbasbasbag57
(g73
g59
NtRp4253
(dp4254
g62
(dp4255
sg71
g4236
sg64
(lp4256
g57
(g78
g59
NtRp4257
(dp4258
g62
(dp4259
sg71
g4253
sg64
(lp4260
g57
(g58
g59
NtRp4261
(dp4262
g62
(dp4263
g70
I1
ssg71
g4257
sg64
(lp4264
I00
asbasbasbag57
(g73
g59
NtRp4265
(dp4266
g62
(dp4267
sg71
g4236
sg64
(lp4268
g57
(g78
g59
NtRp4269
(dp4270
g62
(dp4271
sg71
g4265
sg64
(lp4272
g57
(g58
g59
NtRp4273
(dp4274
g62
(dp4275
g70
I1
ssg71
g4269
sg64
(lp4276
S'/admin/default/design/project'
p4277
asbasbasbag57
(g73
g59
NtRp4278
(dp4279
g62
(dp4280
sg71
g4236
sg64
(lp4281
g57
(g78
g59
NtRp4282
(dp4283
g62
(dp4284
sg71
g4278
sg64
(lp4285
g57
(g58
g59
NtRp4286
(dp4287
g62
(dp4288
g70
I1
ssg71
g4282
sg64
(lp4289
(lp4290
(g4052
(S't\n\x00\x00\x00Controller'
tRp4291
I00
S'/admin/default/edit/project/controllers/default.py'
tp4292
a(g4052
(S't\x04\x00\x00\x00View'
tRp4293
I00
S'/admin/default/edit/project/views/default/kruskal.html'
tp4294
a(g4052
(S't\x06\x00\x00\x00Layout'
tRp4295
I00
S'/admin/default/edit/project/views/layout.html'
tp4296
a(g4052
(S't\n\x00\x00\x00Stylesheet'
tRp4297
I00
S'/admin/default/edit/project/static/css/web2py.css'
tp4298
a(g4052
(S's\x08\x00\x00\x00DB Model'
tRp4299
I00
S'/admin/default/edit/project/models/db.py'
tp4300
a(g4052
(S's\n\x00\x00\x00Menu Model'
tRp4301
I00
S'/admin/default/edit/project/models/menu.py'
tp4302
a(g4052
(S't\x08\x00\x00\x00Database'
tRp4303
I00
S'/project/appadmin/index'
tp4304
a(g4052
(S't\x06\x00\x00\x00Errors'
tRp4305
I00
S'/admin/default/errors/project'
tp4306
a(g4052
(S't\x05\x00\x00\x00About'
tRp4307
I00
S'/admin/default/about/project'
tp4308
aasbasbasbasbasbasbasbag57
(g73
g59
NtRp4309
(dp4310
g62
(dp4311
sg71
g4166
sg64
(lp4312
g57
(g78
g59
NtRp4313
(dp4314
g62
(dp4315
sg71
g4309
sg64
(lp4316
g57
(g58
g59
NtRp4317
(dp4318
g62
(dp4319
g70
I2
ssg71
g4313
sg64
(lp4320
g57
(g66
g59
NtRp4321
(dp4322
g62
(dp4323
g70
I1
ssg71
Nsg64
(lp4324
g57
(g73
g59
NtRp4325
(dp4326
g62
(dp4327
sg71
g4321
sg64
(lp4328
g57
(g78
g59
NtRp4329
(dp4330
g62
(dp4331
sg71
g4325
sg64
(lp4332
g57
(g58
g59
NtRp4333
(dp4334
g62
(dp4335
g70
I1
ssg71
g4329
sg64
(lp4336
S'web2py.com'
p4337
asbasbasbag57
(g73
g59
NtRp4338
(dp4339
g62
(dp4340
sg71
g4321
sg64
(lp4341
g57
(g78
g59
NtRp4342
(dp4343
g62
(dp4344
sg71
g4338
sg64
(lp4345
g57
(g58
g59
NtRp4346
(dp4347
g62
(dp4348
g70
I1
ssg71
g4342
sg64
(lp4349
I00
asbasbasbag57
(g73
g59
NtRp4350
(dp4351
g62
(dp4352
sg71
g4321
sg64
(lp4353
g57
(g78
g59
NtRp4354
(dp4355
g62
(dp4356
sg71
g4350
sg64
(lp4357
g57
(g58
g59
NtRp4358
(dp4359
g62
(dp4360
g70
I1
ssg71
g4354
sg64
(lp4361
S'http://www.web2py.com'
p4362
asbasbasbag57
(g73
g59
NtRp4363
(dp4364
g62
(dp4365
sg71
g4321
sg64
(lp4366
g57
(g78
g59
NtRp4367
(dp4368
g62
(dp4369
sg71
g4363
sg64
(lp4370
g57
(g58
g59
NtRp4371
(dp4372
g62
(dp4373
g70
I1
ssg71
g4367
sg64
(lp4374
(lp4375
(g4052
(S't\x08\x00\x00\x00Download'
tRp4376
I00
S'http://www.web2py.com/examples/default/download'
p4377
tp4378
a(g4052
(S't\x07\x00\x00\x00Support'
tRp4379
I00
S'http://www.web2py.com/examples/default/support'
p4380
tp4381
a(g4052
(S't\x04\x00\x00\x00Demo'
tRp4382
I00
S'http://web2py.com/demo_admin'
p4383
tp4384
a(g4052
(S's\x0e\x00\x00\x00Quick Examples'
tRp4385
I00
S'http://web2py.com/examples/default/examples'
p4386
tp4387
a(g4052
(S't\x03\x00\x00\x00FAQ'
tRp4388
I00
S'http://web2py.com/AlterEgo'
p4389
tp4390
a(g4052
(S't\x06\x00\x00\x00Videos'
tRp4391
I00
S'http://www.web2py.com/examples/default/videos/'
p4392
tp4393
a(g4052
(S's\x11\x00\x00\x00Free Applications'
tRp4394
I00
S'http://web2py.com/appliances'
p4395
tp4396
a(g4052
(S't\x07\x00\x00\x00Plugins'
tRp4397
I00
S'http://web2py.com/plugins'
p4398
tp4399
a(g4052
(S't\x07\x00\x00\x00Layouts'
tRp4400
I00
S'http://web2py.com/layouts'
p4401
tp4402
a(g4052
(S't\x07\x00\x00\x00Recipes'
tRp4403
I00
S'http://web2pyslices.com/'
p4404
tp4405
a(g4052
(S't\x08\x00\x00\x00Semantic'
tRp4406
I00
S'http://web2py.com/semantic'
p4407
tp4408
aasbasbasbasbasbasbasbag57
(g73
g59
NtRp4409
(dp4410
g62
(dp4411
sg71
g4166
sg64
(lp4412
g57
(g78
g59
NtRp4413
(dp4414
g62
(dp4415
sg71
g4409
sg64
(lp4416
g57
(g58
g59
NtRp4417
(dp4418
g62
(dp4419
g70
I2
ssg71
g4413
sg64
(lp4420
g57
(g66
g59
NtRp4421
(dp4422
g62
(dp4423
g70
I1
ssg71
Nsg64
(lp4424
g57
(g73
g59
NtRp4425
(dp4426
g62
(dp4427
sg71
g4421
sg64
(lp4428
g57
(g78
g59
NtRp4429
(dp4430
g62
(dp4431
sg71
g4425
sg64
(lp4432
g57
(g58
g59
NtRp4433
(dp4434
g62
(dp4435
g70
I1
ssg71
g4429
sg64
(lp4436
g4052
(S't\r\x00\x00\x00Documentation'
tRp4437
asbasbasbag57
(g73
g59
NtRp4438
(dp4439
g62
(dp4440
sg71
g4421
sg64
(lp4441
g57
(g78
g59
NtRp4442
(dp4443
g62
(dp4444
sg71
g4438
sg64
(lp4445
g57
(g58
g59
NtRp4446
(dp4447
g62
(dp4448
g70
I1
ssg71
g4442
sg64
(lp4449
I00
asbasbasbag57
(g73
g59
NtRp4450
(dp4451
g62
(dp4452
sg71
g4421
sg64
(lp4453
g57
(g78
g59
NtRp4454
(dp4455
g62
(dp4456
sg71
g4450
sg64
(lp4457
g57
(g58
g59
NtRp4458
(dp4459
g62
(dp4460
g70
I1
ssg71
g4454
sg64
(lp4461
S'http://www.web2py.com/book'
p4462
asbasbasbag57
(g73
g59
NtRp4463
(dp4464
g62
(dp4465
sg71
g4421
sg64
(lp4466
g57
(g78
g59
NtRp4467
(dp4468
g62
(dp4469
sg71
g4463
sg64
(lp4470
g57
(g58
g59
NtRp4471
(dp4472
g62
(dp4473
g70
I1
ssg71
g4467
sg64
(lp4474
(lp4475
(g4052
(S't\x07\x00\x00\x00Preface'
tRp4476
I00
S'http://www.web2py.com/book/default/chapter/00'
p4477
tp4478
a(g4052
(S't\x0c\x00\x00\x00Introduction'
tRp4479
I00
S'http://www.web2py.com/book/default/chapter/01'
p4480
tp4481
a(g4052
(S't\x06\x00\x00\x00Python'
tRp4482
I00
S'http://www.web2py.com/book/default/chapter/02'
p4483
tp4484
a(g4052
(S't\x08\x00\x00\x00Overview'
tRp4485
I00
S'http://www.web2py.com/book/default/chapter/03'
p4486
tp4487
a(g4052
(S's\x08\x00\x00\x00The Core'
tRp4488
I00
S'http://www.web2py.com/book/default/chapter/04'
p4489
tp4490
a(g4052
(S's\t\x00\x00\x00The Views'
tRp4491
I00
S'http://www.web2py.com/book/default/chapter/05'
p4492
tp4493
a(g4052
(S't\x08\x00\x00\x00Database'
tRp4494
I00
S'http://www.web2py.com/book/default/chapter/06'
p4495
tp4496
a(g4052
(S's\x14\x00\x00\x00Forms and Validators'
tRp4497
I00
S'http://www.web2py.com/book/default/chapter/07'
p4498
tp4499
a(g4052
(S's\r\x00\x00\x00Email and SMS'
tRp4500
I00
S'http://www.web2py.com/book/default/chapter/08'
p4501
tp4502
a(g4052
(S's\x0e\x00\x00\x00Access Control'
tRp4503
I00
S'http://www.web2py.com/book/default/chapter/09'
p4504
tp4505
a(g4052
(S't\x08\x00\x00\x00Services'
tRp4506
I00
S'http://www.web2py.com/book/default/chapter/10'
p4507
tp4508
a(g4052
(S's\x0c\x00\x00\x00Ajax Recipes'
tRp4509
I00
S'http://www.web2py.com/book/default/chapter/11'
p4510
tp4511
a(g4052
(S's\x16\x00\x00\x00Components and Plugins'
tRp4512
I00
S'http://www.web2py.com/book/default/chapter/12'
p4513
tp4514
a(g4052
(S's\x12\x00\x00\x00Deployment Recipes'
tRp4515
I00
S'http://www.web2py.com/book/default/chapter/13'
p4516
tp4517
a(g4052
(S's\r\x00\x00\x00Other Recipes'
tRp4518
I00
S'http://www.web2py.com/book/default/chapter/14'
p4519
tp4520
a(g4052
(S's\r\x00\x00\x00Buy this book'
tRp4521
I00
S'http://stores.lulu.com/web2py'
p4522
tp4523
aasbasbasbasbasbasbasbag57
(g73
g59
NtRp4524
(dp4525
g62
(dp4526
sg71
g4166
sg64
(lp4527
g57
(g78
g59
NtRp4528
(dp4529
g62
(dp4530
sg71
g4524
sg64
(lp4531
g57
(g58
g59
NtRp4532
(dp4533
g62
(dp4534
g70
I2
ssg71
g4528
sg64
(lp4535
g57
(g66
g59
NtRp4536
(dp4537
g62
(dp4538
g70
I1
ssg71
Nsg64
(lp4539
g57
(g73
g59
NtRp4540
(dp4541
g62
(dp4542
sg71
g4536
sg64
(lp4543
g57
(g78
g59
NtRp4544
(dp4545
g62
(dp4546
sg71
g4540
sg64
(lp4547
g57
(g58
g59
NtRp4548
(dp4549
g62
(dp4550
g70
I1
ssg71
g4544
sg64
(lp4551
g4052
(S't\t\x00\x00\x00Community'
tRp4552
asbasbasbag57
(g73
g59
NtRp4553
(dp4554
g62
(dp4555
sg71
g4536
sg64
(lp4556
g57
(g78
g59
NtRp4557
(dp4558
g62
(dp4559
sg71
g4553
sg64
(lp4560
g57
(g58
g59
NtRp4561
(dp4562
g62
(dp4563
g70
I1
ssg71
g4557
sg64
(lp4564
I00
asbasbasbag57
(g73
g59
NtRp4565
(dp4566
g62
(dp4567
sg71
g4536
sg64
(lp4568
g57
(g78
g59
NtRp4569
(dp4570
g62
(dp4571
sg71
g4565
sg64
(lp4572
g57
(g58
g59
NtRp4573
(dp4574
g62
(dp4575
g70
I1
ssg71
g4569
sg64
(lp4576
Nasbasbasbag57
(g73
g59
NtRp4577
(dp4578
g62
(dp4579
sg71
g4536
sg64
(lp4580
g57
(g78
g59
NtRp4581
(dp4582
g62
(dp4583
sg71
g4577
sg64
(lp4584
g57
(g58
g59
NtRp4585
(dp4586
g62
(dp4587
g70
I1
ssg71
g4581
sg64
(lp4588
(lp4589
(g4052
(S't\x06\x00\x00\x00Groups'
tRp4590
I00
S'http://www.web2py.com/examples/default/usergroups'
p4591
tp4592
a(g4052
(S't\x07\x00\x00\x00Twitter'
tRp4593
I00
S'http://twitter.com/web2py'
p4594
tp4595
a(g4052
(S's\t\x00\x00\x00Live Chat'
tRp4596
I00
S'http://webchat.freenode.net/?channels=web2py'
p4597
tp4598
aasbasbasbasbasbasbasbag57
(g73
g59
NtRp4599
(dp4600
g62
(dp4601
sg71
g4166
sg64
(lp4602
g57
(g78
g59
NtRp4603
(dp4604
g62
(dp4605
sg71
g4599
sg64
(lp4606
g57
(g58
g59
NtRp4607
(dp4608
g62
(dp4609
g70
I2
ssg71
g4603
sg64
(lp4610
g57
(g66
g59
NtRp4611
(dp4612
g62
(dp4613
g70
I1
ssg71
Nsg64
(lp4614
g57
(g73
g59
NtRp4615
(dp4616
g62
(dp4617
sg71
g4611
sg64
(lp4618
g57
(g78
g59
NtRp4619
(dp4620
g62
(dp4621
sg71
g4615
sg64
(lp4622
g57
(g58
g59
NtRp4623
(dp4624
g62
(dp4625
g70
I1
ssg71
g4619
sg64
(lp4626
g4052
(S't\x07\x00\x00\x00Plugins'
tRp4627
asbasbasbag57
(g73
g59
NtRp4628
(dp4629
g62
(dp4630
sg71
g4611
sg64
(lp4631
g57
(g78
g59
NtRp4632
(dp4633
g62
(dp4634
sg71
g4628
sg64
(lp4635
g57
(g58
g59
NtRp4636
(dp4637
g62
(dp4638
g70
I1
ssg71
g4632
sg64
(lp4639
I00
asbasbasbag57
(g73
g59
NtRp4640
(dp4641
g62
(dp4642
sg71
g4611
sg64
(lp4643
g57
(g78
g59
NtRp4644
(dp4645
g62
(dp4646
sg71
g4640
sg64
(lp4647
g57
(g58
g59
NtRp4648
(dp4649
g62
(dp4650
g70
I1
ssg71
g4644
sg64
(lp4651
Nasbasbasbag57
(g73
g59
NtRp4652
(dp4653
g62
(dp4654
sg71
g4611
sg64
(lp4655
g57
(g78
g59
NtRp4656
(dp4657
g62
(dp4658
sg71
g4652
sg64
(lp4659
g57
(g58
g59
NtRp4660
(dp4661
g62
(dp4662
g70
I1
ssg71
g4656
sg64
(lp4663
(lp4664
(S'plugin_wiki'
p4665
I00
S'http://web2py.com/examples/default/download'
p4666
tp4667
a(g4052
(S's\r\x00\x00\x00Other Plugins'
tRp4668
I00
g4398
tp4669
a(g4052
(S's\x0e\x00\x00\x00Layout Plugins'
tRp4670
I00
g4401
tp4671
aasbasbasbasbasbasbasbasbasbasbasbasbasbasbasbasbasbasbasbag57
(g73
g59
NtRp4672
(dp4673
g62
(dp4674
sg71
g3496
sg64
(lp4675
g57
(g78
g59
NtRp4676
(dp4677
g62
(dp4678
g82
g83
ssg71
g4672
sg64
(lp4679
S'meta'
p4680
asbag57
(g78
g59
NtRp4681
(dp4682
g62
(dp4683
g89
g90
ssg71
g4672
sg64
(lp4684
S':'
asbag57
(g78
g59
NtRp4685
(dp4686
g62
(dp4687
sg71
g4672
sg64
(lp4688
g57
(g58
g59
NtRp4689
(dp4690
g62
(dp4691
g70
I5
ssg71
g4685
sg64
(lp4692
g57
(g66
g59
NtRp4693
(dp4694
g62
(dp4695
g70
I4
ssg71
Nsg64
(lp4696
g57
(g73
g59
NtRp4697
(dp4698
g62
(dp4699
sg71
g4693
sg64
(lp4700
g57
(g78
g59
NtRp4701
(dp4702
g62
(dp4703
g82
g83
ssg71
g4697
sg64
(lp4704
S'author'
p4705
asbag57
(g78
g59
NtRp4706
(dp4707
g62
(dp4708
g89
g90
ssg71
g4697
sg64
(lp4709
S':'
asbag57
(g78
g59
NtRp4710
(dp4711
g62
(dp4712
sg71
g4697
sg64
(lp4713
g57
(g58
g59
NtRp4714
(dp4715
g62
(dp4716
g70
I4
ssg71
g4710
sg64
(lp4717
S'Your Name <you@example.com>'
p4718
asbasbasbag57
(g73
g59
NtRp4719
(dp4720
g62
(dp4721
sg71
g4693
sg64
(lp4722
g57
(g78
g59
NtRp4723
(dp4724
g62
(dp4725
g82
g83
ssg71
g4719
sg64
(lp4726
S'copyright'
p4727
asbag57
(g78
g59
NtRp4728
(dp4729
g62
(dp4730
g89
g90
ssg71
g4719
sg64
(lp4731
S':'
asbag57
(g78
g59
NtRp4732
(dp4733
g62
(dp4734
sg71
g4719
sg64
(lp4735
g57
(g58
g59
NtRp4736
(dp4737
g62
(dp4738
g70
I4
ssg71
g4732
sg64
(lp4739
S'Copyright 2011'
p4740
asbasbasbag57
(g73
g59
NtRp4741
(dp4742
g62
(dp4743
sg71
g4693
sg64
(lp4744
g57
(g78
g59
NtRp4745
(dp4746
g62
(dp4747
g82
g83
ssg71
g4741
sg64
(lp4748
S'description'
p4749
asbag57
(g78
g59
NtRp4750
(dp4751
g62
(dp4752
g89
g90
ssg71
g4741
sg64
(lp4753
S':'
asbag57
(g78
g59
NtRp4754
(dp4755
g62
(dp4756
sg71
g4741
sg64
(lp4757
g57
(g58
g59
NtRp4758
(dp4759
g62
(dp4760
g70
I4
ssg71
g4754
sg64
(lp4761
S'a cool new app'
p4762
asbasbasbag57
(g73
g59
NtRp4763
(dp4764
g62
(dp4765
sg71
g4693
sg64
(lp4766
g57
(g78
g59
NtRp4767
(dp4768
g62
(dp4769
g82
g83
ssg71
g4763
sg64
(lp4770
S'generator'
p4771
asbag57
(g78
g59
NtRp4772
(dp4773
g62
(dp4774
g89
g90
ssg71
g4763
sg64
(lp4775
S':'
asbag57
(g78
g59
NtRp4776
(dp4777
g62
(dp4778
sg71
g4763
sg64
(lp4779
g57
(g58
g59
NtRp4780
(dp4781
g62
(dp4782
g70
I4
ssg71
g4776
sg64
(lp4783
S'Web2py Web Framework'
p4784
asbasbasbag57
(g73
g59
NtRp4785
(dp4786
g62
(dp4787
sg71
g4693
sg64
(lp4788
g57
(g78
g59
NtRp4789
(dp4790
g62
(dp4791
g82
g83
ssg71
g4785
sg64
(lp4792
S'keywords'
p4793
asbag57
(g78
g59
NtRp4794
(dp4795
g62
(dp4796
g89
g90
ssg71
g4785
sg64
(lp4797
S':'
asbag57
(g78
g59
NtRp4798
(dp4799
g62
(dp4800
sg71
g4785
sg64
(lp4801
g57
(g58
g59
NtRp4802
(dp4803
g62
(dp4804
g70
I4
ssg71
g4798
sg64
(lp4805
S'web2py, python, framework'
p4806
asbasbasbasbasbasbasbag57
(g73
g59
NtRp4807
(dp4808
g62
(dp4809
sg71
g3496
sg64
(lp4810
g57
(g78
g59
NtRp4811
(dp4812
g62
(dp4813
g82
g83
ssg71
g4807
sg64
(lp4814
S'postprocessing'
p4815
asbag57
(g78
g59
NtRp4816
(dp4817
g62
(dp4818
g89
g90
ssg71
g4807
sg64
(lp4819
S':'
asbag57
(g78
g59
NtRp4820
(dp4821
g62
(dp4822
sg71
g4807
sg64
(lp4823
g57
(g58
g59
NtRp4824
(dp4825
g62
(dp4826
g70
I5
ssg71
g4820
sg64
(lp4827
g57
(g66
g59
NtRp4828
(dp4829
g62
(dp4830
g70
I4
ssg71
Nsg64
(lp4831
sbasbasbasbag57
(g73
g59
NtRp4832
(dp4833
g62
(dp4834
sg71
g3496
sg64
(lp4835
g57
(g78
g59
NtRp4836
(dp4837
g62
(dp4838
g82
g83
ssg71
g4832
sg64
(lp4839
S'session_file'
p4840
asbag57
(g78
g59
NtRp4841
(dp4842
g62
(dp4843
g89
g90
ssg71
g4832
sg64
(lp4844
S':'
asbag57
(g78
g59
NtRp4845
(dp4846
g62
(dp4847
sg71
g4832
sg64
(lp4848
g57
(g58
g59
NtRp4849
(dp4850
g62
(dp4851
g70
I5
ssg71
g4845
sg64
(lp4852
S"<open file '/home/arpita/courses/sem3/ssad/web2py/applications/project/sessions/127.0.0.1-70b1e447-fab4-4ce7-b92c-36d8158ff7e8', mode 'rb+' at 0x9e2cf40>"
p4853
asbasbasbag57
(g73
g59
NtRp4854
(dp4855
g62
(dp4856
sg71
g3496
sg64
(lp4857
g57
(g78
g59
NtRp4858
(dp4859
g62
(dp4860
g82
g83
ssg71
g4854
sg64
(lp4861
S'session_filename'
p4862
asbag57
(g78
g59
NtRp4863
(dp4864
g62
(dp4865
g89
g90
ssg71
g4854
sg64
(lp4866
S':'
asbag57
(g78
g59
NtRp4867
(dp4868
g62
(dp4869
sg71
g4854
sg64
(lp4870
g57
(g58
g59
NtRp4871
(dp4872
g62
(dp4873
g70
I5
ssg71
g4867
sg64
(lp4874
S'/home/arpita/courses/sem3/ssad/web2py/applications/project/sessions/127.0.0.1-70b1e447-fab4-4ce7-b92c-36d8158ff7e8'
p4875
asbasbasbag57
(g73
g59
NtRp4876
(dp4877
g62
(dp4878
sg71
g3496
sg64
(lp4879
g57
(g78
g59
NtRp4880
(dp4881
g62
(dp4882
g82
g83
ssg71
g4876
sg64
(lp4883
S'session_id'
p4884
asbag57
(g78
g59
NtRp4885
(dp4886
g62
(dp4887
g89
g90
ssg71
g4876
sg64
(lp4888
S':'
asbag57
(g78
g59
NtRp4889
(dp4890
g62
(dp4891
sg71
g4876
sg64
(lp4892
g57
(g58
g59
NtRp4893
(dp4894
g62
(dp4895
g70
I5
ssg71
g4889
sg64
(lp4896
S'127.0.0.1-70b1e447-fab4-4ce7-b92c-36d8158ff7e8'
p4897
asbasbasbag57
(g73
g59
NtRp4898
(dp4899
g62
(dp4900
sg71
g3496
sg64
(lp4901
g57
(g78
g59
NtRp4902
(dp4903
g62
(dp4904
g82
g83
ssg71
g4898
sg64
(lp4905
S'session_id_name'
p4906
asbag57
(g78
g59
NtRp4907
(dp4908
g62
(dp4909
g89
g90
ssg71
g4898
sg64
(lp4910
S':'
asbag57
(g78
g59
NtRp4911
(dp4912
g62
(dp4913
sg71
g4898
sg64
(lp4914
g57
(g58
g59
NtRp4915
(dp4916
g62
(dp4917
g70
I5
ssg71
g4911
sg64
(lp4918
g3553
asbasbasbag57
(g73
g59
NtRp4919
(dp4920
g62
(dp4921
sg71
g3496
sg64
(lp4922
g57
(g78
g59
NtRp4923
(dp4924
g62
(dp4925
g82
g83
ssg71
g4919
sg64
(lp4926
S'session_locked'
p4927
asbag57
(g78
g59
NtRp4928
(dp4929
g62
(dp4930
g89
g90
ssg71
g4919
sg64
(lp4931
S':'
asbag57
(g78
g59
NtRp4932
(dp4933
g62
(dp4934
sg71
g4919
sg64
(lp4935
g57
(g58
g59
NtRp4936
(dp4937
g62
(dp4938
g70
I5
ssg71
g4932
sg64
(lp4939
g1678
asbasbasbag57
(g73
g59
NtRp4940
(dp4941
g62
(dp4942
sg71
g3496
sg64
(lp4943
g57
(g78
g59
NtRp4944
(dp4945
g62
(dp4946
g82
g83
ssg71
g4940
sg64
(lp4947
S'session_new'
p4948
asbag57
(g78
g59
NtRp4949
(dp4950
g62
(dp4951
g89
g90
ssg71
g4940
sg64
(lp4952
S':'
asbag57
(g78
g59
NtRp4953
(dp4954
g62
(dp4955
sg71
g4940
sg64
(lp4956
g57
(g58
g59
NtRp4957
(dp4958
g62
(dp4959
g70
I5
ssg71
g4953
sg64
(lp4960
g100
asbasbasbag57
(g73
g59
NtRp4961
(dp4962
g62
(dp4963
sg71
g3496
sg64
(lp4964
g57
(g78
g59
NtRp4965
(dp4966
g62
(dp4967
g82
g83
ssg71
g4961
sg64
(lp4968
S'status'
p4969
asbag57
(g78
g59
NtRp4970
(dp4971
g62
(dp4972
g89
g90
ssg71
g4961
sg64
(lp4973
S':'
asbag57
(g78
g59
NtRp4974
(dp4975
g62
(dp4976
sg71
g4961
sg64
(lp4977
g57
(g58
g59
NtRp4978
(dp4979
g62
(dp4980
g70
I5
ssg71
g4974
sg64
(lp4981
S'200'
p4982
asbasbasbag57
(g73
g59
NtRp4983
(dp4984
g62
(dp4985
sg71
g3496
sg64
(lp4986
g57
(g78
g59
NtRp4987
(dp4988
g62
(dp4989
g82
g83
ssg71
g4983
sg64
(lp4990
S'subtitle'
p4991
asbag57
(g78
g59
NtRp4992
(dp4993
g62
(dp4994
g89
g90
ssg71
g4983
sg64
(lp4995
S':'
asbag57
(g78
g59
NtRp4996
(dp4997
g62
(dp4998
sg71
g4983
sg64
(lp4999
g57
(g58
g59
NtRp5000
(dp5001
g62
(dp5002
g70
I5
ssg71
g4996
sg64
(lp5003
g4052
(S's\r\x00\x00\x00customize me!'
tRp5004
asbasbasbag57
(g73
g59
NtRp5005
(dp5006
g62
(dp5007
sg71
g3496
sg64
(lp5008
g57
(g78
g59
NtRp5009
(dp5010
g62
(dp5011
g82
g83
ssg71
g5005
sg64
(lp5012
S'title'
p5013
asbag57
(g78
g59
NtRp5014
(dp5015
g62
(dp5016
g89
g90
ssg71
g5005
sg64
(lp5017
S':'
asbag57
(g78
g59
NtRp5018
(dp5019
g62
(dp5020
sg71
g5005
sg64
(lp5021
g57
(g58
g59
NtRp5022
(dp5023
g62
(dp5024
g70
I5
ssg71
g5018
sg64
(lp5025
S'Project'
p5026
asbasbasbag57
(g73
g59
NtRp5027
(dp5028
g62
(dp5029
sg71
g3496
sg64
(lp5030
g57
(g78
g59
NtRp5031
(dp5032
g62
(dp5033
g82
g83
ssg71
g5027
sg64
(lp5034
g2342
asbag57
(g78
g59
NtRp5035
(dp5036
g62
(dp5037
g89
g90
ssg71
g5027
sg64
(lp5038
S':'
asbag57
(g78
g59
NtRp5039
(dp5040
g62
(dp5041
sg71
g5027
sg64
(lp5042
g57
(g58
g59
NtRp5043
(dp5044
g62
(dp5045
g70
I5
ssg71
g5039
sg64
(lp5046
g2355
asbasbasbag57
(g73
g59
NtRp5047
(dp5048
g62
(dp5049
sg71
g3496
sg64
(lp5050
g57
(g78
g59
NtRp5051
(dp5052
g62
(dp5053
g82
g83
ssg71
g5047
sg64
(lp5054
S'view'
p5055
asbag57
(g78
g59
NtRp5056
(dp5057
g62
(dp5058
g89
g90
ssg71
g5047
sg64
(lp5059
S':'
asbag57
(g78
g59
NtRp5060
(dp5061
g62
(dp5062
sg71
g5047
sg64
(lp5063
g57
(g58
g59
NtRp5064
(dp5065
g62
(dp5066
g70
I5
ssg71
g5060
sg64
(lp5067
S'default/kruskal.html'
p5068
asbasbasbasbasbsS'locals'
p5069
(dp5070
S'i'
S'7'
sS'k'
S'7'
sS'q'
S'{0: 2, 1: 3, 2: 4, 3: 8, 4: 6, 5: 9, 6: 1, 7: 5}'
p5071
sS'p'
S'{0: 1, 1: 1, 2: 1, 3: 1, 4: 2, 5: 4, 6: 5, 7: 7}'
p5072
sS't'
S'8'
sg3004
S"<open file 'applications/project/controllers/abc.txt', mode 'a'>"
p5073
sssS'traceback'
p5074
S'Traceback (most recent call last):\n  File "/home/arpita/courses/sem3/ssad/web2py/gluon/restricted.py", line 205, in restricted\n    exec ccode in environment\n  File "/home/arpita/courses/sem3/ssad/web2py/applications/project/controllers/default.py", line 183, in <module>\n  File "/home/arpita/courses/sem3/ssad/web2py/gluon/globals.py", line 173, in <lambda>\n    self._caller = lambda f: f()\n  File "/home/arpita/courses/sem3/ssad/web2py/applications/project/controllers/default.py", line 148, in kruskal\n    fil(p,q,p[i],k)\n  File "/home/arpita/courses/sem3/ssad/web2py/applications/project/controllers/default.py", line 179, in fil\n    v[i]=1\nIndexError: list assignment index out of range\n'
p5075
s.